
stage1.elf:     file format elf32-littlenios2
stage1.elf
architecture: nios2, flags 0x00000112:
EXEC_P, HAS_SYMS, D_PAGED
start address 0x00020020

Program Header:
    LOAD off    0x00001000 vaddr 0x00020000 paddr 0x00020000 align 2**12
         filesz 0x00000020 memsz 0x00000020 flags r-x
    LOAD off    0x00001020 vaddr 0x00020020 paddr 0x00020020 align 2**12
         filesz 0x00015100 memsz 0x00015100 flags r-x
    LOAD off    0x00016120 vaddr 0x00035120 paddr 0x00035c34 align 2**12
         filesz 0x00000b14 memsz 0x00000b14 flags rw-
    LOAD off    0x00017748 vaddr 0x00036748 paddr 0x00036748 align 2**12
         filesz 0x00000000 memsz 0x00002068 flags rw-

Sections:
Idx Name          Size      VMA       LMA       File off  Algn
  0 .entry        00000020  00020000  00020000  00001000  2**5
                  CONTENTS, ALLOC, LOAD, READONLY, CODE
  1 .text         00014124  00020020  00020020  00001020  2**2
                  CONTENTS, ALLOC, LOAD, READONLY, CODE
  2 .rodata       00000fdc  00034144  00034144  00015144  2**2
                  CONTENTS, ALLOC, LOAD, READONLY, DATA
  3 .rwdata       00000b14  00035120  00035c34  00016120  2**2
                  CONTENTS, ALLOC, LOAD, DATA, SMALL_DATA
  4 .bss          00002068  00036748  00036748  00017748  2**2
                  ALLOC, SMALL_DATA
  5 .comment      00000023  00000000  00000000  00016c34  2**0
                  CONTENTS, READONLY
  6 .debug_aranges 00001248  00000000  00000000  00016c58  2**3
                  CONTENTS, READONLY, DEBUGGING
  7 .debug_info   00036716  00000000  00000000  00017ea0  2**0
                  CONTENTS, READONLY, DEBUGGING
  8 .debug_abbrev 0000d7ed  00000000  00000000  0004e5b6  2**0
                  CONTENTS, READONLY, DEBUGGING
  9 .debug_line   0000f216  00000000  00000000  0005bda3  2**0
                  CONTENTS, READONLY, DEBUGGING
 10 .debug_frame  000021e4  00000000  00000000  0006afbc  2**2
                  CONTENTS, READONLY, DEBUGGING
 11 .debug_str    00003c82  00000000  00000000  0006d1a0  2**0
                  CONTENTS, READONLY, DEBUGGING
 12 .debug_loc    000199e9  00000000  00000000  00070e22  2**0
                  CONTENTS, READONLY, DEBUGGING
 13 .debug_alt_sim_info 00000010  00000000  00000000  0008a80c  2**2
                  CONTENTS, READONLY, DEBUGGING
 14 .debug_ranges 00000e50  00000000  00000000  0008a820  2**3
                  CONTENTS, READONLY, DEBUGGING
 15 .thread_model 00000003  00000000  00000000  0008f30f  2**0
                  CONTENTS, READONLY
 16 .cpu          00000005  00000000  00000000  0008f312  2**0
                  CONTENTS, READONLY
 17 .qsys         00000001  00000000  00000000  0008f317  2**0
                  CONTENTS, READONLY
 18 .simulation_enabled 00000001  00000000  00000000  0008f318  2**0
                  CONTENTS, READONLY
 19 .sysid_hash   00000004  00000000  00000000  0008f319  2**0
                  CONTENTS, READONLY
 20 .sysid_base   00000004  00000000  00000000  0008f31d  2**0
                  CONTENTS, READONLY
 21 .sysid_time   00000004  00000000  00000000  0008f321  2**0
                  CONTENTS, READONLY
 22 .stderr_dev   0000000b  00000000  00000000  0008f325  2**0
                  CONTENTS, READONLY
 23 .stdin_dev    0000000b  00000000  00000000  0008f330  2**0
                  CONTENTS, READONLY
 24 .stdout_dev   0000000b  00000000  00000000  0008f33b  2**0
                  CONTENTS, READONLY
 25 .sopc_system_name 00000005  00000000  00000000  0008f346  2**0
                  CONTENTS, READONLY
 26 .quartus_project_dir 0000001b  00000000  00000000  0008f34b  2**0
                  CONTENTS, READONLY
 27 .sopcinfo     0019b36b  00000000  00000000  0008f366  2**0
                  CONTENTS, READONLY
SYMBOL TABLE:
00020000 l    d  .entry	00000000 .entry
00020020 l    d  .text	00000000 .text
00034144 l    d  .rodata	00000000 .rodata
00035120 l    d  .rwdata	00000000 .rwdata
00036748 l    d  .bss	00000000 .bss
00000000 l    d  .comment	00000000 .comment
00000000 l    d  .debug_aranges	00000000 .debug_aranges
00000000 l    d  .debug_info	00000000 .debug_info
00000000 l    d  .debug_abbrev	00000000 .debug_abbrev
00000000 l    d  .debug_line	00000000 .debug_line
00000000 l    d  .debug_frame	00000000 .debug_frame
00000000 l    d  .debug_str	00000000 .debug_str
00000000 l    d  .debug_loc	00000000 .debug_loc
00000000 l    d  .debug_alt_sim_info	00000000 .debug_alt_sim_info
00000000 l    d  .debug_ranges	00000000 .debug_ranges
00000000 l    df *ABS*	00000000 ../stage1_bsp//obj/HAL/src/crt0.o
00020058 l       .text	00000000 alt_after_alt_main
00000000 l    df *ABS*	00000000 encoder.c
00000000 l    df *ABS*	00000000 huffdata.c
00000000 l    df *ABS*	00000000 huffman.c
00020630 l     F .text	00000074 get_vli_size
00000000 l    df *ABS*	00000000 main.c
00000000 l    df *ABS*	00000000 fifo_io.c
00000000 l    df *ABS*	00000000 readYUV.c
000220cc l     F .text	0000004c clamp
00000000 l    df *ABS*	00000000 libgcc2.c
00000000 l    df *ABS*	00000000 fp-bit.c
00022408 l     F .text	000001f4 _fpadd_parts
00000000 l    df *ABS*	00000000 fp-bit.c
00000000 l    df *ABS*	00000000 fp-bit.c
00000000 l    df *ABS*	00000000 fp-bit.c
00000000 l    df *ABS*	00000000 fp-bit.c
00000000 l    df *ABS*	00000000 fp-bit.c
00000000 l    df *ABS*	00000000 fp-bit.c
00000000 l    df *ABS*	00000000 fp-bit.c
00000000 l    df *ABS*	00000000 lib2-divmod.c
00022be4 l     F .text	00000074 udivmodsi4
00000000 l    df *ABS*	00000000 lib2-mul.c
00000000 l    df *ABS*	00000000 libgcc2.c
00000000 l    df *ABS*	00000000 libgcc2.c
00000000 l    df *ABS*	00000000 fp-bit.c
00000000 l    df *ABS*	00000000 fp-bit.c
00000000 l    df *ABS*	00000000 fp-bit.c
00000000 l    df *ABS*	00000000 libgcc2.c
00000000 l    df *ABS*	00000000 fclose.c
00000000 l    df *ABS*	00000000 fflush.c
00000000 l    df *ABS*	00000000 findfp.c
00023510 l     F .text	00000008 __fp_lock
00023518 l     F .text	00000008 __fp_unlock
00000000 l    df *ABS*	00000000 fopen.c
00000000 l    df *ABS*	00000000 fread.c
00000000 l    df *ABS*	00000000 mallocr.c
00000000 l    df *ABS*	00000000 fscanf.c
00000000 l    df *ABS*	00000000 fseek.c
00000000 l    df *ABS*	00000000 fstatr.c
00000000 l    df *ABS*	00000000 fwalk.c
00000000 l    df *ABS*	00000000 fwrite.c
00000000 l    df *ABS*	00000000 impure.c
00035180 l     O .rwdata	00000400 impure_data
00000000 l    df *ABS*	00000000 int_errno.c
00000000 l    df *ABS*	00000000 makebuf.c
00000000 l    df *ABS*	00000000 mallocr.c
00000000 l    df *ABS*	00000000 memcpy.c
00000000 l    df *ABS*	00000000 memset.c
00000000 l    df *ABS*	00000000 openr.c
00000000 l    df *ABS*	00000000 printf.c
00000000 l    df *ABS*	00000000 puts.c
00000000 l    df *ABS*	00000000 refill.c
00025430 l     F .text	0000001c lflush
00000000 l    df *ABS*	00000000 rewind.c
00000000 l    df *ABS*	00000000 sbrkr.c
00000000 l    df *ABS*	00000000 stdio.c
00000000 l    df *ABS*	00000000 strlen.c
00000000 l    df *ABS*	00000000 vfprintf.c
000258b4 l     F .text	00000034 __sprint_r
00034c36 l     O .rodata	00000010 blanks.3515
00034c46 l     O .rodata	00000010 zeroes.3516
00000000 l    df *ABS*	00000000 vfscanf.c
00034c5e l     O .rodata	00000022 basefix.3427
00000000 l    df *ABS*	00000000 writer.c
00000000 l    df *ABS*	00000000 wsetup.c
00000000 l    df *ABS*	00000000 closer.c
00000000 l    df *ABS*	00000000 ctype_.c
00034d81 l     O .rodata	00000180 _ctype_b
00000000 l    df *ABS*	00000000 dtoa.c
00029154 l     F .text	0000023c quorem
00000000 l    df *ABS*	00000000 flags.c
00000000 l    df *ABS*	00000000 fvwrite.c
00000000 l    df *ABS*	00000000 isattyr.c
00000000 l    df *ABS*	00000000 iswspace.c
00000000 l    df *ABS*	00000000 locale.c
00034f24 l     O .rodata	00000030 lconv
00000000 l    df *ABS*	00000000 lseekr.c
00000000 l    df *ABS*	00000000 mbrtowc.c
00000000 l    df *ABS*	00000000 mbtowc_r.c
00000000 l    df *ABS*	00000000 memchr.c
00000000 l    df *ABS*	00000000 memmove.c
00000000 l    df *ABS*	00000000 mprec.c
0003506c l     O .rodata	0000000c p05.2435
00000000 l    df *ABS*	00000000 readr.c
00000000 l    df *ABS*	00000000 mallocr.c
00000000 l    df *ABS*	00000000 s_isinfd.c
00000000 l    df *ABS*	00000000 s_isnand.c
00000000 l    df *ABS*	00000000 sccl.c
00000000 l    df *ABS*	00000000 sf_nan.c
00000000 l    df *ABS*	00000000 sprintf.c
00000000 l    df *ABS*	00000000 strcmp.c
00000000 l    df *ABS*	00000000 strtod.c
00035994 l     O .rwdata	00000014 fpi.2015
00035088 l     O .rodata	00000028 tinytens
000359a8 l     O .rwdata	00000014 fpinan.2051
00000000 l    df *ABS*	00000000 strtol.c
00000000 l    df *ABS*	00000000 strtoll_r.c
00000000 l    df *ABS*	00000000 strtoul.c
00000000 l    df *ABS*	00000000 strtoull_r.c
00000000 l    df *ABS*	00000000 ungetc.c
00000000 l    df *ABS*	00000000 mallocr.c
00000000 l    df *ABS*	00000000 gdtoa-gethex.c
0002f3e8 l     F .text	00000110 rshift
00000000 l    df *ABS*	00000000 gdtoa-hexnan.c
00000000 l    df *ABS*	00000000 libgcc2.c
00000000 l    df *ABS*	00000000 libgcc2.c
00000000 l    df *ABS*	00000000 libgcc2.c
00000000 l    df *ABS*	00000000 fp-bit.c
00000000 l    df *ABS*	00000000 fp-bit.c
00000000 l    df *ABS*	00000000 fp-bit.c
00000000 l    df *ABS*	00000000 fp-bit.c
00030d8c l     F .text	00000354 _fpadd_parts
00000000 l    df *ABS*	00000000 fp-bit.c
00000000 l    df *ABS*	00000000 fp-bit.c
00000000 l    df *ABS*	00000000 fp-bit.c
00000000 l    df *ABS*	00000000 fp-bit.c
00000000 l    df *ABS*	00000000 fp-bit.c
00000000 l    df *ABS*	00000000 fp-bit.c
00000000 l    df *ABS*	00000000 fp-bit.c
00000000 l    df *ABS*	00000000 fp-bit.c
00000000 l    df *ABS*	00000000 fp-bit.c
00000000 l    df *ABS*	00000000 fp-bit.c
00000000 l    df *ABS*	00000000 fp-bit.c
00000000 l    df *ABS*	00000000 fp-bit.c
00000000 l    df *ABS*	00000000 fp-bit.c
00000000 l    df *ABS*	00000000 fp-bit.c
00000000 l    df *ABS*	00000000 fp-bit.c
00000000 l    df *ABS*	00000000 fp-bit.c
00000000 l    df *ABS*	00000000 fp-bit.c
00000000 l    df *ABS*	00000000 libgcc2.c
00000000 l    df *ABS*	00000000 libgcc2.c
00000000 l    df *ABS*	00000000 alt_close.c
00032034 l     F .text	00000050 alt_get_errno
00000000 l    df *ABS*	00000000 alt_dev.c
00032150 l     F .text	0000002c alt_dev_null_write
00000000 l    df *ABS*	00000000 alt_errno.c
00000000 l    df *ABS*	00000000 alt_fstat.c
0003217c l     F .text	00000050 alt_get_errno
00000000 l    df *ABS*	00000000 alt_isatty.c
0003227c l     F .text	00000050 alt_get_errno
00000000 l    df *ABS*	00000000 alt_load.c
00032370 l     F .text	0000006c alt_load_section
00000000 l    df *ABS*	00000000 alt_lseek.c
0003245c l     F .text	00000050 alt_get_errno
00000000 l    df *ABS*	00000000 alt_main.c
00000000 l    df *ABS*	00000000 alt_malloc_lock.c
00000000 l    df *ABS*	00000000 alt_open.c
00032638 l     F .text	00000050 alt_get_errno
00032688 l     F .text	000000f0 alt_file_locked
00000000 l    df *ABS*	00000000 alt_read.c
000328d0 l     F .text	00000050 alt_get_errno
00000000 l    df *ABS*	00000000 alt_release_fd.c
00000000 l    df *ABS*	00000000 alt_sbrk.c
00035be8 l     O .rwdata	00000004 heap_end
00000000 l    df *ABS*	00000000 alt_write.c
00032b44 l     F .text	00000050 alt_get_errno
00000000 l    df *ABS*	00000000 alt_sys_init.c
00032c84 l     F .text	00000038 alt_dev_reg
00035b64 l     O .rwdata	0000002c jtag_uart_1
00035b90 l     O .rwdata	00000028 altera_hostfs
00000000 l    df *ABS*	00000000 altera_avalon_jtag_uart_fd.c
00000000 l    df *ABS*	00000000 altera_avalon_jtag_uart_read.c
00000000 l    df *ABS*	00000000 altera_avalon_jtag_uart_write.c
00000000 l    df *ABS*	00000000 altera_avalon_timer_ts.c
00000000 l    df *ABS*	00000000 altera_avalon_timer_vars.c
00000000 l    df *ABS*	00000000 altera_hostfs.c
00035c28 l     O .rwdata	00000004 hcinfo.2311
00035c1c l     O .rwdata	00000004 hcinfo.2324
00035c10 l     O .rwdata	00000004 hcinfo.2333
00035c04 l     O .rwdata	00000004 hcinfo.2346
00035bf8 l     O .rwdata	00000004 hcinfo.2359
00035bec l     O .rwdata	00000004 hcinfo.2385
00000000 l    df *ABS*	00000000 alt_dcache_flush_all.c
00000000 l    df *ABS*	00000000 alt_dev_llist_insert.c
00033738 l     F .text	00000050 alt_get_errno
00000000 l    df *ABS*	00000000 alt_do_ctors.c
00000000 l    df *ABS*	00000000 alt_do_dtors.c
00000000 l    df *ABS*	00000000 alt_find_dev.c
00000000 l    df *ABS*	00000000 alt_find_file.c
00000000 l    df *ABS*	00000000 alt_fs_reg.c
00000000 l    df *ABS*	00000000 alt_get_fd.c
00000000 l    df *ABS*	00000000 alt_icache_flush_all.c
00000000 l    df *ABS*	00000000 alt_io_redirect.c
00033bf8 l     F .text	000000e0 alt_open_fd
00000000 l    df *ABS*	00000000 altera_nios2_qsys_irq.c
00000000 l    df *ABS*	00000000 atexit.c
00000000 l    df *ABS*	00000000 exit.c
00000000 l    df *ABS*	00000000 memcmp.c
00000000 l    df *ABS*	00000000 __atexit.c
00000000 l    df *ABS*	00000000 __call_atexit.c
00000000 l    df *ABS*	00000000 alt_exit.c
00000000 l    df *ABS*	00000000 
00022040 g     F .text	0000008c fifo_write_block
0002c354 g     F .text	00000074 _mprec_log10
0002c444 g     F .text	00000084 __any_on
0002af28 g     F .text	00000064 _isatty_r
00034f54 g     O .rodata	00000028 __mprec_tinytens
00036750 g     O .bss	00000001 byte_buffer
00032580 g     F .text	00000078 alt_main
00031ff0 g     F .text	00000044 __ashldi3
00025398 g     F .text	00000084 _puts_r
0002b0a0 g     F .text	0000006c _lseek_r
00035c34 g       *ABS*	00000000 __flash_rwdata_start
0002a9ac g     F .text	00000098 __sflags
0003162c g     F .text	0000005c __eqdf2
000387b0 g       *ABS*	00000000 __alt_heap_start
0002535c g     F .text	0000003c printf
00035120 g     O .rwdata	00000018 luminance_dc_code_table
000257c4 g     F .text	0000005c __sseek
000235b4 g     F .text	0000010c __sinit
00036fb0 g     O .bss	00000040 global_scaled_q_luma
0002afc4 g     F .text	0000009c _setlocale_r
0002352c g     F .text	00000078 __sfmoreglue
0002f300 g     F .text	0000001c ungetc
00032618 g     F .text	00000020 __malloc_unlock
00021030 g     F .text	000000c4 send_output_filename_to_stage6
000330f4 g     F .text	0000016c alt_hostfs_open
0002cdc8 g     F .text	00001548 _strtod_r
00022830 g     F .text	0000013c __divsf3
00036784 g     O .bss	00000004 altera_avalon_timer_ts_freq
0002b2ec g     F .text	0000018c memmove
00036ff0 g     O .bss	00000040 global_scaled_q_chroma
000235a4 g     F .text	00000010 _cleanup
0002b478 g     F .text	000000a8 _Balloc
00022a6c g     F .text	000000a4 __fixsfsi
000316e4 g     F .text	00000064 __gtdf2
00000000  w      *UND*	00000000 __errno
00020000 g     F .entry	0000000c __reset
00020020 g       *ABS*	00000000 __flash_exceptions_start
000244c4 g     F .text	00000068 _fstat_r
00036758 g     O .bss	00000004 errno
00028e7c g     F .text	00000024 __svfscanf
00031b88 g     F .text	0000002c __make_fp
00036778 g     O .bss	00000004 alt_argv
0003dbb8 g       *ABS*	00000000 _gp
00022648 g     F .text	00000058 __subsf3
00023fd0 g     F .text	0000003c fscanf
000359e4 g     O .rwdata	00000180 alt_fd_list
0003343c g     F .text	000000b8 alt_hostfs_seek
00020000 g       *ABS*	00000000 __alt_mem_mem_1
000338e0 g     F .text	00000090 alt_find_dev
000250a8 g     F .text	00000140 memcpy
0002fd00 g     F .text	0000028c __hexnan
00023520 g     F .text	0000000c _cleanup_r
00031864 g     F .text	000000d4 __floatsidf
00033a84 g     F .text	00000084 alt_fs_reg
00033cd8 g     F .text	00000078 alt_io_redirect
000317ac g     F .text	0000005c __ltdf2
00034144 g       *ABS*	00000000 __DTOR_END__
0002541c g     F .text	00000014 puts
0002b170 g     F .text	00000040 mbrtowc
00028e30 g     F .text	0000004c _vfscanf_r
0002c2b0 g     F .text	000000a4 __ratio
000367b0 g     O .bss	00000200 chrominance_ac_code_table
000208c0 g     F .text	000003fc huffman_encode_block
00032e28 g     F .text	000000f4 altera_avalon_jtag_uart_read
00000000  w      *UND*	00000000 malloc
00025330 g     F .text	0000002c _printf_r
00022d04 g     F .text	00000008 __udivsi3
000322cc g     F .text	000000a4 isatty
0002af8c g     F .text	00000038 iswspace
00034fa4 g     O .rodata	000000c8 __mprec_tens
00021f90 g     F .text	00000030 fifo_init
0002b060 g     F .text	0000000c __locale_charset
0002ff8c g     F .text	00000084 __fixunsdfsi
00036764 g     O .bss	00000004 __malloc_top_pad
0002ecbc g     F .text	00000024 strtoul
00035bcc g     O .rwdata	00000004 __mb_cur_max
0002b06c g     F .text	0000000c _localeconv_r
0002ece0 g     F .text	00000394 _strtoull_r
0002b8a8 g     F .text	0000003c __i2b
0002aa44 g     F .text	000004e4 __sfvwrite_r
00025684 g     F .text	00000064 _sbrk_r
00022118 g     F .text	00000280 read_444_format
0002036c g     F .text	000002c4 init_chroma_ac_tables
000332cc g     F .text	000000b8 alt_hostfs_read
0002c4c8 g     F .text	0000006c _read_r
00035988 g     O .rwdata	0000000c __lc_ctype
00035be0 g     O .rwdata	00000004 alt_max_fd
00031dd8 g     F .text	00000104 __unpack_d
000231a8 g     F .text	0000013c _fclose_r
000234e0 g     F .text	00000030 fflush
00036760 g     O .bss	00000004 __malloc_max_sbrked_mem
000342a8 g     O .rodata	0000026f full_jpeg_headers_template
000310e0 g     F .text	00000054 __adddf3
0002c024 g     F .text	00000148 __b2d
00030660 g     F .text	00000628 __umoddi3
000324ac g     F .text	000000d4 lseek
00035bb8 g     O .rwdata	00000004 _global_impure_ptr
0002c534 g     F .text	000005fc _realloc_r
000387b0 g       *ABS*	00000000 __bss_end
0003851f g     O .bss	00000100 __hexdig
00030010 g     F .text	00000650 __udivdi3
00034f7c g     O .rodata	00000028 __mprec_bigtens
0002b68c g     F .text	00000104 __s2b
00031a6c g     F .text	0000011c __floatunsidf
0002bdc4 g     F .text	00000058 __mcmp
00035bc8 g     O .rwdata	00000004 __ctype_ptr
000237cc g     F .text	00000018 __fp_lock_all
0002e6c4 g     F .text	00000024 strtol
00034598 g     O .rodata	00000100 ZIGZAG
00033260 g     F .text	0000006c alt_hostfs_close
000359bc g     O .rwdata	00000028 alt_dev_null
00023024 g     F .text	000000c8 __unpack_f
0003371c g     F .text	0000001c alt_dcache_flush_all
0002b790 g     F .text	00000068 __hi0bits
00031938 g     F .text	000000d4 __fixdfsi
0002e310 g     F .text	0000001c strtod
00035c34 g       *ABS*	00000000 __ram_rwdata_end
00035bd8 g     O .rwdata	00000008 alt_dev_list
00032b94 g     F .text	000000f0 write
000330cc g     F .text	00000028 alt_timestamp_freq
00025638 g     F .text	00000038 _rewind_r
00030cdc g     F .text	0000005c __gtsf2
00035120 g       *ABS*	00000000 __ram_rodata_end
000321cc g     F .text	000000b0 fstat
00031fac g     F .text	00000044 __lshrdi3
00031808 g     F .text	0000005c __ledf2
0002bb3c g     F .text	0000012c __pow5mult
00036770 g     O .bss	00000004 __nlocale_changed
00022d0c g     F .text	00000008 __umodsi3
000387b0 g       *ABS*	00000000 end
00022ef8 g     F .text	0000012c __pack_f
000244a0 g     F .text	00000024 fseek
00034144 g       *ABS*	00000000 __CTOR_LIST__
00039640 g       *ABS*	00000000 __alt_stack_pointer
00022e4c g     F .text	000000ac __clzsi2
00035150 g     O .rwdata	00000018 chrominance_dc_code_table
00032f1c g     F .text	00000098 altera_avalon_jtag_uart_write
000237bc g     F .text	00000004 __sfp_lock_acquire
0002b1f4 g     F .text	000000f8 memchr
000258e8 g     F .text	00001e7c ___vfprintf_internal_r
0002cc60 g     F .text	00000058 _sprintf_r
00023d00 g     F .text	000002d0 _free_r
000206a4 g     F .text	00000158 write_bits
00033f68 g     F .text	000001a0 __call_exitprocs
0003676c g     O .bss	00000004 __mlocale_changed
00035bc0 g     O .rwdata	00000004 __malloc_sbrk_base
00020020 g     F .text	0000003c _start
0002e6e8 g     F .text	00000330 _strtoll_r
0002bc68 g     F .text	0000015c __lshift
00032920 g     F .text	000000f4 read
00032cf0 g     F .text	00000078 alt_sys_init
000229c8 g     F .text	000000a4 __floatsisf
000252c4 g     F .text	0000006c _open_r
00033e38 g     F .text	00000130 __register_exitproc
000207fc g     F .text	000000c4 huffman_flush
0002b8e4 g     F .text	00000258 __multiply
00022d14 g     F .text	00000028 __mulsi3
00035120 g       *ABS*	00000000 __ram_rwdata_start
00034144 g       *ABS*	00000000 __ram_rodata_start
00036788 g     O .bss	00000028 __malloc_current_mallinfo
00030c88 g     F .text	00000054 __eqsf2
0002c16c g     F .text	00000144 __d2b
000369b0 g     O .bss	00000200 chrominance_ac_size_table
00032d68 g     F .text	00000060 altera_avalon_jtag_uart_read_fd
0002ea18 g     F .text	000002a4 _strtoul_r
00033b08 g     F .text	000000d4 alt_get_fd
00031edc g     F .text	000000d0 __fpcmp_parts_d
000290f0 g     F .text	00000064 _close_r
00033dbc g     F .text	0000007c memcmp
00020e30 g     F .text	000000dc send_dqt_to_stage4
000387b0 g       *ABS*	00000000 __alt_stack_base
0002468c g     F .text	000000b0 _fwrite_r
00028f7c g     F .text	00000174 __swsetup_r
00031478 g     F .text	000001b4 __divdf3
000236c0 g     F .text	000000fc __sfp
0002c3c8 g     F .text	0000007c __copybits
00035580 g     O .rwdata	00000408 __malloc_av_
000237c8 g     F .text	00000004 __sinit_lock_release
00031194 g     F .text	000002e4 __muldf3
000256e8 g     F .text	00000054 __sread
00034adc g     O .rodata	00000010 __thenan_sf
00023b84 g     F .text	00000040 fread
00034517 g     O .rodata	00000040 q_table_luma
00033970 g     F .text	00000114 alt_find_file
00033788 g     F .text	000000a0 alt_dev_llist_insert
000325f8 g     F .text	00000020 __malloc_lock
00032a94 g     F .text	000000b0 sbrk
000232f8 g     F .text	000001e8 _fflush_r
0002f31c g     F .text	000000cc _calloc_r
0002392c g     F .text	0000001c fopen
00036748 g       *ABS*	00000000 __bss_start
0002400c g     F .text	00000020 _fscanf_r
000251e8 g     F .text	000000dc memset
00021300 g     F .text	00000c90 main
0003677c g     O .bss	00000004 alt_envp
0003675c g     O .bss	00000004 __malloc_max_total_mem
00032dc8 g     F .text	00000060 altera_avalon_jtag_uart_write_fd
00030d38 g     F .text	00000054 __ltsf2
00023948 g     F .text	0000023c _fread_r
00021fc0 g     F .text	00000080 fifo_read_block
00025820 g     F .text	00000008 __sclose
00039640 g       *ABS*	00000000 __alt_heap_limit
000232e4 g     F .text	00000014 fclose
0002e44c g     F .text	00000278 _strtol_r
00031a0c g     F .text	00000060 __truncdfsf2
00032fb4 g     F .text	00000088 alt_timestamp_start
00038620 g     O .bss	00000190 _atexit0
00029390 g     F .text	0000161c _dtoa_r
00024924 g     F .text	00000784 _malloc_r
00035be4 g     O .rwdata	00000004 alt_errno
0002f074 g     F .text	000000f0 __submore
0002452c g     F .text	000000a8 _fwalk
0003674c g     O .bss	00000004 bit_count
0002b1b0 g     F .text	00000044 _mbtowc_r
00022c58 g     F .text	00000050 __divsi3
000350cc g     O .rodata	00000014 __thenan_df
00023bc4 g     F .text	0000013c _malloc_trim_r
00034144 g       *ABS*	00000000 __CTOR_END__
000226a0 g     F .text	00000190 __mulsf3
0002cd24 g     F .text	000000a4 strcmp
00034144 g       *ABS*	00000000 __flash_rodata_start
00020cbc g     F .text	00000174 parse_image_header
00034144 g       *ABS*	00000000 __DTOR_LIST__
00031688 g     F .text	0000005c __nedf2
00032cbc g     F .text	00000034 alt_irq_init
00032a14 g     F .text	00000080 alt_release_fd
0002ccb8 g     F .text	0000006c sprintf
00034aec g     O .rodata	00000100 __clz_tab
00036768 g     O .bss	00000004 _PathLocale
0002e32c g     F .text	00000120 strtof
00033d70 g     F .text	00000014 atexit
0002296c g     F .text	0000005c __gesf2
00028f10 g     F .text	0000006c _write_r
00036748 g     O .bss	00000004 bit_buffer
00020f0c g     F .text	00000124 send_dht_to_stage5
0002b078 g     F .text	0000001c setlocale
0002cc58 g     F .text	00000008 nanf
00035bbc g     O .rwdata	00000004 _impure_ptr
00036774 g     O .bss	00000004 alt_argc
0002b10c g     F .text	00000064 _mbrtowc_r
00036780 g     O .bss	00000004 altera_avalon_timer_ts_base
00033884 g     F .text	0000005c _do_dtors
0002402c g     F .text	00000474 _fseek_r
0002544c g     F .text	000001ec __srefill_r
0002bfc4 g     F .text	00000060 __ulp
0002cb30 g     F .text	00000038 __isinfd
000237e4 g     F .text	00000018 __fp_unlock_all
00035bd0 g     O .rwdata	00000008 alt_fs_list
00033384 g     F .text	000000b8 alt_hostfs_write
00036754 g     O .bss	00000004 has_odd_byte
00020020 g       *ABS*	00000000 __ram_exceptions_start
0002b094 g     F .text	0000000c localeconv
0003303c g     F .text	00000090 alt_timestamp
0002473c g     F .text	00000040 fwrite
0002f4f8 g     F .text	00000090 __hexdig_init
00037030 g     O .bss	00000c00 global_full_image_buffer
00035c34 g       *ABS*	00000000 _edata
000387b0 g       *ABS*	00000000 _end
00020020 g       *ABS*	00000000 __ram_exceptions_end
00028ea0 g     F .text	00000070 vfscanf
00025670 g     F .text	00000014 rewind
0002573c g     F .text	00000088 __swrite
00035bc4 g     O .rwdata	00000004 __malloc_trim_threshold
00036bb0 g     O .bss	00000200 luminance_ac_size_table
00033d50 g     F .text	00000020 altera_nios2_qsys_irq_init
00033d84 g     F .text	00000038 exit
000245d4 g     F .text	000000b8 _fwalk_reent
00022b10 g     F .text	000000d4 __floatunsisf
0002be1c g     F .text	000001a8 __mdiff
00022ca8 g     F .text	0000005c __modsi3
00039640 g       *ABS*	00000000 __alt_data_end
000237c0 g     F .text	00000004 __sfp_lock_release
0002cb94 g     F .text	000000c4 __sccl
00034c80 g     O .rodata	00000101 _ctype_
0002005c g     F .text	00000310 encode_mcu_row
00022398 g     F .text	00000070 __fixunssfsi
000230ec g     F .text	000000bc __fpcmp_parts_f
000237fc g     F .text	00000130 _fopen_r
00034108 g     F .text	0000003c _exit
0002cb68 g     F .text	0000002c __isnand
00035168 g     O .rwdata	00000018 chrominance_dc_size_table
00037c30 g     O .bss	00000600 global_strip_buffer
00022d3c g     F .text	00000110 __muldi3
0002477c g     F .text	000001a8 __smakebuf_r
00025828 g     F .text	0000008c strlen
00032778 g     F .text	00000158 open
00031748 g     F .text	00000064 __gedf2
0002f588 g     F .text	00000778 __gethex
00033bdc g     F .text	0000001c alt_icache_flush_all
00038230 g     O .bss	0000026f global_dynamic_header
00036db0 g     O .bss	00000200 luminance_ac_code_table
00027764 g     F .text	00000024 __vfprintf_internal
00034557 g     O .rodata	00000040 q_table_chroma
00031134 g     F .text	00000060 __subdf3
0002b7f8 g     F .text	000000b0 __lo0bits
00027788 g     F .text	000016a8 __svfscanf_r
0002f164 g     F .text	0000019c _ungetc_r
00033828 g     F .text	0000005c _do_ctors
00035138 g     O .rwdata	00000018 luminance_dc_size_table
0003849f g     O .bss	00000080 global_row_data
00032084 g     F .text	000000cc close
000225fc g     F .text	0000004c __addsf3
000323dc g     F .text	00000080 alt_load
00031bb4 g     F .text	00000224 __pack_d
000210f4 g     F .text	0000020c send_dynamic_header
00000000  w      *UND*	00000000 free
000237c4 g     F .text	00000004 __sinit_lock_acquire
0002b548 g     F .text	00000144 __multadd
0002b520 g     F .text	00000028 _Bfree
000334f4 g     F .text	00000228 alt_hostfs_fstat



Disassembly of section .entry:

00020000 <__reset>:
 * Jump to the _start entry point in the .text section if reset code
 * is allowed or if optimizing for RTL simulation.
 */
#if defined(ALT_ALLOW_CODE_AT_RESET) || defined(ALT_SIM_OPTIMIZE)
    /* Jump to the _start entry point in the .text section. */
    movhi r1, %hi(_start)
   20000:	004000b4 	movhi	at,2
    ori r1, r1, %lo(_start)
   20004:	08400814 	ori	at,at,32
    jmp r1
   20008:	0800683a 	jmp	at
	...

Disassembly of section .text:

00020020 <_start>:

    /*
     * Now that the caches are initialized, set up the stack pointer and global pointer.
     * The values provided by the linker are assumed to be correctly aligned.
     */
    movhi sp, %hi(__alt_stack_pointer)
   20020:	06c000f4 	movhi	sp,3
    ori sp, sp, %lo(__alt_stack_pointer)
   20024:	dee59014 	ori	sp,sp,38464
    movhi gp, %hi(_gp)
   20028:	068000f4 	movhi	gp,3
    ori gp, gp, %lo(_gp)
   2002c:	d6b6ee14 	ori	gp,gp,56248
 */
#ifndef ALT_SIM_OPTIMIZE
    /* Log that the BSS is about to be cleared. */
    ALT_LOG_PUTS(alt_log_msg_bss)

    movhi r2, %hi(__bss_start)
   20030:	008000f4 	movhi	r2,3
    ori r2, r2, %lo(__bss_start)
   20034:	1099d214 	ori	r2,r2,26440

    movhi r3, %hi(__bss_end)
   20038:	00c000f4 	movhi	r3,3
    ori r3, r3, %lo(__bss_end)
   2003c:	18e1ec14 	ori	r3,r3,34736

    beq r2, r3, 1f
   20040:	10c00326 	beq	r2,r3,20050 <_start+0x30>

0:
    stw zero, (r2)
   20044:	10000015 	stw	zero,0(r2)
    addi r2, r2, 4
   20048:	10800104 	addi	r2,r2,4
    bltu r2, r3, 0b
   2004c:	10fffd36 	bltu	r2,r3,20044 <_start+0x24>
     * section aren't defined until alt_load() has been called).
     */
    mov   et, zero
#endif

    call alt_load
   20050:	00323dc0 	call	323dc <alt_load>

    /* Log that alt_main is about to be called. */
    ALT_LOG_PUTS(alt_log_msg_alt_main)

    /* Call the C entry point. It should never return. */
    call alt_main
   20054:	00325800 	call	32580 <alt_main>

00020058 <alt_after_alt_main>:

    /* Wait in infinite loop in case alt_main does return. */
alt_after_alt_main:
    br alt_after_alt_main
   20058:	003fff06 	br	20058 <alt_after_alt_main>

0002005c <encode_mcu_row>:
#include "encoder.h"
#include "nios2_common/fifo_io.h"

void encode_mcu_row(UINT8 *strip_buffer, int width, int mcus_x, unsigned int fifo_base, unsigned int fifo_csr, FILE *f_stage1) {
   2005c:	deff8f04 	addi	sp,sp,-452
   20060:	dfc07015 	stw	ra,448(sp)
   20064:	df006f15 	stw	fp,444(sp)
   20068:	dc006e15 	stw	r16,440(sp)
   2006c:	df006e04 	addi	fp,sp,440
   20070:	e13ffc15 	stw	r4,-16(fp)
   20074:	e17ffd15 	stw	r5,-12(fp)
   20078:	e1bffe15 	stw	r6,-8(fp)
   2007c:	e1ffff15 	stw	r7,-4(fp)
    INT16 Y_block[64], Cb_block[64], Cr_block[64];
    int col, x, y;

    for (col = 0; col < mcus_x; col++) {
   20080:	e03f9215 	stw	zero,-440(fp)
   20084:	0000b006 	br	20348 <encode_mcu_row+0x2ec>

        // 1. Safely extract the 8x8 block from our tiny strip buffer
        for (y = 0; y < 8; y++) {
   20088:	e03f9415 	stw	zero,-432(fp)
   2008c:	00008206 	br	20298 <encode_mcu_row+0x23c>
            for (x = 0; x < 8; x++) {
   20090:	e03f9315 	stw	zero,-436(fp)
   20094:	00007a06 	br	20280 <encode_mcu_row+0x224>
                int global_x = (col * 8) + x;
   20098:	e0bf9217 	ldw	r2,-440(fp)
   2009c:	100690fa 	slli	r3,r2,3
   200a0:	e0bf9317 	ldw	r2,-436(fp)
   200a4:	1885883a 	add	r2,r3,r2
   200a8:	e0bf9515 	stw	r2,-428(fp)

                // Clamp to the edge if the image width isn't a perfect multiple of 8
                if (global_x >= width) {
   200ac:	e0ff9517 	ldw	r3,-428(fp)
   200b0:	e0bffd17 	ldw	r2,-12(fp)
   200b4:	18800316 	blt	r3,r2,200c4 <encode_mcu_row+0x68>
                    global_x = width - 1;
   200b8:	e0bffd17 	ldw	r2,-12(fp)
   200bc:	10bfffc4 	addi	r2,r2,-1
   200c0:	e0bf9515 	stw	r2,-428(fp)
                }

                // Since our buffer is only 8 rows tall, 'y' is our exact row index!
                int pixel_idx = (y * width + global_x) * 3;
   200c4:	e13f9417 	ldw	r4,-432(fp)
   200c8:	e17ffd17 	ldw	r5,-12(fp)
   200cc:	0022d140 	call	22d14 <__mulsi3>
   200d0:	1007883a 	mov	r3,r2
   200d4:	e0bf9517 	ldw	r2,-428(fp)
   200d8:	1887883a 	add	r3,r3,r2
   200dc:	1805883a 	mov	r2,r3
   200e0:	1085883a 	add	r2,r2,r2
   200e4:	10c5883a 	add	r2,r2,r3
   200e8:	e0bf9615 	stw	r2,-424(fp)

                INT16 R = strip_buffer[pixel_idx];
   200ec:	e0bf9617 	ldw	r2,-424(fp)
   200f0:	e0fffc17 	ldw	r3,-16(fp)
   200f4:	1885883a 	add	r2,r3,r2
   200f8:	10800003 	ldbu	r2,0(r2)
   200fc:	10803fcc 	andi	r2,r2,255
   20100:	e0bf970d 	sth	r2,-420(fp)
                INT16 G = strip_buffer[pixel_idx + 1];
   20104:	e0bf9617 	ldw	r2,-424(fp)
   20108:	10800044 	addi	r2,r2,1
   2010c:	e0fffc17 	ldw	r3,-16(fp)
   20110:	1885883a 	add	r2,r3,r2
   20114:	10800003 	ldbu	r2,0(r2)
   20118:	10803fcc 	andi	r2,r2,255
   2011c:	e0bf978d 	sth	r2,-418(fp)
                INT16 B = strip_buffer[pixel_idx + 2];
   20120:	e0bf9617 	ldw	r2,-424(fp)
   20124:	10800084 	addi	r2,r2,2
   20128:	e0fffc17 	ldw	r3,-16(fp)
   2012c:	1885883a 	add	r2,r3,r2
   20130:	10800003 	ldbu	r2,0(r2)
   20134:	10803fcc 	andi	r2,r2,255
   20138:	e0bf980d 	sth	r2,-416(fp)

                // 2. RGB to YCbCr Math
                int Y_val  = ( 19595 * R + 38469 * G +  7471 * B) >> 16;
   2013c:	e0bf970f 	ldh	r2,-420(fp)
   20140:	1009883a 	mov	r4,r2
   20144:	015322c4 	movi	r5,19595
   20148:	0022d140 	call	22d14 <__mulsi3>
   2014c:	1021883a 	mov	r16,r2
   20150:	e0bf978f 	ldh	r2,-418(fp)
   20154:	1009883a 	mov	r4,r2
   20158:	01659154 	movui	r5,38469
   2015c:	0022d140 	call	22d14 <__mulsi3>
   20160:	80a1883a 	add	r16,r16,r2
   20164:	e0bf980f 	ldh	r2,-416(fp)
   20168:	1009883a 	mov	r4,r2
   2016c:	01474bc4 	movi	r5,7471
   20170:	0022d140 	call	22d14 <__mulsi3>
   20174:	8085883a 	add	r2,r16,r2
   20178:	1005d43a 	srai	r2,r2,16
   2017c:	e0bf9915 	stw	r2,-412(fp)
                int Cb_val = ((-11059 * R - 21709 * G + 32768 * B) >> 16) + 128;
   20180:	e0bf970f 	ldh	r2,-420(fp)
   20184:	1009883a 	mov	r4,r2
   20188:	01753344 	movi	r5,-11059
   2018c:	0022d140 	call	22d14 <__mulsi3>
   20190:	1021883a 	mov	r16,r2
   20194:	e0bf978f 	ldh	r2,-418(fp)
   20198:	1009883a 	mov	r4,r2
   2019c:	016accc4 	movi	r5,-21709
   201a0:	0022d140 	call	22d14 <__mulsi3>
   201a4:	8087883a 	add	r3,r16,r2
   201a8:	e0bf980f 	ldh	r2,-416(fp)
   201ac:	100493fa 	slli	r2,r2,15
   201b0:	1885883a 	add	r2,r3,r2
   201b4:	1005d43a 	srai	r2,r2,16
   201b8:	10802004 	addi	r2,r2,128
   201bc:	e0bf9a15 	stw	r2,-408(fp)
                int Cr_val = (( 32768 * R - 27439 * G -  5329 * B) >> 16) + 128;
   201c0:	e0bf970f 	ldh	r2,-420(fp)
   201c4:	102093fa 	slli	r16,r2,15
   201c8:	e0bf978f 	ldh	r2,-418(fp)
   201cc:	1009883a 	mov	r4,r2
   201d0:	01653444 	movi	r5,-27439
   201d4:	0022d140 	call	22d14 <__mulsi3>
   201d8:	80a1883a 	add	r16,r16,r2
   201dc:	e0bf980f 	ldh	r2,-416(fp)
   201e0:	1009883a 	mov	r4,r2
   201e4:	017acbc4 	movi	r5,-5329
   201e8:	0022d140 	call	22d14 <__mulsi3>
   201ec:	8085883a 	add	r2,r16,r2
   201f0:	1005d43a 	srai	r2,r2,16
   201f4:	10802004 	addi	r2,r2,128
   201f8:	e0bf9b15 	stw	r2,-404(fp)

                Y_block[y * 8 + x]  = (INT16)Y_val;
   201fc:	e0bf9417 	ldw	r2,-432(fp)
   20200:	100690fa 	slli	r3,r2,3
   20204:	e0bf9317 	ldw	r2,-436(fp)
   20208:	1885883a 	add	r2,r3,r2
   2020c:	e0ff9917 	ldw	r3,-412(fp)
   20210:	1085883a 	add	r2,r2,r2
   20214:	e13f9204 	addi	r4,fp,-440
   20218:	2085883a 	add	r2,r4,r2
   2021c:	10800a04 	addi	r2,r2,40
   20220:	10c0000d 	sth	r3,0(r2)
                Cb_block[y * 8 + x] = (INT16)Cb_val;
   20224:	e0bf9417 	ldw	r2,-432(fp)
   20228:	100690fa 	slli	r3,r2,3
   2022c:	e0bf9317 	ldw	r2,-436(fp)
   20230:	1885883a 	add	r2,r3,r2
   20234:	e0ff9a17 	ldw	r3,-408(fp)
   20238:	1085883a 	add	r2,r2,r2
   2023c:	e13f9204 	addi	r4,fp,-440
   20240:	2085883a 	add	r2,r4,r2
   20244:	10802a04 	addi	r2,r2,168
   20248:	10c0000d 	sth	r3,0(r2)
                Cr_block[y * 8 + x] = (INT16)Cr_val;
   2024c:	e0bf9417 	ldw	r2,-432(fp)
   20250:	100690fa 	slli	r3,r2,3
   20254:	e0bf9317 	ldw	r2,-436(fp)
   20258:	1885883a 	add	r2,r3,r2
   2025c:	e0ff9b17 	ldw	r3,-404(fp)
   20260:	1085883a 	add	r2,r2,r2
   20264:	e13f9204 	addi	r4,fp,-440
   20268:	2085883a 	add	r2,r4,r2
   2026c:	10804a04 	addi	r2,r2,296
   20270:	10c0000d 	sth	r3,0(r2)

    for (col = 0; col < mcus_x; col++) {

        // 1. Safely extract the 8x8 block from our tiny strip buffer
        for (y = 0; y < 8; y++) {
            for (x = 0; x < 8; x++) {
   20274:	e0bf9317 	ldw	r2,-436(fp)
   20278:	10800044 	addi	r2,r2,1
   2027c:	e0bf9315 	stw	r2,-436(fp)
   20280:	e0bf9317 	ldw	r2,-436(fp)
   20284:	10800210 	cmplti	r2,r2,8
   20288:	103f831e 	bne	r2,zero,20098 <encode_mcu_row+0x3c>
    int col, x, y;

    for (col = 0; col < mcus_x; col++) {

        // 1. Safely extract the 8x8 block from our tiny strip buffer
        for (y = 0; y < 8; y++) {
   2028c:	e0bf9417 	ldw	r2,-432(fp)
   20290:	10800044 	addi	r2,r2,1
   20294:	e0bf9415 	stw	r2,-432(fp)
   20298:	e0bf9417 	ldw	r2,-432(fp)
   2029c:	10800210 	cmplti	r2,r2,8
   202a0:	103f7b1e 	bne	r2,zero,20090 <encode_mcu_row+0x34>
                Cr_block[y * 8 + x] = (INT16)Cr_val;
            }
        }

        // Dump Stage 1 MCU to host for comparison (if file is open)
        if (f_stage1) {
   202a4:	e0800417 	ldw	r2,16(fp)
   202a8:	10001226 	beq	r2,zero,202f4 <encode_mcu_row+0x298>
            fwrite(Y_block, sizeof(INT16), 64, f_stage1);
   202ac:	e0bf9c04 	addi	r2,fp,-400
   202b0:	1009883a 	mov	r4,r2
   202b4:	01400084 	movi	r5,2
   202b8:	01801004 	movi	r6,64
   202bc:	e1c00417 	ldw	r7,16(fp)
   202c0:	002473c0 	call	2473c <fwrite>
            fwrite(Cb_block, sizeof(INT16), 64, f_stage1);
   202c4:	e0bfbc04 	addi	r2,fp,-272
   202c8:	1009883a 	mov	r4,r2
   202cc:	01400084 	movi	r5,2
   202d0:	01801004 	movi	r6,64
   202d4:	e1c00417 	ldw	r7,16(fp)
   202d8:	002473c0 	call	2473c <fwrite>
            fwrite(Cr_block, sizeof(INT16), 64, f_stage1);
   202dc:	e0bfdc04 	addi	r2,fp,-144
   202e0:	1009883a 	mov	r4,r2
   202e4:	01400084 	movi	r5,2
   202e8:	01801004 	movi	r6,64
   202ec:	e1c00417 	ldw	r7,16(fp)
   202f0:	002473c0 	call	2473c <fwrite>
        }

        // 3. Push Block to Hardware FIFO (Stage 2)
        fifo_write_block(fifo_base, fifo_csr, Y_block, 64);
   202f4:	e0bf9c04 	addi	r2,fp,-400
   202f8:	e13fff17 	ldw	r4,-4(fp)
   202fc:	e1400317 	ldw	r5,12(fp)
   20300:	100d883a 	mov	r6,r2
   20304:	01c01004 	movi	r7,64
   20308:	00220400 	call	22040 <fifo_write_block>
        fifo_write_block(fifo_base, fifo_csr, Cb_block, 64);
   2030c:	e0bfbc04 	addi	r2,fp,-272
   20310:	e13fff17 	ldw	r4,-4(fp)
   20314:	e1400317 	ldw	r5,12(fp)
   20318:	100d883a 	mov	r6,r2
   2031c:	01c01004 	movi	r7,64
   20320:	00220400 	call	22040 <fifo_write_block>
        fifo_write_block(fifo_base, fifo_csr, Cr_block, 64);
   20324:	e0bfdc04 	addi	r2,fp,-144
   20328:	e13fff17 	ldw	r4,-4(fp)
   2032c:	e1400317 	ldw	r5,12(fp)
   20330:	100d883a 	mov	r6,r2
   20334:	01c01004 	movi	r7,64
   20338:	00220400 	call	22040 <fifo_write_block>

void encode_mcu_row(UINT8 *strip_buffer, int width, int mcus_x, unsigned int fifo_base, unsigned int fifo_csr, FILE *f_stage1) {
    INT16 Y_block[64], Cb_block[64], Cr_block[64];
    int col, x, y;

    for (col = 0; col < mcus_x; col++) {
   2033c:	e0bf9217 	ldw	r2,-440(fp)
   20340:	10800044 	addi	r2,r2,1
   20344:	e0bf9215 	stw	r2,-440(fp)
   20348:	e0ff9217 	ldw	r3,-440(fp)
   2034c:	e0bffe17 	ldw	r2,-8(fp)
   20350:	18bf4d16 	blt	r3,r2,20088 <encode_mcu_row+0x2c>
        // 3. Push Block to Hardware FIFO (Stage 2)
        fifo_write_block(fifo_base, fifo_csr, Y_block, 64);
        fifo_write_block(fifo_base, fifo_csr, Cb_block, 64);
        fifo_write_block(fifo_base, fifo_csr, Cr_block, 64);
    }
}
   20354:	e037883a 	mov	sp,fp
   20358:	dfc00217 	ldw	ra,8(sp)
   2035c:	df000117 	ldw	fp,4(sp)
   20360:	dc000017 	ldw	r16,0(sp)
   20364:	dec00304 	addi	sp,sp,12
   20368:	f800283a 	ret

0002036c <init_chroma_ac_tables>:
UINT16 luminance_ac_code_table[256];
UINT16 luminance_ac_size_table[256];
UINT16 chrominance_ac_code_table[256];
UINT16 chrominance_ac_size_table[256];

void init_chroma_ac_tables() {
   2036c:	deffa004 	addi	sp,sp,-384
   20370:	dfc05f15 	stw	ra,380(sp)
   20374:	df005e15 	stw	fp,376(sp)
   20378:	df005e04 	addi	fp,sp,376
    int k;
    for(k = 0; k < 256; k++) {
   2037c:	e03fa215 	stw	zero,-376(fp)
   20380:	00001b06 	br	203f0 <init_chroma_ac_tables+0x84>
        luminance_ac_code_table[k] = 0;
   20384:	00c000f4 	movhi	r3,3
   20388:	18db6c04 	addi	r3,r3,28080
   2038c:	e0bfa217 	ldw	r2,-376(fp)
   20390:	1085883a 	add	r2,r2,r2
   20394:	1885883a 	add	r2,r3,r2
   20398:	1000000d 	sth	zero,0(r2)
        luminance_ac_size_table[k] = 0;
   2039c:	00c000f4 	movhi	r3,3
   203a0:	18daec04 	addi	r3,r3,27568
   203a4:	e0bfa217 	ldw	r2,-376(fp)
   203a8:	1085883a 	add	r2,r2,r2
   203ac:	1885883a 	add	r2,r3,r2
   203b0:	1000000d 	sth	zero,0(r2)
        chrominance_ac_code_table[k] = 0;
   203b4:	00c000f4 	movhi	r3,3
   203b8:	18d9ec04 	addi	r3,r3,26544
   203bc:	e0bfa217 	ldw	r2,-376(fp)
   203c0:	1085883a 	add	r2,r2,r2
   203c4:	1885883a 	add	r2,r3,r2
   203c8:	1000000d 	sth	zero,0(r2)
        chrominance_ac_size_table[k] = 0;
   203cc:	00c000f4 	movhi	r3,3
   203d0:	18da6c04 	addi	r3,r3,27056
   203d4:	e0bfa217 	ldw	r2,-376(fp)
   203d8:	1085883a 	add	r2,r2,r2
   203dc:	1885883a 	add	r2,r3,r2
   203e0:	1000000d 	sth	zero,0(r2)
UINT16 chrominance_ac_code_table[256];
UINT16 chrominance_ac_size_table[256];

void init_chroma_ac_tables() {
    int k;
    for(k = 0; k < 256; k++) {
   203e4:	e0bfa217 	ldw	r2,-376(fp)
   203e8:	10800044 	addi	r2,r2,1
   203ec:	e0bfa215 	stw	r2,-376(fp)
   203f0:	e0bfa217 	ldw	r2,-376(fp)
   203f4:	10804010 	cmplti	r2,r2,256
   203f8:	103fe21e 	bne	r2,zero,20384 <init_chroma_ac_tables+0x18>
        chrominance_ac_code_table[k] = 0;
        chrominance_ac_size_table[k] = 0;
    }

    // --- GENERATE LUMA AC DICTIONARY ---
    UINT8 luma_len[16] = {0, 2, 1, 3, 3, 2, 4, 3, 5, 5, 4, 4, 0, 0, 1, 0x7D};
   203fc:	008000f4 	movhi	r2,3
   20400:	10905104 	addi	r2,r2,16708
   20404:	e13fa704 	addi	r4,fp,-356
   20408:	1007883a 	mov	r3,r2
   2040c:	00800404 	movi	r2,16
   20410:	180b883a 	mov	r5,r3
   20414:	100d883a 	mov	r6,r2
   20418:	00250a80 	call	250a8 <memcpy>
    UINT8 luma_sym[162] = {
   2041c:	008000f4 	movhi	r2,3
   20420:	10905504 	addi	r2,r2,16724
   20424:	e13fab04 	addi	r4,fp,-340
   20428:	1007883a 	mov	r3,r2
   2042c:	00802884 	movi	r2,162
   20430:	180b883a 	mov	r5,r3
   20434:	100d883a 	mov	r6,r2
   20438:	00250a80 	call	250a8 <memcpy>
        0xC6, 0xC7, 0xC8, 0xC9, 0xCA, 0xD2, 0xD3, 0xD4, 0xD5, 0xD6, 0xD7, 0xD8, 0xD9, 0xDA, 0xE1, 0xE2,
        0xE3, 0xE4, 0xE5, 0xE6, 0xE7, 0xE8, 0xE9, 0xEA, 0xF1, 0xF2, 0xF3, 0xF4, 0xF5, 0xF6, 0xF7, 0xF8,
        0xF9, 0xFA
    };

    int p = 0, l, i;
   2043c:	e03fa315 	stw	zero,-372(fp)
    UINT16 code = 0;
   20440:	e03fa60d 	sth	zero,-360(fp)
    for (l = 1; l <= 16; l++) {
   20444:	00800044 	movi	r2,1
   20448:	e0bfa415 	stw	r2,-368(fp)
   2044c:	00002c06 	br	20500 <init_chroma_ac_tables+0x194>
        for (i = 0; i < luma_len[l-1]; i++) {
   20450:	e03fa515 	stw	zero,-364(fp)
   20454:	00001c06 	br	204c8 <init_chroma_ac_tables+0x15c>
            UINT8 sym = luma_sym[p++];
   20458:	e0ffab04 	addi	r3,fp,-340
   2045c:	e0bfa317 	ldw	r2,-372(fp)
   20460:	1885883a 	add	r2,r3,r2
   20464:	10800003 	ldbu	r2,0(r2)
   20468:	e0bfa685 	stb	r2,-358(fp)
   2046c:	e0bfa317 	ldw	r2,-372(fp)
   20470:	10800044 	addi	r2,r2,1
   20474:	e0bfa315 	stw	r2,-372(fp)
            luminance_ac_code_table[sym] = code;
   20478:	e0bfa683 	ldbu	r2,-358(fp)
   2047c:	00c000f4 	movhi	r3,3
   20480:	18db6c04 	addi	r3,r3,28080
   20484:	1085883a 	add	r2,r2,r2
   20488:	1885883a 	add	r2,r3,r2
   2048c:	e0ffa60b 	ldhu	r3,-360(fp)
   20490:	10c0000d 	sth	r3,0(r2)
            luminance_ac_size_table[sym] = (UINT16)l;
   20494:	e0bfa683 	ldbu	r2,-358(fp)
   20498:	e0ffa417 	ldw	r3,-368(fp)
   2049c:	010000f4 	movhi	r4,3
   204a0:	211aec04 	addi	r4,r4,27568
   204a4:	1085883a 	add	r2,r2,r2
   204a8:	2085883a 	add	r2,r4,r2
   204ac:	10c0000d 	sth	r3,0(r2)
            code++;
   204b0:	e0bfa60b 	ldhu	r2,-360(fp)
   204b4:	10800044 	addi	r2,r2,1
   204b8:	e0bfa60d 	sth	r2,-360(fp)
    };

    int p = 0, l, i;
    UINT16 code = 0;
    for (l = 1; l <= 16; l++) {
        for (i = 0; i < luma_len[l-1]; i++) {
   204bc:	e0bfa517 	ldw	r2,-364(fp)
   204c0:	10800044 	addi	r2,r2,1
   204c4:	e0bfa515 	stw	r2,-364(fp)
   204c8:	e0bfa417 	ldw	r2,-368(fp)
   204cc:	10bfffc4 	addi	r2,r2,-1
   204d0:	e0ffa704 	addi	r3,fp,-356
   204d4:	1885883a 	add	r2,r3,r2
   204d8:	10800003 	ldbu	r2,0(r2)
   204dc:	10803fcc 	andi	r2,r2,255
   204e0:	e0ffa517 	ldw	r3,-364(fp)
   204e4:	18bfdc16 	blt	r3,r2,20458 <init_chroma_ac_tables+0xec>
            UINT8 sym = luma_sym[p++];
            luminance_ac_code_table[sym] = code;
            luminance_ac_size_table[sym] = (UINT16)l;
            code++;
        }
        code <<= 1;
   204e8:	e0bfa60b 	ldhu	r2,-360(fp)
   204ec:	1085883a 	add	r2,r2,r2
   204f0:	e0bfa60d 	sth	r2,-360(fp)
        0xF9, 0xFA
    };

    int p = 0, l, i;
    UINT16 code = 0;
    for (l = 1; l <= 16; l++) {
   204f4:	e0bfa417 	ldw	r2,-368(fp)
   204f8:	10800044 	addi	r2,r2,1
   204fc:	e0bfa415 	stw	r2,-368(fp)
   20500:	e0bfa417 	ldw	r2,-368(fp)
   20504:	10800450 	cmplti	r2,r2,17
   20508:	103fd11e 	bne	r2,zero,20450 <init_chroma_ac_tables+0xe4>
        }
        code <<= 1;
    }

    // --- GENERATE CHROMA AC DICTIONARY ---
    UINT8 chroma_len[16] = {0, 2, 1, 2, 4, 4, 3, 4, 7, 5, 4, 4, 0, 1, 2, 0x77};
   2050c:	008000f4 	movhi	r2,3
   20510:	10907d84 	addi	r2,r2,16886
   20514:	e13fd384 	addi	r4,fp,-178
   20518:	1007883a 	mov	r3,r2
   2051c:	00800404 	movi	r2,16
   20520:	180b883a 	mov	r5,r3
   20524:	100d883a 	mov	r6,r2
   20528:	00250a80 	call	250a8 <memcpy>
    UINT8 chroma_sym[162] = {
   2052c:	008000f4 	movhi	r2,3
   20530:	10908184 	addi	r2,r2,16902
   20534:	e13fd784 	addi	r4,fp,-162
   20538:	1007883a 	mov	r3,r2
   2053c:	00802884 	movi	r2,162
   20540:	180b883a 	mov	r5,r3
   20544:	100d883a 	mov	r6,r2
   20548:	00250a80 	call	250a8 <memcpy>
        0xC4, 0xC5, 0xC6, 0xC7, 0xC8, 0xC9, 0xCA, 0xD2, 0xD3, 0xD4, 0xD5, 0xD6, 0xD7, 0xD8, 0xD9, 0xDA,
        0xE2, 0xE3, 0xE4, 0xE5, 0xE6, 0xE7, 0xE8, 0xE9, 0xEA, 0xF2, 0xF3, 0xF4, 0xF5, 0xF6, 0xF7, 0xF8,
        0xF9, 0xFA
    };

    p = 0;
   2054c:	e03fa315 	stw	zero,-372(fp)
    code = 0;
   20550:	e03fa60d 	sth	zero,-360(fp)
    for (l = 1; l <= 16; l++) {
   20554:	00800044 	movi	r2,1
   20558:	e0bfa415 	stw	r2,-368(fp)
   2055c:	00002c06 	br	20610 <init_chroma_ac_tables+0x2a4>
        for (i = 0; i < chroma_len[l-1]; i++) {
   20560:	e03fa515 	stw	zero,-364(fp)
   20564:	00001c06 	br	205d8 <init_chroma_ac_tables+0x26c>
            UINT8 sym = chroma_sym[p++];
   20568:	e0ffd784 	addi	r3,fp,-162
   2056c:	e0bfa317 	ldw	r2,-372(fp)
   20570:	1885883a 	add	r2,r3,r2
   20574:	10800003 	ldbu	r2,0(r2)
   20578:	e0bfa6c5 	stb	r2,-357(fp)
   2057c:	e0bfa317 	ldw	r2,-372(fp)
   20580:	10800044 	addi	r2,r2,1
   20584:	e0bfa315 	stw	r2,-372(fp)
            chrominance_ac_code_table[sym] = code;
   20588:	e0bfa6c3 	ldbu	r2,-357(fp)
   2058c:	00c000f4 	movhi	r3,3
   20590:	18d9ec04 	addi	r3,r3,26544
   20594:	1085883a 	add	r2,r2,r2
   20598:	1885883a 	add	r2,r3,r2
   2059c:	e0ffa60b 	ldhu	r3,-360(fp)
   205a0:	10c0000d 	sth	r3,0(r2)
            chrominance_ac_size_table[sym] = (UINT16)l;
   205a4:	e0bfa6c3 	ldbu	r2,-357(fp)
   205a8:	e0ffa417 	ldw	r3,-368(fp)
   205ac:	010000f4 	movhi	r4,3
   205b0:	211a6c04 	addi	r4,r4,27056
   205b4:	1085883a 	add	r2,r2,r2
   205b8:	2085883a 	add	r2,r4,r2
   205bc:	10c0000d 	sth	r3,0(r2)
            code++;
   205c0:	e0bfa60b 	ldhu	r2,-360(fp)
   205c4:	10800044 	addi	r2,r2,1
   205c8:	e0bfa60d 	sth	r2,-360(fp)
    };

    p = 0;
    code = 0;
    for (l = 1; l <= 16; l++) {
        for (i = 0; i < chroma_len[l-1]; i++) {
   205cc:	e0bfa517 	ldw	r2,-364(fp)
   205d0:	10800044 	addi	r2,r2,1
   205d4:	e0bfa515 	stw	r2,-364(fp)
   205d8:	e0bfa417 	ldw	r2,-368(fp)
   205dc:	10bfffc4 	addi	r2,r2,-1
   205e0:	e0ffd384 	addi	r3,fp,-178
   205e4:	1885883a 	add	r2,r3,r2
   205e8:	10800003 	ldbu	r2,0(r2)
   205ec:	10803fcc 	andi	r2,r2,255
   205f0:	e0ffa517 	ldw	r3,-364(fp)
   205f4:	18bfdc16 	blt	r3,r2,20568 <init_chroma_ac_tables+0x1fc>
            UINT8 sym = chroma_sym[p++];
            chrominance_ac_code_table[sym] = code;
            chrominance_ac_size_table[sym] = (UINT16)l;
            code++;
        }
        code <<= 1;
   205f8:	e0bfa60b 	ldhu	r2,-360(fp)
   205fc:	1085883a 	add	r2,r2,r2
   20600:	e0bfa60d 	sth	r2,-360(fp)
        0xF9, 0xFA
    };

    p = 0;
    code = 0;
    for (l = 1; l <= 16; l++) {
   20604:	e0bfa417 	ldw	r2,-368(fp)
   20608:	10800044 	addi	r2,r2,1
   2060c:	e0bfa415 	stw	r2,-368(fp)
   20610:	e0bfa417 	ldw	r2,-368(fp)
   20614:	10800450 	cmplti	r2,r2,17
   20618:	103fd11e 	bne	r2,zero,20560 <init_chroma_ac_tables+0x1f4>
            chrominance_ac_size_table[sym] = (UINT16)l;
            code++;
        }
        code <<= 1;
    }
}
   2061c:	e037883a 	mov	sp,fp
   20620:	dfc00117 	ldw	ra,4(sp)
   20624:	df000017 	ldw	fp,0(sp)
   20628:	dec00204 	addi	sp,sp,8
   2062c:	f800283a 	ret

00020630 <get_vli_size>:
int bit_count = 0;
UINT8 byte_buffer = 0;
int has_odd_byte = 0;

// Calculates the bit-size (category) of a value for JPEG VLI encoding
static int get_vli_size(INT16 val) {
   20630:	defffd04 	addi	sp,sp,-12
   20634:	df000215 	stw	fp,8(sp)
   20638:	df000204 	addi	fp,sp,8
   2063c:	2005883a 	mov	r2,r4
   20640:	e0bfff0d 	sth	r2,-4(fp)
    if (val == 0) return 0;
   20644:	e0bfff0f 	ldh	r2,-4(fp)
   20648:	1000021e 	bne	r2,zero,20654 <get_vli_size+0x24>
   2064c:	0005883a 	mov	r2,zero
   20650:	00001006 	br	20694 <get_vli_size+0x64>
    if (val < 0) val = -val; // absolute value
   20654:	e0bfff0f 	ldh	r2,-4(fp)
   20658:	1000030e 	bge	r2,zero,20668 <get_vli_size+0x38>
   2065c:	e0bfff0b 	ldhu	r2,-4(fp)
   20660:	0085c83a 	sub	r2,zero,r2
   20664:	e0bfff0d 	sth	r2,-4(fp)
    int size = 0;
   20668:	e03ffe15 	stw	zero,-8(fp)
    while (val > 0) {
   2066c:	00000606 	br	20688 <get_vli_size+0x58>
        size++;
   20670:	e0bffe17 	ldw	r2,-8(fp)
   20674:	10800044 	addi	r2,r2,1
   20678:	e0bffe15 	stw	r2,-8(fp)
        val >>= 1;
   2067c:	e0bfff0f 	ldh	r2,-4(fp)
   20680:	1005d07a 	srai	r2,r2,1
   20684:	e0bfff0d 	sth	r2,-4(fp)
// Calculates the bit-size (category) of a value for JPEG VLI encoding
static int get_vli_size(INT16 val) {
    if (val == 0) return 0;
    if (val < 0) val = -val; // absolute value
    int size = 0;
    while (val > 0) {
   20688:	e0bfff0f 	ldh	r2,-4(fp)
   2068c:	00bff816 	blt	zero,r2,20670 <get_vli_size+0x40>
        size++;
        val >>= 1;
    }
    return size;
   20690:	e0bffe17 	ldw	r2,-8(fp)
}
   20694:	e037883a 	mov	sp,fp
   20698:	df000017 	ldw	fp,0(sp)
   2069c:	dec00104 	addi	sp,sp,4
   206a0:	f800283a 	ret

000206a4 <write_bits>:

// Writes bits, packs them into bytes, applies 0xFF byte stuffing,
// and bundles them into 16-bit words for the hardware FIFO.
int write_bits(UINT16 code, int size, INT16 *out_buffer) {
   206a4:	defffa04 	addi	sp,sp,-24
   206a8:	df000515 	stw	fp,20(sp)
   206ac:	df000504 	addi	fp,sp,20
   206b0:	2005883a 	mov	r2,r4
   206b4:	e17ffe15 	stw	r5,-8(fp)
   206b8:	e1bfff15 	stw	r6,-4(fp)
   206bc:	e0bffd0d 	sth	r2,-12(fp)
    int words_written = 0;
   206c0:	e03ffb15 	stw	zero,-20(fp)
    if (size == 0) return 0;
   206c4:	e0bffe17 	ldw	r2,-8(fp)
   206c8:	1000021e 	bne	r2,zero,206d4 <write_bits+0x30>
   206cc:	0005883a 	mov	r2,zero
   206d0:	00004606 	br	207ec <write_bits+0x148>

    // Push new bits into the buffer
    bit_buffer = (bit_buffer << size) | (code & ((1 << size) - 1));
   206d4:	d0e2e417 	ldw	r3,-29808(gp)
   206d8:	e0bffe17 	ldw	r2,-8(fp)
   206dc:	1886983a 	sll	r3,r3,r2
   206e0:	e13ffd0b 	ldhu	r4,-12(fp)
   206e4:	01400044 	movi	r5,1
   206e8:	e0bffe17 	ldw	r2,-8(fp)
   206ec:	2884983a 	sll	r2,r5,r2
   206f0:	10bfffc4 	addi	r2,r2,-1
   206f4:	2084703a 	and	r2,r4,r2
   206f8:	1884b03a 	or	r2,r3,r2
   206fc:	d0a2e415 	stw	r2,-29808(gp)
    bit_count += size;
   20700:	d0e2e517 	ldw	r3,-29804(gp)
   20704:	e0bffe17 	ldw	r2,-8(fp)
   20708:	1885883a 	add	r2,r3,r2
   2070c:	d0a2e515 	stw	r2,-29804(gp)

    // Extract complete 8-bit bytes whenever we have enough bits
    while (bit_count >= 8) {
   20710:	00003206 	br	207dc <write_bits+0x138>
        bit_count -= 8;
   20714:	d0a2e517 	ldw	r2,-29804(gp)
   20718:	10bffe04 	addi	r2,r2,-8
   2071c:	d0a2e515 	stw	r2,-29804(gp)
        UINT8 out_byte = (bit_buffer >> bit_count) & 0xFF;
   20720:	d0e2e417 	ldw	r3,-29808(gp)
   20724:	d0a2e517 	ldw	r2,-29804(gp)
   20728:	1884d83a 	srl	r2,r3,r2
   2072c:	e0bffc05 	stb	r2,-16(fp)

        if (!has_odd_byte) {
   20730:	d0a2e717 	ldw	r2,-29796(gp)
   20734:	1000051e 	bne	r2,zero,2074c <write_bits+0xa8>
            byte_buffer = out_byte;
   20738:	e0bffc03 	ldbu	r2,-16(fp)
   2073c:	d0a2e605 	stb	r2,-29800(gp)
            has_odd_byte = 1;
   20740:	00800044 	movi	r2,1
   20744:	d0a2e715 	stw	r2,-29796(gp)
   20748:	00000f06 	br	20788 <write_bits+0xe4>
        } else {
            // Pair the previous byte and current byte into a 16-bit word
            out_buffer[words_written++] = (INT16)((byte_buffer << 8) | out_byte);
   2074c:	e0bffb17 	ldw	r2,-20(fp)
   20750:	1085883a 	add	r2,r2,r2
   20754:	e0ffff17 	ldw	r3,-4(fp)
   20758:	1885883a 	add	r2,r3,r2
   2075c:	d0e2e603 	ldbu	r3,-29800(gp)
   20760:	18c03fcc 	andi	r3,r3,255
   20764:	1806923a 	slli	r3,r3,8
   20768:	1809883a 	mov	r4,r3
   2076c:	e0fffc03 	ldbu	r3,-16(fp)
   20770:	20c6b03a 	or	r3,r4,r3
   20774:	10c0000d 	sth	r3,0(r2)
   20778:	e0bffb17 	ldw	r2,-20(fp)
   2077c:	10800044 	addi	r2,r2,1
   20780:	e0bffb15 	stw	r2,-20(fp)
            has_odd_byte = 0;
   20784:	d022e715 	stw	zero,-29796(gp)
        }

        // JPEG Standard: If we emit 0xFF, the VERY NEXT byte MUST be 0x00
        if (out_byte == 0xFF) {
   20788:	e0bffc03 	ldbu	r2,-16(fp)
   2078c:	10803fd8 	cmpnei	r2,r2,255
   20790:	1000121e 	bne	r2,zero,207dc <write_bits+0x138>
            if (!has_odd_byte) {
   20794:	d0a2e717 	ldw	r2,-29796(gp)
   20798:	1000041e 	bne	r2,zero,207ac <write_bits+0x108>
                byte_buffer = 0x00;
   2079c:	d022e605 	stb	zero,-29800(gp)
                has_odd_byte = 1;
   207a0:	00800044 	movi	r2,1
   207a4:	d0a2e715 	stw	r2,-29796(gp)
   207a8:	00000c06 	br	207dc <write_bits+0x138>
            } else {
                out_buffer[words_written++] = (INT16)((byte_buffer << 8) | 0x00);
   207ac:	e0bffb17 	ldw	r2,-20(fp)
   207b0:	1085883a 	add	r2,r2,r2
   207b4:	e0ffff17 	ldw	r3,-4(fp)
   207b8:	1885883a 	add	r2,r3,r2
   207bc:	d0e2e603 	ldbu	r3,-29800(gp)
   207c0:	18c03fcc 	andi	r3,r3,255
   207c4:	1806923a 	slli	r3,r3,8
   207c8:	10c0000d 	sth	r3,0(r2)
   207cc:	e0bffb17 	ldw	r2,-20(fp)
   207d0:	10800044 	addi	r2,r2,1
   207d4:	e0bffb15 	stw	r2,-20(fp)
                has_odd_byte = 0;
   207d8:	d022e715 	stw	zero,-29796(gp)
    // Push new bits into the buffer
    bit_buffer = (bit_buffer << size) | (code & ((1 << size) - 1));
    bit_count += size;

    // Extract complete 8-bit bytes whenever we have enough bits
    while (bit_count >= 8) {
   207dc:	d0a2e517 	ldw	r2,-29804(gp)
   207e0:	10800208 	cmpgei	r2,r2,8
   207e4:	103fcb1e 	bne	r2,zero,20714 <write_bits+0x70>
                out_buffer[words_written++] = (INT16)((byte_buffer << 8) | 0x00);
                has_odd_byte = 0;
            }
        }
    }
    return words_written;
   207e8:	e0bffb17 	ldw	r2,-20(fp)
}
   207ec:	e037883a 	mov	sp,fp
   207f0:	df000017 	ldw	fp,0(sp)
   207f4:	dec00104 	addi	sp,sp,4
   207f8:	f800283a 	ret

000207fc <huffman_flush>:

// Flushes any remaining bits in the buffer at the end of the image
int huffman_flush(INT16 *out_buffer) {
   207fc:	defffb04 	addi	sp,sp,-20
   20800:	dfc00415 	stw	ra,16(sp)
   20804:	df000315 	stw	fp,12(sp)
   20808:	df000304 	addi	fp,sp,12
   2080c:	e13fff15 	stw	r4,-4(fp)
    int words_written = 0;
   20810:	e03ffd15 	stw	zero,-12(fp)

    // If there are leftover bits, pad the rest of the byte with 1s
    if (bit_count > 0) {
   20814:	d0a2e517 	ldw	r2,-29804(gp)
   20818:	0080140e 	bge	zero,r2,2086c <huffman_flush+0x70>
        int pad_size = 8 - bit_count;
   2081c:	d0a2e517 	ldw	r2,-29804(gp)
   20820:	00c00204 	movi	r3,8
   20824:	1885c83a 	sub	r2,r3,r2
   20828:	e0bffe15 	stw	r2,-8(fp)
        words_written += write_bits((1 << pad_size) - 1, pad_size, out_buffer + words_written);
   2082c:	00c00044 	movi	r3,1
   20830:	e0bffe17 	ldw	r2,-8(fp)
   20834:	1884983a 	sll	r2,r3,r2
   20838:	10bfffc4 	addi	r2,r2,-1
   2083c:	10ffffcc 	andi	r3,r2,65535
   20840:	e0bffd17 	ldw	r2,-12(fp)
   20844:	1085883a 	add	r2,r2,r2
   20848:	e13fff17 	ldw	r4,-4(fp)
   2084c:	2085883a 	add	r2,r4,r2
   20850:	1809883a 	mov	r4,r3
   20854:	e17ffe17 	ldw	r5,-8(fp)
   20858:	100d883a 	mov	r6,r2
   2085c:	00206a40 	call	206a4 <write_bits>
   20860:	e0fffd17 	ldw	r3,-12(fp)
   20864:	1885883a 	add	r2,r3,r2
   20868:	e0bffd15 	stw	r2,-12(fp)
    }
    
    // If we have an odd byte waiting to be paired into a 16-bit word, pad it with 0xFF
    if (has_odd_byte) {
   2086c:	d0a2e717 	ldw	r2,-29796(gp)
   20870:	10000d26 	beq	r2,zero,208a8 <huffman_flush+0xac>
        out_buffer[words_written++] = (INT16)((byte_buffer << 8) | 0xFF);
   20874:	e0bffd17 	ldw	r2,-12(fp)
   20878:	1085883a 	add	r2,r2,r2
   2087c:	e0ffff17 	ldw	r3,-4(fp)
   20880:	1885883a 	add	r2,r3,r2
   20884:	d0e2e603 	ldbu	r3,-29800(gp)
   20888:	18c03fcc 	andi	r3,r3,255
   2088c:	1806923a 	slli	r3,r3,8
   20890:	18c03fd4 	ori	r3,r3,255
   20894:	10c0000d 	sth	r3,0(r2)
   20898:	e0bffd17 	ldw	r2,-12(fp)
   2089c:	10800044 	addi	r2,r2,1
   208a0:	e0bffd15 	stw	r2,-12(fp)
        has_odd_byte = 0;
   208a4:	d022e715 	stw	zero,-29796(gp)
    }

    return words_written;
   208a8:	e0bffd17 	ldw	r2,-12(fp)
}
   208ac:	e037883a 	mov	sp,fp
   208b0:	dfc00117 	ldw	ra,4(sp)
   208b4:	df000017 	ldw	fp,0(sp)
   208b8:	dec00204 	addi	sp,sp,8
   208bc:	f800283a 	ret

000208c0 <huffman_encode_block>:

// The core Huffman compressor
int huffman_encode_block(INT16 *block, INT16 *prev_dc, int is_chroma, INT16 *out_fifo_buffer) {
   208c0:	deffed04 	addi	sp,sp,-76
   208c4:	dfc01215 	stw	ra,72(sp)
   208c8:	df001115 	stw	fp,68(sp)
   208cc:	df001104 	addi	fp,sp,68
   208d0:	e13ffc15 	stw	r4,-16(fp)
   208d4:	e17ffd15 	stw	r5,-12(fp)
   208d8:	e1bffe15 	stw	r6,-8(fp)
   208dc:	e1ffff15 	stw	r7,-4(fp)
    int words_generated = 0;
   208e0:	e03fef15 	stw	zero,-68(fp)
    
    // Select the correct tables based on Luminance vs. Chrominance
    UINT16 *dc_codes = is_chroma ? chrominance_dc_code_table : luminance_dc_code_table;
   208e4:	e0bffe17 	ldw	r2,-8(fp)
   208e8:	10000326 	beq	r2,zero,208f8 <huffman_encode_block+0x38>
   208ec:	008000f4 	movhi	r2,3
   208f0:	10945404 	addi	r2,r2,20816
   208f4:	00000206 	br	20900 <huffman_encode_block+0x40>
   208f8:	008000f4 	movhi	r2,3
   208fc:	10944804 	addi	r2,r2,20768
   20900:	e0bff215 	stw	r2,-56(fp)
    UINT16 *dc_sizes = is_chroma ? chrominance_dc_size_table : luminance_dc_size_table;
   20904:	e0bffe17 	ldw	r2,-8(fp)
   20908:	10000326 	beq	r2,zero,20918 <huffman_encode_block+0x58>
   2090c:	008000f4 	movhi	r2,3
   20910:	10945a04 	addi	r2,r2,20840
   20914:	00000206 	br	20920 <huffman_encode_block+0x60>
   20918:	008000f4 	movhi	r2,3
   2091c:	10944e04 	addi	r2,r2,20792
   20920:	e0bff315 	stw	r2,-52(fp)
    UINT16 *ac_codes = is_chroma ? chrominance_ac_code_table : luminance_ac_code_table;
   20924:	e0bffe17 	ldw	r2,-8(fp)
   20928:	10000326 	beq	r2,zero,20938 <huffman_encode_block+0x78>
   2092c:	008000f4 	movhi	r2,3
   20930:	1099ec04 	addi	r2,r2,26544
   20934:	00000206 	br	20940 <huffman_encode_block+0x80>
   20938:	008000f4 	movhi	r2,3
   2093c:	109b6c04 	addi	r2,r2,28080
   20940:	e0bff415 	stw	r2,-48(fp)
    UINT16 *ac_sizes = is_chroma ? chrominance_ac_size_table : luminance_ac_size_table;
   20944:	e0bffe17 	ldw	r2,-8(fp)
   20948:	10000326 	beq	r2,zero,20958 <huffman_encode_block+0x98>
   2094c:	008000f4 	movhi	r2,3
   20950:	109a6c04 	addi	r2,r2,27056
   20954:	00000206 	br	20960 <huffman_encode_block+0xa0>
   20958:	008000f4 	movhi	r2,3
   2095c:	109aec04 	addi	r2,r2,27568
   20960:	e0bff515 	stw	r2,-44(fp)

    // 1. DPCM Encode the DC Coefficient
    INT16 dc_diff = block[0] - *prev_dc;
   20964:	e0bffc17 	ldw	r2,-16(fp)
   20968:	1080000b 	ldhu	r2,0(r2)
   2096c:	1007883a 	mov	r3,r2
   20970:	e0bffd17 	ldw	r2,-12(fp)
   20974:	1080000b 	ldhu	r2,0(r2)
   20978:	1885c83a 	sub	r2,r3,r2
   2097c:	e0bff60d 	sth	r2,-40(fp)
    *prev_dc = block[0];
   20980:	e0bffc17 	ldw	r2,-16(fp)
   20984:	10c0000b 	ldhu	r3,0(r2)
   20988:	e0bffd17 	ldw	r2,-12(fp)
   2098c:	10c0000d 	sth	r3,0(r2)
    
    int dc_size = get_vli_size(dc_diff);
   20990:	e0bff60f 	ldh	r2,-40(fp)
   20994:	1009883a 	mov	r4,r2
   20998:	00206300 	call	20630 <get_vli_size>
   2099c:	e0bff715 	stw	r2,-36(fp)
    // Standard JPEG 1s complement for negative values
    UINT16 dc_vli = (dc_diff < 0) ? (dc_diff - 1) & ((1 << dc_size) - 1) : dc_diff;
   209a0:	e0bff60f 	ldh	r2,-40(fp)
   209a4:	1000090e 	bge	r2,zero,209cc <huffman_encode_block+0x10c>
   209a8:	e0bff60b 	ldhu	r2,-40(fp)
   209ac:	10bfffc4 	addi	r2,r2,-1
   209b0:	1007883a 	mov	r3,r2
   209b4:	01000044 	movi	r4,1
   209b8:	e0bff717 	ldw	r2,-36(fp)
   209bc:	2084983a 	sll	r2,r4,r2
   209c0:	10bfffc4 	addi	r2,r2,-1
   209c4:	1884703a 	and	r2,r3,r2
   209c8:	00000106 	br	209d0 <huffman_encode_block+0x110>
   209cc:	e0bff60b 	ldhu	r2,-40(fp)
   209d0:	e0bff80d 	sth	r2,-32(fp)

    words_generated += write_bits(dc_codes[dc_size], dc_sizes[dc_size], out_fifo_buffer + words_generated);
   209d4:	e0bff717 	ldw	r2,-36(fp)
   209d8:	1085883a 	add	r2,r2,r2
   209dc:	e0fff217 	ldw	r3,-56(fp)
   209e0:	1885883a 	add	r2,r3,r2
   209e4:	1080000b 	ldhu	r2,0(r2)
   209e8:	113fffcc 	andi	r4,r2,65535
   209ec:	e0bff717 	ldw	r2,-36(fp)
   209f0:	1085883a 	add	r2,r2,r2
   209f4:	e0fff317 	ldw	r3,-52(fp)
   209f8:	1885883a 	add	r2,r3,r2
   209fc:	1080000b 	ldhu	r2,0(r2)
   20a00:	10ffffcc 	andi	r3,r2,65535
   20a04:	e0bfef17 	ldw	r2,-68(fp)
   20a08:	1085883a 	add	r2,r2,r2
   20a0c:	e17fff17 	ldw	r5,-4(fp)
   20a10:	2885883a 	add	r2,r5,r2
   20a14:	180b883a 	mov	r5,r3
   20a18:	100d883a 	mov	r6,r2
   20a1c:	00206a40 	call	206a4 <write_bits>
   20a20:	e0ffef17 	ldw	r3,-68(fp)
   20a24:	1885883a 	add	r2,r3,r2
   20a28:	e0bfef15 	stw	r2,-68(fp)
    if (dc_size > 0) {
   20a2c:	e0bff717 	ldw	r2,-36(fp)
   20a30:	00800c0e 	bge	zero,r2,20a64 <huffman_encode_block+0x1a4>
        words_generated += write_bits(dc_vli, dc_size, out_fifo_buffer + words_generated);
   20a34:	e0fff80b 	ldhu	r3,-32(fp)
   20a38:	e0bfef17 	ldw	r2,-68(fp)
   20a3c:	1085883a 	add	r2,r2,r2
   20a40:	e13fff17 	ldw	r4,-4(fp)
   20a44:	2085883a 	add	r2,r4,r2
   20a48:	1809883a 	mov	r4,r3
   20a4c:	e17ff717 	ldw	r5,-36(fp)
   20a50:	100d883a 	mov	r6,r2
   20a54:	00206a40 	call	206a4 <write_bits>
   20a58:	e0ffef17 	ldw	r3,-68(fp)
   20a5c:	1885883a 	add	r2,r3,r2
   20a60:	e0bfef15 	stw	r2,-68(fp)
    }
    
    // 2. Run-Length Encode the AC Coefficients
    int zero_run = 0;
   20a64:	e03ff015 	stw	zero,-64(fp)
    int i;
    for (i = 1; i < 64; i++) {
   20a68:	00800044 	movi	r2,1
   20a6c:	e0bff115 	stw	r2,-60(fp)
   20a70:	00007706 	br	20c50 <huffman_encode_block+0x390>
        if (block[i] == 0) {
   20a74:	e0bff117 	ldw	r2,-60(fp)
   20a78:	1085883a 	add	r2,r2,r2
   20a7c:	e0fffc17 	ldw	r3,-16(fp)
   20a80:	1885883a 	add	r2,r3,r2
   20a84:	1080000b 	ldhu	r2,0(r2)
   20a88:	10bfffcc 	andi	r2,r2,65535
   20a8c:	10a0001c 	xori	r2,r2,32768
   20a90:	10a00004 	addi	r2,r2,-32768
   20a94:	1000191e 	bne	r2,zero,20afc <huffman_encode_block+0x23c>
            zero_run++;
   20a98:	e0bff017 	ldw	r2,-64(fp)
   20a9c:	10800044 	addi	r2,r2,1
   20aa0:	e0bff015 	stw	r2,-64(fp)
   20aa4:	00006706 	br	20c44 <huffman_encode_block+0x384>
        } else {
            // Write ZRL (Zero Run Length) markers for every 16 consecutive zeros
            while (zero_run >= 16) {
                words_generated += write_bits(ac_codes[0xF0], ac_sizes[0xF0], out_fifo_buffer + words_generated);
   20aa8:	e0bff417 	ldw	r2,-48(fp)
   20aac:	10807804 	addi	r2,r2,480
   20ab0:	1080000b 	ldhu	r2,0(r2)
   20ab4:	113fffcc 	andi	r4,r2,65535
   20ab8:	e0bff517 	ldw	r2,-44(fp)
   20abc:	10807804 	addi	r2,r2,480
   20ac0:	1080000b 	ldhu	r2,0(r2)
   20ac4:	10ffffcc 	andi	r3,r2,65535
   20ac8:	e0bfef17 	ldw	r2,-68(fp)
   20acc:	1085883a 	add	r2,r2,r2
   20ad0:	e17fff17 	ldw	r5,-4(fp)
   20ad4:	2885883a 	add	r2,r5,r2
   20ad8:	180b883a 	mov	r5,r3
   20adc:	100d883a 	mov	r6,r2
   20ae0:	00206a40 	call	206a4 <write_bits>
   20ae4:	e0ffef17 	ldw	r3,-68(fp)
   20ae8:	1885883a 	add	r2,r3,r2
   20aec:	e0bfef15 	stw	r2,-68(fp)
                zero_run -= 16;
   20af0:	e0bff017 	ldw	r2,-64(fp)
   20af4:	10bffc04 	addi	r2,r2,-16
   20af8:	e0bff015 	stw	r2,-64(fp)
    for (i = 1; i < 64; i++) {
        if (block[i] == 0) {
            zero_run++;
        } else {
            // Write ZRL (Zero Run Length) markers for every 16 consecutive zeros
            while (zero_run >= 16) {
   20afc:	e0bff017 	ldw	r2,-64(fp)
   20b00:	10800408 	cmpgei	r2,r2,16
   20b04:	103fe81e 	bne	r2,zero,20aa8 <huffman_encode_block+0x1e8>
                words_generated += write_bits(ac_codes[0xF0], ac_sizes[0xF0], out_fifo_buffer + words_generated);
                zero_run -= 16;
            }

            int ac_size = get_vli_size(block[i]);
   20b08:	e0bff117 	ldw	r2,-60(fp)
   20b0c:	1085883a 	add	r2,r2,r2
   20b10:	e0fffc17 	ldw	r3,-16(fp)
   20b14:	1885883a 	add	r2,r3,r2
   20b18:	1080000b 	ldhu	r2,0(r2)
   20b1c:	10bfffcc 	andi	r2,r2,65535
   20b20:	10a0001c 	xori	r2,r2,32768
   20b24:	10a00004 	addi	r2,r2,-32768
   20b28:	1009883a 	mov	r4,r2
   20b2c:	00206300 	call	20630 <get_vli_size>
   20b30:	e0bff915 	stw	r2,-28(fp)
            UINT16 ac_vli = (block[i] < 0) ? (block[i] - 1) & ((1 << ac_size) - 1) : block[i];
   20b34:	e0bff117 	ldw	r2,-60(fp)
   20b38:	1085883a 	add	r2,r2,r2
   20b3c:	e0fffc17 	ldw	r3,-16(fp)
   20b40:	1885883a 	add	r2,r3,r2
   20b44:	1080000b 	ldhu	r2,0(r2)
   20b48:	10bfffcc 	andi	r2,r2,65535
   20b4c:	10a0001c 	xori	r2,r2,32768
   20b50:	10a00004 	addi	r2,r2,-32768
   20b54:	10000d0e 	bge	r2,zero,20b8c <huffman_encode_block+0x2cc>
   20b58:	e0bff117 	ldw	r2,-60(fp)
   20b5c:	1085883a 	add	r2,r2,r2
   20b60:	e0fffc17 	ldw	r3,-16(fp)
   20b64:	1885883a 	add	r2,r3,r2
   20b68:	1080000b 	ldhu	r2,0(r2)
   20b6c:	10bfffc4 	addi	r2,r2,-1
   20b70:	1007883a 	mov	r3,r2
   20b74:	01000044 	movi	r4,1
   20b78:	e0bff917 	ldw	r2,-28(fp)
   20b7c:	2084983a 	sll	r2,r4,r2
   20b80:	10bfffc4 	addi	r2,r2,-1
   20b84:	1884703a 	and	r2,r3,r2
   20b88:	00000506 	br	20ba0 <huffman_encode_block+0x2e0>
   20b8c:	e0bff117 	ldw	r2,-60(fp)
   20b90:	1085883a 	add	r2,r2,r2
   20b94:	e0fffc17 	ldw	r3,-16(fp)
   20b98:	1885883a 	add	r2,r3,r2
   20b9c:	1080000b 	ldhu	r2,0(r2)
   20ba0:	e0bffa0d 	sth	r2,-24(fp)

            // The high nibble is the run length, the low nibble is the size
            int symbol = (zero_run << 4) | ac_size;
   20ba4:	e0bff017 	ldw	r2,-64(fp)
   20ba8:	1006913a 	slli	r3,r2,4
   20bac:	e0bff917 	ldw	r2,-28(fp)
   20bb0:	1884b03a 	or	r2,r3,r2
   20bb4:	e0bffb15 	stw	r2,-20(fp)

            words_generated += write_bits(ac_codes[symbol], ac_sizes[symbol], out_fifo_buffer + words_generated);
   20bb8:	e0bffb17 	ldw	r2,-20(fp)
   20bbc:	1085883a 	add	r2,r2,r2
   20bc0:	e0fff417 	ldw	r3,-48(fp)
   20bc4:	1885883a 	add	r2,r3,r2
   20bc8:	1080000b 	ldhu	r2,0(r2)
   20bcc:	113fffcc 	andi	r4,r2,65535
   20bd0:	e0bffb17 	ldw	r2,-20(fp)
   20bd4:	1085883a 	add	r2,r2,r2
   20bd8:	e0fff517 	ldw	r3,-44(fp)
   20bdc:	1885883a 	add	r2,r3,r2
   20be0:	1080000b 	ldhu	r2,0(r2)
   20be4:	10ffffcc 	andi	r3,r2,65535
   20be8:	e0bfef17 	ldw	r2,-68(fp)
   20bec:	1085883a 	add	r2,r2,r2
   20bf0:	e17fff17 	ldw	r5,-4(fp)
   20bf4:	2885883a 	add	r2,r5,r2
   20bf8:	180b883a 	mov	r5,r3
   20bfc:	100d883a 	mov	r6,r2
   20c00:	00206a40 	call	206a4 <write_bits>
   20c04:	e0ffef17 	ldw	r3,-68(fp)
   20c08:	1885883a 	add	r2,r3,r2
   20c0c:	e0bfef15 	stw	r2,-68(fp)
            words_generated += write_bits(ac_vli, ac_size, out_fifo_buffer + words_generated);
   20c10:	e0fffa0b 	ldhu	r3,-24(fp)
   20c14:	e0bfef17 	ldw	r2,-68(fp)
   20c18:	1085883a 	add	r2,r2,r2
   20c1c:	e13fff17 	ldw	r4,-4(fp)
   20c20:	2085883a 	add	r2,r4,r2
   20c24:	1809883a 	mov	r4,r3
   20c28:	e17ff917 	ldw	r5,-28(fp)
   20c2c:	100d883a 	mov	r6,r2
   20c30:	00206a40 	call	206a4 <write_bits>
   20c34:	e0ffef17 	ldw	r3,-68(fp)
   20c38:	1885883a 	add	r2,r3,r2
   20c3c:	e0bfef15 	stw	r2,-68(fp)
            zero_run = 0;
   20c40:	e03ff015 	stw	zero,-64(fp)
    }
    
    // 2. Run-Length Encode the AC Coefficients
    int zero_run = 0;
    int i;
    for (i = 1; i < 64; i++) {
   20c44:	e0bff117 	ldw	r2,-60(fp)
   20c48:	10800044 	addi	r2,r2,1
   20c4c:	e0bff115 	stw	r2,-60(fp)
   20c50:	e0bff117 	ldw	r2,-60(fp)
   20c54:	10801010 	cmplti	r2,r2,64
   20c58:	103f861e 	bne	r2,zero,20a74 <huffman_encode_block+0x1b4>
            zero_run = 0;
        }
    }
    
    // 3. Write End of Block (EOB) if block ends with zeros
    if (zero_run > 0) {
   20c5c:	e0bff017 	ldw	r2,-64(fp)
   20c60:	0080100e 	bge	zero,r2,20ca4 <huffman_encode_block+0x3e4>
        words_generated += write_bits(ac_codes[0x00], ac_sizes[0x00], out_fifo_buffer + words_generated);
   20c64:	e0bff417 	ldw	r2,-48(fp)
   20c68:	1080000b 	ldhu	r2,0(r2)
   20c6c:	113fffcc 	andi	r4,r2,65535
   20c70:	e0bff517 	ldw	r2,-44(fp)
   20c74:	1080000b 	ldhu	r2,0(r2)
   20c78:	10ffffcc 	andi	r3,r2,65535
   20c7c:	e0bfef17 	ldw	r2,-68(fp)
   20c80:	1085883a 	add	r2,r2,r2
   20c84:	e17fff17 	ldw	r5,-4(fp)
   20c88:	2885883a 	add	r2,r5,r2
   20c8c:	180b883a 	mov	r5,r3
   20c90:	100d883a 	mov	r6,r2
   20c94:	00206a40 	call	206a4 <write_bits>
   20c98:	e0ffef17 	ldw	r3,-68(fp)
   20c9c:	1885883a 	add	r2,r3,r2
   20ca0:	e0bfef15 	stw	r2,-68(fp)
    }
    
    return words_generated;
   20ca4:	e0bfef17 	ldw	r2,-68(fp)
}
   20ca8:	e037883a 	mov	sp,fp
   20cac:	dfc00117 	ldw	ra,4(sp)
   20cb0:	df000017 	ldw	fp,0(sp)
   20cb4:	dec00204 	addi	sp,sp,8
   20cb8:	f800283a 	ret

00020cbc <parse_image_header>:
    12, 19, 26, 33, 40, 48, 41, 34, 27, 20, 13,  6,  7, 14, 21, 28,
    35, 42, 50, 56, 49, 43, 36, 29, 22, 15, 23, 30, 37, 44, 51, 57,
    58, 52, 45, 38, 31, 39, 46, 53, 59, 60, 61, 54, 47, 55, 62, 63
};

int parse_image_header(FILE *file, int *width, int *height, int *pixel_offset, int *bpp) {
   20cbc:	deffec04 	addi	sp,sp,-80
   20cc0:	dfc01315 	stw	ra,76(sp)
   20cc4:	df001215 	stw	fp,72(sp)
   20cc8:	df001204 	addi	fp,sp,72
   20ccc:	e13ffc15 	stw	r4,-16(fp)
   20cd0:	e17ffd15 	stw	r5,-12(fp)
   20cd4:	e1bffe15 	stw	r6,-8(fp)
   20cd8:	e1ffff15 	stw	r7,-4(fp)
    unsigned char header[54];
    if (fread(header, 1, 54, file) < 54) { rewind(file); return 0; }
   20cdc:	e13fee04 	addi	r4,fp,-72
   20ce0:	01400044 	movi	r5,1
   20ce4:	01800d84 	movi	r6,54
   20ce8:	e1fffc17 	ldw	r7,-16(fp)
   20cec:	0023b840 	call	23b84 <fread>
   20cf0:	10800da8 	cmpgeui	r2,r2,54
   20cf4:	1000041e 	bne	r2,zero,20d08 <parse_image_header+0x4c>
   20cf8:	e13ffc17 	ldw	r4,-16(fp)
   20cfc:	00256700 	call	25670 <rewind>
   20d00:	0005883a 	mov	r2,zero
   20d04:	00004506 	br	20e1c <parse_image_header+0x160>
    if (header[0] == 'B' && header[1] == 'M') {
   20d08:	e0bfee03 	ldbu	r2,-72(fp)
   20d0c:	10803fcc 	andi	r2,r2,255
   20d10:	10801098 	cmpnei	r2,r2,66
   20d14:	10003e1e 	bne	r2,zero,20e10 <parse_image_header+0x154>
   20d18:	e0bfee43 	ldbu	r2,-71(fp)
   20d1c:	10803fcc 	andi	r2,r2,255
   20d20:	10801358 	cmpnei	r2,r2,77
   20d24:	10003a1e 	bne	r2,zero,20e10 <parse_image_header+0x154>
        *width  = header[18] | (header[19] << 8) | (header[20] << 16) | (header[21] << 24);
   20d28:	e0bff283 	ldbu	r2,-54(fp)
   20d2c:	10c03fcc 	andi	r3,r2,255
   20d30:	e0bff2c3 	ldbu	r2,-53(fp)
   20d34:	10803fcc 	andi	r2,r2,255
   20d38:	1004923a 	slli	r2,r2,8
   20d3c:	1886b03a 	or	r3,r3,r2
   20d40:	e0bff303 	ldbu	r2,-52(fp)
   20d44:	10803fcc 	andi	r2,r2,255
   20d48:	1004943a 	slli	r2,r2,16
   20d4c:	1886b03a 	or	r3,r3,r2
   20d50:	e0bff343 	ldbu	r2,-51(fp)
   20d54:	10803fcc 	andi	r2,r2,255
   20d58:	1004963a 	slli	r2,r2,24
   20d5c:	1886b03a 	or	r3,r3,r2
   20d60:	e0bffd17 	ldw	r2,-12(fp)
   20d64:	10c00015 	stw	r3,0(r2)
        *height = header[22] | (header[23] << 8) | (header[24] << 16) | (header[25] << 24);
   20d68:	e0bff383 	ldbu	r2,-50(fp)
   20d6c:	10c03fcc 	andi	r3,r2,255
   20d70:	e0bff3c3 	ldbu	r2,-49(fp)
   20d74:	10803fcc 	andi	r2,r2,255
   20d78:	1004923a 	slli	r2,r2,8
   20d7c:	1886b03a 	or	r3,r3,r2
   20d80:	e0bff403 	ldbu	r2,-48(fp)
   20d84:	10803fcc 	andi	r2,r2,255
   20d88:	1004943a 	slli	r2,r2,16
   20d8c:	1886b03a 	or	r3,r3,r2
   20d90:	e0bff443 	ldbu	r2,-47(fp)
   20d94:	10803fcc 	andi	r2,r2,255
   20d98:	1004963a 	slli	r2,r2,24
   20d9c:	1886b03a 	or	r3,r3,r2
   20da0:	e0bffe17 	ldw	r2,-8(fp)
   20da4:	10c00015 	stw	r3,0(r2)
        *pixel_offset = header[10] | (header[11] << 8) | (header[12] << 16) | (header[13] << 24);
   20da8:	e0bff083 	ldbu	r2,-62(fp)
   20dac:	10c03fcc 	andi	r3,r2,255
   20db0:	e0bff0c3 	ldbu	r2,-61(fp)
   20db4:	10803fcc 	andi	r2,r2,255
   20db8:	1004923a 	slli	r2,r2,8
   20dbc:	1886b03a 	or	r3,r3,r2
   20dc0:	e0bff103 	ldbu	r2,-60(fp)
   20dc4:	10803fcc 	andi	r2,r2,255
   20dc8:	1004943a 	slli	r2,r2,16
   20dcc:	1886b03a 	or	r3,r3,r2
   20dd0:	e0bff143 	ldbu	r2,-59(fp)
   20dd4:	10803fcc 	andi	r2,r2,255
   20dd8:	1004963a 	slli	r2,r2,24
   20ddc:	1886b03a 	or	r3,r3,r2
   20de0:	e0bfff17 	ldw	r2,-4(fp)
   20de4:	10c00015 	stw	r3,0(r2)
        *bpp = header[28] | (header[29] << 8);
   20de8:	e0bff503 	ldbu	r2,-44(fp)
   20dec:	10c03fcc 	andi	r3,r2,255
   20df0:	e0bff543 	ldbu	r2,-43(fp)
   20df4:	10803fcc 	andi	r2,r2,255
   20df8:	1004923a 	slli	r2,r2,8
   20dfc:	1886b03a 	or	r3,r3,r2
   20e00:	e0800217 	ldw	r2,8(fp)
   20e04:	10c00015 	stw	r3,0(r2)
        return 1;
   20e08:	00800044 	movi	r2,1
   20e0c:	00000306 	br	20e1c <parse_image_header+0x160>
    }
    rewind(file);
   20e10:	e13ffc17 	ldw	r4,-16(fp)
   20e14:	00256700 	call	25670 <rewind>
    return 0;
   20e18:	0005883a 	mov	r2,zero
}
   20e1c:	e037883a 	mov	sp,fp
   20e20:	dfc00117 	ldw	ra,4(sp)
   20e24:	df000017 	ldw	fp,0(sp)
   20e28:	dec00204 	addi	sp,sp,8
   20e2c:	f800283a 	ret

00020e30 <send_dqt_to_stage4>:

void send_dqt_to_stage4() {
   20e30:	defffc04 	addi	sp,sp,-16
   20e34:	dfc00315 	stw	ra,12(sp)
   20e38:	df000215 	stw	fp,8(sp)
   20e3c:	df000204 	addi	fp,sp,8
    INT16 send_buffer[1];
    int i;
    for (i = 0; i < 64; i++) {
   20e40:	e03ffe15 	stw	zero,-8(fp)
   20e44:	00001206 	br	20e90 <send_dqt_to_stage4+0x60>
        send_buffer[0] = (INT16)global_scaled_q_luma[i];
   20e48:	00c000f4 	movhi	r3,3
   20e4c:	18dbec04 	addi	r3,r3,28592
   20e50:	e0bffe17 	ldw	r2,-8(fp)
   20e54:	1885883a 	add	r2,r3,r2
   20e58:	10800003 	ldbu	r2,0(r2)
   20e5c:	10803fcc 	andi	r2,r2,255
   20e60:	e0bfff0d 	sth	r2,-4(fp)
        fifo_write_block(FIFO_OUT_TO_4_BASE, FIFO_OUT_TO_4_CSR_BASE, send_buffer, 1);
   20e64:	e0bfff04 	addi	r2,fp,-4
   20e68:	01000134 	movhi	r4,4
   20e6c:	21042d04 	addi	r4,r4,4276
   20e70:	01400134 	movhi	r5,4
   20e74:	29440804 	addi	r5,r5,4128
   20e78:	100d883a 	mov	r6,r2
   20e7c:	01c00044 	movi	r7,1
   20e80:	00220400 	call	22040 <fifo_write_block>
}

void send_dqt_to_stage4() {
    INT16 send_buffer[1];
    int i;
    for (i = 0; i < 64; i++) {
   20e84:	e0bffe17 	ldw	r2,-8(fp)
   20e88:	10800044 	addi	r2,r2,1
   20e8c:	e0bffe15 	stw	r2,-8(fp)
   20e90:	e0bffe17 	ldw	r2,-8(fp)
   20e94:	10801010 	cmplti	r2,r2,64
   20e98:	103feb1e 	bne	r2,zero,20e48 <send_dqt_to_stage4+0x18>
        send_buffer[0] = (INT16)global_scaled_q_luma[i];
        fifo_write_block(FIFO_OUT_TO_4_BASE, FIFO_OUT_TO_4_CSR_BASE, send_buffer, 1);
    }
    for (i = 0; i < 64; i++) {
   20e9c:	e03ffe15 	stw	zero,-8(fp)
   20ea0:	00001206 	br	20eec <send_dqt_to_stage4+0xbc>
        send_buffer[0] = (INT16)global_scaled_q_chroma[i];
   20ea4:	00c000f4 	movhi	r3,3
   20ea8:	18dbfc04 	addi	r3,r3,28656
   20eac:	e0bffe17 	ldw	r2,-8(fp)
   20eb0:	1885883a 	add	r2,r3,r2
   20eb4:	10800003 	ldbu	r2,0(r2)
   20eb8:	10803fcc 	andi	r2,r2,255
   20ebc:	e0bfff0d 	sth	r2,-4(fp)
        fifo_write_block(FIFO_OUT_TO_4_BASE, FIFO_OUT_TO_4_CSR_BASE, send_buffer, 1);
   20ec0:	e0bfff04 	addi	r2,fp,-4
   20ec4:	01000134 	movhi	r4,4
   20ec8:	21042d04 	addi	r4,r4,4276
   20ecc:	01400134 	movhi	r5,4
   20ed0:	29440804 	addi	r5,r5,4128
   20ed4:	100d883a 	mov	r6,r2
   20ed8:	01c00044 	movi	r7,1
   20edc:	00220400 	call	22040 <fifo_write_block>
    int i;
    for (i = 0; i < 64; i++) {
        send_buffer[0] = (INT16)global_scaled_q_luma[i];
        fifo_write_block(FIFO_OUT_TO_4_BASE, FIFO_OUT_TO_4_CSR_BASE, send_buffer, 1);
    }
    for (i = 0; i < 64; i++) {
   20ee0:	e0bffe17 	ldw	r2,-8(fp)
   20ee4:	10800044 	addi	r2,r2,1
   20ee8:	e0bffe15 	stw	r2,-8(fp)
   20eec:	e0bffe17 	ldw	r2,-8(fp)
   20ef0:	10801010 	cmplti	r2,r2,64
   20ef4:	103feb1e 	bne	r2,zero,20ea4 <send_dqt_to_stage4+0x74>
        send_buffer[0] = (INT16)global_scaled_q_chroma[i];
        fifo_write_block(FIFO_OUT_TO_4_BASE, FIFO_OUT_TO_4_CSR_BASE, send_buffer, 1);
    }
}
   20ef8:	e037883a 	mov	sp,fp
   20efc:	dfc00117 	ldw	ra,4(sp)
   20f00:	df000017 	ldw	fp,0(sp)
   20f04:	dec00204 	addi	sp,sp,8
   20f08:	f800283a 	ret

00020f0c <send_dht_to_stage5>:

void send_dht_to_stage5() {
   20f0c:	defffe04 	addi	sp,sp,-8
   20f10:	dfc00115 	stw	ra,4(sp)
   20f14:	df000015 	stw	fp,0(sp)
   20f18:	d839883a 	mov	fp,sp
    fifo_write_block(FIFO_OUT_TO_5_BASE, FIFO_OUT_TO_5_CSR_BASE, luminance_dc_code_table, 12);
   20f1c:	01000134 	movhi	r4,4
   20f20:	21042c04 	addi	r4,r4,4272
   20f24:	01400134 	movhi	r5,4
   20f28:	29440004 	addi	r5,r5,4096
   20f2c:	018000f4 	movhi	r6,3
   20f30:	31944804 	addi	r6,r6,20768
   20f34:	01c00304 	movi	r7,12
   20f38:	00220400 	call	22040 <fifo_write_block>
    fifo_write_block(FIFO_OUT_TO_5_BASE, FIFO_OUT_TO_5_CSR_BASE, luminance_dc_size_table, 12);
   20f3c:	01000134 	movhi	r4,4
   20f40:	21042c04 	addi	r4,r4,4272
   20f44:	01400134 	movhi	r5,4
   20f48:	29440004 	addi	r5,r5,4096
   20f4c:	018000f4 	movhi	r6,3
   20f50:	31944e04 	addi	r6,r6,20792
   20f54:	01c00304 	movi	r7,12
   20f58:	00220400 	call	22040 <fifo_write_block>
    fifo_write_block(FIFO_OUT_TO_5_BASE, FIFO_OUT_TO_5_CSR_BASE, chrominance_dc_code_table, 12);
   20f5c:	01000134 	movhi	r4,4
   20f60:	21042c04 	addi	r4,r4,4272
   20f64:	01400134 	movhi	r5,4
   20f68:	29440004 	addi	r5,r5,4096
   20f6c:	018000f4 	movhi	r6,3
   20f70:	31945404 	addi	r6,r6,20816
   20f74:	01c00304 	movi	r7,12
   20f78:	00220400 	call	22040 <fifo_write_block>
    fifo_write_block(FIFO_OUT_TO_5_BASE, FIFO_OUT_TO_5_CSR_BASE, chrominance_dc_size_table, 12);
   20f7c:	01000134 	movhi	r4,4
   20f80:	21042c04 	addi	r4,r4,4272
   20f84:	01400134 	movhi	r5,4
   20f88:	29440004 	addi	r5,r5,4096
   20f8c:	018000f4 	movhi	r6,3
   20f90:	31945a04 	addi	r6,r6,20840
   20f94:	01c00304 	movi	r7,12
   20f98:	00220400 	call	22040 <fifo_write_block>
    fifo_write_block(FIFO_OUT_TO_5_BASE, FIFO_OUT_TO_5_CSR_BASE, luminance_ac_code_table, 256);
   20f9c:	01000134 	movhi	r4,4
   20fa0:	21042c04 	addi	r4,r4,4272
   20fa4:	01400134 	movhi	r5,4
   20fa8:	29440004 	addi	r5,r5,4096
   20fac:	018000f4 	movhi	r6,3
   20fb0:	319b6c04 	addi	r6,r6,28080
   20fb4:	01c04004 	movi	r7,256
   20fb8:	00220400 	call	22040 <fifo_write_block>
    fifo_write_block(FIFO_OUT_TO_5_BASE, FIFO_OUT_TO_5_CSR_BASE, luminance_ac_size_table, 256);
   20fbc:	01000134 	movhi	r4,4
   20fc0:	21042c04 	addi	r4,r4,4272
   20fc4:	01400134 	movhi	r5,4
   20fc8:	29440004 	addi	r5,r5,4096
   20fcc:	018000f4 	movhi	r6,3
   20fd0:	319aec04 	addi	r6,r6,27568
   20fd4:	01c04004 	movi	r7,256
   20fd8:	00220400 	call	22040 <fifo_write_block>
    fifo_write_block(FIFO_OUT_TO_5_BASE, FIFO_OUT_TO_5_CSR_BASE, chrominance_ac_code_table, 256);
   20fdc:	01000134 	movhi	r4,4
   20fe0:	21042c04 	addi	r4,r4,4272
   20fe4:	01400134 	movhi	r5,4
   20fe8:	29440004 	addi	r5,r5,4096
   20fec:	018000f4 	movhi	r6,3
   20ff0:	3199ec04 	addi	r6,r6,26544
   20ff4:	01c04004 	movi	r7,256
   20ff8:	00220400 	call	22040 <fifo_write_block>
    fifo_write_block(FIFO_OUT_TO_5_BASE, FIFO_OUT_TO_5_CSR_BASE, chrominance_ac_size_table, 256);
   20ffc:	01000134 	movhi	r4,4
   21000:	21042c04 	addi	r4,r4,4272
   21004:	01400134 	movhi	r5,4
   21008:	29440004 	addi	r5,r5,4096
   2100c:	018000f4 	movhi	r6,3
   21010:	319a6c04 	addi	r6,r6,27056
   21014:	01c04004 	movi	r7,256
   21018:	00220400 	call	22040 <fifo_write_block>
}
   2101c:	e037883a 	mov	sp,fp
   21020:	dfc00117 	ldw	ra,4(sp)
   21024:	df000017 	ldw	fp,0(sp)
   21028:	dec00204 	addi	sp,sp,8
   2102c:	f800283a 	ret

00021030 <send_output_filename_to_stage6>:

void send_output_filename_to_stage6(char *filename) {
   21030:	defffb04 	addi	sp,sp,-20
   21034:	dfc00415 	stw	ra,16(sp)
   21038:	df000315 	stw	fp,12(sp)
   2103c:	df000304 	addi	fp,sp,12
   21040:	e13fff15 	stw	r4,-4(fp)
    INT16 name_len = strlen(filename) + 1;
   21044:	e13fff17 	ldw	r4,-4(fp)
   21048:	00258280 	call	25828 <strlen>
   2104c:	10800044 	addi	r2,r2,1
   21050:	e0bffe0d 	sth	r2,-8(fp)
    fifo_write_block(FIFO_OUT_TO_6_BASE, FIFO_OUT_TO_6_CSR_BASE, &name_len, 1);
   21054:	e0bffe04 	addi	r2,fp,-8
   21058:	01000134 	movhi	r4,4
   2105c:	21042e04 	addi	r4,r4,4280
   21060:	01400134 	movhi	r5,4
   21064:	29441004 	addi	r5,r5,4160
   21068:	100d883a 	mov	r6,r2
   2106c:	01c00044 	movi	r7,1
   21070:	00220400 	call	22040 <fifo_write_block>

    int i;
    INT16 char_val;
    for (i = 0; i < name_len; i++) {
   21074:	e03ffd15 	stw	zero,-12(fp)
   21078:	00001306 	br	210c8 <send_output_filename_to_stage6+0x98>
        char_val = (INT16)filename[i];
   2107c:	e0bffd17 	ldw	r2,-12(fp)
   21080:	e0ffff17 	ldw	r3,-4(fp)
   21084:	1885883a 	add	r2,r3,r2
   21088:	10800003 	ldbu	r2,0(r2)
   2108c:	10803fcc 	andi	r2,r2,255
   21090:	1080201c 	xori	r2,r2,128
   21094:	10bfe004 	addi	r2,r2,-128
   21098:	e0bffe8d 	sth	r2,-6(fp)
        fifo_write_block(FIFO_OUT_TO_6_BASE, FIFO_OUT_TO_6_CSR_BASE, &char_val, 1);
   2109c:	e0bffe84 	addi	r2,fp,-6
   210a0:	01000134 	movhi	r4,4
   210a4:	21042e04 	addi	r4,r4,4280
   210a8:	01400134 	movhi	r5,4
   210ac:	29441004 	addi	r5,r5,4160
   210b0:	100d883a 	mov	r6,r2
   210b4:	01c00044 	movi	r7,1
   210b8:	00220400 	call	22040 <fifo_write_block>
    INT16 name_len = strlen(filename) + 1;
    fifo_write_block(FIFO_OUT_TO_6_BASE, FIFO_OUT_TO_6_CSR_BASE, &name_len, 1);

    int i;
    INT16 char_val;
    for (i = 0; i < name_len; i++) {
   210bc:	e0bffd17 	ldw	r2,-12(fp)
   210c0:	10800044 	addi	r2,r2,1
   210c4:	e0bffd15 	stw	r2,-12(fp)
   210c8:	e0bffe0b 	ldhu	r2,-8(fp)
   210cc:	10bfffcc 	andi	r2,r2,65535
   210d0:	10a0001c 	xori	r2,r2,32768
   210d4:	10a00004 	addi	r2,r2,-32768
   210d8:	e0fffd17 	ldw	r3,-12(fp)
   210dc:	18bfe716 	blt	r3,r2,2107c <send_output_filename_to_stage6+0x4c>
        char_val = (INT16)filename[i];
        fifo_write_block(FIFO_OUT_TO_6_BASE, FIFO_OUT_TO_6_CSR_BASE, &char_val, 1);
    }
}
   210e0:	e037883a 	mov	sp,fp
   210e4:	dfc00117 	ldw	ra,4(sp)
   210e8:	df000017 	ldw	fp,0(sp)
   210ec:	dec00204 	addi	sp,sp,8
   210f0:	f800283a 	ret

000210f4 <send_dynamic_header>:

void send_dynamic_header(int width, int height) {
   210f4:	defff904 	addi	sp,sp,-28
   210f8:	dfc00615 	stw	ra,24(sp)
   210fc:	df000515 	stw	fp,20(sp)
   21100:	df000504 	addi	fp,sp,20
   21104:	e13ffe15 	stw	r4,-8(fp)
   21108:	e17fff15 	stw	r5,-4(fp)
    memcpy(global_dynamic_header, full_jpeg_headers_template, 623);
   2110c:	00c00134 	movhi	r3,4
   21110:	18e08c04 	addi	r3,r3,-32208
   21114:	008000f4 	movhi	r2,3
   21118:	1090aa04 	addi	r2,r2,17064
   2111c:	1809883a 	mov	r4,r3
   21120:	1007883a 	mov	r3,r2
   21124:	00809bc4 	movi	r2,623
   21128:	180b883a 	mov	r5,r3
   2112c:	100d883a 	mov	r6,r2
   21130:	00250a80 	call	250a8 <memcpy>

    int i;
    for(i = 0; i < 64; i++) {
   21134:	e03ffb15 	stw	zero,-20(fp)
   21138:	00002506 	br	211d0 <send_dynamic_header+0xdc>
        global_dynamic_header[25 + i] = global_scaled_q_luma[ZIGZAG[i]];
   2113c:	e0bffb17 	ldw	r2,-20(fp)
   21140:	11000644 	addi	r4,r2,25
   21144:	00c000f4 	movhi	r3,3
   21148:	18d16604 	addi	r3,r3,17816
   2114c:	e0bffb17 	ldw	r2,-20(fp)
   21150:	1085883a 	add	r2,r2,r2
   21154:	1085883a 	add	r2,r2,r2
   21158:	1885883a 	add	r2,r3,r2
   2115c:	10800017 	ldw	r2,0(r2)
   21160:	00c000f4 	movhi	r3,3
   21164:	18dbec04 	addi	r3,r3,28592
   21168:	1885883a 	add	r2,r3,r2
   2116c:	10c00003 	ldbu	r3,0(r2)
   21170:	00800134 	movhi	r2,4
   21174:	10a08c04 	addi	r2,r2,-32208
   21178:	1105883a 	add	r2,r2,r4
   2117c:	10c00005 	stb	r3,0(r2)
        global_dynamic_header[94 + i] = global_scaled_q_chroma[ZIGZAG[i]];
   21180:	e0bffb17 	ldw	r2,-20(fp)
   21184:	11001784 	addi	r4,r2,94
   21188:	00c000f4 	movhi	r3,3
   2118c:	18d16604 	addi	r3,r3,17816
   21190:	e0bffb17 	ldw	r2,-20(fp)
   21194:	1085883a 	add	r2,r2,r2
   21198:	1085883a 	add	r2,r2,r2
   2119c:	1885883a 	add	r2,r3,r2
   211a0:	10800017 	ldw	r2,0(r2)
   211a4:	00c000f4 	movhi	r3,3
   211a8:	18dbfc04 	addi	r3,r3,28656
   211ac:	1885883a 	add	r2,r3,r2
   211b0:	10c00003 	ldbu	r3,0(r2)
   211b4:	00800134 	movhi	r2,4
   211b8:	10a08c04 	addi	r2,r2,-32208
   211bc:	1105883a 	add	r2,r2,r4
   211c0:	10c00005 	stb	r3,0(r2)

void send_dynamic_header(int width, int height) {
    memcpy(global_dynamic_header, full_jpeg_headers_template, 623);

    int i;
    for(i = 0; i < 64; i++) {
   211c4:	e0bffb17 	ldw	r2,-20(fp)
   211c8:	10800044 	addi	r2,r2,1
   211cc:	e0bffb15 	stw	r2,-20(fp)
   211d0:	e0bffb17 	ldw	r2,-20(fp)
   211d4:	10801010 	cmplti	r2,r2,64
   211d8:	103fd81e 	bne	r2,zero,2113c <send_dynamic_header+0x48>
        global_dynamic_header[25 + i] = global_scaled_q_luma[ZIGZAG[i]];
        global_dynamic_header[94 + i] = global_scaled_q_chroma[ZIGZAG[i]];
    }

    int sof_offset = 158;
   211dc:	00802784 	movi	r2,158
   211e0:	e0bffc15 	stw	r2,-16(fp)
    global_dynamic_header[sof_offset + 5] = (height >> 8) & 0xFF;
   211e4:	e0bffc17 	ldw	r2,-16(fp)
   211e8:	10800144 	addi	r2,r2,5
   211ec:	e0ffff17 	ldw	r3,-4(fp)
   211f0:	1807d23a 	srai	r3,r3,8
   211f4:	01000134 	movhi	r4,4
   211f8:	21208c04 	addi	r4,r4,-32208
   211fc:	2085883a 	add	r2,r4,r2
   21200:	10c00005 	stb	r3,0(r2)
    global_dynamic_header[sof_offset + 6] = height & 0xFF;
   21204:	e0bffc17 	ldw	r2,-16(fp)
   21208:	10800184 	addi	r2,r2,6
   2120c:	e0ffff17 	ldw	r3,-4(fp)
   21210:	01000134 	movhi	r4,4
   21214:	21208c04 	addi	r4,r4,-32208
   21218:	2085883a 	add	r2,r4,r2
   2121c:	10c00005 	stb	r3,0(r2)
    global_dynamic_header[sof_offset + 7] = (width >> 8) & 0xFF;
   21220:	e0bffc17 	ldw	r2,-16(fp)
   21224:	108001c4 	addi	r2,r2,7
   21228:	e0fffe17 	ldw	r3,-8(fp)
   2122c:	1807d23a 	srai	r3,r3,8
   21230:	01000134 	movhi	r4,4
   21234:	21208c04 	addi	r4,r4,-32208
   21238:	2085883a 	add	r2,r4,r2
   2123c:	10c00005 	stb	r3,0(r2)
    global_dynamic_header[sof_offset + 8] = width & 0xFF;
   21240:	e0bffc17 	ldw	r2,-16(fp)
   21244:	10800204 	addi	r2,r2,8
   21248:	e0fffe17 	ldw	r3,-8(fp)
   2124c:	01000134 	movhi	r4,4
   21250:	21208c04 	addi	r4,r4,-32208
   21254:	2085883a 	add	r2,r4,r2
   21258:	10c00005 	stb	r3,0(r2)

    INT16 header_size = 623;
   2125c:	00809bc4 	movi	r2,623
   21260:	e0bffd0d 	sth	r2,-12(fp)
    fifo_write_block(FIFO_OUT_TO_6_BASE, FIFO_OUT_TO_6_CSR_BASE, &header_size, 1);
   21264:	e0bffd04 	addi	r2,fp,-12
   21268:	01000134 	movhi	r4,4
   2126c:	21042e04 	addi	r4,r4,4280
   21270:	01400134 	movhi	r5,4
   21274:	29441004 	addi	r5,r5,4160
   21278:	100d883a 	mov	r6,r2
   2127c:	01c00044 	movi	r7,1
   21280:	00220400 	call	22040 <fifo_write_block>

    INT16 send_buffer[1];
    for (i = 0; i < header_size; i++) {
   21284:	e03ffb15 	stw	zero,-20(fp)
   21288:	00001206 	br	212d4 <send_dynamic_header+0x1e0>
        send_buffer[0] = (INT16)global_dynamic_header[i];
   2128c:	00c00134 	movhi	r3,4
   21290:	18e08c04 	addi	r3,r3,-32208
   21294:	e0bffb17 	ldw	r2,-20(fp)
   21298:	1885883a 	add	r2,r3,r2
   2129c:	10800003 	ldbu	r2,0(r2)
   212a0:	10803fcc 	andi	r2,r2,255
   212a4:	e0bffd8d 	sth	r2,-10(fp)
        fifo_write_block(FIFO_OUT_TO_6_BASE, FIFO_OUT_TO_6_CSR_BASE, send_buffer, 1);
   212a8:	e0bffd84 	addi	r2,fp,-10
   212ac:	01000134 	movhi	r4,4
   212b0:	21042e04 	addi	r4,r4,4280
   212b4:	01400134 	movhi	r5,4
   212b8:	29441004 	addi	r5,r5,4160
   212bc:	100d883a 	mov	r6,r2
   212c0:	01c00044 	movi	r7,1
   212c4:	00220400 	call	22040 <fifo_write_block>

    INT16 header_size = 623;
    fifo_write_block(FIFO_OUT_TO_6_BASE, FIFO_OUT_TO_6_CSR_BASE, &header_size, 1);

    INT16 send_buffer[1];
    for (i = 0; i < header_size; i++) {
   212c8:	e0bffb17 	ldw	r2,-20(fp)
   212cc:	10800044 	addi	r2,r2,1
   212d0:	e0bffb15 	stw	r2,-20(fp)
   212d4:	e0bffd0b 	ldhu	r2,-12(fp)
   212d8:	10bfffcc 	andi	r2,r2,65535
   212dc:	10a0001c 	xori	r2,r2,32768
   212e0:	10a00004 	addi	r2,r2,-32768
   212e4:	e0fffb17 	ldw	r3,-20(fp)
   212e8:	18bfe816 	blt	r3,r2,2128c <send_dynamic_header+0x198>
        send_buffer[0] = (INT16)global_dynamic_header[i];
        fifo_write_block(FIFO_OUT_TO_6_BASE, FIFO_OUT_TO_6_CSR_BASE, send_buffer, 1);
    }
}
   212ec:	e037883a 	mov	sp,fp
   212f0:	dfc00117 	ldw	ra,4(sp)
   212f4:	df000017 	ldw	fp,0(sp)
   212f8:	dec00204 	addi	sp,sp,8
   212fc:	f800283a 	ret

00021300 <main>:


// --- MAIN FUNCTION ---
int main() {
   21300:	deffbb04 	addi	sp,sp,-276
   21304:	dfc04415 	stw	ra,272(sp)
   21308:	df004315 	stw	fp,268(sp)
   2130c:	dc004215 	stw	r16,264(sp)
   21310:	df004204 	addi	fp,sp,264
    printf("--- Nios II: Stage 1 (Master Controller & File Config) ---\n\n");
   21314:	010000f4 	movhi	r4,3
   21318:	2111a604 	addi	r4,r4,18072
   2131c:	002541c0 	call	2541c <puts>

    fifo_init(FIFO_OUT_CSR_BASE);
   21320:	01000134 	movhi	r4,4
   21324:	21041804 	addi	r4,r4,4192
   21328:	0021f900 	call	21f90 <fifo_init>
    fifo_init(FIFO_OUT_TO_4_CSR_BASE);
   2132c:	01000134 	movhi	r4,4
   21330:	21040804 	addi	r4,r4,4128
   21334:	0021f900 	call	21f90 <fifo_init>
    fifo_init(FIFO_OUT_TO_5_CSR_BASE);
   21338:	01000134 	movhi	r4,4
   2133c:	21040004 	addi	r4,r4,4096
   21340:	0021f900 	call	21f90 <fifo_init>
    fifo_init(FIFO_OUT_TO_6_CSR_BASE);
   21344:	01000134 	movhi	r4,4
   21348:	21041004 	addi	r4,r4,4160
   2134c:	0021f900 	call	21f90 <fifo_init>

    char input_filename[64];
    char output_filename[64];
    int quality = 50;
   21350:	00800c84 	movi	r2,50
   21354:	e0bff915 	stw	r2,-28(fp)
    int num_images = 0;
   21358:	e03ffa15 	stw	zero,-24(fp)

    printf("Reading config file (/mnt/host/files/config.txt)...\n");
   2135c:	010000f4 	movhi	r4,3
   21360:	2111b504 	addi	r4,r4,18132
   21364:	002541c0 	call	2541c <puts>
    FILE *f_cfg = fopen("/mnt/host/files/config.txt", "r");
   21368:	010000f4 	movhi	r4,3
   2136c:	2111c204 	addi	r4,r4,18184
   21370:	014000f4 	movhi	r5,3
   21374:	2951c904 	addi	r5,r5,18212
   21378:	002392c0 	call	2392c <fopen>
   2137c:	e0bfc815 	stw	r2,-224(fp)

    if (!f_cfg) {
   21380:	e0bfc817 	ldw	r2,-224(fp)
   21384:	1000051e 	bne	r2,zero,2139c <main+0x9c>
        printf("ERROR: Could not open config file!\n");
   21388:	010000f4 	movhi	r4,3
   2138c:	2111ca04 	addi	r4,r4,18216
   21390:	002541c0 	call	2541c <puts>
        return -1;
   21394:	00bfffc4 	movi	r2,-1
   21398:	0002f706 	br	21f78 <main+0xc78>
    }

    // Read the total batch count first
    if (fscanf(f_cfg, "%d", &num_images) != 1) {
   2139c:	e0bffa04 	addi	r2,fp,-24
   213a0:	e13fc817 	ldw	r4,-224(fp)
   213a4:	014000f4 	movhi	r5,3
   213a8:	2951d304 	addi	r5,r5,18252
   213ac:	100d883a 	mov	r6,r2
   213b0:	0023fd00 	call	23fd0 <fscanf>
   213b4:	10800060 	cmpeqi	r2,r2,1
   213b8:	1000071e 	bne	r2,zero,213d8 <main+0xd8>
        printf("ERROR: Config file missing image count on line 1.\n");
   213bc:	010000f4 	movhi	r4,3
   213c0:	2111d404 	addi	r4,r4,18256
   213c4:	002541c0 	call	2541c <puts>
        fclose(f_cfg);
   213c8:	e13fc817 	ldw	r4,-224(fp)
   213cc:	00232e40 	call	232e4 <fclose>
        return -1;
   213d0:	00bfffc4 	movi	r2,-1
   213d4:	0002e806 	br	21f78 <main+0xc78>
    }

    printf("Batch Job Initialized: Processing %d images...\n", num_images);
   213d8:	e0bffa17 	ldw	r2,-24(fp)
   213dc:	010000f4 	movhi	r4,3
   213e0:	2111e104 	addi	r4,r4,18308
   213e4:	100b883a 	mov	r5,r2
   213e8:	002535c0 	call	2535c <printf>

    // --- LOOP THROUGH EVERY IMAGE ---
    int img_idx;
    for (img_idx = 0; img_idx < num_images; img_idx++) {
   213ec:	e03fc015 	stw	zero,-256(fp)
   213f0:	0002cf06 	br	21f30 <main+0xc30>
        if (fscanf(f_cfg, "%63s", input_filename) != 1 ||
   213f4:	e0bfd904 	addi	r2,fp,-156
   213f8:	e13fc817 	ldw	r4,-224(fp)
   213fc:	014000f4 	movhi	r5,3
   21400:	2951ed04 	addi	r5,r5,18356
   21404:	100d883a 	mov	r6,r2
   21408:	0023fd00 	call	23fd0 <fscanf>
   2140c:	10800058 	cmpnei	r2,r2,1
   21410:	1000101e 	bne	r2,zero,21454 <main+0x154>
            fscanf(f_cfg, "%63s", output_filename) != 1 ||
   21414:	e0bfe904 	addi	r2,fp,-92
   21418:	e13fc817 	ldw	r4,-224(fp)
   2141c:	014000f4 	movhi	r5,3
   21420:	2951ed04 	addi	r5,r5,18356
   21424:	100d883a 	mov	r6,r2
   21428:	0023fd00 	call	23fd0 <fscanf>
    printf("Batch Job Initialized: Processing %d images...\n", num_images);

    // --- LOOP THROUGH EVERY IMAGE ---
    int img_idx;
    for (img_idx = 0; img_idx < num_images; img_idx++) {
        if (fscanf(f_cfg, "%63s", input_filename) != 1 ||
   2142c:	10800058 	cmpnei	r2,r2,1
   21430:	1000081e 	bne	r2,zero,21454 <main+0x154>
            fscanf(f_cfg, "%63s", output_filename) != 1 ||
            fscanf(f_cfg, "%d", &quality) != 1) {
   21434:	e0bff904 	addi	r2,fp,-28
   21438:	e13fc817 	ldw	r4,-224(fp)
   2143c:	014000f4 	movhi	r5,3
   21440:	2951d304 	addi	r5,r5,18252
   21444:	100d883a 	mov	r6,r2
   21448:	0023fd00 	call	23fd0 <fscanf>

    // --- LOOP THROUGH EVERY IMAGE ---
    int img_idx;
    for (img_idx = 0; img_idx < num_images; img_idx++) {
        if (fscanf(f_cfg, "%63s", input_filename) != 1 ||
            fscanf(f_cfg, "%63s", output_filename) != 1 ||
   2144c:	10800060 	cmpeqi	r2,r2,1
   21450:	1000041e 	bne	r2,zero,21464 <main+0x164>
            fscanf(f_cfg, "%d", &quality) != 1) {
            printf("ERROR: Config file ran out of entries before expected!\n");
   21454:	010000f4 	movhi	r4,3
   21458:	2111ef04 	addi	r4,r4,18364
   2145c:	002541c0 	call	2541c <puts>
   21460:	0002b606 	br	21f3c <main+0xc3c>
            break;
        }

        if (quality < 1) quality = 1;
   21464:	e0bff917 	ldw	r2,-28(fp)
   21468:	00800216 	blt	zero,r2,21474 <main+0x174>
   2146c:	00800044 	movi	r2,1
   21470:	e0bff915 	stw	r2,-28(fp)
        if (quality > 100) quality = 100;
   21474:	e0bff917 	ldw	r2,-28(fp)
   21478:	10801950 	cmplti	r2,r2,101
   2147c:	1000021e 	bne	r2,zero,21488 <main+0x188>
   21480:	00801904 	movi	r2,100
   21484:	e0bff915 	stw	r2,-28(fp)

        printf("\n============================================\n");
   21488:	010000f4 	movhi	r4,3
   2148c:	2111fd04 	addi	r4,r4,18420
   21490:	002541c0 	call	2541c <puts>
        printf("Processing Image %d of %d\n", img_idx + 1, num_images);
   21494:	e0bfc017 	ldw	r2,-256(fp)
   21498:	10c00044 	addi	r3,r2,1
   2149c:	e0bffa17 	ldw	r2,-24(fp)
   214a0:	010000f4 	movhi	r4,3
   214a4:	21120904 	addi	r4,r4,18468
   214a8:	180b883a 	mov	r5,r3
   214ac:	100d883a 	mov	r6,r2
   214b0:	002535c0 	call	2535c <printf>
        printf("  Input: %s\n  Output: %s\n  Quality: %d\n", input_filename, output_filename, quality);
   214b4:	e0bff917 	ldw	r2,-28(fp)
   214b8:	e17fd904 	addi	r5,fp,-156
   214bc:	e0ffe904 	addi	r3,fp,-92
   214c0:	010000f4 	movhi	r4,3
   214c4:	21121004 	addi	r4,r4,18496
   214c8:	180d883a 	mov	r6,r3
   214cc:	100f883a 	mov	r7,r2
   214d0:	002535c0 	call	2535c <printf>

        FILE *f_in = fopen(input_filename, "rb");
   214d4:	e0bfd904 	addi	r2,fp,-156
   214d8:	1009883a 	mov	r4,r2
   214dc:	014000f4 	movhi	r5,3
   214e0:	29521a04 	addi	r5,r5,18536
   214e4:	002392c0 	call	2392c <fopen>
   214e8:	e0bfc915 	stw	r2,-220(fp)
        if (f_in == NULL) {
   214ec:	e0bfc917 	ldw	r2,-220(fp)
   214f0:	1000061e 	bne	r2,zero,2150c <main+0x20c>
            printf("ERROR: Could not open input file %s!\n", input_filename);
   214f4:	e0bfd904 	addi	r2,fp,-156
   214f8:	010000f4 	movhi	r4,3
   214fc:	21121b04 	addi	r4,r4,18540
   21500:	100b883a 	mov	r5,r2
   21504:	002535c0 	call	2535c <printf>
   21508:	00028606 	br	21f24 <main+0xc24>
            continue; // Skip to next image instead of crashing the pipeline
        }

        int width = 24, height = 24, pixel_offset = 0, bpp = 24;
   2150c:	00800604 	movi	r2,24
   21510:	e0bffb15 	stw	r2,-20(fp)
   21514:	00800604 	movi	r2,24
   21518:	e0bffc15 	stw	r2,-16(fp)
   2151c:	e03ffd15 	stw	zero,-12(fp)
   21520:	00800604 	movi	r2,24
   21524:	e0bffe15 	stw	r2,-8(fp)
        int is_bmp = parse_image_header(f_in, &width, &height, &pixel_offset, &bpp);
   21528:	e17ffb04 	addi	r5,fp,-20
   2152c:	e0fffc04 	addi	r3,fp,-16
   21530:	e0bffd04 	addi	r2,fp,-12
   21534:	e13ffe04 	addi	r4,fp,-8
   21538:	d9000015 	stw	r4,0(sp)
   2153c:	e13fc917 	ldw	r4,-220(fp)
   21540:	180d883a 	mov	r6,r3
   21544:	100f883a 	mov	r7,r2
   21548:	0020cbc0 	call	20cbc <parse_image_header>
   2154c:	e0bfca15 	stw	r2,-216(fp)

        if (is_bmp && bpp != 24) {
   21550:	e0bfca17 	ldw	r2,-216(fp)
   21554:	10000b26 	beq	r2,zero,21584 <main+0x284>
   21558:	e0bffe17 	ldw	r2,-8(fp)
   2155c:	10800620 	cmpeqi	r2,r2,24
   21560:	1000081e 	bne	r2,zero,21584 <main+0x284>
            printf("ERROR: Image is %d-bit. Must be 24-bit BMP. Skipping.\n", bpp);
   21564:	e0bffe17 	ldw	r2,-8(fp)
   21568:	010000f4 	movhi	r4,3
   2156c:	21122504 	addi	r4,r4,18580
   21570:	100b883a 	mov	r5,r2
   21574:	002535c0 	call	2535c <printf>
            fclose(f_in);
   21578:	e13fc917 	ldw	r4,-220(fp)
   2157c:	00232e40 	call	232e4 <fclose>
   21580:	00026806 	br	21f24 <main+0xc24>
            continue;
        }

        int scale;
        if (quality < 50) scale = 5000 / quality;
   21584:	e0bff917 	ldw	r2,-28(fp)
   21588:	10800c88 	cmpgei	r2,r2,50
   2158c:	1000061e 	bne	r2,zero,215a8 <main+0x2a8>
   21590:	e0bff917 	ldw	r2,-28(fp)
   21594:	0104e204 	movi	r4,5000
   21598:	100b883a 	mov	r5,r2
   2159c:	0022c580 	call	22c58 <__divsi3>
   215a0:	e0bfc115 	stw	r2,-252(fp)
   215a4:	00000506 	br	215bc <main+0x2bc>
        else scale = 200 - quality * 2;
   215a8:	e0bff917 	ldw	r2,-28(fp)
   215ac:	00c01904 	movi	r3,100
   215b0:	1885c83a 	sub	r2,r3,r2
   215b4:	1085883a 	add	r2,r2,r2
   215b8:	e0bfc115 	stw	r2,-252(fp)

        int i, temp;
        for (i = 0; i < 64; i++) {
   215bc:	e03fc215 	stw	zero,-248(fp)
   215c0:	00003f06 	br	216c0 <main+0x3c0>
            temp = (q_table_luma[i] * scale + 50) / 100;
   215c4:	00c000f4 	movhi	r3,3
   215c8:	18d145c4 	addi	r3,r3,17687
   215cc:	e0bfc217 	ldw	r2,-248(fp)
   215d0:	1885883a 	add	r2,r3,r2
   215d4:	10800003 	ldbu	r2,0(r2)
   215d8:	10803fcc 	andi	r2,r2,255
   215dc:	1009883a 	mov	r4,r2
   215e0:	e17fc117 	ldw	r5,-252(fp)
   215e4:	0022d140 	call	22d14 <__mulsi3>
   215e8:	10800c84 	addi	r2,r2,50
   215ec:	1009883a 	mov	r4,r2
   215f0:	01401904 	movi	r5,100
   215f4:	0022c580 	call	22c58 <__divsi3>
   215f8:	e0bfc315 	stw	r2,-244(fp)
            if (temp < 1) temp = 1; if (temp > 255) temp = 255;
   215fc:	e0bfc317 	ldw	r2,-244(fp)
   21600:	00800216 	blt	zero,r2,2160c <main+0x30c>
   21604:	00800044 	movi	r2,1
   21608:	e0bfc315 	stw	r2,-244(fp)
   2160c:	e0bfc317 	ldw	r2,-244(fp)
   21610:	10804010 	cmplti	r2,r2,256
   21614:	1000021e 	bne	r2,zero,21620 <main+0x320>
   21618:	00803fc4 	movi	r2,255
   2161c:	e0bfc315 	stw	r2,-244(fp)
            global_scaled_q_luma[i] = (UINT8)temp;
   21620:	e0bfc317 	ldw	r2,-244(fp)
   21624:	1007883a 	mov	r3,r2
   21628:	010000f4 	movhi	r4,3
   2162c:	211bec04 	addi	r4,r4,28592
   21630:	e0bfc217 	ldw	r2,-248(fp)
   21634:	2085883a 	add	r2,r4,r2
   21638:	10c00005 	stb	r3,0(r2)

            temp = (q_table_chroma[i] * scale + 50) / 100;
   2163c:	00c000f4 	movhi	r3,3
   21640:	18d155c4 	addi	r3,r3,17751
   21644:	e0bfc217 	ldw	r2,-248(fp)
   21648:	1885883a 	add	r2,r3,r2
   2164c:	10800003 	ldbu	r2,0(r2)
   21650:	10803fcc 	andi	r2,r2,255
   21654:	1009883a 	mov	r4,r2
   21658:	e17fc117 	ldw	r5,-252(fp)
   2165c:	0022d140 	call	22d14 <__mulsi3>
   21660:	10800c84 	addi	r2,r2,50
   21664:	1009883a 	mov	r4,r2
   21668:	01401904 	movi	r5,100
   2166c:	0022c580 	call	22c58 <__divsi3>
   21670:	e0bfc315 	stw	r2,-244(fp)
            if (temp < 1) temp = 1; if (temp > 255) temp = 255;
   21674:	e0bfc317 	ldw	r2,-244(fp)
   21678:	00800216 	blt	zero,r2,21684 <main+0x384>
   2167c:	00800044 	movi	r2,1
   21680:	e0bfc315 	stw	r2,-244(fp)
   21684:	e0bfc317 	ldw	r2,-244(fp)
   21688:	10804010 	cmplti	r2,r2,256
   2168c:	1000021e 	bne	r2,zero,21698 <main+0x398>
   21690:	00803fc4 	movi	r2,255
   21694:	e0bfc315 	stw	r2,-244(fp)
            global_scaled_q_chroma[i] = (UINT8)temp;
   21698:	e0bfc317 	ldw	r2,-244(fp)
   2169c:	1007883a 	mov	r3,r2
   216a0:	010000f4 	movhi	r4,3
   216a4:	211bfc04 	addi	r4,r4,28656
   216a8:	e0bfc217 	ldw	r2,-248(fp)
   216ac:	2085883a 	add	r2,r4,r2
   216b0:	10c00005 	stb	r3,0(r2)
        int scale;
        if (quality < 50) scale = 5000 / quality;
        else scale = 200 - quality * 2;

        int i, temp;
        for (i = 0; i < 64; i++) {
   216b4:	e0bfc217 	ldw	r2,-248(fp)
   216b8:	10800044 	addi	r2,r2,1
   216bc:	e0bfc215 	stw	r2,-248(fp)
   216c0:	e0bfc217 	ldw	r2,-248(fp)
   216c4:	10801010 	cmplti	r2,r2,64
   216c8:	103fbe1e 	bne	r2,zero,215c4 <main+0x2c4>
            temp = (q_table_chroma[i] * scale + 50) / 100;
            if (temp < 1) temp = 1; if (temp > 255) temp = 255;
            global_scaled_q_chroma[i] = (UINT8)temp;
        }

        init_chroma_ac_tables();
   216cc:	002036c0 	call	2036c <init_chroma_ac_tables>

        printf("Stage 1: Dispatching config data to downstream processors...\n");
   216d0:	010000f4 	movhi	r4,3
   216d4:	21123304 	addi	r4,r4,18636
   216d8:	002541c0 	call	2541c <puts>
        send_output_filename_to_stage6(output_filename);
   216dc:	e0bfe904 	addi	r2,fp,-92
   216e0:	1009883a 	mov	r4,r2
   216e4:	00210300 	call	21030 <send_output_filename_to_stage6>
        send_dqt_to_stage4();
   216e8:	0020e300 	call	20e30 <send_dqt_to_stage4>
        send_dht_to_stage5();
   216ec:	0020f0c0 	call	20f0c <send_dht_to_stage5>
        send_dynamic_header(width, height);
   216f0:	e0fffb17 	ldw	r3,-20(fp)
   216f4:	e0bffc17 	ldw	r2,-16(fp)
   216f8:	1809883a 	mov	r4,r3
   216fc:	100b883a 	mov	r5,r2
   21700:	00210f40 	call	210f4 <send_dynamic_header>

        INT16 dimension_packet[2] = {(INT16)width, (INT16)height};
   21704:	e0bffb17 	ldw	r2,-20(fp)
   21708:	e0bfff0d 	sth	r2,-4(fp)
   2170c:	e0bffc17 	ldw	r2,-16(fp)
   21710:	e0bfff8d 	sth	r2,-2(fp)
        fifo_write_block(FIFO_OUT_BASE, FIFO_OUT_CSR_BASE, dimension_packet, 2);
   21714:	e0bfff04 	addi	r2,fp,-4
   21718:	01000134 	movhi	r4,4
   2171c:	21042f04 	addi	r4,r4,4284
   21720:	01400134 	movhi	r5,4
   21724:	29441804 	addi	r5,r5,4192
   21728:	100d883a 	mov	r6,r2
   2172c:	01c00084 	movi	r7,2
   21730:	00220400 	call	22040 <fifo_write_block>

        int mcus_x = (width + 7) / 8;
   21734:	e0bffb17 	ldw	r2,-20(fp)
   21738:	108001c4 	addi	r2,r2,7
   2173c:	1000010e 	bge	r2,zero,21744 <main+0x444>
   21740:	108001c4 	addi	r2,r2,7
   21744:	1005d0fa 	srai	r2,r2,3
   21748:	e0bfcb15 	stw	r2,-212(fp)
        int mcus_y = (height + 7) / 8;
   2174c:	e0bffc17 	ldw	r2,-16(fp)
   21750:	108001c4 	addi	r2,r2,7
   21754:	1000010e 	bge	r2,zero,2175c <main+0x45c>
   21758:	108001c4 	addi	r2,r2,7
   2175c:	1005d0fa 	srai	r2,r2,3
   21760:	e0bfcc15 	stw	r2,-208(fp)
        int row_padded = (width * 3 + 3) & (~3);
   21764:	e0bffb17 	ldw	r2,-20(fp)
   21768:	10c00044 	addi	r3,r2,1
   2176c:	1805883a 	mov	r2,r3
   21770:	1085883a 	add	r2,r2,r2
   21774:	10c7883a 	add	r3,r2,r3
   21778:	00bfff04 	movi	r2,-4
   2177c:	1884703a 	and	r2,r3,r2
   21780:	e0bfcd15 	stw	r2,-204(fp)

        // --- PRE-LOAD LOGIC FOR SMALL IMAGES ---
        int is_small_image = (width <= 32 && height <= 32);
   21784:	e0bffb17 	ldw	r2,-20(fp)
   21788:	10800848 	cmpgei	r2,r2,33
   2178c:	1000051e 	bne	r2,zero,217a4 <main+0x4a4>
   21790:	e0bffc17 	ldw	r2,-16(fp)
   21794:	10800848 	cmpgei	r2,r2,33
   21798:	1000021e 	bne	r2,zero,217a4 <main+0x4a4>
   2179c:	00800044 	movi	r2,1
   217a0:	00000106 	br	217a8 <main+0x4a8>
   217a4:	0005883a 	mov	r2,zero
   217a8:	e0bfce15 	stw	r2,-200(fp)
        int y, c;

        if (is_small_image) {
   217ac:	e0bfce17 	ldw	r2,-200(fp)
   217b0:	10009726 	beq	r2,zero,21a10 <main+0x710>
            printf("Stage 1: Small image detected (%dx%d). Pre-loading to OCM...\n", width, height);
   217b4:	e0fffb17 	ldw	r3,-20(fp)
   217b8:	e0bffc17 	ldw	r2,-16(fp)
   217bc:	010000f4 	movhi	r4,3
   217c0:	21124304 	addi	r4,r4,18700
   217c4:	180b883a 	mov	r5,r3
   217c8:	100d883a 	mov	r6,r2
   217cc:	002535c0 	call	2535c <printf>
            for (y = 0; y < height; y++) {
   217d0:	e03fc415 	stw	zero,-240(fp)
   217d4:	00008b06 	br	21a04 <main+0x704>
                if (is_bmp) {
   217d8:	e0bfca17 	ldw	r2,-216(fp)
   217dc:	10006526 	beq	r2,zero,21974 <main+0x674>
                    int bmp_row = (height - 1) - y;
   217e0:	e0bffc17 	ldw	r2,-16(fp)
   217e4:	10ffffc4 	addi	r3,r2,-1
   217e8:	e0bfc417 	ldw	r2,-240(fp)
   217ec:	1885c83a 	sub	r2,r3,r2
   217f0:	e0bfcf15 	stw	r2,-196(fp)
                    fseek(f_in, pixel_offset + (bmp_row * row_padded), SEEK_SET);
   217f4:	e13fcf17 	ldw	r4,-196(fp)
   217f8:	e17fcd17 	ldw	r5,-204(fp)
   217fc:	0022d140 	call	22d14 <__mulsi3>
   21800:	1007883a 	mov	r3,r2
   21804:	e0bffd17 	ldw	r2,-12(fp)
   21808:	1885883a 	add	r2,r3,r2
   2180c:	e13fc917 	ldw	r4,-220(fp)
   21810:	100b883a 	mov	r5,r2
   21814:	000d883a 	mov	r6,zero
   21818:	00244a00 	call	244a0 <fseek>
                    fread(global_row_data, 1, row_padded, f_in);
   2181c:	e0bfcd17 	ldw	r2,-204(fp)
   21820:	01000134 	movhi	r4,4
   21824:	212127c4 	addi	r4,r4,-31585
   21828:	01400044 	movi	r5,1
   2182c:	100d883a 	mov	r6,r2
   21830:	e1ffc917 	ldw	r7,-220(fp)
   21834:	0023b840 	call	23b84 <fread>
                    for (c = 0; c < width; c++) {
   21838:	e03fc515 	stw	zero,-236(fp)
   2183c:	00004906 	br	21964 <main+0x664>
                        global_full_image_buffer[(y * width + c) * 3 + 0] = global_row_data[c * 3 + 2];
   21840:	e0bffb17 	ldw	r2,-20(fp)
   21844:	1009883a 	mov	r4,r2
   21848:	e17fc417 	ldw	r5,-240(fp)
   2184c:	0022d140 	call	22d14 <__mulsi3>
   21850:	1007883a 	mov	r3,r2
   21854:	e0bfc517 	ldw	r2,-236(fp)
   21858:	1887883a 	add	r3,r3,r2
   2185c:	1805883a 	mov	r2,r3
   21860:	1085883a 	add	r2,r2,r2
   21864:	10c9883a 	add	r4,r2,r3
   21868:	e0ffc517 	ldw	r3,-236(fp)
   2186c:	1805883a 	mov	r2,r3
   21870:	1085883a 	add	r2,r2,r2
   21874:	10c5883a 	add	r2,r2,r3
   21878:	10800084 	addi	r2,r2,2
   2187c:	00c00134 	movhi	r3,4
   21880:	18e127c4 	addi	r3,r3,-31585
   21884:	1885883a 	add	r2,r3,r2
   21888:	10c00003 	ldbu	r3,0(r2)
   2188c:	008000f4 	movhi	r2,3
   21890:	109c0c04 	addi	r2,r2,28720
   21894:	1105883a 	add	r2,r2,r4
   21898:	10c00005 	stb	r3,0(r2)
                        global_full_image_buffer[(y * width + c) * 3 + 1] = global_row_data[c * 3 + 1];
   2189c:	e0bffb17 	ldw	r2,-20(fp)
   218a0:	1009883a 	mov	r4,r2
   218a4:	e17fc417 	ldw	r5,-240(fp)
   218a8:	0022d140 	call	22d14 <__mulsi3>
   218ac:	1007883a 	mov	r3,r2
   218b0:	e0bfc517 	ldw	r2,-236(fp)
   218b4:	1887883a 	add	r3,r3,r2
   218b8:	1805883a 	mov	r2,r3
   218bc:	1085883a 	add	r2,r2,r2
   218c0:	10c5883a 	add	r2,r2,r3
   218c4:	11000044 	addi	r4,r2,1
   218c8:	e0ffc517 	ldw	r3,-236(fp)
   218cc:	1805883a 	mov	r2,r3
   218d0:	1085883a 	add	r2,r2,r2
   218d4:	10c5883a 	add	r2,r2,r3
   218d8:	10800044 	addi	r2,r2,1
   218dc:	00c00134 	movhi	r3,4
   218e0:	18e127c4 	addi	r3,r3,-31585
   218e4:	1885883a 	add	r2,r3,r2
   218e8:	10c00003 	ldbu	r3,0(r2)
   218ec:	008000f4 	movhi	r2,3
   218f0:	109c0c04 	addi	r2,r2,28720
   218f4:	1105883a 	add	r2,r2,r4
   218f8:	10c00005 	stb	r3,0(r2)
                        global_full_image_buffer[(y * width + c) * 3 + 2] = global_row_data[c * 3 + 0];
   218fc:	e0bffb17 	ldw	r2,-20(fp)
   21900:	1009883a 	mov	r4,r2
   21904:	e17fc417 	ldw	r5,-240(fp)
   21908:	0022d140 	call	22d14 <__mulsi3>
   2190c:	1007883a 	mov	r3,r2
   21910:	e0bfc517 	ldw	r2,-236(fp)
   21914:	1887883a 	add	r3,r3,r2
   21918:	1805883a 	mov	r2,r3
   2191c:	1085883a 	add	r2,r2,r2
   21920:	10c5883a 	add	r2,r2,r3
   21924:	11000084 	addi	r4,r2,2
   21928:	e0ffc517 	ldw	r3,-236(fp)
   2192c:	1805883a 	mov	r2,r3
   21930:	1085883a 	add	r2,r2,r2
   21934:	10c5883a 	add	r2,r2,r3
   21938:	00c00134 	movhi	r3,4
   2193c:	18e127c4 	addi	r3,r3,-31585
   21940:	1885883a 	add	r2,r3,r2
   21944:	10c00003 	ldbu	r3,0(r2)
   21948:	008000f4 	movhi	r2,3
   2194c:	109c0c04 	addi	r2,r2,28720
   21950:	1105883a 	add	r2,r2,r4
   21954:	10c00005 	stb	r3,0(r2)
            for (y = 0; y < height; y++) {
                if (is_bmp) {
                    int bmp_row = (height - 1) - y;
                    fseek(f_in, pixel_offset + (bmp_row * row_padded), SEEK_SET);
                    fread(global_row_data, 1, row_padded, f_in);
                    for (c = 0; c < width; c++) {
   21958:	e0bfc517 	ldw	r2,-236(fp)
   2195c:	10800044 	addi	r2,r2,1
   21960:	e0bfc515 	stw	r2,-236(fp)
   21964:	e0bffb17 	ldw	r2,-20(fp)
   21968:	e0ffc517 	ldw	r3,-236(fp)
   2196c:	18bfb416 	blt	r3,r2,21840 <main+0x540>
   21970:	00002106 	br	219f8 <main+0x6f8>
                        global_full_image_buffer[(y * width + c) * 3 + 0] = global_row_data[c * 3 + 2];
                        global_full_image_buffer[(y * width + c) * 3 + 1] = global_row_data[c * 3 + 1];
                        global_full_image_buffer[(y * width + c) * 3 + 2] = global_row_data[c * 3 + 0];
                    }
                } else {
                    fseek(f_in, pixel_offset + (y * width * 3), SEEK_SET);
   21974:	e0bffb17 	ldw	r2,-20(fp)
   21978:	1009883a 	mov	r4,r2
   2197c:	e17fc417 	ldw	r5,-240(fp)
   21980:	0022d140 	call	22d14 <__mulsi3>
   21984:	1007883a 	mov	r3,r2
   21988:	1805883a 	mov	r2,r3
   2198c:	1085883a 	add	r2,r2,r2
   21990:	10c7883a 	add	r3,r2,r3
   21994:	e0bffd17 	ldw	r2,-12(fp)
   21998:	1885883a 	add	r2,r3,r2
   2199c:	e13fc917 	ldw	r4,-220(fp)
   219a0:	100b883a 	mov	r5,r2
   219a4:	000d883a 	mov	r6,zero
   219a8:	00244a00 	call	244a0 <fseek>
                    fread(&global_full_image_buffer[y * width * 3], 1, width * 3, f_in);
   219ac:	e0bffb17 	ldw	r2,-20(fp)
   219b0:	1009883a 	mov	r4,r2
   219b4:	e17fc417 	ldw	r5,-240(fp)
   219b8:	0022d140 	call	22d14 <__mulsi3>
   219bc:	1007883a 	mov	r3,r2
   219c0:	1805883a 	mov	r2,r3
   219c4:	1085883a 	add	r2,r2,r2
   219c8:	10c7883a 	add	r3,r2,r3
   219cc:	008000f4 	movhi	r2,3
   219d0:	109c0c04 	addi	r2,r2,28720
   219d4:	1889883a 	add	r4,r3,r2
   219d8:	e0fffb17 	ldw	r3,-20(fp)
   219dc:	1805883a 	mov	r2,r3
   219e0:	1085883a 	add	r2,r2,r2
   219e4:	10c5883a 	add	r2,r2,r3
   219e8:	01400044 	movi	r5,1
   219ec:	100d883a 	mov	r6,r2
   219f0:	e1ffc917 	ldw	r7,-220(fp)
   219f4:	0023b840 	call	23b84 <fread>
        int is_small_image = (width <= 32 && height <= 32);
        int y, c;

        if (is_small_image) {
            printf("Stage 1: Small image detected (%dx%d). Pre-loading to OCM...\n", width, height);
            for (y = 0; y < height; y++) {
   219f8:	e0bfc417 	ldw	r2,-240(fp)
   219fc:	10800044 	addi	r2,r2,1
   21a00:	e0bfc415 	stw	r2,-240(fp)
   21a04:	e0bffc17 	ldw	r2,-16(fp)
   21a08:	e0ffc417 	ldw	r3,-240(fp)
   21a0c:	18bf7216 	blt	r3,r2,217d8 <main+0x4d8>
                    fread(&global_full_image_buffer[y * width * 3], 1, width * 3, f_in);
                }
            }
        }

        printf("Stage 1: Streaming image to pipeline...\n");
   21a10:	010000f4 	movhi	r4,3
   21a14:	21125304 	addi	r4,r4,18764
   21a18:	002541c0 	call	2541c <puts>

        // --- START TIMER NOW ---
        if (alt_timestamp_start() < 0) printf("Timer Error!\n");
   21a1c:	0032fb40 	call	32fb4 <alt_timestamp_start>
   21a20:	1000030e 	bge	r2,zero,21a30 <main+0x730>
   21a24:	010000f4 	movhi	r4,3
   21a28:	21125d04 	addi	r4,r4,18804
   21a2c:	002541c0 	call	2541c <puts>
        alt_u32 start_time = alt_timestamp();
   21a30:	003303c0 	call	3303c <alt_timestamp>
   21a34:	e0bfd015 	stw	r2,-192(fp)

        int mcu_y;
        for (mcu_y = 0; mcu_y < mcus_y; mcu_y++) {
   21a38:	e03fc615 	stw	zero,-232(fp)
   21a3c:	0000eb06 	br	21dec <main+0xaec>
            for (y = 0; y < 8; y++) {
   21a40:	e03fc415 	stw	zero,-240(fp)
   21a44:	0000d706 	br	21da4 <main+0xaa4>
                int global_y = mcu_y * 8 + y;
   21a48:	e0bfc617 	ldw	r2,-232(fp)
   21a4c:	100690fa 	slli	r3,r2,3
   21a50:	e0bfc417 	ldw	r2,-240(fp)
   21a54:	1885883a 	add	r2,r3,r2
   21a58:	e0bfd115 	stw	r2,-188(fp)
                if (global_y >= height) {
   21a5c:	e0bffc17 	ldw	r2,-16(fp)
   21a60:	e0ffd117 	ldw	r3,-188(fp)
   21a64:	18802216 	blt	r3,r2,21af0 <main+0x7f0>
                    if (y > 0) memcpy(&global_strip_buffer[y * width * 3], &global_strip_buffer[(y - 1) * width * 3], width * 3);
   21a68:	e0bfc417 	ldw	r2,-240(fp)
   21a6c:	0080c90e 	bge	zero,r2,21d94 <main+0xa94>
   21a70:	e0bffb17 	ldw	r2,-20(fp)
   21a74:	1009883a 	mov	r4,r2
   21a78:	e17fc417 	ldw	r5,-240(fp)
   21a7c:	0022d140 	call	22d14 <__mulsi3>
   21a80:	1007883a 	mov	r3,r2
   21a84:	1805883a 	mov	r2,r3
   21a88:	1085883a 	add	r2,r2,r2
   21a8c:	10c7883a 	add	r3,r2,r3
   21a90:	008000f4 	movhi	r2,3
   21a94:	109f0c04 	addi	r2,r2,31792
   21a98:	18a1883a 	add	r16,r3,r2
   21a9c:	e0bfc417 	ldw	r2,-240(fp)
   21aa0:	10ffffc4 	addi	r3,r2,-1
   21aa4:	1805883a 	mov	r2,r3
   21aa8:	1085883a 	add	r2,r2,r2
   21aac:	10c7883a 	add	r3,r2,r3
   21ab0:	e0bffb17 	ldw	r2,-20(fp)
   21ab4:	1809883a 	mov	r4,r3
   21ab8:	100b883a 	mov	r5,r2
   21abc:	0022d140 	call	22d14 <__mulsi3>
   21ac0:	1007883a 	mov	r3,r2
   21ac4:	008000f4 	movhi	r2,3
   21ac8:	109f0c04 	addi	r2,r2,31792
   21acc:	188b883a 	add	r5,r3,r2
   21ad0:	e0fffb17 	ldw	r3,-20(fp)
   21ad4:	1805883a 	mov	r2,r3
   21ad8:	1085883a 	add	r2,r2,r2
   21adc:	10c5883a 	add	r2,r2,r3
   21ae0:	8009883a 	mov	r4,r16
   21ae4:	100d883a 	mov	r6,r2
   21ae8:	00250a80 	call	250a8 <memcpy>
                    continue;
   21aec:	0000a906 	br	21d94 <main+0xa94>
                }

                if (is_small_image) {
   21af0:	e0bfce17 	ldw	r2,-200(fp)
   21af4:	10001e26 	beq	r2,zero,21b70 <main+0x870>
                    memcpy(&global_strip_buffer[y * width * 3], &global_full_image_buffer[global_y * width * 3], width * 3);
   21af8:	e0bffb17 	ldw	r2,-20(fp)
   21afc:	1009883a 	mov	r4,r2
   21b00:	e17fc417 	ldw	r5,-240(fp)
   21b04:	0022d140 	call	22d14 <__mulsi3>
   21b08:	1007883a 	mov	r3,r2
   21b0c:	1805883a 	mov	r2,r3
   21b10:	1085883a 	add	r2,r2,r2
   21b14:	10c7883a 	add	r3,r2,r3
   21b18:	008000f4 	movhi	r2,3
   21b1c:	109f0c04 	addi	r2,r2,31792
   21b20:	18a1883a 	add	r16,r3,r2
   21b24:	e0bffb17 	ldw	r2,-20(fp)
   21b28:	1009883a 	mov	r4,r2
   21b2c:	e17fd117 	ldw	r5,-188(fp)
   21b30:	0022d140 	call	22d14 <__mulsi3>
   21b34:	1007883a 	mov	r3,r2
   21b38:	1805883a 	mov	r2,r3
   21b3c:	1085883a 	add	r2,r2,r2
   21b40:	10c7883a 	add	r3,r2,r3
   21b44:	008000f4 	movhi	r2,3
   21b48:	109c0c04 	addi	r2,r2,28720
   21b4c:	188b883a 	add	r5,r3,r2
   21b50:	e0fffb17 	ldw	r3,-20(fp)
   21b54:	1805883a 	mov	r2,r3
   21b58:	1085883a 	add	r2,r2,r2
   21b5c:	10c5883a 	add	r2,r2,r3
   21b60:	8009883a 	mov	r4,r16
   21b64:	100d883a 	mov	r6,r2
   21b68:	00250a80 	call	250a8 <memcpy>
   21b6c:	00008a06 	br	21d98 <main+0xa98>
                } else {
                    if (is_bmp) {
   21b70:	e0bfca17 	ldw	r2,-216(fp)
   21b74:	10006526 	beq	r2,zero,21d0c <main+0xa0c>
                        int bmp_row = (height - 1) - global_y;
   21b78:	e0bffc17 	ldw	r2,-16(fp)
   21b7c:	10ffffc4 	addi	r3,r2,-1
   21b80:	e0bfd117 	ldw	r2,-188(fp)
   21b84:	1885c83a 	sub	r2,r3,r2
   21b88:	e0bfd215 	stw	r2,-184(fp)
                        fseek(f_in, pixel_offset + (bmp_row * row_padded), SEEK_SET);
   21b8c:	e13fd217 	ldw	r4,-184(fp)
   21b90:	e17fcd17 	ldw	r5,-204(fp)
   21b94:	0022d140 	call	22d14 <__mulsi3>
   21b98:	1007883a 	mov	r3,r2
   21b9c:	e0bffd17 	ldw	r2,-12(fp)
   21ba0:	1885883a 	add	r2,r3,r2
   21ba4:	e13fc917 	ldw	r4,-220(fp)
   21ba8:	100b883a 	mov	r5,r2
   21bac:	000d883a 	mov	r6,zero
   21bb0:	00244a00 	call	244a0 <fseek>
                        fread(global_row_data, 1, row_padded, f_in);
   21bb4:	e0bfcd17 	ldw	r2,-204(fp)
   21bb8:	01000134 	movhi	r4,4
   21bbc:	212127c4 	addi	r4,r4,-31585
   21bc0:	01400044 	movi	r5,1
   21bc4:	100d883a 	mov	r6,r2
   21bc8:	e1ffc917 	ldw	r7,-220(fp)
   21bcc:	0023b840 	call	23b84 <fread>

                        for (c = 0; c < width; c++) {
   21bd0:	e03fc515 	stw	zero,-236(fp)
   21bd4:	00004906 	br	21cfc <main+0x9fc>
                            global_strip_buffer[(y * width + c) * 3 + 0] = global_row_data[c * 3 + 2];
   21bd8:	e0bffb17 	ldw	r2,-20(fp)
   21bdc:	1009883a 	mov	r4,r2
   21be0:	e17fc417 	ldw	r5,-240(fp)
   21be4:	0022d140 	call	22d14 <__mulsi3>
   21be8:	1007883a 	mov	r3,r2
   21bec:	e0bfc517 	ldw	r2,-236(fp)
   21bf0:	1887883a 	add	r3,r3,r2
   21bf4:	1805883a 	mov	r2,r3
   21bf8:	1085883a 	add	r2,r2,r2
   21bfc:	10c9883a 	add	r4,r2,r3
   21c00:	e0ffc517 	ldw	r3,-236(fp)
   21c04:	1805883a 	mov	r2,r3
   21c08:	1085883a 	add	r2,r2,r2
   21c0c:	10c5883a 	add	r2,r2,r3
   21c10:	10800084 	addi	r2,r2,2
   21c14:	00c00134 	movhi	r3,4
   21c18:	18e127c4 	addi	r3,r3,-31585
   21c1c:	1885883a 	add	r2,r3,r2
   21c20:	10c00003 	ldbu	r3,0(r2)
   21c24:	008000f4 	movhi	r2,3
   21c28:	109f0c04 	addi	r2,r2,31792
   21c2c:	1105883a 	add	r2,r2,r4
   21c30:	10c00005 	stb	r3,0(r2)
                            global_strip_buffer[(y * width + c) * 3 + 1] = global_row_data[c * 3 + 1];
   21c34:	e0bffb17 	ldw	r2,-20(fp)
   21c38:	1009883a 	mov	r4,r2
   21c3c:	e17fc417 	ldw	r5,-240(fp)
   21c40:	0022d140 	call	22d14 <__mulsi3>
   21c44:	1007883a 	mov	r3,r2
   21c48:	e0bfc517 	ldw	r2,-236(fp)
   21c4c:	1887883a 	add	r3,r3,r2
   21c50:	1805883a 	mov	r2,r3
   21c54:	1085883a 	add	r2,r2,r2
   21c58:	10c5883a 	add	r2,r2,r3
   21c5c:	11000044 	addi	r4,r2,1
   21c60:	e0ffc517 	ldw	r3,-236(fp)
   21c64:	1805883a 	mov	r2,r3
   21c68:	1085883a 	add	r2,r2,r2
   21c6c:	10c5883a 	add	r2,r2,r3
   21c70:	10800044 	addi	r2,r2,1
   21c74:	00c00134 	movhi	r3,4
   21c78:	18e127c4 	addi	r3,r3,-31585
   21c7c:	1885883a 	add	r2,r3,r2
   21c80:	10c00003 	ldbu	r3,0(r2)
   21c84:	008000f4 	movhi	r2,3
   21c88:	109f0c04 	addi	r2,r2,31792
   21c8c:	1105883a 	add	r2,r2,r4
   21c90:	10c00005 	stb	r3,0(r2)
                            global_strip_buffer[(y * width + c) * 3 + 2] = global_row_data[c * 3 + 0];
   21c94:	e0bffb17 	ldw	r2,-20(fp)
   21c98:	1009883a 	mov	r4,r2
   21c9c:	e17fc417 	ldw	r5,-240(fp)
   21ca0:	0022d140 	call	22d14 <__mulsi3>
   21ca4:	1007883a 	mov	r3,r2
   21ca8:	e0bfc517 	ldw	r2,-236(fp)
   21cac:	1887883a 	add	r3,r3,r2
   21cb0:	1805883a 	mov	r2,r3
   21cb4:	1085883a 	add	r2,r2,r2
   21cb8:	10c5883a 	add	r2,r2,r3
   21cbc:	11000084 	addi	r4,r2,2
   21cc0:	e0ffc517 	ldw	r3,-236(fp)
   21cc4:	1805883a 	mov	r2,r3
   21cc8:	1085883a 	add	r2,r2,r2
   21ccc:	10c5883a 	add	r2,r2,r3
   21cd0:	00c00134 	movhi	r3,4
   21cd4:	18e127c4 	addi	r3,r3,-31585
   21cd8:	1885883a 	add	r2,r3,r2
   21cdc:	10c00003 	ldbu	r3,0(r2)
   21ce0:	008000f4 	movhi	r2,3
   21ce4:	109f0c04 	addi	r2,r2,31792
   21ce8:	1105883a 	add	r2,r2,r4
   21cec:	10c00005 	stb	r3,0(r2)
                    if (is_bmp) {
                        int bmp_row = (height - 1) - global_y;
                        fseek(f_in, pixel_offset + (bmp_row * row_padded), SEEK_SET);
                        fread(global_row_data, 1, row_padded, f_in);

                        for (c = 0; c < width; c++) {
   21cf0:	e0bfc517 	ldw	r2,-236(fp)
   21cf4:	10800044 	addi	r2,r2,1
   21cf8:	e0bfc515 	stw	r2,-236(fp)
   21cfc:	e0bffb17 	ldw	r2,-20(fp)
   21d00:	e0ffc517 	ldw	r3,-236(fp)
   21d04:	18bfb416 	blt	r3,r2,21bd8 <main+0x8d8>
   21d08:	00002306 	br	21d98 <main+0xa98>
                            global_strip_buffer[(y * width + c) * 3 + 0] = global_row_data[c * 3 + 2];
                            global_strip_buffer[(y * width + c) * 3 + 1] = global_row_data[c * 3 + 1];
                            global_strip_buffer[(y * width + c) * 3 + 2] = global_row_data[c * 3 + 0];
                        }
                    } else {
                        fseek(f_in, pixel_offset + (global_y * width * 3), SEEK_SET);
   21d0c:	e0bffb17 	ldw	r2,-20(fp)
   21d10:	1009883a 	mov	r4,r2
   21d14:	e17fd117 	ldw	r5,-188(fp)
   21d18:	0022d140 	call	22d14 <__mulsi3>
   21d1c:	1007883a 	mov	r3,r2
   21d20:	1805883a 	mov	r2,r3
   21d24:	1085883a 	add	r2,r2,r2
   21d28:	10c7883a 	add	r3,r2,r3
   21d2c:	e0bffd17 	ldw	r2,-12(fp)
   21d30:	1885883a 	add	r2,r3,r2
   21d34:	e13fc917 	ldw	r4,-220(fp)
   21d38:	100b883a 	mov	r5,r2
   21d3c:	000d883a 	mov	r6,zero
   21d40:	00244a00 	call	244a0 <fseek>
                        fread(&global_strip_buffer[y * width * 3], 1, width * 3, f_in);
   21d44:	e0bffb17 	ldw	r2,-20(fp)
   21d48:	1009883a 	mov	r4,r2
   21d4c:	e17fc417 	ldw	r5,-240(fp)
   21d50:	0022d140 	call	22d14 <__mulsi3>
   21d54:	1007883a 	mov	r3,r2
   21d58:	1805883a 	mov	r2,r3
   21d5c:	1085883a 	add	r2,r2,r2
   21d60:	10c7883a 	add	r3,r2,r3
   21d64:	008000f4 	movhi	r2,3
   21d68:	109f0c04 	addi	r2,r2,31792
   21d6c:	1889883a 	add	r4,r3,r2
   21d70:	e0fffb17 	ldw	r3,-20(fp)
   21d74:	1805883a 	mov	r2,r3
   21d78:	1085883a 	add	r2,r2,r2
   21d7c:	10c5883a 	add	r2,r2,r3
   21d80:	01400044 	movi	r5,1
   21d84:	100d883a 	mov	r6,r2
   21d88:	e1ffc917 	ldw	r7,-220(fp)
   21d8c:	0023b840 	call	23b84 <fread>
   21d90:	00000106 	br	21d98 <main+0xa98>
        for (mcu_y = 0; mcu_y < mcus_y; mcu_y++) {
            for (y = 0; y < 8; y++) {
                int global_y = mcu_y * 8 + y;
                if (global_y >= height) {
                    if (y > 0) memcpy(&global_strip_buffer[y * width * 3], &global_strip_buffer[(y - 1) * width * 3], width * 3);
                    continue;
   21d94:	0001883a 	nop
        if (alt_timestamp_start() < 0) printf("Timer Error!\n");
        alt_u32 start_time = alt_timestamp();

        int mcu_y;
        for (mcu_y = 0; mcu_y < mcus_y; mcu_y++) {
            for (y = 0; y < 8; y++) {
   21d98:	e0bfc417 	ldw	r2,-240(fp)
   21d9c:	10800044 	addi	r2,r2,1
   21da0:	e0bfc415 	stw	r2,-240(fp)
   21da4:	e0bfc417 	ldw	r2,-240(fp)
   21da8:	10800210 	cmplti	r2,r2,8
   21dac:	103f261e 	bne	r2,zero,21a48 <main+0x748>
                        fseek(f_in, pixel_offset + (global_y * width * 3), SEEK_SET);
                        fread(&global_strip_buffer[y * width * 3], 1, width * 3, f_in);
                    }
                }
            }
            encode_mcu_row(global_strip_buffer, width, mcus_x, FIFO_OUT_BASE, FIFO_OUT_CSR_BASE, NULL);
   21db0:	e0bffb17 	ldw	r2,-20(fp)
   21db4:	00c00134 	movhi	r3,4
   21db8:	18c41804 	addi	r3,r3,4192
   21dbc:	d8c00015 	stw	r3,0(sp)
   21dc0:	d8000115 	stw	zero,4(sp)
   21dc4:	010000f4 	movhi	r4,3
   21dc8:	211f0c04 	addi	r4,r4,31792
   21dcc:	100b883a 	mov	r5,r2
   21dd0:	e1bfcb17 	ldw	r6,-212(fp)
   21dd4:	01c00134 	movhi	r7,4
   21dd8:	39c42f04 	addi	r7,r7,4284
   21ddc:	002005c0 	call	2005c <encode_mcu_row>
        // --- START TIMER NOW ---
        if (alt_timestamp_start() < 0) printf("Timer Error!\n");
        alt_u32 start_time = alt_timestamp();

        int mcu_y;
        for (mcu_y = 0; mcu_y < mcus_y; mcu_y++) {
   21de0:	e0bfc617 	ldw	r2,-232(fp)
   21de4:	10800044 	addi	r2,r2,1
   21de8:	e0bfc615 	stw	r2,-232(fp)
   21dec:	e0ffc617 	ldw	r3,-232(fp)
   21df0:	e0bfcc17 	ldw	r2,-208(fp)
   21df4:	18bf1216 	blt	r3,r2,21a40 <main+0x740>
            }
            encode_mcu_row(global_strip_buffer, width, mcus_x, FIFO_OUT_BASE, FIFO_OUT_CSR_BASE, NULL);
        }

        // --- STOP TIMER ---
        alt_u32 end_time = alt_timestamp();
   21df8:	003303c0 	call	3303c <alt_timestamp>
   21dfc:	e0bfd315 	stw	r2,-180(fp)

        // --- SAFE MATH TO PREVENT OVERFLOW ---
        alt_u32 ticks = end_time - start_time;
   21e00:	e0ffd317 	ldw	r3,-180(fp)
   21e04:	e0bfd017 	ldw	r2,-192(fp)
   21e08:	1885c83a 	sub	r2,r3,r2
   21e0c:	e0bfc715 	stw	r2,-228(fp)
        if (ticks == 0) ticks = 1;
   21e10:	e0bfc717 	ldw	r2,-228(fp)
   21e14:	1000021e 	bne	r2,zero,21e20 <main+0xb20>
   21e18:	00800044 	movi	r2,1
   21e1c:	e0bfc715 	stw	r2,-228(fp)

        alt_u32 freq = alt_timestamp_freq();
   21e20:	00330cc0 	call	330cc <alt_timestamp_freq>
   21e24:	e0bfd415 	stw	r2,-176(fp)
        float secs = (float)ticks / (float)freq;
   21e28:	e13fc717 	ldw	r4,-228(fp)
   21e2c:	0022b100 	call	22b10 <__floatunsisf>
   21e30:	1021883a 	mov	r16,r2
   21e34:	e13fd417 	ldw	r4,-176(fp)
   21e38:	0022b100 	call	22b10 <__floatunsisf>
   21e3c:	1007883a 	mov	r3,r2
   21e40:	8009883a 	mov	r4,r16
   21e44:	180b883a 	mov	r5,r3
   21e48:	00228300 	call	22830 <__divsf3>
   21e4c:	1007883a 	mov	r3,r2
   21e50:	e0ffd515 	stw	r3,-172(fp)
        alt_u32 time_ms = (alt_u32)(secs * 1000.0f);
   21e54:	e13fd517 	ldw	r4,-172(fp)
   21e58:	01511eb4 	movhi	r5,17530
   21e5c:	00226a00 	call	226a0 <__mulsf3>
   21e60:	1007883a 	mov	r3,r2
   21e64:	1805883a 	mov	r2,r3
   21e68:	1009883a 	mov	r4,r2
   21e6c:	00223980 	call	22398 <__fixunssfsi>
   21e70:	e0bfd615 	stw	r2,-168(fp)

        int total_raw_bytes = width * height * 3;
   21e74:	e0fffb17 	ldw	r3,-20(fp)
   21e78:	e0bffc17 	ldw	r2,-16(fp)
   21e7c:	1809883a 	mov	r4,r3
   21e80:	100b883a 	mov	r5,r2
   21e84:	0022d140 	call	22d14 <__mulsi3>
   21e88:	1007883a 	mov	r3,r2
   21e8c:	1805883a 	mov	r2,r3
   21e90:	1085883a 	add	r2,r2,r2
   21e94:	10c5883a 	add	r2,r2,r3
   21e98:	e0bfd715 	stw	r2,-164(fp)
        alt_u32 throughput = (alt_u32)((float)total_raw_bytes / secs);
   21e9c:	e13fd717 	ldw	r4,-164(fp)
   21ea0:	00229c80 	call	229c8 <__floatsisf>
   21ea4:	1007883a 	mov	r3,r2
   21ea8:	1809883a 	mov	r4,r3
   21eac:	e17fd517 	ldw	r5,-172(fp)
   21eb0:	00228300 	call	22830 <__divsf3>
   21eb4:	1007883a 	mov	r3,r2
   21eb8:	1805883a 	mov	r2,r3
   21ebc:	1009883a 	mov	r4,r2
   21ec0:	00223980 	call	22398 <__fixunssfsi>
   21ec4:	e0bfd815 	stw	r2,-160(fp)

        printf("--- STAGE 1 (DISPATCH) BENCHMARK ---\n");
   21ec8:	010000f4 	movhi	r4,3
   21ecc:	21126104 	addi	r4,r4,18820
   21ed0:	002541c0 	call	2541c <puts>
        printf("Total Clock Cycles : %lu\n", ticks);
   21ed4:	010000f4 	movhi	r4,3
   21ed8:	21126b04 	addi	r4,r4,18860
   21edc:	e17fc717 	ldw	r5,-228(fp)
   21ee0:	002535c0 	call	2535c <printf>
        printf("Total Time         : %lu milliseconds\n", time_ms);
   21ee4:	010000f4 	movhi	r4,3
   21ee8:	21127204 	addi	r4,r4,18888
   21eec:	e17fd617 	ldw	r5,-168(fp)
   21ef0:	002535c0 	call	2535c <printf>
        printf("Throughput         : %lu Raw Bytes/sec\n", throughput);
   21ef4:	010000f4 	movhi	r4,3
   21ef8:	21127c04 	addi	r4,r4,18928
   21efc:	e17fd817 	ldw	r5,-160(fp)
   21f00:	002535c0 	call	2535c <printf>

        fclose(f_in);
   21f04:	e13fc917 	ldw	r4,-220(fp)
   21f08:	00232e40 	call	232e4 <fclose>
        printf("Stage 1: Dispatch complete for Image %d.\n", img_idx + 1);
   21f0c:	e0bfc017 	ldw	r2,-256(fp)
   21f10:	10800044 	addi	r2,r2,1
   21f14:	010000f4 	movhi	r4,3
   21f18:	21128604 	addi	r4,r4,18968
   21f1c:	100b883a 	mov	r5,r2
   21f20:	002535c0 	call	2535c <printf>

    printf("Batch Job Initialized: Processing %d images...\n", num_images);

    // --- LOOP THROUGH EVERY IMAGE ---
    int img_idx;
    for (img_idx = 0; img_idx < num_images; img_idx++) {
   21f24:	e0bfc017 	ldw	r2,-256(fp)
   21f28:	10800044 	addi	r2,r2,1
   21f2c:	e0bfc015 	stw	r2,-256(fp)
   21f30:	e0bffa17 	ldw	r2,-24(fp)
   21f34:	e0ffc017 	ldw	r3,-256(fp)
   21f38:	18bd2e16 	blt	r3,r2,213f4 <main+0xf4>

        fclose(f_in);
        printf("Stage 1: Dispatch complete for Image %d.\n", img_idx + 1);
    }

    fclose(f_cfg);
   21f3c:	e13fc817 	ldw	r4,-224(fp)
   21f40:	00232e40 	call	232e4 <fclose>

    // --- INFINITE TRAP ADDED HERE ---
    printf("\n============================================\n");
   21f44:	010000f4 	movhi	r4,3
   21f48:	2111fd04 	addi	r4,r4,18420
   21f4c:	002541c0 	call	2541c <puts>
    printf("Batch processing complete! All images dispatched.\n");
   21f50:	010000f4 	movhi	r4,3
   21f54:	21129104 	addi	r4,r4,19012
   21f58:	002541c0 	call	2541c <puts>
    printf("Halting Master Controller to prevent loop restart.\n");
   21f5c:	010000f4 	movhi	r4,3
   21f60:	21129e04 	addi	r4,r4,19064
   21f64:	002541c0 	call	2541c <puts>
    printf("============================================\n");
   21f68:	010000f4 	movhi	r4,3
   21f6c:	2112ab04 	addi	r4,r4,19116
   21f70:	002541c0 	call	2541c <puts>

    while(1) {
        // Infinite idle loop keeps the program from resetting to the start.
    }
   21f74:	003fff06 	br	21f74 <main+0xc74>

    return 0;
}
   21f78:	e037883a 	mov	sp,fp
   21f7c:	dfc00217 	ldw	ra,8(sp)
   21f80:	df000117 	ldw	fp,4(sp)
   21f84:	dc000017 	ldw	r16,0(sp)
   21f88:	dec00304 	addi	sp,sp,12
   21f8c:	f800283a 	ret

00021f90 <fifo_init>:
#if defined(__nios2__) || defined(__NIOS2__)
// --- HARDWARE IMPLEMENTATION (Altera Nios II) ---
#include <io.h>
#include "altera_avalon_fifo_regs.h"

void fifo_init(unsigned int fifo_csr_base) {
   21f90:	defffe04 	addi	sp,sp,-8
   21f94:	df000115 	stw	fp,4(sp)
   21f98:	df000104 	addi	fp,sp,4
   21f9c:	e13fff15 	stw	r4,-4(fp)
    // Clear the FIFO event register to reset any lingering interrupt/error states
    IOWR_ALTERA_AVALON_FIFO_EVENT(fifo_csr_base, 0x0);
   21fa0:	e0bfff17 	ldw	r2,-4(fp)
   21fa4:	10800204 	addi	r2,r2,8
   21fa8:	0007883a 	mov	r3,zero
   21fac:	10c00035 	stwio	r3,0(r2)
}
   21fb0:	e037883a 	mov	sp,fp
   21fb4:	df000017 	ldw	fp,0(sp)
   21fb8:	dec00104 	addi	sp,sp,4
   21fbc:	f800283a 	ret

00021fc0 <fifo_read_block>:

void fifo_read_block(unsigned int fifo_base, unsigned int fifo_csr, INT16 *buffer, int length) {
   21fc0:	defffa04 	addi	sp,sp,-24
   21fc4:	df000515 	stw	fp,20(sp)
   21fc8:	df000504 	addi	fp,sp,20
   21fcc:	e13ffc15 	stw	r4,-16(fp)
   21fd0:	e17ffd15 	stw	r5,-12(fp)
   21fd4:	e1bffe15 	stw	r6,-8(fp)
   21fd8:	e1ffff15 	stw	r7,-4(fp)
    int i;
    for(i = 0; i < length; i++) {
   21fdc:	e03ffb15 	stw	zero,-20(fp)
   21fe0:	00001006 	br	22024 <fifo_read_block+0x64>
        // Spin-lock (block) while the FIFO Status Register says it is EMPTY
        // This is much safer than checking FIFO_LEVEL across dual-clock domains
        while (IORD_ALTERA_AVALON_FIFO_STATUS(fifo_csr) & ALTERA_AVALON_FIFO_STATUS_E_MSK) { }
   21fe4:	0001883a 	nop
   21fe8:	e0bffd17 	ldw	r2,-12(fp)
   21fec:	10800104 	addi	r2,r2,4
   21ff0:	10800037 	ldwio	r2,0(r2)
   21ff4:	1080008c 	andi	r2,r2,2
   21ff8:	103ffb1e 	bne	r2,zero,21fe8 <fifo_read_block+0x28>
        
        // Read 16-bit word from the FIFO data port
        buffer[i] = (INT16)IORD_ALTERA_AVALON_FIFO_DATA(fifo_base);
   21ffc:	e0bffb17 	ldw	r2,-20(fp)
   22000:	1085883a 	add	r2,r2,r2
   22004:	e0fffe17 	ldw	r3,-8(fp)
   22008:	1885883a 	add	r2,r3,r2
   2200c:	e0fffc17 	ldw	r3,-16(fp)
   22010:	18c00037 	ldwio	r3,0(r3)
   22014:	10c0000d 	sth	r3,0(r2)
    IOWR_ALTERA_AVALON_FIFO_EVENT(fifo_csr_base, 0x0);
}

void fifo_read_block(unsigned int fifo_base, unsigned int fifo_csr, INT16 *buffer, int length) {
    int i;
    for(i = 0; i < length; i++) {
   22018:	e0bffb17 	ldw	r2,-20(fp)
   2201c:	10800044 	addi	r2,r2,1
   22020:	e0bffb15 	stw	r2,-20(fp)
   22024:	e0fffb17 	ldw	r3,-20(fp)
   22028:	e0bfff17 	ldw	r2,-4(fp)
   2202c:	18bfed16 	blt	r3,r2,21fe4 <fifo_read_block+0x24>
        while (IORD_ALTERA_AVALON_FIFO_STATUS(fifo_csr) & ALTERA_AVALON_FIFO_STATUS_E_MSK) { }
        
        // Read 16-bit word from the FIFO data port
        buffer[i] = (INT16)IORD_ALTERA_AVALON_FIFO_DATA(fifo_base);
    }
}
   22030:	e037883a 	mov	sp,fp
   22034:	df000017 	ldw	fp,0(sp)
   22038:	dec00104 	addi	sp,sp,4
   2203c:	f800283a 	ret

00022040 <fifo_write_block>:

void fifo_write_block(unsigned int fifo_base, unsigned int fifo_csr, INT16 *buffer, int length) {
   22040:	defffa04 	addi	sp,sp,-24
   22044:	df000515 	stw	fp,20(sp)
   22048:	df000504 	addi	fp,sp,20
   2204c:	e13ffc15 	stw	r4,-16(fp)
   22050:	e17ffd15 	stw	r5,-12(fp)
   22054:	e1bffe15 	stw	r6,-8(fp)
   22058:	e1ffff15 	stw	r7,-4(fp)
    int i;
    for(i = 0; i < length; i++) {
   2205c:	e03ffb15 	stw	zero,-20(fp)
   22060:	00001306 	br	220b0 <fifo_write_block+0x70>
        // Spin-lock (block) while the FIFO is completely FULL
        while (IORD_ALTERA_AVALON_FIFO_STATUS(fifo_csr) & ALTERA_AVALON_FIFO_STATUS_F_MSK) { }
   22064:	0001883a 	nop
   22068:	e0bffd17 	ldw	r2,-12(fp)
   2206c:	10800104 	addi	r2,r2,4
   22070:	10800037 	ldwio	r2,0(r2)
   22074:	1080004c 	andi	r2,r2,1
   22078:	103ffb1e 	bne	r2,zero,22068 <fifo_write_block+0x28>
        
        // Write 16-bit word to the FIFO data port
        IOWR_ALTERA_AVALON_FIFO_DATA(fifo_base, buffer[i]);
   2207c:	e0fffc17 	ldw	r3,-16(fp)
   22080:	e0bffb17 	ldw	r2,-20(fp)
   22084:	1085883a 	add	r2,r2,r2
   22088:	e13ffe17 	ldw	r4,-8(fp)
   2208c:	2085883a 	add	r2,r4,r2
   22090:	1080000b 	ldhu	r2,0(r2)
   22094:	10bfffcc 	andi	r2,r2,65535
   22098:	10a0001c 	xori	r2,r2,32768
   2209c:	10a00004 	addi	r2,r2,-32768
   220a0:	18800035 	stwio	r2,0(r3)
    }
}

void fifo_write_block(unsigned int fifo_base, unsigned int fifo_csr, INT16 *buffer, int length) {
    int i;
    for(i = 0; i < length; i++) {
   220a4:	e0bffb17 	ldw	r2,-20(fp)
   220a8:	10800044 	addi	r2,r2,1
   220ac:	e0bffb15 	stw	r2,-20(fp)
   220b0:	e0fffb17 	ldw	r3,-20(fp)
   220b4:	e0bfff17 	ldw	r2,-4(fp)
   220b8:	18bfea16 	blt	r3,r2,22064 <fifo_write_block+0x24>
        while (IORD_ALTERA_AVALON_FIFO_STATUS(fifo_csr) & ALTERA_AVALON_FIFO_STATUS_F_MSK) { }
        
        // Write 16-bit word to the FIFO data port
        IOWR_ALTERA_AVALON_FIFO_DATA(fifo_base, buffer[i]);
    }
}
   220bc:	e037883a 	mov	sp,fp
   220c0:	df000017 	ldw	fp,0(sp)
   220c4:	dec00104 	addi	sp,sp,4
   220c8:	f800283a 	ret

000220cc <clamp>:
#include "nios2_common/datatype.h"
#include "nios2_common/jdatatype.h"

static inline INT16 clamp(INT16 val) {
   220cc:	defffe04 	addi	sp,sp,-8
   220d0:	df000115 	stw	fp,4(sp)
   220d4:	df000104 	addi	fp,sp,4
   220d8:	2005883a 	mov	r2,r4
   220dc:	e0bfff0d 	sth	r2,-4(fp)
    if (val < 0) return 0;
   220e0:	e0bfff0f 	ldh	r2,-4(fp)
   220e4:	1000020e 	bge	r2,zero,220f0 <clamp+0x24>
   220e8:	0005883a 	mov	r2,zero
   220ec:	00000606 	br	22108 <clamp+0x3c>
    if (val > 255) return 255;
   220f0:	e0bfff0f 	ldh	r2,-4(fp)
   220f4:	10804010 	cmplti	r2,r2,256
   220f8:	1000021e 	bne	r2,zero,22104 <clamp+0x38>
   220fc:	00803fc4 	movi	r2,255
   22100:	00000106 	br	22108 <clamp+0x3c>
    return val;
   22104:	e0bfff0b 	ldhu	r2,-4(fp)
}
   22108:	e037883a 	mov	sp,fp
   2210c:	df000017 	ldw	fp,0(sp)
   22110:	dec00104 	addi	sp,sp,4
   22114:	f800283a 	ret

00022118 <read_444_format>:

void read_444_format(UINT8 *input_ptr, int width, int height, INT16 *Y1, INT16 *CB, INT16 *CR, int mcu_col, int mcu_row) {
   22118:	defff004 	addi	sp,sp,-64
   2211c:	dfc00f15 	stw	ra,60(sp)
   22120:	df000e15 	stw	fp,56(sp)
   22124:	dc000d15 	stw	r16,52(sp)
   22128:	df000d04 	addi	fp,sp,52
   2212c:	e13ffc15 	stw	r4,-16(fp)
   22130:	e17ffd15 	stw	r5,-12(fp)
   22134:	e1bffe15 	stw	r6,-8(fp)
   22138:	e1ffff15 	stw	r7,-4(fp)
    int i, j;
    
    for (i = 0; i < 8; i++) {
   2213c:	e03ff315 	stw	zero,-52(fp)
   22140:	00008c06 	br	22374 <read_444_format+0x25c>
        for (j = 0; j < 8; j++) {
   22144:	e03ff415 	stw	zero,-48(fp)
   22148:	00008406 	br	2235c <read_444_format+0x244>
            int img_x = mcu_col * 8 + j;
   2214c:	e0800517 	ldw	r2,20(fp)
   22150:	100690fa 	slli	r3,r2,3
   22154:	e0bff417 	ldw	r2,-48(fp)
   22158:	1885883a 	add	r2,r3,r2
   2215c:	e0bff515 	stw	r2,-44(fp)
            int img_y = mcu_row * 8 + i;
   22160:	e0800617 	ldw	r2,24(fp)
   22164:	100690fa 	slli	r3,r2,3
   22168:	e0bff317 	ldw	r2,-52(fp)
   2216c:	1885883a 	add	r2,r3,r2
   22170:	e0bff615 	stw	r2,-40(fp)
            if (img_x >= width) img_x = width - 1;
   22174:	e0fff517 	ldw	r3,-44(fp)
   22178:	e0bffd17 	ldw	r2,-12(fp)
   2217c:	18800316 	blt	r3,r2,2218c <read_444_format+0x74>
   22180:	e0bffd17 	ldw	r2,-12(fp)
   22184:	10bfffc4 	addi	r2,r2,-1
   22188:	e0bff515 	stw	r2,-44(fp)
            if (img_y >= height) img_y = height - 1;
   2218c:	e0fff617 	ldw	r3,-40(fp)
   22190:	e0bffe17 	ldw	r2,-8(fp)
   22194:	18800316 	blt	r3,r2,221a4 <read_444_format+0x8c>
   22198:	e0bffe17 	ldw	r2,-8(fp)
   2219c:	10bfffc4 	addi	r2,r2,-1
   221a0:	e0bff615 	stw	r2,-40(fp)
            
            int pixel_idx = (img_y * width + img_x) * 3;
   221a4:	e13ff617 	ldw	r4,-40(fp)
   221a8:	e17ffd17 	ldw	r5,-12(fp)
   221ac:	0022d140 	call	22d14 <__mulsi3>
   221b0:	1007883a 	mov	r3,r2
   221b4:	e0bff517 	ldw	r2,-44(fp)
   221b8:	1887883a 	add	r3,r3,r2
   221bc:	1805883a 	mov	r2,r3
   221c0:	1085883a 	add	r2,r2,r2
   221c4:	10c5883a 	add	r2,r2,r3
   221c8:	e0bff715 	stw	r2,-36(fp)
            INT16 r = input_ptr[pixel_idx];
   221cc:	e0bff717 	ldw	r2,-36(fp)
   221d0:	e0fffc17 	ldw	r3,-16(fp)
   221d4:	1885883a 	add	r2,r3,r2
   221d8:	10800003 	ldbu	r2,0(r2)
   221dc:	10803fcc 	andi	r2,r2,255
   221e0:	e0bff80d 	sth	r2,-32(fp)
            INT16 g = input_ptr[pixel_idx + 1];
   221e4:	e0bff717 	ldw	r2,-36(fp)
   221e8:	10800044 	addi	r2,r2,1
   221ec:	e0fffc17 	ldw	r3,-16(fp)
   221f0:	1885883a 	add	r2,r3,r2
   221f4:	10800003 	ldbu	r2,0(r2)
   221f8:	10803fcc 	andi	r2,r2,255
   221fc:	e0bff88d 	sth	r2,-30(fp)
            INT16 b = input_ptr[pixel_idx + 2];
   22200:	e0bff717 	ldw	r2,-36(fp)
   22204:	10800084 	addi	r2,r2,2
   22208:	e0fffc17 	ldw	r3,-16(fp)
   2220c:	1885883a 	add	r2,r3,r2
   22210:	10800003 	ldbu	r2,0(r2)
   22214:	10803fcc 	andi	r2,r2,255
   22218:	e0bff90d 	sth	r2,-28(fp)
            
            // RGB to YCbCr
            INT16 y  = (( 77 * r + 150 * g +  29 * b) >> 8);
   2221c:	e0bff80f 	ldh	r2,-32(fp)
   22220:	1009883a 	mov	r4,r2
   22224:	01401344 	movi	r5,77
   22228:	0022d140 	call	22d14 <__mulsi3>
   2222c:	1021883a 	mov	r16,r2
   22230:	e0bff88f 	ldh	r2,-30(fp)
   22234:	1009883a 	mov	r4,r2
   22238:	01402584 	movi	r5,150
   2223c:	0022d140 	call	22d14 <__mulsi3>
   22240:	80a1883a 	add	r16,r16,r2
   22244:	e0bff90f 	ldh	r2,-28(fp)
   22248:	1009883a 	mov	r4,r2
   2224c:	01400744 	movi	r5,29
   22250:	0022d140 	call	22d14 <__mulsi3>
   22254:	8085883a 	add	r2,r16,r2
   22258:	1005d23a 	srai	r2,r2,8
   2225c:	e0bff98d 	sth	r2,-26(fp)
            INT16 cb = ((-43 * r -  85 * g + 128 * b) >> 8) + 128;
   22260:	e0bff80f 	ldh	r2,-32(fp)
   22264:	1009883a 	mov	r4,r2
   22268:	017ff544 	movi	r5,-43
   2226c:	0022d140 	call	22d14 <__mulsi3>
   22270:	1021883a 	mov	r16,r2
   22274:	e0bff88f 	ldh	r2,-30(fp)
   22278:	1009883a 	mov	r4,r2
   2227c:	017feac4 	movi	r5,-85
   22280:	0022d140 	call	22d14 <__mulsi3>
   22284:	8087883a 	add	r3,r16,r2
   22288:	e0bff90f 	ldh	r2,-28(fp)
   2228c:	100491fa 	slli	r2,r2,7
   22290:	1885883a 	add	r2,r3,r2
   22294:	1005d23a 	srai	r2,r2,8
   22298:	10802004 	addi	r2,r2,128
   2229c:	e0bffa0d 	sth	r2,-24(fp)
            INT16 cr = ((128 * r - 107 * g -  21 * b) >> 8) + 128;
   222a0:	e0bff80f 	ldh	r2,-32(fp)
   222a4:	102091fa 	slli	r16,r2,7
   222a8:	e0bff88f 	ldh	r2,-30(fp)
   222ac:	1009883a 	mov	r4,r2
   222b0:	017fe544 	movi	r5,-107
   222b4:	0022d140 	call	22d14 <__mulsi3>
   222b8:	80a1883a 	add	r16,r16,r2
   222bc:	e0bff90f 	ldh	r2,-28(fp)
   222c0:	1009883a 	mov	r4,r2
   222c4:	017ffac4 	movi	r5,-21
   222c8:	0022d140 	call	22d14 <__mulsi3>
   222cc:	8085883a 	add	r2,r16,r2
   222d0:	1005d23a 	srai	r2,r2,8
   222d4:	10802004 	addi	r2,r2,128
   222d8:	e0bffa8d 	sth	r2,-22(fp)
            
            int block_idx = i * 8 + j;
   222dc:	e0bff317 	ldw	r2,-52(fp)
   222e0:	100690fa 	slli	r3,r2,3
   222e4:	e0bff417 	ldw	r2,-48(fp)
   222e8:	1885883a 	add	r2,r3,r2
   222ec:	e0bffb15 	stw	r2,-20(fp)
            Y1[block_idx] = clamp(y);
   222f0:	e0bffb17 	ldw	r2,-20(fp)
   222f4:	1085883a 	add	r2,r2,r2
   222f8:	e0ffff17 	ldw	r3,-4(fp)
   222fc:	18a1883a 	add	r16,r3,r2
   22300:	e0bff98f 	ldh	r2,-26(fp)
   22304:	1009883a 	mov	r4,r2
   22308:	00220cc0 	call	220cc <clamp>
   2230c:	8080000d 	sth	r2,0(r16)
            CB[block_idx] = clamp(cb);
   22310:	e0bffb17 	ldw	r2,-20(fp)
   22314:	1085883a 	add	r2,r2,r2
   22318:	e0c00317 	ldw	r3,12(fp)
   2231c:	18a1883a 	add	r16,r3,r2
   22320:	e0bffa0f 	ldh	r2,-24(fp)
   22324:	1009883a 	mov	r4,r2
   22328:	00220cc0 	call	220cc <clamp>
   2232c:	8080000d 	sth	r2,0(r16)
            CR[block_idx] = clamp(cr);
   22330:	e0bffb17 	ldw	r2,-20(fp)
   22334:	1085883a 	add	r2,r2,r2
   22338:	e0c00417 	ldw	r3,16(fp)
   2233c:	18a1883a 	add	r16,r3,r2
   22340:	e0bffa8f 	ldh	r2,-22(fp)
   22344:	1009883a 	mov	r4,r2
   22348:	00220cc0 	call	220cc <clamp>
   2234c:	8080000d 	sth	r2,0(r16)

void read_444_format(UINT8 *input_ptr, int width, int height, INT16 *Y1, INT16 *CB, INT16 *CR, int mcu_col, int mcu_row) {
    int i, j;
    
    for (i = 0; i < 8; i++) {
        for (j = 0; j < 8; j++) {
   22350:	e0bff417 	ldw	r2,-48(fp)
   22354:	10800044 	addi	r2,r2,1
   22358:	e0bff415 	stw	r2,-48(fp)
   2235c:	e0bff417 	ldw	r2,-48(fp)
   22360:	10800210 	cmplti	r2,r2,8
   22364:	103f791e 	bne	r2,zero,2214c <read_444_format+0x34>
}

void read_444_format(UINT8 *input_ptr, int width, int height, INT16 *Y1, INT16 *CB, INT16 *CR, int mcu_col, int mcu_row) {
    int i, j;
    
    for (i = 0; i < 8; i++) {
   22368:	e0bff317 	ldw	r2,-52(fp)
   2236c:	10800044 	addi	r2,r2,1
   22370:	e0bff315 	stw	r2,-52(fp)
   22374:	e0bff317 	ldw	r2,-52(fp)
   22378:	10800210 	cmplti	r2,r2,8
   2237c:	103f711e 	bne	r2,zero,22144 <read_444_format+0x2c>
            Y1[block_idx] = clamp(y);
            CB[block_idx] = clamp(cb);
            CR[block_idx] = clamp(cr);
        }
    }
}
   22380:	e037883a 	mov	sp,fp
   22384:	dfc00217 	ldw	ra,8(sp)
   22388:	df000117 	ldw	fp,4(sp)
   2238c:	dc000017 	ldw	r16,0(sp)
   22390:	dec00304 	addi	sp,sp,12
   22394:	f800283a 	ret

00022398 <__fixunssfsi>:
   22398:	defffd04 	addi	sp,sp,-12
   2239c:	dc000015 	stw	r16,0(sp)
   223a0:	0413c034 	movhi	r16,20224
   223a4:	800b883a 	mov	r5,r16
   223a8:	dc400115 	stw	r17,4(sp)
   223ac:	dfc00215 	stw	ra,8(sp)
   223b0:	2023883a 	mov	r17,r4
   223b4:	002296c0 	call	2296c <__gesf2>
   223b8:	1000070e 	bge	r2,zero,223d8 <__fixunssfsi+0x40>
   223bc:	8809883a 	mov	r4,r17
   223c0:	0022a6c0 	call	22a6c <__fixsfsi>
   223c4:	dfc00217 	ldw	ra,8(sp)
   223c8:	dc400117 	ldw	r17,4(sp)
   223cc:	dc000017 	ldw	r16,0(sp)
   223d0:	dec00304 	addi	sp,sp,12
   223d4:	f800283a 	ret
   223d8:	800b883a 	mov	r5,r16
   223dc:	8809883a 	mov	r4,r17
   223e0:	00226480 	call	22648 <__subsf3>
   223e4:	1009883a 	mov	r4,r2
   223e8:	0022a6c0 	call	22a6c <__fixsfsi>
   223ec:	00e00034 	movhi	r3,32768
   223f0:	10c5883a 	add	r2,r2,r3
   223f4:	dfc00217 	ldw	ra,8(sp)
   223f8:	dc400117 	ldw	r17,4(sp)
   223fc:	dc000017 	ldw	r16,0(sp)
   22400:	dec00304 	addi	sp,sp,12
   22404:	f800283a 	ret

00022408 <_fpadd_parts>:
   22408:	2005883a 	mov	r2,r4
   2240c:	21000017 	ldw	r4,0(r4)
   22410:	01c00044 	movi	r7,1
   22414:	3900332e 	bgeu	r7,r4,224e4 <_fpadd_parts+0xdc>
   22418:	28c00017 	ldw	r3,0(r5)
   2241c:	38c0642e 	bgeu	r7,r3,225b0 <_fpadd_parts+0x1a8>
   22420:	01c00104 	movi	r7,4
   22424:	21c06e26 	beq	r4,r7,225e0 <_fpadd_parts+0x1d8>
   22428:	19c06126 	beq	r3,r7,225b0 <_fpadd_parts+0x1a8>
   2242c:	01c00084 	movi	r7,2
   22430:	19c04226 	beq	r3,r7,2253c <_fpadd_parts+0x134>
   22434:	21c05e26 	beq	r4,r7,225b0 <_fpadd_parts+0x1a8>
   22438:	11000217 	ldw	r4,8(r2)
   2243c:	2a400217 	ldw	r9,8(r5)
   22440:	12800317 	ldw	r10,12(r2)
   22444:	29c00317 	ldw	r7,12(r5)
   22448:	2247c83a 	sub	r3,r4,r9
   2244c:	1811883a 	mov	r8,r3
   22450:	18005316 	blt	r3,zero,225a0 <_fpadd_parts+0x198>
   22454:	02c007c4 	movi	r11,31
   22458:	5a002316 	blt	r11,r8,224e8 <_fpadd_parts+0xe0>
   2245c:	00c0560e 	bge	zero,r3,225b8 <_fpadd_parts+0x1b0>
   22460:	00c00044 	movi	r3,1
   22464:	1a06983a 	sll	r3,r3,r8
   22468:	3a10d83a 	srl	r8,r7,r8
   2246c:	18ffffc4 	addi	r3,r3,-1
   22470:	19ce703a 	and	r7,r3,r7
   22474:	380ec03a 	cmpne	r7,r7,zero
   22478:	3a0eb03a 	or	r7,r7,r8
   2247c:	10c00117 	ldw	r3,4(r2)
   22480:	28800117 	ldw	r2,4(r5)
   22484:	18801d26 	beq	r3,r2,224fc <_fpadd_parts+0xf4>
   22488:	18003a26 	beq	r3,zero,22574 <_fpadd_parts+0x16c>
   2248c:	3a85c83a 	sub	r2,r7,r10
   22490:	10003a16 	blt	r2,zero,2257c <_fpadd_parts+0x174>
   22494:	30000115 	stw	zero,4(r6)
   22498:	31000215 	stw	r4,8(r6)
   2249c:	30800315 	stw	r2,12(r6)
   224a0:	10ffffc4 	addi	r3,r2,-1
   224a4:	01d00034 	movhi	r7,16384
   224a8:	39ffff84 	addi	r7,r7,-2
   224ac:	38c00936 	bltu	r7,r3,224d4 <_fpadd_parts+0xcc>
   224b0:	30c00217 	ldw	r3,8(r6)
   224b4:	18ffffc4 	addi	r3,r3,-1
   224b8:	1085883a 	add	r2,r2,r2
   224bc:	113fffc4 	addi	r4,r2,-1
   224c0:	180b883a 	mov	r5,r3
   224c4:	18ffffc4 	addi	r3,r3,-1
   224c8:	393ffb2e 	bgeu	r7,r4,224b8 <_fpadd_parts+0xb0>
   224cc:	30800315 	stw	r2,12(r6)
   224d0:	31400215 	stw	r5,8(r6)
   224d4:	00c000c4 	movi	r3,3
   224d8:	30c00015 	stw	r3,0(r6)
   224dc:	10000e16 	blt	r2,zero,22518 <_fpadd_parts+0x110>
   224e0:	3005883a 	mov	r2,r6
   224e4:	f800283a 	ret
   224e8:	49002a0e 	bge	r9,r4,22594 <_fpadd_parts+0x18c>
   224ec:	10c00117 	ldw	r3,4(r2)
   224f0:	28800117 	ldw	r2,4(r5)
   224f4:	000f883a 	mov	r7,zero
   224f8:	18bfe31e 	bne	r3,r2,22488 <_fpadd_parts+0x80>
   224fc:	3a85883a 	add	r2,r7,r10
   22500:	30c00115 	stw	r3,4(r6)
   22504:	00c000c4 	movi	r3,3
   22508:	31000215 	stw	r4,8(r6)
   2250c:	30800315 	stw	r2,12(r6)
   22510:	30c00015 	stw	r3,0(r6)
   22514:	103ff20e 	bge	r2,zero,224e0 <_fpadd_parts+0xd8>
   22518:	30c00217 	ldw	r3,8(r6)
   2251c:	1008d07a 	srli	r4,r2,1
   22520:	1080004c 	andi	r2,r2,1
   22524:	18c00044 	addi	r3,r3,1
   22528:	1104b03a 	or	r2,r2,r4
   2252c:	30800315 	stw	r2,12(r6)
   22530:	30c00215 	stw	r3,8(r6)
   22534:	3005883a 	mov	r2,r6
   22538:	f800283a 	ret
   2253c:	20ffe91e 	bne	r4,r3,224e4 <_fpadd_parts+0xdc>
   22540:	31000015 	stw	r4,0(r6)
   22544:	10c00117 	ldw	r3,4(r2)
   22548:	30c00115 	stw	r3,4(r6)
   2254c:	11c00217 	ldw	r7,8(r2)
   22550:	10c00117 	ldw	r3,4(r2)
   22554:	29000117 	ldw	r4,4(r5)
   22558:	31c00215 	stw	r7,8(r6)
   2255c:	10800317 	ldw	r2,12(r2)
   22560:	20c6703a 	and	r3,r4,r3
   22564:	30c00115 	stw	r3,4(r6)
   22568:	30800315 	stw	r2,12(r6)
   2256c:	3005883a 	mov	r2,r6
   22570:	f800283a 	ret
   22574:	51c5c83a 	sub	r2,r10,r7
   22578:	103fc60e 	bge	r2,zero,22494 <_fpadd_parts+0x8c>
   2257c:	0085c83a 	sub	r2,zero,r2
   22580:	00c00044 	movi	r3,1
   22584:	30c00115 	stw	r3,4(r6)
   22588:	31000215 	stw	r4,8(r6)
   2258c:	30800315 	stw	r2,12(r6)
   22590:	003fc306 	br	224a0 <_fpadd_parts+0x98>
   22594:	4809883a 	mov	r4,r9
   22598:	0015883a 	mov	r10,zero
   2259c:	003fb706 	br	2247c <_fpadd_parts+0x74>
   225a0:	00d1c83a 	sub	r8,zero,r3
   225a4:	02c007c4 	movi	r11,31
   225a8:	5a3fcf16 	blt	r11,r8,224e8 <_fpadd_parts+0xe0>
   225ac:	003fab06 	br	2245c <_fpadd_parts+0x54>
   225b0:	2805883a 	mov	r2,r5
   225b4:	f800283a 	ret
   225b8:	183fb026 	beq	r3,zero,2247c <_fpadd_parts+0x74>
   225bc:	02400044 	movi	r9,1
   225c0:	4a12983a 	sll	r9,r9,r8
   225c4:	5206d83a 	srl	r3,r10,r8
   225c8:	2209883a 	add	r4,r4,r8
   225cc:	4a3fffc4 	addi	r8,r9,-1
   225d0:	4294703a 	and	r10,r8,r10
   225d4:	5014c03a 	cmpne	r10,r10,zero
   225d8:	50d4b03a 	or	r10,r10,r3
   225dc:	003fa706 	br	2247c <_fpadd_parts+0x74>
   225e0:	193fc01e 	bne	r3,r4,224e4 <_fpadd_parts+0xdc>
   225e4:	11000117 	ldw	r4,4(r2)
   225e8:	28c00117 	ldw	r3,4(r5)
   225ec:	20ffbd26 	beq	r4,r3,224e4 <_fpadd_parts+0xdc>
   225f0:	008000f4 	movhi	r2,3
   225f4:	1092b704 	addi	r2,r2,19164
   225f8:	f800283a 	ret

000225fc <__addsf3>:
   225fc:	defff104 	addi	sp,sp,-60
   22600:	d9000d15 	stw	r4,52(sp)
   22604:	d9400c15 	stw	r5,48(sp)
   22608:	d9000d04 	addi	r4,sp,52
   2260c:	d9400804 	addi	r5,sp,32
   22610:	dfc00e15 	stw	ra,56(sp)
   22614:	00230240 	call	23024 <__unpack_f>
   22618:	d9000c04 	addi	r4,sp,48
   2261c:	d9400404 	addi	r5,sp,16
   22620:	00230240 	call	23024 <__unpack_f>
   22624:	d9000804 	addi	r4,sp,32
   22628:	d9400404 	addi	r5,sp,16
   2262c:	d80d883a 	mov	r6,sp
   22630:	00224080 	call	22408 <_fpadd_parts>
   22634:	1009883a 	mov	r4,r2
   22638:	0022ef80 	call	22ef8 <__pack_f>
   2263c:	dfc00e17 	ldw	ra,56(sp)
   22640:	dec00f04 	addi	sp,sp,60
   22644:	f800283a 	ret

00022648 <__subsf3>:
   22648:	defff104 	addi	sp,sp,-60
   2264c:	d9000d15 	stw	r4,52(sp)
   22650:	d9400c15 	stw	r5,48(sp)
   22654:	d9000d04 	addi	r4,sp,52
   22658:	d9400804 	addi	r5,sp,32
   2265c:	dfc00e15 	stw	ra,56(sp)
   22660:	00230240 	call	23024 <__unpack_f>
   22664:	d9000c04 	addi	r4,sp,48
   22668:	d9400404 	addi	r5,sp,16
   2266c:	00230240 	call	23024 <__unpack_f>
   22670:	d8800517 	ldw	r2,20(sp)
   22674:	d9000804 	addi	r4,sp,32
   22678:	d9400404 	addi	r5,sp,16
   2267c:	d80d883a 	mov	r6,sp
   22680:	1080005c 	xori	r2,r2,1
   22684:	d8800515 	stw	r2,20(sp)
   22688:	00224080 	call	22408 <_fpadd_parts>
   2268c:	1009883a 	mov	r4,r2
   22690:	0022ef80 	call	22ef8 <__pack_f>
   22694:	dfc00e17 	ldw	ra,56(sp)
   22698:	dec00f04 	addi	sp,sp,60
   2269c:	f800283a 	ret

000226a0 <__mulsf3>:
   226a0:	defff104 	addi	sp,sp,-60
   226a4:	d9000d15 	stw	r4,52(sp)
   226a8:	d9400c15 	stw	r5,48(sp)
   226ac:	d9000d04 	addi	r4,sp,52
   226b0:	d9400804 	addi	r5,sp,32
   226b4:	dfc00e15 	stw	ra,56(sp)
   226b8:	00230240 	call	23024 <__unpack_f>
   226bc:	d9000c04 	addi	r4,sp,48
   226c0:	d9400404 	addi	r5,sp,16
   226c4:	00230240 	call	23024 <__unpack_f>
   226c8:	d8c00817 	ldw	r3,32(sp)
   226cc:	00800044 	movi	r2,1
   226d0:	10c00936 	bltu	r2,r3,226f8 <__mulsf3+0x58>
   226d4:	d8c00917 	ldw	r3,36(sp)
   226d8:	d8800517 	ldw	r2,20(sp)
   226dc:	d9000804 	addi	r4,sp,32
   226e0:	1884c03a 	cmpne	r2,r3,r2
   226e4:	d8800915 	stw	r2,36(sp)
   226e8:	0022ef80 	call	22ef8 <__pack_f>
   226ec:	dfc00e17 	ldw	ra,56(sp)
   226f0:	dec00f04 	addi	sp,sp,60
   226f4:	f800283a 	ret
   226f8:	d9000417 	ldw	r4,16(sp)
   226fc:	11000936 	bltu	r2,r4,22724 <__mulsf3+0x84>
   22700:	d8800517 	ldw	r2,20(sp)
   22704:	d8c00917 	ldw	r3,36(sp)
   22708:	d9000404 	addi	r4,sp,16
   2270c:	1884c03a 	cmpne	r2,r3,r2
   22710:	d8800515 	stw	r2,20(sp)
   22714:	0022ef80 	call	22ef8 <__pack_f>
   22718:	dfc00e17 	ldw	ra,56(sp)
   2271c:	dec00f04 	addi	sp,sp,60
   22720:	f800283a 	ret
   22724:	00800104 	movi	r2,4
   22728:	1880051e 	bne	r3,r2,22740 <__mulsf3+0xa0>
   2272c:	00800084 	movi	r2,2
   22730:	20bfe81e 	bne	r4,r2,226d4 <__mulsf3+0x34>
   22734:	010000f4 	movhi	r4,3
   22738:	2112b704 	addi	r4,r4,19164
   2273c:	003fea06 	br	226e8 <__mulsf3+0x48>
   22740:	2080031e 	bne	r4,r2,22750 <__mulsf3+0xb0>
   22744:	00800084 	movi	r2,2
   22748:	18bffa26 	beq	r3,r2,22734 <__mulsf3+0x94>
   2274c:	003fec06 	br	22700 <__mulsf3+0x60>
   22750:	00800084 	movi	r2,2
   22754:	18bfdf26 	beq	r3,r2,226d4 <__mulsf3+0x34>
   22758:	20bfe926 	beq	r4,r2,22700 <__mulsf3+0x60>
   2275c:	d9000717 	ldw	r4,28(sp)
   22760:	d9800b17 	ldw	r6,44(sp)
   22764:	000b883a 	mov	r5,zero
   22768:	000f883a 	mov	r7,zero
   2276c:	0022d3c0 	call	22d3c <__muldi3>
   22770:	d9000617 	ldw	r4,24(sp)
   22774:	d9400a17 	ldw	r5,40(sp)
   22778:	d9c00917 	ldw	r7,36(sp)
   2277c:	290b883a 	add	r5,r5,r4
   22780:	d9000517 	ldw	r4,20(sp)
   22784:	29800084 	addi	r6,r5,2
   22788:	d9800215 	stw	r6,8(sp)
   2278c:	3908c03a 	cmpne	r4,r7,r4
   22790:	d9000115 	stw	r4,4(sp)
   22794:	1809883a 	mov	r4,r3
   22798:	1800070e 	bge	r3,zero,227b8 <__mulsf3+0x118>
   2279c:	1900004c 	andi	r4,r3,1
   227a0:	294000c4 	addi	r5,r5,3
   227a4:	20000226 	beq	r4,zero,227b0 <__mulsf3+0x110>
   227a8:	1004d07a 	srli	r2,r2,1
   227ac:	10a00034 	orhi	r2,r2,32768
   227b0:	1808d07a 	srli	r4,r3,1
   227b4:	d9400215 	stw	r5,8(sp)
   227b8:	01900034 	movhi	r6,16384
   227bc:	31bfffc4 	addi	r6,r6,-1
   227c0:	31000c36 	bltu	r6,r4,227f4 <__mulsf3+0x154>
   227c4:	d8c00217 	ldw	r3,8(sp)
   227c8:	18ffffc4 	addi	r3,r3,-1
   227cc:	00000306 	br	227dc <__mulsf3+0x13c>
   227d0:	1085883a 	add	r2,r2,r2
   227d4:	18ffffc4 	addi	r3,r3,-1
   227d8:	31000536 	bltu	r6,r4,227f0 <__mulsf3+0x150>
   227dc:	2109883a 	add	r4,r4,r4
   227e0:	180b883a 	mov	r5,r3
   227e4:	103ffa0e 	bge	r2,zero,227d0 <__mulsf3+0x130>
   227e8:	21000054 	ori	r4,r4,1
   227ec:	003ff806 	br	227d0 <__mulsf3+0x130>
   227f0:	d9400215 	stw	r5,8(sp)
   227f4:	21401fcc 	andi	r5,r4,127
   227f8:	00c01004 	movi	r3,64
   227fc:	28c00526 	beq	r5,r3,22814 <__mulsf3+0x174>
   22800:	008000c4 	movi	r2,3
   22804:	d9000315 	stw	r4,12(sp)
   22808:	d8800015 	stw	r2,0(sp)
   2280c:	d809883a 	mov	r4,sp
   22810:	003fb506 	br	226e8 <__mulsf3+0x48>
   22814:	20c0200c 	andi	r3,r4,128
   22818:	183ff91e 	bne	r3,zero,22800 <__mulsf3+0x160>
   2281c:	103ff826 	beq	r2,zero,22800 <__mulsf3+0x160>
   22820:	21001004 	addi	r4,r4,64
   22824:	00bfe004 	movi	r2,-128
   22828:	2088703a 	and	r4,r4,r2
   2282c:	003ff406 	br	22800 <__mulsf3+0x160>

00022830 <__divsf3>:
   22830:	defff504 	addi	sp,sp,-44
   22834:	d9000915 	stw	r4,36(sp)
   22838:	d9400815 	stw	r5,32(sp)
   2283c:	d9000904 	addi	r4,sp,36
   22840:	d9400404 	addi	r5,sp,16
   22844:	dfc00a15 	stw	ra,40(sp)
   22848:	00230240 	call	23024 <__unpack_f>
   2284c:	d9000804 	addi	r4,sp,32
   22850:	d80b883a 	mov	r5,sp
   22854:	00230240 	call	23024 <__unpack_f>
   22858:	d8c00417 	ldw	r3,16(sp)
   2285c:	00800044 	movi	r2,1
   22860:	10c00536 	bltu	r2,r3,22878 <__divsf3+0x48>
   22864:	d9000404 	addi	r4,sp,16
   22868:	0022ef80 	call	22ef8 <__pack_f>
   2286c:	dfc00a17 	ldw	ra,40(sp)
   22870:	dec00b04 	addi	sp,sp,44
   22874:	f800283a 	ret
   22878:	d9000017 	ldw	r4,0(sp)
   2287c:	11000536 	bltu	r2,r4,22894 <__divsf3+0x64>
   22880:	d809883a 	mov	r4,sp
   22884:	0022ef80 	call	22ef8 <__pack_f>
   22888:	dfc00a17 	ldw	ra,40(sp)
   2288c:	dec00b04 	addi	sp,sp,44
   22890:	f800283a 	ret
   22894:	d9800517 	ldw	r6,20(sp)
   22898:	d9400117 	ldw	r5,4(sp)
   2289c:	00800104 	movi	r2,4
   228a0:	314af03a 	xor	r5,r6,r5
   228a4:	d9400515 	stw	r5,20(sp)
   228a8:	18800226 	beq	r3,r2,228b4 <__divsf3+0x84>
   228ac:	01400084 	movi	r5,2
   228b0:	1940041e 	bne	r3,r5,228c4 <__divsf3+0x94>
   228b4:	193feb1e 	bne	r3,r4,22864 <__divsf3+0x34>
   228b8:	010000f4 	movhi	r4,3
   228bc:	2112b704 	addi	r4,r4,19164
   228c0:	003fe906 	br	22868 <__divsf3+0x38>
   228c4:	20802226 	beq	r4,r2,22950 <__divsf3+0x120>
   228c8:	21402526 	beq	r4,r5,22960 <__divsf3+0x130>
   228cc:	d9000617 	ldw	r4,24(sp)
   228d0:	d8c00217 	ldw	r3,8(sp)
   228d4:	d8800717 	ldw	r2,28(sp)
   228d8:	d9400317 	ldw	r5,12(sp)
   228dc:	20c7c83a 	sub	r3,r4,r3
   228e0:	d8c00615 	stw	r3,24(sp)
   228e4:	1140032e 	bgeu	r2,r5,228f4 <__divsf3+0xc4>
   228e8:	18ffffc4 	addi	r3,r3,-1
   228ec:	1085883a 	add	r2,r2,r2
   228f0:	d8c00615 	stw	r3,24(sp)
   228f4:	00c007c4 	movi	r3,31
   228f8:	01100034 	movhi	r4,16384
   228fc:	000d883a 	mov	r6,zero
   22900:	18ffffc4 	addi	r3,r3,-1
   22904:	11400236 	bltu	r2,r5,22910 <__divsf3+0xe0>
   22908:	310cb03a 	or	r6,r6,r4
   2290c:	1145c83a 	sub	r2,r2,r5
   22910:	2008d07a 	srli	r4,r4,1
   22914:	1085883a 	add	r2,r2,r2
   22918:	183ff91e 	bne	r3,zero,22900 <__divsf3+0xd0>
   2291c:	31001fcc 	andi	r4,r6,127
   22920:	00c01004 	movi	r3,64
   22924:	20c00226 	beq	r4,r3,22930 <__divsf3+0x100>
   22928:	d9800715 	stw	r6,28(sp)
   2292c:	003fcd06 	br	22864 <__divsf3+0x34>
   22930:	30c0200c 	andi	r3,r6,128
   22934:	183ffc1e 	bne	r3,zero,22928 <__divsf3+0xf8>
   22938:	103ffb26 	beq	r2,zero,22928 <__divsf3+0xf8>
   2293c:	31801004 	addi	r6,r6,64
   22940:	00bfe004 	movi	r2,-128
   22944:	308c703a 	and	r6,r6,r2
   22948:	d9800715 	stw	r6,28(sp)
   2294c:	003fc506 	br	22864 <__divsf3+0x34>
   22950:	d8000715 	stw	zero,28(sp)
   22954:	d8000615 	stw	zero,24(sp)
   22958:	d9000404 	addi	r4,sp,16
   2295c:	003fc206 	br	22868 <__divsf3+0x38>
   22960:	d8800415 	stw	r2,16(sp)
   22964:	d9000404 	addi	r4,sp,16
   22968:	003fbf06 	br	22868 <__divsf3+0x38>

0002296c <__gesf2>:
   2296c:	defff504 	addi	sp,sp,-44
   22970:	d9000915 	stw	r4,36(sp)
   22974:	d9400815 	stw	r5,32(sp)
   22978:	d9000904 	addi	r4,sp,36
   2297c:	d9400404 	addi	r5,sp,16
   22980:	dfc00a15 	stw	ra,40(sp)
   22984:	00230240 	call	23024 <__unpack_f>
   22988:	d9000804 	addi	r4,sp,32
   2298c:	d80b883a 	mov	r5,sp
   22990:	00230240 	call	23024 <__unpack_f>
   22994:	d8c00417 	ldw	r3,16(sp)
   22998:	00800044 	movi	r2,1
   2299c:	10c0082e 	bgeu	r2,r3,229c0 <__gesf2+0x54>
   229a0:	d8c00017 	ldw	r3,0(sp)
   229a4:	10c0062e 	bgeu	r2,r3,229c0 <__gesf2+0x54>
   229a8:	d9000404 	addi	r4,sp,16
   229ac:	d80b883a 	mov	r5,sp
   229b0:	00230ec0 	call	230ec <__fpcmp_parts_f>
   229b4:	dfc00a17 	ldw	ra,40(sp)
   229b8:	dec00b04 	addi	sp,sp,44
   229bc:	f800283a 	ret
   229c0:	00bfffc4 	movi	r2,-1
   229c4:	003ffb06 	br	229b4 <__gesf2+0x48>

000229c8 <__floatsisf>:
   229c8:	2004d7fa 	srli	r2,r4,31
   229cc:	defffa04 	addi	sp,sp,-24
   229d0:	00c000c4 	movi	r3,3
   229d4:	dfc00515 	stw	ra,20(sp)
   229d8:	dc000415 	stw	r16,16(sp)
   229dc:	d8c00015 	stw	r3,0(sp)
   229e0:	d8800115 	stw	r2,4(sp)
   229e4:	2000081e 	bne	r4,zero,22a08 <__floatsisf+0x40>
   229e8:	00800084 	movi	r2,2
   229ec:	d8800015 	stw	r2,0(sp)
   229f0:	d809883a 	mov	r4,sp
   229f4:	0022ef80 	call	22ef8 <__pack_f>
   229f8:	dfc00517 	ldw	ra,20(sp)
   229fc:	dc000417 	ldw	r16,16(sp)
   22a00:	dec00604 	addi	sp,sp,24
   22a04:	f800283a 	ret
   22a08:	00c00784 	movi	r3,30
   22a0c:	d8c00215 	stw	r3,8(sp)
   22a10:	10000b1e 	bne	r2,zero,22a40 <__floatsisf+0x78>
   22a14:	2021883a 	mov	r16,r4
   22a18:	8009883a 	mov	r4,r16
   22a1c:	0022e4c0 	call	22e4c <__clzsi2>
   22a20:	113fffc4 	addi	r4,r2,-1
   22a24:	01000d0e 	bge	zero,r4,22a5c <__floatsisf+0x94>
   22a28:	8108983a 	sll	r4,r16,r4
   22a2c:	00c007c4 	movi	r3,31
   22a30:	1885c83a 	sub	r2,r3,r2
   22a34:	d9000315 	stw	r4,12(sp)
   22a38:	d8800215 	stw	r2,8(sp)
   22a3c:	003fec06 	br	229f0 <__floatsisf+0x28>
   22a40:	00a00034 	movhi	r2,32768
   22a44:	20800726 	beq	r4,r2,22a64 <__floatsisf+0x9c>
   22a48:	0121c83a 	sub	r16,zero,r4
   22a4c:	8009883a 	mov	r4,r16
   22a50:	0022e4c0 	call	22e4c <__clzsi2>
   22a54:	113fffc4 	addi	r4,r2,-1
   22a58:	013ff316 	blt	zero,r4,22a28 <__floatsisf+0x60>
   22a5c:	dc000315 	stw	r16,12(sp)
   22a60:	003fe306 	br	229f0 <__floatsisf+0x28>
   22a64:	00b3c034 	movhi	r2,52992
   22a68:	003fe306 	br	229f8 <__floatsisf+0x30>

00022a6c <__fixsfsi>:
   22a6c:	defffa04 	addi	sp,sp,-24
   22a70:	d9000415 	stw	r4,16(sp)
   22a74:	d80b883a 	mov	r5,sp
   22a78:	d9000404 	addi	r4,sp,16
   22a7c:	dfc00515 	stw	ra,20(sp)
   22a80:	00230240 	call	23024 <__unpack_f>
   22a84:	d8800017 	ldw	r2,0(sp)
   22a88:	00c00084 	movi	r3,2
   22a8c:	10c01826 	beq	r2,r3,22af0 <__fixsfsi+0x84>
   22a90:	00c00044 	movi	r3,1
   22a94:	1880162e 	bgeu	r3,r2,22af0 <__fixsfsi+0x84>
   22a98:	00c00104 	movi	r3,4
   22a9c:	10c00426 	beq	r2,r3,22ab0 <__fixsfsi+0x44>
   22aa0:	d8800217 	ldw	r2,8(sp)
   22aa4:	10001216 	blt	r2,zero,22af0 <__fixsfsi+0x84>
   22aa8:	00c00784 	movi	r3,30
   22aac:	1880070e 	bge	r3,r2,22acc <__fixsfsi+0x60>
   22ab0:	d8800117 	ldw	r2,4(sp)
   22ab4:	1000121e 	bne	r2,zero,22b00 <__fixsfsi+0x94>
   22ab8:	00a00034 	movhi	r2,32768
   22abc:	10bfffc4 	addi	r2,r2,-1
   22ac0:	dfc00517 	ldw	ra,20(sp)
   22ac4:	dec00604 	addi	sp,sp,24
   22ac8:	f800283a 	ret
   22acc:	1885c83a 	sub	r2,r3,r2
   22ad0:	d8c00317 	ldw	r3,12(sp)
   22ad4:	1884d83a 	srl	r2,r3,r2
   22ad8:	d8c00117 	ldw	r3,4(sp)
   22adc:	183ff826 	beq	r3,zero,22ac0 <__fixsfsi+0x54>
   22ae0:	0085c83a 	sub	r2,zero,r2
   22ae4:	dfc00517 	ldw	ra,20(sp)
   22ae8:	dec00604 	addi	sp,sp,24
   22aec:	f800283a 	ret
   22af0:	0005883a 	mov	r2,zero
   22af4:	dfc00517 	ldw	ra,20(sp)
   22af8:	dec00604 	addi	sp,sp,24
   22afc:	f800283a 	ret
   22b00:	00a00034 	movhi	r2,32768
   22b04:	dfc00517 	ldw	ra,20(sp)
   22b08:	dec00604 	addi	sp,sp,24
   22b0c:	f800283a 	ret

00022b10 <__floatunsisf>:
   22b10:	defffa04 	addi	sp,sp,-24
   22b14:	dc000415 	stw	r16,16(sp)
   22b18:	dfc00515 	stw	ra,20(sp)
   22b1c:	d8000115 	stw	zero,4(sp)
   22b20:	2021883a 	mov	r16,r4
   22b24:	20001326 	beq	r4,zero,22b74 <__floatunsisf+0x64>
   22b28:	008000c4 	movi	r2,3
   22b2c:	d8800015 	stw	r2,0(sp)
   22b30:	00800784 	movi	r2,30
   22b34:	d8800215 	stw	r2,8(sp)
   22b38:	0022e4c0 	call	22e4c <__clzsi2>
   22b3c:	10ffffc4 	addi	r3,r2,-1
   22b40:	18001416 	blt	r3,zero,22b94 <__floatunsisf+0x84>
   22b44:	18002526 	beq	r3,zero,22bdc <__floatunsisf+0xcc>
   22b48:	80e0983a 	sll	r16,r16,r3
   22b4c:	00c007c4 	movi	r3,31
   22b50:	1885c83a 	sub	r2,r3,r2
   22b54:	dc000315 	stw	r16,12(sp)
   22b58:	d8800215 	stw	r2,8(sp)
   22b5c:	d809883a 	mov	r4,sp
   22b60:	0022ef80 	call	22ef8 <__pack_f>
   22b64:	dfc00517 	ldw	ra,20(sp)
   22b68:	dc000417 	ldw	r16,16(sp)
   22b6c:	dec00604 	addi	sp,sp,24
   22b70:	f800283a 	ret
   22b74:	00800084 	movi	r2,2
   22b78:	d809883a 	mov	r4,sp
   22b7c:	d8800015 	stw	r2,0(sp)
   22b80:	0022ef80 	call	22ef8 <__pack_f>
   22b84:	dfc00517 	ldw	ra,20(sp)
   22b88:	dc000417 	ldw	r16,16(sp)
   22b8c:	dec00604 	addi	sp,sp,24
   22b90:	f800283a 	ret
   22b94:	00c7c83a 	sub	r3,zero,r3
   22b98:	01000044 	movi	r4,1
   22b9c:	20c8983a 	sll	r4,r4,r3
   22ba0:	80c6d83a 	srl	r3,r16,r3
   22ba4:	213fffc4 	addi	r4,r4,-1
   22ba8:	2420703a 	and	r16,r4,r16
   22bac:	8020c03a 	cmpne	r16,r16,zero
   22bb0:	010007c4 	movi	r4,31
   22bb4:	80c6b03a 	or	r3,r16,r3
   22bb8:	2085c83a 	sub	r2,r4,r2
   22bbc:	d809883a 	mov	r4,sp
   22bc0:	d8c00315 	stw	r3,12(sp)
   22bc4:	d8800215 	stw	r2,8(sp)
   22bc8:	0022ef80 	call	22ef8 <__pack_f>
   22bcc:	dfc00517 	ldw	ra,20(sp)
   22bd0:	dc000417 	ldw	r16,16(sp)
   22bd4:	dec00604 	addi	sp,sp,24
   22bd8:	f800283a 	ret
   22bdc:	dc000315 	stw	r16,12(sp)
   22be0:	003fde06 	br	22b5c <__floatunsisf+0x4c>

00022be4 <udivmodsi4>:
   22be4:	2005883a 	mov	r2,r4
   22be8:	2900182e 	bgeu	r5,r4,22c4c <udivmodsi4+0x68>
   22bec:	28001716 	blt	r5,zero,22c4c <udivmodsi4+0x68>
   22bf0:	01000804 	movi	r4,32
   22bf4:	00c00044 	movi	r3,1
   22bf8:	00000206 	br	22c04 <udivmodsi4+0x20>
   22bfc:	20001126 	beq	r4,zero,22c44 <udivmodsi4+0x60>
   22c00:	28000516 	blt	r5,zero,22c18 <udivmodsi4+0x34>
   22c04:	294b883a 	add	r5,r5,r5
   22c08:	213fffc4 	addi	r4,r4,-1
   22c0c:	18c7883a 	add	r3,r3,r3
   22c10:	28bffa36 	bltu	r5,r2,22bfc <udivmodsi4+0x18>
   22c14:	18000b26 	beq	r3,zero,22c44 <udivmodsi4+0x60>
   22c18:	0009883a 	mov	r4,zero
   22c1c:	11400236 	bltu	r2,r5,22c28 <udivmodsi4+0x44>
   22c20:	1145c83a 	sub	r2,r2,r5
   22c24:	20c8b03a 	or	r4,r4,r3
   22c28:	1806d07a 	srli	r3,r3,1
   22c2c:	280ad07a 	srli	r5,r5,1
   22c30:	183ffa1e 	bne	r3,zero,22c1c <udivmodsi4+0x38>
   22c34:	3000021e 	bne	r6,zero,22c40 <udivmodsi4+0x5c>
   22c38:	2005883a 	mov	r2,r4
   22c3c:	f800283a 	ret
   22c40:	f800283a 	ret
   22c44:	0009883a 	mov	r4,zero
   22c48:	003ffa06 	br	22c34 <udivmodsi4+0x50>
   22c4c:	00c00044 	movi	r3,1
   22c50:	0009883a 	mov	r4,zero
   22c54:	003ff106 	br	22c1c <udivmodsi4+0x38>

00022c58 <__divsi3>:
   22c58:	defffe04 	addi	sp,sp,-8
   22c5c:	dfc00115 	stw	ra,4(sp)
   22c60:	dc000015 	stw	r16,0(sp)
   22c64:	20000a16 	blt	r4,zero,22c90 <__divsi3+0x38>
   22c68:	0021883a 	mov	r16,zero
   22c6c:	28000b16 	blt	r5,zero,22c9c <__divsi3+0x44>
   22c70:	000d883a 	mov	r6,zero
   22c74:	0022be40 	call	22be4 <udivmodsi4>
   22c78:	80000126 	beq	r16,zero,22c80 <__divsi3+0x28>
   22c7c:	0085c83a 	sub	r2,zero,r2
   22c80:	dfc00117 	ldw	ra,4(sp)
   22c84:	dc000017 	ldw	r16,0(sp)
   22c88:	dec00204 	addi	sp,sp,8
   22c8c:	f800283a 	ret
   22c90:	0109c83a 	sub	r4,zero,r4
   22c94:	04000044 	movi	r16,1
   22c98:	283ff50e 	bge	r5,zero,22c70 <__divsi3+0x18>
   22c9c:	014bc83a 	sub	r5,zero,r5
   22ca0:	8400005c 	xori	r16,r16,1
   22ca4:	003ff206 	br	22c70 <__divsi3+0x18>

00022ca8 <__modsi3>:
   22ca8:	deffff04 	addi	sp,sp,-4
   22cac:	dfc00015 	stw	ra,0(sp)
   22cb0:	20000516 	blt	r4,zero,22cc8 <__modsi3+0x20>
   22cb4:	28000c16 	blt	r5,zero,22ce8 <__modsi3+0x40>
   22cb8:	01800044 	movi	r6,1
   22cbc:	dfc00017 	ldw	ra,0(sp)
   22cc0:	dec00104 	addi	sp,sp,4
   22cc4:	0022be41 	jmpi	22be4 <udivmodsi4>
   22cc8:	0109c83a 	sub	r4,zero,r4
   22ccc:	28000b16 	blt	r5,zero,22cfc <__modsi3+0x54>
   22cd0:	01800044 	movi	r6,1
   22cd4:	0022be40 	call	22be4 <udivmodsi4>
   22cd8:	0085c83a 	sub	r2,zero,r2
   22cdc:	dfc00017 	ldw	ra,0(sp)
   22ce0:	dec00104 	addi	sp,sp,4
   22ce4:	f800283a 	ret
   22ce8:	014bc83a 	sub	r5,zero,r5
   22cec:	01800044 	movi	r6,1
   22cf0:	dfc00017 	ldw	ra,0(sp)
   22cf4:	dec00104 	addi	sp,sp,4
   22cf8:	0022be41 	jmpi	22be4 <udivmodsi4>
   22cfc:	014bc83a 	sub	r5,zero,r5
   22d00:	003ff306 	br	22cd0 <__modsi3+0x28>

00022d04 <__udivsi3>:
   22d04:	000d883a 	mov	r6,zero
   22d08:	0022be41 	jmpi	22be4 <udivmodsi4>

00022d0c <__umodsi3>:
   22d0c:	01800044 	movi	r6,1
   22d10:	0022be41 	jmpi	22be4 <udivmodsi4>

00022d14 <__mulsi3>:
   22d14:	0005883a 	mov	r2,zero
   22d18:	20000726 	beq	r4,zero,22d38 <__mulsi3+0x24>
   22d1c:	20c0004c 	andi	r3,r4,1
   22d20:	2008d07a 	srli	r4,r4,1
   22d24:	18000126 	beq	r3,zero,22d2c <__mulsi3+0x18>
   22d28:	1145883a 	add	r2,r2,r5
   22d2c:	294b883a 	add	r5,r5,r5
   22d30:	203ffa1e 	bne	r4,zero,22d1c <__mulsi3+0x8>
   22d34:	f800283a 	ret
   22d38:	f800283a 	ret

00022d3c <__muldi3>:
   22d3c:	defff604 	addi	sp,sp,-40
   22d40:	dd400515 	stw	r21,20(sp)
   22d44:	dd000415 	stw	r20,16(sp)
   22d48:	257fffcc 	andi	r21,r4,65535
   22d4c:	353fffcc 	andi	r20,r6,65535
   22d50:	dcc00315 	stw	r19,12(sp)
   22d54:	3026d43a 	srli	r19,r6,16
   22d58:	dd800615 	stw	r22,24(sp)
   22d5c:	dc800215 	stw	r18,8(sp)
   22d60:	dc400115 	stw	r17,4(sp)
   22d64:	2024d43a 	srli	r18,r4,16
   22d68:	2023883a 	mov	r17,r4
   22d6c:	282d883a 	mov	r22,r5
   22d70:	a009883a 	mov	r4,r20
   22d74:	a80b883a 	mov	r5,r21
   22d78:	dfc00915 	stw	ra,36(sp)
   22d7c:	df000815 	stw	fp,32(sp)
   22d80:	ddc00715 	stw	r23,28(sp)
   22d84:	3839883a 	mov	fp,r7
   22d88:	dc000015 	stw	r16,0(sp)
   22d8c:	3021883a 	mov	r16,r6
   22d90:	0022d140 	call	22d14 <__mulsi3>
   22d94:	a80b883a 	mov	r5,r21
   22d98:	9809883a 	mov	r4,r19
   22d9c:	102f883a 	mov	r23,r2
   22da0:	0022d140 	call	22d14 <__mulsi3>
   22da4:	a009883a 	mov	r4,r20
   22da8:	900b883a 	mov	r5,r18
   22dac:	102b883a 	mov	r21,r2
   22db0:	0022d140 	call	22d14 <__mulsi3>
   22db4:	9809883a 	mov	r4,r19
   22db8:	900b883a 	mov	r5,r18
   22dbc:	1029883a 	mov	r20,r2
   22dc0:	0022d140 	call	22d14 <__mulsi3>
   22dc4:	1007883a 	mov	r3,r2
   22dc8:	b804d43a 	srli	r2,r23,16
   22dcc:	a549883a 	add	r4,r20,r21
   22dd0:	2089883a 	add	r4,r4,r2
   22dd4:	2500022e 	bgeu	r4,r20,22de0 <__muldi3+0xa4>
   22dd8:	00800074 	movhi	r2,1
   22ddc:	1887883a 	add	r3,r3,r2
   22de0:	200cd43a 	srli	r6,r4,16
   22de4:	2004943a 	slli	r2,r4,16
   22de8:	e00b883a 	mov	r5,fp
   22dec:	8809883a 	mov	r4,r17
   22df0:	bdffffcc 	andi	r23,r23,65535
   22df4:	19a3883a 	add	r17,r3,r6
   22df8:	15ef883a 	add	r23,r2,r23
   22dfc:	0022d140 	call	22d14 <__mulsi3>
   22e00:	8009883a 	mov	r4,r16
   22e04:	b00b883a 	mov	r5,r22
   22e08:	1025883a 	mov	r18,r2
   22e0c:	0022d140 	call	22d14 <__mulsi3>
   22e10:	9085883a 	add	r2,r18,r2
   22e14:	1447883a 	add	r3,r2,r17
   22e18:	b805883a 	mov	r2,r23
   22e1c:	dfc00917 	ldw	ra,36(sp)
   22e20:	df000817 	ldw	fp,32(sp)
   22e24:	ddc00717 	ldw	r23,28(sp)
   22e28:	dd800617 	ldw	r22,24(sp)
   22e2c:	dd400517 	ldw	r21,20(sp)
   22e30:	dd000417 	ldw	r20,16(sp)
   22e34:	dcc00317 	ldw	r19,12(sp)
   22e38:	dc800217 	ldw	r18,8(sp)
   22e3c:	dc400117 	ldw	r17,4(sp)
   22e40:	dc000017 	ldw	r16,0(sp)
   22e44:	dec00a04 	addi	sp,sp,40
   22e48:	f800283a 	ret

00022e4c <__clzsi2>:
   22e4c:	00bfffd4 	movui	r2,65535
   22e50:	11000b36 	bltu	r2,r4,22e80 <__clzsi2+0x34>
   22e54:	00803fc4 	movi	r2,255
   22e58:	11001e2e 	bgeu	r2,r4,22ed4 <__clzsi2+0x88>
   22e5c:	00c00204 	movi	r3,8
   22e60:	20c8d83a 	srl	r4,r4,r3
   22e64:	00c000f4 	movhi	r3,3
   22e68:	18d2bb04 	addi	r3,r3,19180
   22e6c:	00800604 	movi	r2,24
   22e70:	1909883a 	add	r4,r3,r4
   22e74:	20c00003 	ldbu	r3,0(r4)
   22e78:	10c5c83a 	sub	r2,r2,r3
   22e7c:	f800283a 	ret
   22e80:	00804034 	movhi	r2,256
   22e84:	10bfffc4 	addi	r2,r2,-1
   22e88:	11000936 	bltu	r2,r4,22eb0 <__clzsi2+0x64>
   22e8c:	00800404 	movi	r2,16
   22e90:	1007883a 	mov	r3,r2
   22e94:	20c8d83a 	srl	r4,r4,r3
   22e98:	00c000f4 	movhi	r3,3
   22e9c:	18d2bb04 	addi	r3,r3,19180
   22ea0:	1909883a 	add	r4,r3,r4
   22ea4:	20c00003 	ldbu	r3,0(r4)
   22ea8:	10c5c83a 	sub	r2,r2,r3
   22eac:	f800283a 	ret
   22eb0:	00c00604 	movi	r3,24
   22eb4:	20c8d83a 	srl	r4,r4,r3
   22eb8:	00c000f4 	movhi	r3,3
   22ebc:	18d2bb04 	addi	r3,r3,19180
   22ec0:	00800204 	movi	r2,8
   22ec4:	1909883a 	add	r4,r3,r4
   22ec8:	20c00003 	ldbu	r3,0(r4)
   22ecc:	10c5c83a 	sub	r2,r2,r3
   22ed0:	f800283a 	ret
   22ed4:	0007883a 	mov	r3,zero
   22ed8:	20c8d83a 	srl	r4,r4,r3
   22edc:	00c000f4 	movhi	r3,3
   22ee0:	18d2bb04 	addi	r3,r3,19180
   22ee4:	00800804 	movi	r2,32
   22ee8:	1909883a 	add	r4,r3,r4
   22eec:	20c00003 	ldbu	r3,0(r4)
   22ef0:	10c5c83a 	sub	r2,r2,r3
   22ef4:	f800283a 	ret

00022ef8 <__pack_f>:
   22ef8:	21400017 	ldw	r5,0(r4)
   22efc:	01800044 	movi	r6,1
   22f00:	20c00317 	ldw	r3,12(r4)
   22f04:	21c00117 	ldw	r7,4(r4)
   22f08:	3140282e 	bgeu	r6,r5,22fac <__pack_f+0xb4>
   22f0c:	00800104 	movi	r2,4
   22f10:	28802326 	beq	r5,r2,22fa0 <__pack_f+0xa8>
   22f14:	00800084 	movi	r2,2
   22f18:	28800f26 	beq	r5,r2,22f58 <__pack_f+0x60>
   22f1c:	18000e26 	beq	r3,zero,22f58 <__pack_f+0x60>
   22f20:	21000217 	ldw	r4,8(r4)
   22f24:	00bfe084 	movi	r2,-126
   22f28:	20802616 	blt	r4,r2,22fc4 <__pack_f+0xcc>
   22f2c:	00801fc4 	movi	r2,127
   22f30:	11001b16 	blt	r2,r4,22fa0 <__pack_f+0xa8>
   22f34:	188a703a 	and	r5,r3,r2
   22f38:	00801004 	movi	r2,64
   22f3c:	28801126 	beq	r5,r2,22f84 <__pack_f+0x8c>
   22f40:	18c00fc4 	addi	r3,r3,63
   22f44:	18001316 	blt	r3,zero,22f94 <__pack_f+0x9c>
   22f48:	21001fc4 	addi	r4,r4,127
   22f4c:	180690ba 	slli	r3,r3,2
   22f50:	1806d27a 	srli	r3,r3,9
   22f54:	00000206 	br	22f60 <__pack_f+0x68>
   22f58:	0009883a 	mov	r4,zero
   22f5c:	0007883a 	mov	r3,zero
   22f60:	21003fcc 	andi	r4,r4,255
   22f64:	200895fa 	slli	r4,r4,23
   22f68:	380a97fa 	slli	r5,r7,31
   22f6c:	00802034 	movhi	r2,128
   22f70:	10bfffc4 	addi	r2,r2,-1
   22f74:	1886703a 	and	r3,r3,r2
   22f78:	1904b03a 	or	r2,r3,r4
   22f7c:	1144b03a 	or	r2,r2,r5
   22f80:	f800283a 	ret
   22f84:	1880200c 	andi	r2,r3,128
   22f88:	103fee26 	beq	r2,zero,22f44 <__pack_f+0x4c>
   22f8c:	18c01004 	addi	r3,r3,64
   22f90:	183fed0e 	bge	r3,zero,22f48 <__pack_f+0x50>
   22f94:	1806d07a 	srli	r3,r3,1
   22f98:	21002004 	addi	r4,r4,128
   22f9c:	003feb06 	br	22f4c <__pack_f+0x54>
   22fa0:	013fffc4 	movi	r4,-1
   22fa4:	0007883a 	mov	r3,zero
   22fa8:	003fed06 	br	22f60 <__pack_f+0x68>
   22fac:	18c00434 	orhi	r3,r3,16
   22fb0:	00802034 	movhi	r2,128
   22fb4:	10bfffc4 	addi	r2,r2,-1
   22fb8:	1886703a 	and	r3,r3,r2
   22fbc:	013fffc4 	movi	r4,-1
   22fc0:	003fe706 	br	22f60 <__pack_f+0x68>
   22fc4:	1105c83a 	sub	r2,r2,r4
   22fc8:	01000644 	movi	r4,25
   22fcc:	20801216 	blt	r4,r2,23018 <__pack_f+0x120>
   22fd0:	3088983a 	sll	r4,r6,r2
   22fd4:	1884d83a 	srl	r2,r3,r2
   22fd8:	213fffc4 	addi	r4,r4,-1
   22fdc:	20c6703a 	and	r3,r4,r3
   22fe0:	1806c03a 	cmpne	r3,r3,zero
   22fe4:	1884b03a 	or	r2,r3,r2
   22fe8:	11001fcc 	andi	r4,r2,127
   22fec:	00c01004 	movi	r3,64
   22ff0:	20c00a1e 	bne	r4,r3,2301c <__pack_f+0x124>
   22ff4:	10c0200c 	andi	r3,r2,128
   22ff8:	18000126 	beq	r3,zero,23000 <__pack_f+0x108>
   22ffc:	10801004 	addi	r2,r2,64
   23000:	100690ba 	slli	r3,r2,2
   23004:	01100034 	movhi	r4,16384
   23008:	1105403a 	cmpgeu	r2,r2,r4
   2300c:	1806d27a 	srli	r3,r3,9
   23010:	1009883a 	mov	r4,r2
   23014:	003fd206 	br	22f60 <__pack_f+0x68>
   23018:	0005883a 	mov	r2,zero
   2301c:	10800fc4 	addi	r2,r2,63
   23020:	003ff706 	br	23000 <__pack_f+0x108>

00023024 <__unpack_f>:
   23024:	20c00017 	ldw	r3,0(r4)
   23028:	00802034 	movhi	r2,128
   2302c:	10bfffc4 	addi	r2,r2,-1
   23030:	1808d5fa 	srli	r4,r3,23
   23034:	180cd7fa 	srli	r6,r3,31
   23038:	1884703a 	and	r2,r3,r2
   2303c:	21003fcc 	andi	r4,r4,255
   23040:	29800115 	stw	r6,4(r5)
   23044:	2000111e 	bne	r4,zero,2308c <__unpack_f+0x68>
   23048:	10001a26 	beq	r2,zero,230b4 <__unpack_f+0x90>
   2304c:	00ffe084 	movi	r3,-126
   23050:	100491fa 	slli	r2,r2,7
   23054:	28c00215 	stw	r3,8(r5)
   23058:	00c000c4 	movi	r3,3
   2305c:	28c00015 	stw	r3,0(r5)
   23060:	01900034 	movhi	r6,16384
   23064:	31bfffc4 	addi	r6,r6,-1
   23068:	30801036 	bltu	r6,r2,230ac <__unpack_f+0x88>
   2306c:	00ffe044 	movi	r3,-127
   23070:	1085883a 	add	r2,r2,r2
   23074:	1809883a 	mov	r4,r3
   23078:	18ffffc4 	addi	r3,r3,-1
   2307c:	30bffc2e 	bgeu	r6,r2,23070 <__unpack_f+0x4c>
   23080:	29000215 	stw	r4,8(r5)
   23084:	28800315 	stw	r2,12(r5)
   23088:	f800283a 	ret
   2308c:	01803fc4 	movi	r6,255
   23090:	21800b26 	beq	r4,r6,230c0 <__unpack_f+0x9c>
   23094:	100491fa 	slli	r2,r2,7
   23098:	213fe044 	addi	r4,r4,-127
   2309c:	00c000c4 	movi	r3,3
   230a0:	10900034 	orhi	r2,r2,16384
   230a4:	29000215 	stw	r4,8(r5)
   230a8:	28c00015 	stw	r3,0(r5)
   230ac:	28800315 	stw	r2,12(r5)
   230b0:	f800283a 	ret
   230b4:	00800084 	movi	r2,2
   230b8:	28800015 	stw	r2,0(r5)
   230bc:	f800283a 	ret
   230c0:	10000526 	beq	r2,zero,230d8 <__unpack_f+0xb4>
   230c4:	18c0042c 	andhi	r3,r3,16
   230c8:	18000626 	beq	r3,zero,230e4 <__unpack_f+0xc0>
   230cc:	00c00044 	movi	r3,1
   230d0:	28c00015 	stw	r3,0(r5)
   230d4:	003ff506 	br	230ac <__unpack_f+0x88>
   230d8:	00800104 	movi	r2,4
   230dc:	28800015 	stw	r2,0(r5)
   230e0:	f800283a 	ret
   230e4:	28000015 	stw	zero,0(r5)
   230e8:	003ff006 	br	230ac <__unpack_f+0x88>

000230ec <__fpcmp_parts_f>:
   230ec:	20c00017 	ldw	r3,0(r4)
   230f0:	00800044 	movi	r2,1
   230f4:	10c0172e 	bgeu	r2,r3,23154 <__fpcmp_parts_f+0x68>
   230f8:	29800017 	ldw	r6,0(r5)
   230fc:	1180152e 	bgeu	r2,r6,23154 <__fpcmp_parts_f+0x68>
   23100:	01c00104 	movi	r7,4
   23104:	19c02326 	beq	r3,r7,23194 <__fpcmp_parts_f+0xa8>
   23108:	31c00926 	beq	r6,r7,23130 <__fpcmp_parts_f+0x44>
   2310c:	01c00084 	movi	r7,2
   23110:	19c00626 	beq	r3,r7,2312c <__fpcmp_parts_f+0x40>
   23114:	31c01126 	beq	r6,r7,2315c <__fpcmp_parts_f+0x70>
   23118:	20c00117 	ldw	r3,4(r4)
   2311c:	29800117 	ldw	r6,4(r5)
   23120:	19801226 	beq	r3,r6,2316c <__fpcmp_parts_f+0x80>
   23124:	1800041e 	bne	r3,zero,23138 <__fpcmp_parts_f+0x4c>
   23128:	f800283a 	ret
   2312c:	30c01526 	beq	r6,r3,23184 <__fpcmp_parts_f+0x98>
   23130:	28800117 	ldw	r2,4(r5)
   23134:	1000071e 	bne	r2,zero,23154 <__fpcmp_parts_f+0x68>
   23138:	00bfffc4 	movi	r2,-1
   2313c:	f800283a 	ret
   23140:	39801216 	blt	r7,r6,2318c <__fpcmp_parts_f+0xa0>
   23144:	21000317 	ldw	r4,12(r4)
   23148:	28800317 	ldw	r2,12(r5)
   2314c:	11000c2e 	bgeu	r2,r4,23180 <__fpcmp_parts_f+0x94>
   23150:	183ff91e 	bne	r3,zero,23138 <__fpcmp_parts_f+0x4c>
   23154:	00800044 	movi	r2,1
   23158:	f800283a 	ret
   2315c:	20800117 	ldw	r2,4(r4)
   23160:	103ff51e 	bne	r2,zero,23138 <__fpcmp_parts_f+0x4c>
   23164:	00800044 	movi	r2,1
   23168:	f800283a 	ret
   2316c:	21c00217 	ldw	r7,8(r4)
   23170:	29800217 	ldw	r6,8(r5)
   23174:	31fff20e 	bge	r6,r7,23140 <__fpcmp_parts_f+0x54>
   23178:	183fef1e 	bne	r3,zero,23138 <__fpcmp_parts_f+0x4c>
   2317c:	f800283a 	ret
   23180:	20800236 	bltu	r4,r2,2318c <__fpcmp_parts_f+0xa0>
   23184:	0005883a 	mov	r2,zero
   23188:	f800283a 	ret
   2318c:	183fea26 	beq	r3,zero,23138 <__fpcmp_parts_f+0x4c>
   23190:	003ff006 	br	23154 <__fpcmp_parts_f+0x68>
   23194:	30fff11e 	bne	r6,r3,2315c <__fpcmp_parts_f+0x70>
   23198:	28c00117 	ldw	r3,4(r5)
   2319c:	20800117 	ldw	r2,4(r4)
   231a0:	1885c83a 	sub	r2,r3,r2
   231a4:	f800283a 	ret

000231a8 <_fclose_r>:
   231a8:	defffc04 	addi	sp,sp,-16
   231ac:	dc400115 	stw	r17,4(sp)
   231b0:	dc000015 	stw	r16,0(sp)
   231b4:	dfc00315 	stw	ra,12(sp)
   231b8:	dc800215 	stw	r18,8(sp)
   231bc:	2821883a 	mov	r16,r5
   231c0:	2023883a 	mov	r17,r4
   231c4:	28003426 	beq	r5,zero,23298 <_fclose_r+0xf0>
   231c8:	00237bc0 	call	237bc <__sfp_lock_acquire>
   231cc:	88000226 	beq	r17,zero,231d8 <_fclose_r+0x30>
   231d0:	88800e17 	ldw	r2,56(r17)
   231d4:	10003826 	beq	r2,zero,232b8 <_fclose_r+0x110>
   231d8:	8080030f 	ldh	r2,12(r16)
   231dc:	10002526 	beq	r2,zero,23274 <_fclose_r+0xcc>
   231e0:	8809883a 	mov	r4,r17
   231e4:	800b883a 	mov	r5,r16
   231e8:	00232f80 	call	232f8 <_fflush_r>
   231ec:	1025883a 	mov	r18,r2
   231f0:	80800b17 	ldw	r2,44(r16)
   231f4:	10000426 	beq	r2,zero,23208 <_fclose_r+0x60>
   231f8:	81400717 	ldw	r5,28(r16)
   231fc:	8809883a 	mov	r4,r17
   23200:	103ee83a 	callr	r2
   23204:	10003516 	blt	r2,zero,232dc <_fclose_r+0x134>
   23208:	8080030b 	ldhu	r2,12(r16)
   2320c:	1080200c 	andi	r2,r2,128
   23210:	10bfffcc 	andi	r2,r2,65535
   23214:	10a0001c 	xori	r2,r2,32768
   23218:	10a00004 	addi	r2,r2,-32768
   2321c:	10002b1e 	bne	r2,zero,232cc <_fclose_r+0x124>
   23220:	81400c17 	ldw	r5,48(r16)
   23224:	28000526 	beq	r5,zero,2323c <_fclose_r+0x94>
   23228:	80801004 	addi	r2,r16,64
   2322c:	28800226 	beq	r5,r2,23238 <_fclose_r+0x90>
   23230:	8809883a 	mov	r4,r17
   23234:	0023d000 	call	23d00 <_free_r>
   23238:	80000c15 	stw	zero,48(r16)
   2323c:	81401117 	ldw	r5,68(r16)
   23240:	28000326 	beq	r5,zero,23250 <_fclose_r+0xa8>
   23244:	8809883a 	mov	r4,r17
   23248:	0023d000 	call	23d00 <_free_r>
   2324c:	80001115 	stw	zero,68(r16)
   23250:	8000030d 	sth	zero,12(r16)
   23254:	00237c00 	call	237c0 <__sfp_lock_release>
   23258:	9005883a 	mov	r2,r18
   2325c:	dfc00317 	ldw	ra,12(sp)
   23260:	dc800217 	ldw	r18,8(sp)
   23264:	dc400117 	ldw	r17,4(sp)
   23268:	dc000017 	ldw	r16,0(sp)
   2326c:	dec00404 	addi	sp,sp,16
   23270:	f800283a 	ret
   23274:	00237c00 	call	237c0 <__sfp_lock_release>
   23278:	0025883a 	mov	r18,zero
   2327c:	9005883a 	mov	r2,r18
   23280:	dfc00317 	ldw	ra,12(sp)
   23284:	dc800217 	ldw	r18,8(sp)
   23288:	dc400117 	ldw	r17,4(sp)
   2328c:	dc000017 	ldw	r16,0(sp)
   23290:	dec00404 	addi	sp,sp,16
   23294:	f800283a 	ret
   23298:	0025883a 	mov	r18,zero
   2329c:	9005883a 	mov	r2,r18
   232a0:	dfc00317 	ldw	ra,12(sp)
   232a4:	dc800217 	ldw	r18,8(sp)
   232a8:	dc400117 	ldw	r17,4(sp)
   232ac:	dc000017 	ldw	r16,0(sp)
   232b0:	dec00404 	addi	sp,sp,16
   232b4:	f800283a 	ret
   232b8:	8809883a 	mov	r4,r17
   232bc:	00235b40 	call	235b4 <__sinit>
   232c0:	8080030f 	ldh	r2,12(r16)
   232c4:	103fc61e 	bne	r2,zero,231e0 <_fclose_r+0x38>
   232c8:	003fea06 	br	23274 <_fclose_r+0xcc>
   232cc:	81400417 	ldw	r5,16(r16)
   232d0:	8809883a 	mov	r4,r17
   232d4:	0023d000 	call	23d00 <_free_r>
   232d8:	003fd106 	br	23220 <_fclose_r+0x78>
   232dc:	04bfffc4 	movi	r18,-1
   232e0:	003fc906 	br	23208 <_fclose_r+0x60>

000232e4 <fclose>:
   232e4:	008000f4 	movhi	r2,3
   232e8:	1096ef04 	addi	r2,r2,23484
   232ec:	200b883a 	mov	r5,r4
   232f0:	11000017 	ldw	r4,0(r2)
   232f4:	00231a81 	jmpi	231a8 <_fclose_r>

000232f8 <_fflush_r>:
   232f8:	defffb04 	addi	sp,sp,-20
   232fc:	dcc00315 	stw	r19,12(sp)
   23300:	dc400115 	stw	r17,4(sp)
   23304:	dfc00415 	stw	ra,16(sp)
   23308:	dc800215 	stw	r18,8(sp)
   2330c:	dc000015 	stw	r16,0(sp)
   23310:	2027883a 	mov	r19,r4
   23314:	2823883a 	mov	r17,r5
   23318:	20000226 	beq	r4,zero,23324 <_fflush_r+0x2c>
   2331c:	20800e17 	ldw	r2,56(r4)
   23320:	10005726 	beq	r2,zero,23480 <_fflush_r+0x188>
   23324:	8880030b 	ldhu	r2,12(r17)
   23328:	10c0020c 	andi	r3,r2,8
   2332c:	18ffffcc 	andi	r3,r3,65535
   23330:	18e0001c 	xori	r3,r3,32768
   23334:	18e00004 	addi	r3,r3,-32768
   23338:	1800311e 	bne	r3,zero,23400 <_fflush_r+0x108>
   2333c:	89000117 	ldw	r4,4(r17)
   23340:	10c20014 	ori	r3,r2,2048
   23344:	88c0030d 	sth	r3,12(r17)
   23348:	180b883a 	mov	r5,r3
   2334c:	0100520e 	bge	zero,r4,23498 <_fflush_r+0x1a0>
   23350:	88c00a17 	ldw	r3,40(r17)
   23354:	18002226 	beq	r3,zero,233e0 <_fflush_r+0xe8>
   23358:	1084000c 	andi	r2,r2,4096
   2335c:	10bfffcc 	andi	r2,r2,65535
   23360:	10a0001c 	xori	r2,r2,32768
   23364:	10a00004 	addi	r2,r2,-32768
   23368:	10004e26 	beq	r2,zero,234a4 <_fflush_r+0x1ac>
   2336c:	8c001417 	ldw	r16,80(r17)
   23370:	2940010c 	andi	r5,r5,4
   23374:	297fffcc 	andi	r5,r5,65535
   23378:	2960001c 	xori	r5,r5,32768
   2337c:	29600004 	addi	r5,r5,-32768
   23380:	28000626 	beq	r5,zero,2339c <_fflush_r+0xa4>
   23384:	89000117 	ldw	r4,4(r17)
   23388:	88800c17 	ldw	r2,48(r17)
   2338c:	8121c83a 	sub	r16,r16,r4
   23390:	10000226 	beq	r2,zero,2339c <_fflush_r+0xa4>
   23394:	88800f17 	ldw	r2,60(r17)
   23398:	80a1c83a 	sub	r16,r16,r2
   2339c:	89400717 	ldw	r5,28(r17)
   233a0:	9809883a 	mov	r4,r19
   233a4:	800d883a 	mov	r6,r16
   233a8:	000f883a 	mov	r7,zero
   233ac:	183ee83a 	callr	r3
   233b0:	8080281e 	bne	r16,r2,23454 <_fflush_r+0x15c>
   233b4:	8880030b 	ldhu	r2,12(r17)
   233b8:	88c00417 	ldw	r3,16(r17)
   233bc:	88000115 	stw	zero,4(r17)
   233c0:	113dffcc 	andi	r4,r2,63487
   233c4:	1084000c 	andi	r2,r2,4096
   233c8:	10bfffcc 	andi	r2,r2,65535
   233cc:	10a0001c 	xori	r2,r2,32768
   233d0:	8900030d 	sth	r4,12(r17)
   233d4:	88c00015 	stw	r3,0(r17)
   233d8:	10a00004 	addi	r2,r2,-32768
   233dc:	10002c1e 	bne	r2,zero,23490 <_fflush_r+0x198>
   233e0:	0005883a 	mov	r2,zero
   233e4:	dfc00417 	ldw	ra,16(sp)
   233e8:	dcc00317 	ldw	r19,12(sp)
   233ec:	dc800217 	ldw	r18,8(sp)
   233f0:	dc400117 	ldw	r17,4(sp)
   233f4:	dc000017 	ldw	r16,0(sp)
   233f8:	dec00504 	addi	sp,sp,20
   233fc:	f800283a 	ret
   23400:	8c800417 	ldw	r18,16(r17)
   23404:	903ff626 	beq	r18,zero,233e0 <_fflush_r+0xe8>
   23408:	8c000017 	ldw	r16,0(r17)
   2340c:	108000cc 	andi	r2,r2,3
   23410:	8c800015 	stw	r18,0(r17)
   23414:	84a1c83a 	sub	r16,r16,r18
   23418:	10001b1e 	bne	r2,zero,23488 <_fflush_r+0x190>
   2341c:	88800517 	ldw	r2,20(r17)
   23420:	88800215 	stw	r2,8(r17)
   23424:	04000316 	blt	zero,r16,23434 <_fflush_r+0x13c>
   23428:	003fed06 	br	233e0 <_fflush_r+0xe8>
   2342c:	90a5883a 	add	r18,r18,r2
   23430:	043feb0e 	bge	zero,r16,233e0 <_fflush_r+0xe8>
   23434:	88800917 	ldw	r2,36(r17)
   23438:	89400717 	ldw	r5,28(r17)
   2343c:	800f883a 	mov	r7,r16
   23440:	900d883a 	mov	r6,r18
   23444:	9809883a 	mov	r4,r19
   23448:	103ee83a 	callr	r2
   2344c:	80a1c83a 	sub	r16,r16,r2
   23450:	00bff616 	blt	zero,r2,2342c <_fflush_r+0x134>
   23454:	88c0030b 	ldhu	r3,12(r17)
   23458:	00bfffc4 	movi	r2,-1
   2345c:	18c01014 	ori	r3,r3,64
   23460:	88c0030d 	sth	r3,12(r17)
   23464:	dfc00417 	ldw	ra,16(sp)
   23468:	dcc00317 	ldw	r19,12(sp)
   2346c:	dc800217 	ldw	r18,8(sp)
   23470:	dc400117 	ldw	r17,4(sp)
   23474:	dc000017 	ldw	r16,0(sp)
   23478:	dec00504 	addi	sp,sp,20
   2347c:	f800283a 	ret
   23480:	00235b40 	call	235b4 <__sinit>
   23484:	003fa706 	br	23324 <_fflush_r+0x2c>
   23488:	0005883a 	mov	r2,zero
   2348c:	003fe406 	br	23420 <_fflush_r+0x128>
   23490:	8c001415 	stw	r16,80(r17)
   23494:	003fd206 	br	233e0 <_fflush_r+0xe8>
   23498:	88c00f17 	ldw	r3,60(r17)
   2349c:	00ffac16 	blt	zero,r3,23350 <_fflush_r+0x58>
   234a0:	003fcf06 	br	233e0 <_fflush_r+0xe8>
   234a4:	89400717 	ldw	r5,28(r17)
   234a8:	9809883a 	mov	r4,r19
   234ac:	000d883a 	mov	r6,zero
   234b0:	01c00044 	movi	r7,1
   234b4:	183ee83a 	callr	r3
   234b8:	1021883a 	mov	r16,r2
   234bc:	00bfffc4 	movi	r2,-1
   234c0:	80800326 	beq	r16,r2,234d0 <_fflush_r+0x1d8>
   234c4:	8940030b 	ldhu	r5,12(r17)
   234c8:	88c00a17 	ldw	r3,40(r17)
   234cc:	003fa806 	br	23370 <_fflush_r+0x78>
   234d0:	98c00017 	ldw	r3,0(r19)
   234d4:	00800744 	movi	r2,29
   234d8:	18bfde1e 	bne	r3,r2,23454 <_fflush_r+0x15c>
   234dc:	003fc006 	br	233e0 <_fflush_r+0xe8>

000234e0 <fflush>:
   234e0:	200b883a 	mov	r5,r4
   234e4:	20000426 	beq	r4,zero,234f8 <fflush+0x18>
   234e8:	008000f4 	movhi	r2,3
   234ec:	1096ef04 	addi	r2,r2,23484
   234f0:	11000017 	ldw	r4,0(r2)
   234f4:	00232f81 	jmpi	232f8 <_fflush_r>
   234f8:	008000f4 	movhi	r2,3
   234fc:	1096ee04 	addi	r2,r2,23480
   23500:	11000017 	ldw	r4,0(r2)
   23504:	014000b4 	movhi	r5,2
   23508:	294cbe04 	addi	r5,r5,13048
   2350c:	00245d41 	jmpi	245d4 <_fwalk_reent>

00023510 <__fp_lock>:
   23510:	0005883a 	mov	r2,zero
   23514:	f800283a 	ret

00023518 <__fp_unlock>:
   23518:	0005883a 	mov	r2,zero
   2351c:	f800283a 	ret

00023520 <_cleanup_r>:
   23520:	014000b4 	movhi	r5,2
   23524:	294cb904 	addi	r5,r5,13028
   23528:	002452c1 	jmpi	2452c <_fwalk>

0002352c <__sfmoreglue>:
   2352c:	defffc04 	addi	sp,sp,-16
   23530:	dc800215 	stw	r18,8(sp)
   23534:	2825883a 	mov	r18,r5
   23538:	dc000015 	stw	r16,0(sp)
   2353c:	01401704 	movi	r5,92
   23540:	2021883a 	mov	r16,r4
   23544:	9009883a 	mov	r4,r18
   23548:	dfc00315 	stw	ra,12(sp)
   2354c:	dc400115 	stw	r17,4(sp)
   23550:	0022d140 	call	22d14 <__mulsi3>
   23554:	8009883a 	mov	r4,r16
   23558:	11400304 	addi	r5,r2,12
   2355c:	1023883a 	mov	r17,r2
   23560:	00249240 	call	24924 <_malloc_r>
   23564:	1021883a 	mov	r16,r2
   23568:	10000726 	beq	r2,zero,23588 <__sfmoreglue+0x5c>
   2356c:	11000304 	addi	r4,r2,12
   23570:	10000015 	stw	zero,0(r2)
   23574:	14800115 	stw	r18,4(r2)
   23578:	11000215 	stw	r4,8(r2)
   2357c:	000b883a 	mov	r5,zero
   23580:	880d883a 	mov	r6,r17
   23584:	00251e80 	call	251e8 <memset>
   23588:	8005883a 	mov	r2,r16
   2358c:	dfc00317 	ldw	ra,12(sp)
   23590:	dc800217 	ldw	r18,8(sp)
   23594:	dc400117 	ldw	r17,4(sp)
   23598:	dc000017 	ldw	r16,0(sp)
   2359c:	dec00404 	addi	sp,sp,16
   235a0:	f800283a 	ret

000235a4 <_cleanup>:
   235a4:	008000f4 	movhi	r2,3
   235a8:	1096ee04 	addi	r2,r2,23480
   235ac:	11000017 	ldw	r4,0(r2)
   235b0:	00235201 	jmpi	23520 <_cleanup_r>

000235b4 <__sinit>:
   235b4:	20800e17 	ldw	r2,56(r4)
   235b8:	1000401e 	bne	r2,zero,236bc <__sinit+0x108>
   235bc:	21400117 	ldw	r5,4(r4)
   235c0:	018000b4 	movhi	r6,2
   235c4:	318d4804 	addi	r6,r6,13600
   235c8:	20c00217 	ldw	r3,8(r4)
   235cc:	21800f15 	stw	r6,60(r4)
   235d0:	2080bb04 	addi	r2,r4,748
   235d4:	02400044 	movi	r9,1
   235d8:	018000c4 	movi	r6,3
   235dc:	2180b915 	stw	r6,740(r4)
   235e0:	2080ba15 	stw	r2,744(r4)
   235e4:	22400e15 	stw	r9,56(r4)
   235e8:	20800317 	ldw	r2,12(r4)
   235ec:	2000b815 	stw	zero,736(r4)
   235f0:	020000b4 	movhi	r8,2
   235f4:	4215ba04 	addi	r8,r8,22248
   235f8:	01c000b4 	movhi	r7,2
   235fc:	39d5cf04 	addi	r7,r7,22332
   23600:	018000b4 	movhi	r6,2
   23604:	3195f104 	addi	r6,r6,22468
   23608:	010000b4 	movhi	r4,2
   2360c:	21160804 	addi	r4,r4,22560
   23610:	02800104 	movi	r10,4
   23614:	28000015 	stw	zero,0(r5)
   23618:	28000115 	stw	zero,4(r5)
   2361c:	28000215 	stw	zero,8(r5)
   23620:	2a80030d 	sth	r10,12(r5)
   23624:	2800038d 	sth	zero,14(r5)
   23628:	28000415 	stw	zero,16(r5)
   2362c:	28000515 	stw	zero,20(r5)
   23630:	28000615 	stw	zero,24(r5)
   23634:	29400715 	stw	r5,28(r5)
   23638:	2a000815 	stw	r8,32(r5)
   2363c:	29c00915 	stw	r7,36(r5)
   23640:	29800a15 	stw	r6,40(r5)
   23644:	29000b15 	stw	r4,44(r5)
   23648:	01400284 	movi	r5,10
   2364c:	18000015 	stw	zero,0(r3)
   23650:	18000115 	stw	zero,4(r3)
   23654:	18000215 	stw	zero,8(r3)
   23658:	1940030d 	sth	r5,12(r3)
   2365c:	1a40038d 	sth	r9,14(r3)
   23660:	18000415 	stw	zero,16(r3)
   23664:	18000515 	stw	zero,20(r3)
   23668:	18000615 	stw	zero,24(r3)
   2366c:	18c00715 	stw	r3,28(r3)
   23670:	1a000815 	stw	r8,32(r3)
   23674:	19c00915 	stw	r7,36(r3)
   23678:	19800a15 	stw	r6,40(r3)
   2367c:	19000b15 	stw	r4,44(r3)
   23680:	00c00484 	movi	r3,18
   23684:	10c0030d 	sth	r3,12(r2)
   23688:	00c00084 	movi	r3,2
   2368c:	10000015 	stw	zero,0(r2)
   23690:	10000115 	stw	zero,4(r2)
   23694:	10000215 	stw	zero,8(r2)
   23698:	10c0038d 	sth	r3,14(r2)
   2369c:	10000415 	stw	zero,16(r2)
   236a0:	10000515 	stw	zero,20(r2)
   236a4:	10000615 	stw	zero,24(r2)
   236a8:	10800715 	stw	r2,28(r2)
   236ac:	12000815 	stw	r8,32(r2)
   236b0:	11c00915 	stw	r7,36(r2)
   236b4:	11800a15 	stw	r6,40(r2)
   236b8:	11000b15 	stw	r4,44(r2)
   236bc:	f800283a 	ret

000236c0 <__sfp>:
   236c0:	defffc04 	addi	sp,sp,-16
   236c4:	008000f4 	movhi	r2,3
   236c8:	1096ee04 	addi	r2,r2,23480
   236cc:	dc400115 	stw	r17,4(sp)
   236d0:	14400017 	ldw	r17,0(r2)
   236d4:	dc800215 	stw	r18,8(sp)
   236d8:	dfc00315 	stw	ra,12(sp)
   236dc:	88800e17 	ldw	r2,56(r17)
   236e0:	dc000015 	stw	r16,0(sp)
   236e4:	2025883a 	mov	r18,r4
   236e8:	10002826 	beq	r2,zero,2378c <__sfp+0xcc>
   236ec:	8c40b804 	addi	r17,r17,736
   236f0:	043fffc4 	movi	r16,-1
   236f4:	89400117 	ldw	r5,4(r17)
   236f8:	88800217 	ldw	r2,8(r17)
   236fc:	297fffc4 	addi	r5,r5,-1
   23700:	28000a16 	blt	r5,zero,2372c <__sfp+0x6c>
   23704:	10c0030f 	ldh	r3,12(r2)
   23708:	18000c26 	beq	r3,zero,2373c <__sfp+0x7c>
   2370c:	10c01a04 	addi	r3,r2,104
   23710:	00000206 	br	2371c <__sfp+0x5c>
   23714:	19bfe90f 	ldh	r6,-92(r3)
   23718:	30000826 	beq	r6,zero,2373c <__sfp+0x7c>
   2371c:	297fffc4 	addi	r5,r5,-1
   23720:	18bffd04 	addi	r2,r3,-12
   23724:	18c01704 	addi	r3,r3,92
   23728:	2c3ffa1e 	bne	r5,r16,23714 <__sfp+0x54>
   2372c:	88800017 	ldw	r2,0(r17)
   23730:	10001926 	beq	r2,zero,23798 <__sfp+0xd8>
   23734:	1023883a 	mov	r17,r2
   23738:	003fee06 	br	236f4 <__sfp+0x34>
   2373c:	00ffffc4 	movi	r3,-1
   23740:	10c0038d 	sth	r3,14(r2)
   23744:	00c00044 	movi	r3,1
   23748:	10c0030d 	sth	r3,12(r2)
   2374c:	10000015 	stw	zero,0(r2)
   23750:	10000215 	stw	zero,8(r2)
   23754:	10000115 	stw	zero,4(r2)
   23758:	10000415 	stw	zero,16(r2)
   2375c:	10000515 	stw	zero,20(r2)
   23760:	10000615 	stw	zero,24(r2)
   23764:	10000c15 	stw	zero,48(r2)
   23768:	10000d15 	stw	zero,52(r2)
   2376c:	10001115 	stw	zero,68(r2)
   23770:	10001215 	stw	zero,72(r2)
   23774:	dfc00317 	ldw	ra,12(sp)
   23778:	dc800217 	ldw	r18,8(sp)
   2377c:	dc400117 	ldw	r17,4(sp)
   23780:	dc000017 	ldw	r16,0(sp)
   23784:	dec00404 	addi	sp,sp,16
   23788:	f800283a 	ret
   2378c:	8809883a 	mov	r4,r17
   23790:	00235b40 	call	235b4 <__sinit>
   23794:	003fd506 	br	236ec <__sfp+0x2c>
   23798:	9009883a 	mov	r4,r18
   2379c:	01400104 	movi	r5,4
   237a0:	002352c0 	call	2352c <__sfmoreglue>
   237a4:	88800015 	stw	r2,0(r17)
   237a8:	103fe21e 	bne	r2,zero,23734 <__sfp+0x74>
   237ac:	00800304 	movi	r2,12
   237b0:	90800015 	stw	r2,0(r18)
   237b4:	0005883a 	mov	r2,zero
   237b8:	003fee06 	br	23774 <__sfp+0xb4>

000237bc <__sfp_lock_acquire>:
   237bc:	f800283a 	ret

000237c0 <__sfp_lock_release>:
   237c0:	f800283a 	ret

000237c4 <__sinit_lock_acquire>:
   237c4:	f800283a 	ret

000237c8 <__sinit_lock_release>:
   237c8:	f800283a 	ret

000237cc <__fp_lock_all>:
   237cc:	008000f4 	movhi	r2,3
   237d0:	1096ef04 	addi	r2,r2,23484
   237d4:	11000017 	ldw	r4,0(r2)
   237d8:	014000b4 	movhi	r5,2
   237dc:	294d4404 	addi	r5,r5,13584
   237e0:	002452c1 	jmpi	2452c <_fwalk>

000237e4 <__fp_unlock_all>:
   237e4:	008000f4 	movhi	r2,3
   237e8:	1096ef04 	addi	r2,r2,23484
   237ec:	11000017 	ldw	r4,0(r2)
   237f0:	014000b4 	movhi	r5,2
   237f4:	294d4604 	addi	r5,r5,13592
   237f8:	002452c1 	jmpi	2452c <_fwalk>

000237fc <_fopen_r>:
   237fc:	defffa04 	addi	sp,sp,-24
   23800:	dcc00415 	stw	r19,16(sp)
   23804:	2827883a 	mov	r19,r5
   23808:	300b883a 	mov	r5,r6
   2380c:	d80d883a 	mov	r6,sp
   23810:	dc800315 	stw	r18,12(sp)
   23814:	dc400215 	stw	r17,8(sp)
   23818:	dfc00515 	stw	ra,20(sp)
   2381c:	dc000115 	stw	r16,4(sp)
   23820:	2025883a 	mov	r18,r4
   23824:	002a9ac0 	call	2a9ac <__sflags>
   23828:	1023883a 	mov	r17,r2
   2382c:	10002926 	beq	r2,zero,238d4 <_fopen_r+0xd8>
   23830:	9009883a 	mov	r4,r18
   23834:	00236c00 	call	236c0 <__sfp>
   23838:	1021883a 	mov	r16,r2
   2383c:	10002526 	beq	r2,zero,238d4 <_fopen_r+0xd8>
   23840:	d9800017 	ldw	r6,0(sp)
   23844:	9009883a 	mov	r4,r18
   23848:	980b883a 	mov	r5,r19
   2384c:	01c06d84 	movi	r7,438
   23850:	00252c40 	call	252c4 <_open_r>
   23854:	10001c16 	blt	r2,zero,238c8 <_fopen_r+0xcc>
   23858:	8080038d 	sth	r2,14(r16)
   2385c:	008000b4 	movhi	r2,2
   23860:	1095ba04 	addi	r2,r2,22248
   23864:	80800815 	stw	r2,32(r16)
   23868:	008000b4 	movhi	r2,2
   2386c:	1095cf04 	addi	r2,r2,22332
   23870:	80800915 	stw	r2,36(r16)
   23874:	008000b4 	movhi	r2,2
   23878:	1095f104 	addi	r2,r2,22468
   2387c:	88c0400c 	andi	r3,r17,256
   23880:	80800a15 	stw	r2,40(r16)
   23884:	008000b4 	movhi	r2,2
   23888:	10960804 	addi	r2,r2,22560
   2388c:	80800b15 	stw	r2,44(r16)
   23890:	18bfffcc 	andi	r2,r3,65535
   23894:	10a0001c 	xori	r2,r2,32768
   23898:	8440030d 	sth	r17,12(r16)
   2389c:	84000715 	stw	r16,28(r16)
   238a0:	10a00004 	addi	r2,r2,-32768
   238a4:	1000141e 	bne	r2,zero,238f8 <_fopen_r+0xfc>
   238a8:	8005883a 	mov	r2,r16
   238ac:	dfc00517 	ldw	ra,20(sp)
   238b0:	dcc00417 	ldw	r19,16(sp)
   238b4:	dc800317 	ldw	r18,12(sp)
   238b8:	dc400217 	ldw	r17,8(sp)
   238bc:	dc000117 	ldw	r16,4(sp)
   238c0:	dec00604 	addi	sp,sp,24
   238c4:	f800283a 	ret
   238c8:	00237bc0 	call	237bc <__sfp_lock_acquire>
   238cc:	8000030d 	sth	zero,12(r16)
   238d0:	00237c00 	call	237c0 <__sfp_lock_release>
   238d4:	0021883a 	mov	r16,zero
   238d8:	8005883a 	mov	r2,r16
   238dc:	dfc00517 	ldw	ra,20(sp)
   238e0:	dcc00417 	ldw	r19,16(sp)
   238e4:	dc800317 	ldw	r18,12(sp)
   238e8:	dc400217 	ldw	r17,8(sp)
   238ec:	dc000117 	ldw	r16,4(sp)
   238f0:	dec00604 	addi	sp,sp,24
   238f4:	f800283a 	ret
   238f8:	9009883a 	mov	r4,r18
   238fc:	800b883a 	mov	r5,r16
   23900:	000d883a 	mov	r6,zero
   23904:	01c00084 	movi	r7,2
   23908:	002402c0 	call	2402c <_fseek_r>
   2390c:	8005883a 	mov	r2,r16
   23910:	dfc00517 	ldw	ra,20(sp)
   23914:	dcc00417 	ldw	r19,16(sp)
   23918:	dc800317 	ldw	r18,12(sp)
   2391c:	dc400217 	ldw	r17,8(sp)
   23920:	dc000117 	ldw	r16,4(sp)
   23924:	dec00604 	addi	sp,sp,24
   23928:	f800283a 	ret

0002392c <fopen>:
   2392c:	00c000f4 	movhi	r3,3
   23930:	18d6ef04 	addi	r3,r3,23484
   23934:	2005883a 	mov	r2,r4
   23938:	19000017 	ldw	r4,0(r3)
   2393c:	280d883a 	mov	r6,r5
   23940:	100b883a 	mov	r5,r2
   23944:	00237fc1 	jmpi	237fc <_fopen_r>

00023948 <_fread_r>:
   23948:	defff504 	addi	sp,sp,-44
   2394c:	dd000515 	stw	r20,20(sp)
   23950:	dcc00415 	stw	r19,16(sp)
   23954:	2029883a 	mov	r20,r4
   23958:	2827883a 	mov	r19,r5
   2395c:	3809883a 	mov	r4,r7
   23960:	300b883a 	mov	r5,r6
   23964:	ddc00815 	stw	r23,32(sp)
   23968:	dd800715 	stw	r22,28(sp)
   2396c:	dd400615 	stw	r21,24(sp)
   23970:	dc000115 	stw	r16,4(sp)
   23974:	dfc00a15 	stw	ra,40(sp)
   23978:	df000915 	stw	fp,36(sp)
   2397c:	dc800315 	stw	r18,12(sp)
   23980:	dc400215 	stw	r17,8(sp)
   23984:	302f883a 	mov	r23,r6
   23988:	382b883a 	mov	r21,r7
   2398c:	0022d140 	call	22d14 <__mulsi3>
   23990:	102d883a 	mov	r22,r2
   23994:	dc000b17 	ldw	r16,44(sp)
   23998:	10002e26 	beq	r2,zero,23a54 <_fread_r+0x10c>
   2399c:	a0000226 	beq	r20,zero,239a8 <_fread_r+0x60>
   239a0:	a0800e17 	ldw	r2,56(r20)
   239a4:	10006726 	beq	r2,zero,23b44 <_fread_r+0x1fc>
   239a8:	84400117 	ldw	r17,4(r16)
   239ac:	88002b16 	blt	r17,zero,23a5c <_fread_r+0x114>
   239b0:	8080030b 	ldhu	r2,12(r16)
   239b4:	8807883a 	mov	r3,r17
   239b8:	1080008c 	andi	r2,r2,2
   239bc:	10bfffcc 	andi	r2,r2,65535
   239c0:	10a0001c 	xori	r2,r2,32768
   239c4:	10a00004 	addi	r2,r2,-32768
   239c8:	10002d1e 	bne	r2,zero,23a80 <_fread_r+0x138>
   239cc:	b025883a 	mov	r18,r22
   239d0:	00000106 	br	239d8 <_fread_r+0x90>
   239d4:	84400117 	ldw	r17,4(r16)
   239d8:	9809883a 	mov	r4,r19
   239dc:	880d883a 	mov	r6,r17
   239e0:	81400017 	ldw	r5,0(r16)
   239e4:	8c805c2e 	bgeu	r17,r18,23b58 <_fread_r+0x210>
   239e8:	00250a80 	call	250a8 <memcpy>
   239ec:	80800017 	ldw	r2,0(r16)
   239f0:	9c67883a 	add	r19,r19,r17
   239f4:	9465c83a 	sub	r18,r18,r17
   239f8:	1463883a 	add	r17,r2,r17
   239fc:	a009883a 	mov	r4,r20
   23a00:	800b883a 	mov	r5,r16
   23a04:	84400015 	stw	r17,0(r16)
   23a08:	002544c0 	call	2544c <__srefill_r>
   23a0c:	103ff126 	beq	r2,zero,239d4 <_fread_r+0x8c>
   23a10:	b489c83a 	sub	r4,r22,r18
   23a14:	b80b883a 	mov	r5,r23
   23a18:	0022d040 	call	22d04 <__udivsi3>
   23a1c:	102b883a 	mov	r21,r2
   23a20:	a805883a 	mov	r2,r21
   23a24:	dfc00a17 	ldw	ra,40(sp)
   23a28:	df000917 	ldw	fp,36(sp)
   23a2c:	ddc00817 	ldw	r23,32(sp)
   23a30:	dd800717 	ldw	r22,28(sp)
   23a34:	dd400617 	ldw	r21,24(sp)
   23a38:	dd000517 	ldw	r20,20(sp)
   23a3c:	dcc00417 	ldw	r19,16(sp)
   23a40:	dc800317 	ldw	r18,12(sp)
   23a44:	dc400217 	ldw	r17,8(sp)
   23a48:	dc000117 	ldw	r16,4(sp)
   23a4c:	dec00b04 	addi	sp,sp,44
   23a50:	f800283a 	ret
   23a54:	002b883a 	mov	r21,zero
   23a58:	003ff106 	br	23a20 <_fread_r+0xd8>
   23a5c:	8080030b 	ldhu	r2,12(r16)
   23a60:	80000115 	stw	zero,4(r16)
   23a64:	0007883a 	mov	r3,zero
   23a68:	1080008c 	andi	r2,r2,2
   23a6c:	10bfffcc 	andi	r2,r2,65535
   23a70:	10a0001c 	xori	r2,r2,32768
   23a74:	10a00004 	addi	r2,r2,-32768
   23a78:	0023883a 	mov	r17,zero
   23a7c:	103fd326 	beq	r2,zero,239cc <_fread_r+0x84>
   23a80:	1823883a 	mov	r17,r3
   23a84:	b0c0012e 	bgeu	r22,r3,23a8c <_fread_r+0x144>
   23a88:	b023883a 	mov	r17,r22
   23a8c:	81400017 	ldw	r5,0(r16)
   23a90:	9809883a 	mov	r4,r19
   23a94:	880d883a 	mov	r6,r17
   23a98:	00250a80 	call	250a8 <memcpy>
   23a9c:	80800117 	ldw	r2,4(r16)
   23aa0:	84800017 	ldw	r18,0(r16)
   23aa4:	81400c17 	ldw	r5,48(r16)
   23aa8:	1445c83a 	sub	r2,r2,r17
   23aac:	9465883a 	add	r18,r18,r17
   23ab0:	84800015 	stw	r18,0(r16)
   23ab4:	80800115 	stw	r2,4(r16)
   23ab8:	9c67883a 	add	r19,r19,r17
   23abc:	b463c83a 	sub	r17,r22,r17
   23ac0:	28002e26 	beq	r5,zero,23b7c <_fread_r+0x234>
   23ac4:	883fd626 	beq	r17,zero,23a20 <_fread_r+0xd8>
   23ac8:	80801004 	addi	r2,r16,64
   23acc:	28800326 	beq	r5,r2,23adc <_fread_r+0x194>
   23ad0:	a009883a 	mov	r4,r20
   23ad4:	0023d000 	call	23d00 <_free_r>
   23ad8:	84800017 	ldw	r18,0(r16)
   23adc:	80000c15 	stw	zero,48(r16)
   23ae0:	80c00517 	ldw	r3,20(r16)
   23ae4:	87000417 	ldw	fp,16(r16)
   23ae8:	d8c00015 	stw	r3,0(sp)
   23aec:	00000106 	br	23af4 <_fread_r+0x1ac>
   23af0:	883fcb26 	beq	r17,zero,23a20 <_fread_r+0xd8>
   23af4:	84c00415 	stw	r19,16(r16)
   23af8:	84400515 	stw	r17,20(r16)
   23afc:	84c00015 	stw	r19,0(r16)
   23b00:	a009883a 	mov	r4,r20
   23b04:	800b883a 	mov	r5,r16
   23b08:	002544c0 	call	2544c <__srefill_r>
   23b0c:	d8c00017 	ldw	r3,0(sp)
   23b10:	81000117 	ldw	r4,4(r16)
   23b14:	87000415 	stw	fp,16(r16)
   23b18:	80c00515 	stw	r3,20(r16)
   23b1c:	84800015 	stw	r18,0(r16)
   23b20:	80000115 	stw	zero,4(r16)
   23b24:	8923c83a 	sub	r17,r17,r4
   23b28:	9927883a 	add	r19,r19,r4
   23b2c:	103ff026 	beq	r2,zero,23af0 <_fread_r+0x1a8>
   23b30:	b449c83a 	sub	r4,r22,r17
   23b34:	b80b883a 	mov	r5,r23
   23b38:	0022d040 	call	22d04 <__udivsi3>
   23b3c:	102b883a 	mov	r21,r2
   23b40:	003fb706 	br	23a20 <_fread_r+0xd8>
   23b44:	a009883a 	mov	r4,r20
   23b48:	00235b40 	call	235b4 <__sinit>
   23b4c:	84400117 	ldw	r17,4(r16)
   23b50:	883f970e 	bge	r17,zero,239b0 <_fread_r+0x68>
   23b54:	003fc106 	br	23a5c <_fread_r+0x114>
   23b58:	900d883a 	mov	r6,r18
   23b5c:	00250a80 	call	250a8 <memcpy>
   23b60:	80800117 	ldw	r2,4(r16)
   23b64:	80c00017 	ldw	r3,0(r16)
   23b68:	1485c83a 	sub	r2,r2,r18
   23b6c:	1ca5883a 	add	r18,r3,r18
   23b70:	80800115 	stw	r2,4(r16)
   23b74:	84800015 	stw	r18,0(r16)
   23b78:	003fa906 	br	23a20 <_fread_r+0xd8>
   23b7c:	883fd81e 	bne	r17,zero,23ae0 <_fread_r+0x198>
   23b80:	003fa706 	br	23a20 <_fread_r+0xd8>

00023b84 <fread>:
   23b84:	008000f4 	movhi	r2,3
   23b88:	1096ef04 	addi	r2,r2,23484
   23b8c:	2011883a 	mov	r8,r4
   23b90:	11000017 	ldw	r4,0(r2)
   23b94:	defffe04 	addi	sp,sp,-8
   23b98:	2807883a 	mov	r3,r5
   23b9c:	3005883a 	mov	r2,r6
   23ba0:	d9c00015 	stw	r7,0(sp)
   23ba4:	400b883a 	mov	r5,r8
   23ba8:	180d883a 	mov	r6,r3
   23bac:	100f883a 	mov	r7,r2
   23bb0:	dfc00115 	stw	ra,4(sp)
   23bb4:	00239480 	call	23948 <_fread_r>
   23bb8:	dfc00117 	ldw	ra,4(sp)
   23bbc:	dec00204 	addi	sp,sp,8
   23bc0:	f800283a 	ret

00023bc4 <_malloc_trim_r>:
   23bc4:	defffb04 	addi	sp,sp,-20
   23bc8:	dcc00315 	stw	r19,12(sp)
   23bcc:	dc800215 	stw	r18,8(sp)
   23bd0:	dc400115 	stw	r17,4(sp)
   23bd4:	dc000015 	stw	r16,0(sp)
   23bd8:	2827883a 	mov	r19,r5
   23bdc:	dfc00415 	stw	ra,16(sp)
   23be0:	044000f4 	movhi	r17,3
   23be4:	8c556004 	addi	r17,r17,21888
   23be8:	2021883a 	mov	r16,r4
   23bec:	00325f80 	call	325f8 <__malloc_lock>
   23bf0:	88800217 	ldw	r2,8(r17)
   23bf4:	14800117 	ldw	r18,4(r2)
   23bf8:	00bfff04 	movi	r2,-4
   23bfc:	90a4703a 	and	r18,r18,r2
   23c00:	9083fbc4 	addi	r2,r18,4079
   23c04:	14e7c83a 	sub	r19,r2,r19
   23c08:	9826d33a 	srli	r19,r19,12
   23c0c:	0083ffc4 	movi	r2,4095
   23c10:	9cffffc4 	addi	r19,r19,-1
   23c14:	9826933a 	slli	r19,r19,12
   23c18:	14c0060e 	bge	r2,r19,23c34 <_malloc_trim_r+0x70>
   23c1c:	8009883a 	mov	r4,r16
   23c20:	000b883a 	mov	r5,zero
   23c24:	00256840 	call	25684 <_sbrk_r>
   23c28:	88c00217 	ldw	r3,8(r17)
   23c2c:	1c87883a 	add	r3,r3,r18
   23c30:	10c00a26 	beq	r2,r3,23c5c <_malloc_trim_r+0x98>
   23c34:	8009883a 	mov	r4,r16
   23c38:	00326180 	call	32618 <__malloc_unlock>
   23c3c:	0005883a 	mov	r2,zero
   23c40:	dfc00417 	ldw	ra,16(sp)
   23c44:	dcc00317 	ldw	r19,12(sp)
   23c48:	dc800217 	ldw	r18,8(sp)
   23c4c:	dc400117 	ldw	r17,4(sp)
   23c50:	dc000017 	ldw	r16,0(sp)
   23c54:	dec00504 	addi	sp,sp,20
   23c58:	f800283a 	ret
   23c5c:	8009883a 	mov	r4,r16
   23c60:	04cbc83a 	sub	r5,zero,r19
   23c64:	00256840 	call	25684 <_sbrk_r>
   23c68:	00ffffc4 	movi	r3,-1
   23c6c:	10c01326 	beq	r2,r3,23cbc <_malloc_trim_r+0xf8>
   23c70:	008000f4 	movhi	r2,3
   23c74:	1099e204 	addi	r2,r2,26504
   23c78:	11000017 	ldw	r4,0(r2)
   23c7c:	88c00217 	ldw	r3,8(r17)
   23c80:	94e5c83a 	sub	r18,r18,r19
   23c84:	94800054 	ori	r18,r18,1
   23c88:	24e7c83a 	sub	r19,r4,r19
   23c8c:	1c800115 	stw	r18,4(r3)
   23c90:	8009883a 	mov	r4,r16
   23c94:	14c00015 	stw	r19,0(r2)
   23c98:	00326180 	call	32618 <__malloc_unlock>
   23c9c:	00800044 	movi	r2,1
   23ca0:	dfc00417 	ldw	ra,16(sp)
   23ca4:	dcc00317 	ldw	r19,12(sp)
   23ca8:	dc800217 	ldw	r18,8(sp)
   23cac:	dc400117 	ldw	r17,4(sp)
   23cb0:	dc000017 	ldw	r16,0(sp)
   23cb4:	dec00504 	addi	sp,sp,20
   23cb8:	f800283a 	ret
   23cbc:	8009883a 	mov	r4,r16
   23cc0:	000b883a 	mov	r5,zero
   23cc4:	00256840 	call	25684 <_sbrk_r>
   23cc8:	88c00217 	ldw	r3,8(r17)
   23ccc:	014003c4 	movi	r5,15
   23cd0:	10c9c83a 	sub	r4,r2,r3
   23cd4:	293fd70e 	bge	r5,r4,23c34 <_malloc_trim_r+0x70>
   23cd8:	014000f4 	movhi	r5,3
   23cdc:	2956f004 	addi	r5,r5,23488
   23ce0:	29400017 	ldw	r5,0(r5)
   23ce4:	21000054 	ori	r4,r4,1
   23ce8:	19000115 	stw	r4,4(r3)
   23cec:	1145c83a 	sub	r2,r2,r5
   23cf0:	014000f4 	movhi	r5,3
   23cf4:	2959e204 	addi	r5,r5,26504
   23cf8:	28800015 	stw	r2,0(r5)
   23cfc:	003fcd06 	br	23c34 <_malloc_trim_r+0x70>

00023d00 <_free_r>:
   23d00:	defffd04 	addi	sp,sp,-12
   23d04:	dc400115 	stw	r17,4(sp)
   23d08:	dc000015 	stw	r16,0(sp)
   23d0c:	dfc00215 	stw	ra,8(sp)
   23d10:	2821883a 	mov	r16,r5
   23d14:	2023883a 	mov	r17,r4
   23d18:	28004b26 	beq	r5,zero,23e48 <_free_r+0x148>
   23d1c:	00325f80 	call	325f8 <__malloc_lock>
   23d20:	823fff17 	ldw	r8,-4(r16)
   23d24:	00bfff84 	movi	r2,-2
   23d28:	81bffe04 	addi	r6,r16,-8
   23d2c:	4084703a 	and	r2,r8,r2
   23d30:	3087883a 	add	r3,r6,r2
   23d34:	014000f4 	movhi	r5,3
   23d38:	29556004 	addi	r5,r5,21888
   23d3c:	1a400117 	ldw	r9,4(r3)
   23d40:	29000217 	ldw	r4,8(r5)
   23d44:	01ffff04 	movi	r7,-4
   23d48:	49ce703a 	and	r7,r9,r7
   23d4c:	20c06526 	beq	r4,r3,23ee4 <_free_r+0x1e4>
   23d50:	19c00115 	stw	r7,4(r3)
   23d54:	4200004c 	andi	r8,r8,1
   23d58:	40003026 	beq	r8,zero,23e1c <_free_r+0x11c>
   23d5c:	0009883a 	mov	r4,zero
   23d60:	19d1883a 	add	r8,r3,r7
   23d64:	42000117 	ldw	r8,4(r8)
   23d68:	4200004c 	andi	r8,r8,1
   23d6c:	4000061e 	bne	r8,zero,23d88 <_free_r+0x88>
   23d70:	11c5883a 	add	r2,r2,r7
   23d74:	19c00217 	ldw	r7,8(r3)
   23d78:	20004e26 	beq	r4,zero,23eb4 <_free_r+0x1b4>
   23d7c:	18c00317 	ldw	r3,12(r3)
   23d80:	38c00315 	stw	r3,12(r7)
   23d84:	19c00215 	stw	r7,8(r3)
   23d88:	11c00054 	ori	r7,r2,1
   23d8c:	3087883a 	add	r3,r6,r2
   23d90:	31c00115 	stw	r7,4(r6)
   23d94:	18800015 	stw	r2,0(r3)
   23d98:	20001a1e 	bne	r4,zero,23e04 <_free_r+0x104>
   23d9c:	00c07fc4 	movi	r3,511
   23da0:	18802e2e 	bgeu	r3,r2,23e5c <_free_r+0x15c>
   23da4:	1006d27a 	srli	r3,r2,9
   23da8:	01000104 	movi	r4,4
   23dac:	20c06636 	bltu	r4,r3,23f48 <_free_r+0x248>
   23db0:	1008d1ba 	srli	r4,r2,6
   23db4:	21000e04 	addi	r4,r4,56
   23db8:	210f883a 	add	r7,r4,r4
   23dbc:	39cf883a 	add	r7,r7,r7
   23dc0:	39cf883a 	add	r7,r7,r7
   23dc4:	29cf883a 	add	r7,r5,r7
   23dc8:	38c00217 	ldw	r3,8(r7)
   23dcc:	014000f4 	movhi	r5,3
   23dd0:	29556004 	addi	r5,r5,21888
   23dd4:	19c06126 	beq	r3,r7,23f5c <_free_r+0x25c>
   23dd8:	013fff04 	movi	r4,-4
   23ddc:	19400117 	ldw	r5,4(r3)
   23de0:	290a703a 	and	r5,r5,r4
   23de4:	1140022e 	bgeu	r2,r5,23df0 <_free_r+0xf0>
   23de8:	18c00217 	ldw	r3,8(r3)
   23dec:	38fffb1e 	bne	r7,r3,23ddc <_free_r+0xdc>
   23df0:	18800317 	ldw	r2,12(r3)
   23df4:	30800315 	stw	r2,12(r6)
   23df8:	30c00215 	stw	r3,8(r6)
   23dfc:	11800215 	stw	r6,8(r2)
   23e00:	19800315 	stw	r6,12(r3)
   23e04:	8809883a 	mov	r4,r17
   23e08:	dfc00217 	ldw	ra,8(sp)
   23e0c:	dc400117 	ldw	r17,4(sp)
   23e10:	dc000017 	ldw	r16,0(sp)
   23e14:	dec00304 	addi	sp,sp,12
   23e18:	00326181 	jmpi	32618 <__malloc_unlock>
   23e1c:	813ffe17 	ldw	r4,-8(r16)
   23e20:	2a400204 	addi	r9,r5,8
   23e24:	310dc83a 	sub	r6,r6,r4
   23e28:	32000217 	ldw	r8,8(r6)
   23e2c:	1105883a 	add	r2,r2,r4
   23e30:	42404326 	beq	r8,r9,23f40 <_free_r+0x240>
   23e34:	32400317 	ldw	r9,12(r6)
   23e38:	0009883a 	mov	r4,zero
   23e3c:	42400315 	stw	r9,12(r8)
   23e40:	4a000215 	stw	r8,8(r9)
   23e44:	003fc606 	br	23d60 <_free_r+0x60>
   23e48:	dfc00217 	ldw	ra,8(sp)
   23e4c:	dc400117 	ldw	r17,4(sp)
   23e50:	dc000017 	ldw	r16,0(sp)
   23e54:	dec00304 	addi	sp,sp,12
   23e58:	f800283a 	ret
   23e5c:	1004d0fa 	srli	r2,r2,3
   23e60:	02000044 	movi	r8,1
   23e64:	29c00117 	ldw	r7,4(r5)
   23e68:	1087883a 	add	r3,r2,r2
   23e6c:	18c7883a 	add	r3,r3,r3
   23e70:	1005d0ba 	srai	r2,r2,2
   23e74:	18c7883a 	add	r3,r3,r3
   23e78:	28c7883a 	add	r3,r5,r3
   23e7c:	19000217 	ldw	r4,8(r3)
   23e80:	4084983a 	sll	r2,r8,r2
   23e84:	30c00315 	stw	r3,12(r6)
   23e88:	31000215 	stw	r4,8(r6)
   23e8c:	11c4b03a 	or	r2,r2,r7
   23e90:	21800315 	stw	r6,12(r4)
   23e94:	8809883a 	mov	r4,r17
   23e98:	28800115 	stw	r2,4(r5)
   23e9c:	19800215 	stw	r6,8(r3)
   23ea0:	dfc00217 	ldw	ra,8(sp)
   23ea4:	dc400117 	ldw	r17,4(sp)
   23ea8:	dc000017 	ldw	r16,0(sp)
   23eac:	dec00304 	addi	sp,sp,12
   23eb0:	00326181 	jmpi	32618 <__malloc_unlock>
   23eb4:	020000f4 	movhi	r8,3
   23eb8:	42156204 	addi	r8,r8,21896
   23ebc:	3a3faf1e 	bne	r7,r8,23d7c <_free_r+0x7c>
   23ec0:	29800515 	stw	r6,20(r5)
   23ec4:	29800415 	stw	r6,16(r5)
   23ec8:	11000054 	ori	r4,r2,1
   23ecc:	3087883a 	add	r3,r6,r2
   23ed0:	31c00315 	stw	r7,12(r6)
   23ed4:	31c00215 	stw	r7,8(r6)
   23ed8:	31000115 	stw	r4,4(r6)
   23edc:	18800015 	stw	r2,0(r3)
   23ee0:	003fc806 	br	23e04 <_free_r+0x104>
   23ee4:	4200004c 	andi	r8,r8,1
   23ee8:	3885883a 	add	r2,r7,r2
   23eec:	4000071e 	bne	r8,zero,23f0c <_free_r+0x20c>
   23ef0:	81fffe17 	ldw	r7,-8(r16)
   23ef4:	31cdc83a 	sub	r6,r6,r7
   23ef8:	30c00317 	ldw	r3,12(r6)
   23efc:	31000217 	ldw	r4,8(r6)
   23f00:	11c5883a 	add	r2,r2,r7
   23f04:	20c00315 	stw	r3,12(r4)
   23f08:	19000215 	stw	r4,8(r3)
   23f0c:	00c000f4 	movhi	r3,3
   23f10:	18d6f104 	addi	r3,r3,23492
   23f14:	18c00017 	ldw	r3,0(r3)
   23f18:	11000054 	ori	r4,r2,1
   23f1c:	31000115 	stw	r4,4(r6)
   23f20:	29800215 	stw	r6,8(r5)
   23f24:	10ffb736 	bltu	r2,r3,23e04 <_free_r+0x104>
   23f28:	008000f4 	movhi	r2,3
   23f2c:	1099d904 	addi	r2,r2,26468
   23f30:	11400017 	ldw	r5,0(r2)
   23f34:	8809883a 	mov	r4,r17
   23f38:	0023bc40 	call	23bc4 <_malloc_trim_r>
   23f3c:	003fb106 	br	23e04 <_free_r+0x104>
   23f40:	01000044 	movi	r4,1
   23f44:	003f8606 	br	23d60 <_free_r+0x60>
   23f48:	01000504 	movi	r4,20
   23f4c:	20c00b36 	bltu	r4,r3,23f7c <_free_r+0x27c>
   23f50:	190016c4 	addi	r4,r3,91
   23f54:	210f883a 	add	r7,r4,r4
   23f58:	003f9806 	br	23dbc <_free_r+0xbc>
   23f5c:	2009d0ba 	srai	r4,r4,2
   23f60:	00800044 	movi	r2,1
   23f64:	29c00117 	ldw	r7,4(r5)
   23f68:	1108983a 	sll	r4,r2,r4
   23f6c:	1805883a 	mov	r2,r3
   23f70:	21c8b03a 	or	r4,r4,r7
   23f74:	29000115 	stw	r4,4(r5)
   23f78:	003f9e06 	br	23df4 <_free_r+0xf4>
   23f7c:	01001504 	movi	r4,84
   23f80:	20c00436 	bltu	r4,r3,23f94 <_free_r+0x294>
   23f84:	1008d33a 	srli	r4,r2,12
   23f88:	21001b84 	addi	r4,r4,110
   23f8c:	210f883a 	add	r7,r4,r4
   23f90:	003f8a06 	br	23dbc <_free_r+0xbc>
   23f94:	01005504 	movi	r4,340
   23f98:	20c00436 	bltu	r4,r3,23fac <_free_r+0x2ac>
   23f9c:	1008d3fa 	srli	r4,r2,15
   23fa0:	21001dc4 	addi	r4,r4,119
   23fa4:	210f883a 	add	r7,r4,r4
   23fa8:	003f8406 	br	23dbc <_free_r+0xbc>
   23fac:	01015504 	movi	r4,1364
   23fb0:	20c00436 	bltu	r4,r3,23fc4 <_free_r+0x2c4>
   23fb4:	1008d4ba 	srli	r4,r2,18
   23fb8:	21001f04 	addi	r4,r4,124
   23fbc:	210f883a 	add	r7,r4,r4
   23fc0:	003f7e06 	br	23dbc <_free_r+0xbc>
   23fc4:	01c03f04 	movi	r7,252
   23fc8:	01001f84 	movi	r4,126
   23fcc:	003f7b06 	br	23dbc <_free_r+0xbc>

00023fd0 <fscanf>:
   23fd0:	defffd04 	addi	sp,sp,-12
   23fd4:	2005883a 	mov	r2,r4
   23fd8:	dfc00015 	stw	ra,0(sp)
   23fdc:	d9800115 	stw	r6,4(sp)
   23fe0:	d9c00215 	stw	r7,8(sp)
   23fe4:	00c000f4 	movhi	r3,3
   23fe8:	18d6ef04 	addi	r3,r3,23484
   23fec:	19000017 	ldw	r4,0(r3)
   23ff0:	280d883a 	mov	r6,r5
   23ff4:	d9c00104 	addi	r7,sp,4
   23ff8:	100b883a 	mov	r5,r2
   23ffc:	00277880 	call	27788 <__svfscanf_r>
   24000:	dfc00017 	ldw	ra,0(sp)
   24004:	dec00304 	addi	sp,sp,12
   24008:	f800283a 	ret

0002400c <_fscanf_r>:
   2400c:	defffe04 	addi	sp,sp,-8
   24010:	dfc00015 	stw	ra,0(sp)
   24014:	d9c00115 	stw	r7,4(sp)
   24018:	d9c00104 	addi	r7,sp,4
   2401c:	00277880 	call	27788 <__svfscanf_r>
   24020:	dfc00017 	ldw	ra,0(sp)
   24024:	dec00204 	addi	sp,sp,8
   24028:	f800283a 	ret

0002402c <_fseek_r>:
   2402c:	deffe804 	addi	sp,sp,-96
   24030:	dd001315 	stw	r20,76(sp)
   24034:	dc801115 	stw	r18,68(sp)
   24038:	dc401015 	stw	r17,64(sp)
   2403c:	dc000f15 	stw	r16,60(sp)
   24040:	dfc01715 	stw	ra,92(sp)
   24044:	ddc01615 	stw	r23,88(sp)
   24048:	dd801515 	stw	r22,84(sp)
   2404c:	dd401415 	stw	r21,80(sp)
   24050:	dcc01215 	stw	r19,72(sp)
   24054:	2023883a 	mov	r17,r4
   24058:	2821883a 	mov	r16,r5
   2405c:	3029883a 	mov	r20,r6
   24060:	3825883a 	mov	r18,r7
   24064:	20000226 	beq	r4,zero,24070 <_fseek_r+0x44>
   24068:	20800e17 	ldw	r2,56(r4)
   2406c:	10006226 	beq	r2,zero,241f8 <_fseek_r+0x1cc>
   24070:	80c0030b 	ldhu	r3,12(r16)
   24074:	00804204 	movi	r2,264
   24078:	18c0420c 	andi	r3,r3,264
   2407c:	18806326 	beq	r3,r2,2420c <_fseek_r+0x1e0>
   24080:	84c00a17 	ldw	r19,40(r16)
   24084:	98010226 	beq	r19,zero,24490 <_fseek_r+0x464>
   24088:	00800044 	movi	r2,1
   2408c:	90803d26 	beq	r18,r2,24184 <_fseek_r+0x158>
   24090:	00800084 	movi	r2,2
   24094:	90800126 	beq	r18,r2,2409c <_fseek_r+0x70>
   24098:	90002c1e 	bne	r18,zero,2414c <_fseek_r+0x120>
   2409c:	80800417 	ldw	r2,16(r16)
   240a0:	002d883a 	mov	r22,zero
   240a4:	002b883a 	mov	r21,zero
   240a8:	1000e526 	beq	r2,zero,24440 <_fseek_r+0x414>
   240ac:	80c0030b 	ldhu	r3,12(r16)
   240b0:	1882068c 	andi	r2,r3,2074
   240b4:	1809883a 	mov	r4,r3
   240b8:	10000a1e 	bne	r2,zero,240e4 <_fseek_r+0xb8>
   240bc:	1881000c 	andi	r2,r3,1024
   240c0:	10bfffcc 	andi	r2,r2,65535
   240c4:	10a0001c 	xori	r2,r2,32768
   240c8:	10a00004 	addi	r2,r2,-32768
   240cc:	1000631e 	bne	r2,zero,2425c <_fseek_r+0x230>
   240d0:	008000b4 	movhi	r2,2
   240d4:	1095f104 	addi	r2,r2,22468
   240d8:	98805026 	beq	r19,r2,2421c <_fseek_r+0x1f0>
   240dc:	18c20014 	ori	r3,r3,2048
   240e0:	80c0030d 	sth	r3,12(r16)
   240e4:	8809883a 	mov	r4,r17
   240e8:	800b883a 	mov	r5,r16
   240ec:	00232f80 	call	232f8 <_fflush_r>
   240f0:	1000181e 	bne	r2,zero,24154 <_fseek_r+0x128>
   240f4:	81400717 	ldw	r5,28(r16)
   240f8:	8809883a 	mov	r4,r17
   240fc:	a00d883a 	mov	r6,r20
   24100:	900f883a 	mov	r7,r18
   24104:	983ee83a 	callr	r19
   24108:	00ffffc4 	movi	r3,-1
   2410c:	10c01126 	beq	r2,r3,24154 <_fseek_r+0x128>
   24110:	81400c17 	ldw	r5,48(r16)
   24114:	28000526 	beq	r5,zero,2412c <_fseek_r+0x100>
   24118:	80801004 	addi	r2,r16,64
   2411c:	28800226 	beq	r5,r2,24128 <_fseek_r+0xfc>
   24120:	8809883a 	mov	r4,r17
   24124:	0023d000 	call	23d00 <_free_r>
   24128:	80000c15 	stw	zero,48(r16)
   2412c:	8080030b 	ldhu	r2,12(r16)
   24130:	80c00417 	ldw	r3,16(r16)
   24134:	80000115 	stw	zero,4(r16)
   24138:	10bdf7cc 	andi	r2,r2,63455
   2413c:	8080030d 	sth	r2,12(r16)
   24140:	80c00015 	stw	r3,0(r16)
   24144:	0005883a 	mov	r2,zero
   24148:	00000306 	br	24158 <_fseek_r+0x12c>
   2414c:	00800584 	movi	r2,22
   24150:	88800015 	stw	r2,0(r17)
   24154:	00bfffc4 	movi	r2,-1
   24158:	dfc01717 	ldw	ra,92(sp)
   2415c:	ddc01617 	ldw	r23,88(sp)
   24160:	dd801517 	ldw	r22,84(sp)
   24164:	dd401417 	ldw	r21,80(sp)
   24168:	dd001317 	ldw	r20,76(sp)
   2416c:	dcc01217 	ldw	r19,72(sp)
   24170:	dc801117 	ldw	r18,68(sp)
   24174:	dc401017 	ldw	r17,64(sp)
   24178:	dc000f17 	ldw	r16,60(sp)
   2417c:	dec01804 	addi	sp,sp,96
   24180:	f800283a 	ret
   24184:	8809883a 	mov	r4,r17
   24188:	800b883a 	mov	r5,r16
   2418c:	00232f80 	call	232f8 <_fflush_r>
   24190:	8080030b 	ldhu	r2,12(r16)
   24194:	10c4000c 	andi	r3,r2,4096
   24198:	18ffffcc 	andi	r3,r3,65535
   2419c:	18e0001c 	xori	r3,r3,32768
   241a0:	18e00004 	addi	r3,r3,-32768
   241a4:	18007d26 	beq	r3,zero,2439c <_fseek_r+0x370>
   241a8:	85401417 	ldw	r21,80(r16)
   241ac:	10c0010c 	andi	r3,r2,4
   241b0:	18ffffcc 	andi	r3,r3,65535
   241b4:	18e0001c 	xori	r3,r3,32768
   241b8:	18e00004 	addi	r3,r3,-32768
   241bc:	18005f1e 	bne	r3,zero,2433c <_fseek_r+0x310>
   241c0:	1080020c 	andi	r2,r2,8
   241c4:	10bfffcc 	andi	r2,r2,65535
   241c8:	10a0001c 	xori	r2,r2,32768
   241cc:	10a00004 	addi	r2,r2,-32768
   241d0:	10007026 	beq	r2,zero,24394 <_fseek_r+0x368>
   241d4:	80c00017 	ldw	r3,0(r16)
   241d8:	80800417 	ldw	r2,16(r16)
   241dc:	18000226 	beq	r3,zero,241e8 <_fseek_r+0x1bc>
   241e0:	1887c83a 	sub	r3,r3,r2
   241e4:	a8eb883a 	add	r21,r21,r3
   241e8:	a569883a 	add	r20,r20,r21
   241ec:	05800044 	movi	r22,1
   241f0:	0025883a 	mov	r18,zero
   241f4:	003fac06 	br	240a8 <_fseek_r+0x7c>
   241f8:	00235b40 	call	235b4 <__sinit>
   241fc:	80c0030b 	ldhu	r3,12(r16)
   24200:	00804204 	movi	r2,264
   24204:	18c0420c 	andi	r3,r3,264
   24208:	18bf9d1e 	bne	r3,r2,24080 <_fseek_r+0x54>
   2420c:	8809883a 	mov	r4,r17
   24210:	800b883a 	mov	r5,r16
   24214:	00232f80 	call	232f8 <_fflush_r>
   24218:	003f9906 	br	24080 <_fseek_r+0x54>
   2421c:	8140038f 	ldh	r5,14(r16)
   24220:	283fae16 	blt	r5,zero,240dc <_fseek_r+0xb0>
   24224:	8809883a 	mov	r4,r17
   24228:	d80d883a 	mov	r6,sp
   2422c:	00244c40 	call	244c4 <_fstat_r>
   24230:	1000741e 	bne	r2,zero,24404 <_fseek_r+0x3d8>
   24234:	d8c00117 	ldw	r3,4(sp)
   24238:	00a00014 	movui	r2,32768
   2423c:	18fc000c 	andi	r3,r3,61440
   24240:	1880701e 	bne	r3,r2,24404 <_fseek_r+0x3d8>
   24244:	8100030b 	ldhu	r4,12(r16)
   24248:	00810004 	movi	r2,1024
   2424c:	80801315 	stw	r2,76(r16)
   24250:	2084b03a 	or	r2,r4,r2
   24254:	1009883a 	mov	r4,r2
   24258:	8080030d 	sth	r2,12(r16)
   2425c:	90003f1e 	bne	r18,zero,2435c <_fseek_r+0x330>
   24260:	a02f883a 	mov	r23,r20
   24264:	b000461e 	bne	r22,zero,24380 <_fseek_r+0x354>
   24268:	2084000c 	andi	r2,r4,4096
   2426c:	10bfffcc 	andi	r2,r2,65535
   24270:	10a0001c 	xori	r2,r2,32768
   24274:	10a00004 	addi	r2,r2,-32768
   24278:	10007526 	beq	r2,zero,24450 <_fseek_r+0x424>
   2427c:	80801417 	ldw	r2,80(r16)
   24280:	80c00117 	ldw	r3,4(r16)
   24284:	81400c17 	ldw	r5,48(r16)
   24288:	10ebc83a 	sub	r21,r2,r3
   2428c:	28007926 	beq	r5,zero,24474 <_fseek_r+0x448>
   24290:	81c00f17 	ldw	r7,60(r16)
   24294:	a9ebc83a 	sub	r21,r21,r7
   24298:	80800e17 	ldw	r2,56(r16)
   2429c:	81800417 	ldw	r6,16(r16)
   242a0:	a8eb883a 	add	r21,r21,r3
   242a4:	1185c83a 	sub	r2,r2,r6
   242a8:	a8abc83a 	sub	r21,r21,r2
   242ac:	3885883a 	add	r2,r7,r2
   242b0:	2208000c 	andi	r8,r4,8192
   242b4:	423fffcc 	andi	r8,r8,65535
   242b8:	4220001c 	xori	r8,r8,32768
   242bc:	42200004 	addi	r8,r8,-32768
   242c0:	4000031e 	bne	r8,zero,242d0 <_fseek_r+0x2a4>
   242c4:	bd400216 	blt	r23,r21,242d0 <_fseek_r+0x2a4>
   242c8:	a887883a 	add	r3,r21,r2
   242cc:	b8c03d36 	bltu	r23,r3,243c4 <_fseek_r+0x398>
   242d0:	85401317 	ldw	r21,76(r16)
   242d4:	81400717 	ldw	r5,28(r16)
   242d8:	8809883a 	mov	r4,r17
   242dc:	056bc83a 	sub	r21,zero,r21
   242e0:	bd6a703a 	and	r21,r23,r21
   242e4:	a80d883a 	mov	r6,r21
   242e8:	000f883a 	mov	r7,zero
   242ec:	983ee83a 	callr	r19
   242f0:	00ffffc4 	movi	r3,-1
   242f4:	10ff7b26 	beq	r2,r3,240e4 <_fseek_r+0xb8>
   242f8:	80800417 	ldw	r2,16(r16)
   242fc:	81400c17 	ldw	r5,48(r16)
   24300:	80000115 	stw	zero,4(r16)
   24304:	80800015 	stw	r2,0(r16)
   24308:	28000526 	beq	r5,zero,24320 <_fseek_r+0x2f4>
   2430c:	80801004 	addi	r2,r16,64
   24310:	28800226 	beq	r5,r2,2431c <_fseek_r+0x2f0>
   24314:	8809883a 	mov	r4,r17
   24318:	0023d000 	call	23d00 <_free_r>
   2431c:	80000c15 	stw	zero,48(r16)
   24320:	8080030b 	ldhu	r2,12(r16)
   24324:	bd6fc83a 	sub	r23,r23,r21
   24328:	10bff7cc 	andi	r2,r2,65503
   2432c:	8080030d 	sth	r2,12(r16)
   24330:	b800361e 	bne	r23,zero,2440c <_fseek_r+0x3e0>
   24334:	0005883a 	mov	r2,zero
   24338:	003f8706 	br	24158 <_fseek_r+0x12c>
   2433c:	80c00117 	ldw	r3,4(r16)
   24340:	80800c17 	ldw	r2,48(r16)
   24344:	a8ebc83a 	sub	r21,r21,r3
   24348:	10001226 	beq	r2,zero,24394 <_fseek_r+0x368>
   2434c:	80c00f17 	ldw	r3,60(r16)
   24350:	80800417 	ldw	r2,16(r16)
   24354:	a8ebc83a 	sub	r21,r21,r3
   24358:	003fa306 	br	241e8 <_fseek_r+0x1bc>
   2435c:	8140038f 	ldh	r5,14(r16)
   24360:	8809883a 	mov	r4,r17
   24364:	d80d883a 	mov	r6,sp
   24368:	00244c40 	call	244c4 <_fstat_r>
   2436c:	103f5d1e 	bne	r2,zero,240e4 <_fseek_r+0xb8>
   24370:	ddc00417 	ldw	r23,16(sp)
   24374:	8100030b 	ldhu	r4,12(r16)
   24378:	a5ef883a 	add	r23,r20,r23
   2437c:	b03fba26 	beq	r22,zero,24268 <_fseek_r+0x23c>
   24380:	81400c17 	ldw	r5,48(r16)
   24384:	80c00117 	ldw	r3,4(r16)
   24388:	28003a26 	beq	r5,zero,24474 <_fseek_r+0x448>
   2438c:	81c00f17 	ldw	r7,60(r16)
   24390:	003fc106 	br	24298 <_fseek_r+0x26c>
   24394:	80800417 	ldw	r2,16(r16)
   24398:	003f9306 	br	241e8 <_fseek_r+0x1bc>
   2439c:	81400717 	ldw	r5,28(r16)
   243a0:	8809883a 	mov	r4,r17
   243a4:	000d883a 	mov	r6,zero
   243a8:	900f883a 	mov	r7,r18
   243ac:	983ee83a 	callr	r19
   243b0:	102b883a 	mov	r21,r2
   243b4:	00bfffc4 	movi	r2,-1
   243b8:	a8bf6626 	beq	r21,r2,24154 <_fseek_r+0x128>
   243bc:	8080030b 	ldhu	r2,12(r16)
   243c0:	003f7a06 	br	241ac <_fseek_r+0x180>
   243c4:	bd6bc83a 	sub	r21,r23,r21
   243c8:	354d883a 	add	r6,r6,r21
   243cc:	1545c83a 	sub	r2,r2,r21
   243d0:	81800015 	stw	r6,0(r16)
   243d4:	80800115 	stw	r2,4(r16)
   243d8:	28000626 	beq	r5,zero,243f4 <_fseek_r+0x3c8>
   243dc:	80801004 	addi	r2,r16,64
   243e0:	28800326 	beq	r5,r2,243f0 <_fseek_r+0x3c4>
   243e4:	8809883a 	mov	r4,r17
   243e8:	0023d000 	call	23d00 <_free_r>
   243ec:	8100030b 	ldhu	r4,12(r16)
   243f0:	80000c15 	stw	zero,48(r16)
   243f4:	213ff7cc 	andi	r4,r4,65503
   243f8:	8100030d 	sth	r4,12(r16)
   243fc:	0005883a 	mov	r2,zero
   24400:	003f5506 	br	24158 <_fseek_r+0x12c>
   24404:	80c0030b 	ldhu	r3,12(r16)
   24408:	003f3406 	br	240dc <_fseek_r+0xb0>
   2440c:	8809883a 	mov	r4,r17
   24410:	800b883a 	mov	r5,r16
   24414:	002544c0 	call	2544c <__srefill_r>
   24418:	103f321e 	bne	r2,zero,240e4 <_fseek_r+0xb8>
   2441c:	80800117 	ldw	r2,4(r16)
   24420:	15ff3036 	bltu	r2,r23,240e4 <_fseek_r+0xb8>
   24424:	80c00017 	ldw	r3,0(r16)
   24428:	15c5c83a 	sub	r2,r2,r23
   2442c:	80800115 	stw	r2,4(r16)
   24430:	1def883a 	add	r23,r3,r23
   24434:	85c00015 	stw	r23,0(r16)
   24438:	0005883a 	mov	r2,zero
   2443c:	003f4606 	br	24158 <_fseek_r+0x12c>
   24440:	8809883a 	mov	r4,r17
   24444:	800b883a 	mov	r5,r16
   24448:	002477c0 	call	2477c <__smakebuf_r>
   2444c:	003f1706 	br	240ac <_fseek_r+0x80>
   24450:	81400717 	ldw	r5,28(r16)
   24454:	8809883a 	mov	r4,r17
   24458:	000d883a 	mov	r6,zero
   2445c:	01c00044 	movi	r7,1
   24460:	983ee83a 	callr	r19
   24464:	00ffffc4 	movi	r3,-1
   24468:	10ff1e26 	beq	r2,r3,240e4 <_fseek_r+0xb8>
   2446c:	8100030b 	ldhu	r4,12(r16)
   24470:	003f8306 	br	24280 <_fseek_r+0x254>
   24474:	80800017 	ldw	r2,0(r16)
   24478:	81800417 	ldw	r6,16(r16)
   2447c:	000b883a 	mov	r5,zero
   24480:	1185c83a 	sub	r2,r2,r6
   24484:	a8abc83a 	sub	r21,r21,r2
   24488:	1885883a 	add	r2,r3,r2
   2448c:	003f8806 	br	242b0 <_fseek_r+0x284>
   24490:	00800744 	movi	r2,29
   24494:	88800015 	stw	r2,0(r17)
   24498:	00bfffc4 	movi	r2,-1
   2449c:	003f2e06 	br	24158 <_fseek_r+0x12c>

000244a0 <fseek>:
   244a0:	008000f4 	movhi	r2,3
   244a4:	1096ef04 	addi	r2,r2,23484
   244a8:	2007883a 	mov	r3,r4
   244ac:	11000017 	ldw	r4,0(r2)
   244b0:	2805883a 	mov	r2,r5
   244b4:	300f883a 	mov	r7,r6
   244b8:	180b883a 	mov	r5,r3
   244bc:	100d883a 	mov	r6,r2
   244c0:	002402c1 	jmpi	2402c <_fseek_r>

000244c4 <_fstat_r>:
   244c4:	defffd04 	addi	sp,sp,-12
   244c8:	dc400115 	stw	r17,4(sp)
   244cc:	dc000015 	stw	r16,0(sp)
   244d0:	2023883a 	mov	r17,r4
   244d4:	040000f4 	movhi	r16,3
   244d8:	8419d604 	addi	r16,r16,26456
   244dc:	2809883a 	mov	r4,r5
   244e0:	300b883a 	mov	r5,r6
   244e4:	dfc00215 	stw	ra,8(sp)
   244e8:	80000015 	stw	zero,0(r16)
   244ec:	00321cc0 	call	321cc <fstat>
   244f0:	00ffffc4 	movi	r3,-1
   244f4:	10c00526 	beq	r2,r3,2450c <_fstat_r+0x48>
   244f8:	dfc00217 	ldw	ra,8(sp)
   244fc:	dc400117 	ldw	r17,4(sp)
   24500:	dc000017 	ldw	r16,0(sp)
   24504:	dec00304 	addi	sp,sp,12
   24508:	f800283a 	ret
   2450c:	80c00017 	ldw	r3,0(r16)
   24510:	183ff926 	beq	r3,zero,244f8 <_fstat_r+0x34>
   24514:	88c00015 	stw	r3,0(r17)
   24518:	dfc00217 	ldw	ra,8(sp)
   2451c:	dc400117 	ldw	r17,4(sp)
   24520:	dc000017 	ldw	r16,0(sp)
   24524:	dec00304 	addi	sp,sp,12
   24528:	f800283a 	ret

0002452c <_fwalk>:
   2452c:	defff904 	addi	sp,sp,-28
   24530:	dcc00315 	stw	r19,12(sp)
   24534:	24c0b804 	addi	r19,r4,736
   24538:	dd400515 	stw	r21,20(sp)
   2453c:	dd000415 	stw	r20,16(sp)
   24540:	dfc00615 	stw	ra,24(sp)
   24544:	dc800215 	stw	r18,8(sp)
   24548:	dc400115 	stw	r17,4(sp)
   2454c:	dc000015 	stw	r16,0(sp)
   24550:	282b883a 	mov	r21,r5
   24554:	0029883a 	mov	r20,zero
   24558:	00237bc0 	call	237bc <__sfp_lock_acquire>
   2455c:	98001226 	beq	r19,zero,245a8 <_fwalk+0x7c>
   24560:	04bfffc4 	movi	r18,-1
   24564:	9c400117 	ldw	r17,4(r19)
   24568:	9c000217 	ldw	r16,8(r19)
   2456c:	8c7fffc4 	addi	r17,r17,-1
   24570:	88000b16 	blt	r17,zero,245a0 <_fwalk+0x74>
   24574:	84000304 	addi	r16,r16,12
   24578:	80c0000f 	ldh	r3,0(r16)
   2457c:	8c7fffc4 	addi	r17,r17,-1
   24580:	813ffd04 	addi	r4,r16,-12
   24584:	18000426 	beq	r3,zero,24598 <_fwalk+0x6c>
   24588:	80c0008f 	ldh	r3,2(r16)
   2458c:	1c800226 	beq	r3,r18,24598 <_fwalk+0x6c>
   24590:	a83ee83a 	callr	r21
   24594:	a0a8b03a 	or	r20,r20,r2
   24598:	84001704 	addi	r16,r16,92
   2459c:	8cbff61e 	bne	r17,r18,24578 <_fwalk+0x4c>
   245a0:	9cc00017 	ldw	r19,0(r19)
   245a4:	983fef1e 	bne	r19,zero,24564 <_fwalk+0x38>
   245a8:	00237c00 	call	237c0 <__sfp_lock_release>
   245ac:	a005883a 	mov	r2,r20
   245b0:	dfc00617 	ldw	ra,24(sp)
   245b4:	dd400517 	ldw	r21,20(sp)
   245b8:	dd000417 	ldw	r20,16(sp)
   245bc:	dcc00317 	ldw	r19,12(sp)
   245c0:	dc800217 	ldw	r18,8(sp)
   245c4:	dc400117 	ldw	r17,4(sp)
   245c8:	dc000017 	ldw	r16,0(sp)
   245cc:	dec00704 	addi	sp,sp,28
   245d0:	f800283a 	ret

000245d4 <_fwalk_reent>:
   245d4:	defff804 	addi	sp,sp,-32
   245d8:	dcc00315 	stw	r19,12(sp)
   245dc:	24c0b804 	addi	r19,r4,736
   245e0:	dd800615 	stw	r22,24(sp)
   245e4:	dd400515 	stw	r21,20(sp)
   245e8:	dd000415 	stw	r20,16(sp)
   245ec:	dfc00715 	stw	ra,28(sp)
   245f0:	dc800215 	stw	r18,8(sp)
   245f4:	dc400115 	stw	r17,4(sp)
   245f8:	dc000015 	stw	r16,0(sp)
   245fc:	2029883a 	mov	r20,r4
   24600:	282b883a 	mov	r21,r5
   24604:	002d883a 	mov	r22,zero
   24608:	00237bc0 	call	237bc <__sfp_lock_acquire>
   2460c:	98001326 	beq	r19,zero,2465c <_fwalk_reent+0x88>
   24610:	04bfffc4 	movi	r18,-1
   24614:	9c400117 	ldw	r17,4(r19)
   24618:	9c000217 	ldw	r16,8(r19)
   2461c:	8c7fffc4 	addi	r17,r17,-1
   24620:	88000c16 	blt	r17,zero,24654 <_fwalk_reent+0x80>
   24624:	84000304 	addi	r16,r16,12
   24628:	80c0000f 	ldh	r3,0(r16)
   2462c:	8c7fffc4 	addi	r17,r17,-1
   24630:	817ffd04 	addi	r5,r16,-12
   24634:	18000526 	beq	r3,zero,2464c <_fwalk_reent+0x78>
   24638:	80c0008f 	ldh	r3,2(r16)
   2463c:	a009883a 	mov	r4,r20
   24640:	1c800226 	beq	r3,r18,2464c <_fwalk_reent+0x78>
   24644:	a83ee83a 	callr	r21
   24648:	b0acb03a 	or	r22,r22,r2
   2464c:	84001704 	addi	r16,r16,92
   24650:	8cbff51e 	bne	r17,r18,24628 <_fwalk_reent+0x54>
   24654:	9cc00017 	ldw	r19,0(r19)
   24658:	983fee1e 	bne	r19,zero,24614 <_fwalk_reent+0x40>
   2465c:	00237c00 	call	237c0 <__sfp_lock_release>
   24660:	b005883a 	mov	r2,r22
   24664:	dfc00717 	ldw	ra,28(sp)
   24668:	dd800617 	ldw	r22,24(sp)
   2466c:	dd400517 	ldw	r21,20(sp)
   24670:	dd000417 	ldw	r20,16(sp)
   24674:	dcc00317 	ldw	r19,12(sp)
   24678:	dc800217 	ldw	r18,8(sp)
   2467c:	dc400117 	ldw	r17,4(sp)
   24680:	dc000017 	ldw	r16,0(sp)
   24684:	dec00804 	addi	sp,sp,32
   24688:	f800283a 	ret

0002468c <_fwrite_r>:
   2468c:	defff604 	addi	sp,sp,-40
   24690:	dc000515 	stw	r16,20(sp)
   24694:	d9400315 	stw	r5,12(sp)
   24698:	2021883a 	mov	r16,r4
   2469c:	300b883a 	mov	r5,r6
   246a0:	3809883a 	mov	r4,r7
   246a4:	dcc00815 	stw	r19,32(sp)
   246a8:	dc800715 	stw	r18,28(sp)
   246ac:	dc400615 	stw	r17,24(sp)
   246b0:	dfc00915 	stw	ra,36(sp)
   246b4:	3027883a 	mov	r19,r6
   246b8:	3823883a 	mov	r17,r7
   246bc:	0022d140 	call	22d14 <__mulsi3>
   246c0:	1025883a 	mov	r18,r2
   246c4:	d8800415 	stw	r2,16(sp)
   246c8:	d8800215 	stw	r2,8(sp)
   246cc:	d8800304 	addi	r2,sp,12
   246d0:	d8800015 	stw	r2,0(sp)
   246d4:	00800044 	movi	r2,1
   246d8:	d8800115 	stw	r2,4(sp)
   246dc:	80000226 	beq	r16,zero,246e8 <_fwrite_r+0x5c>
   246e0:	80800e17 	ldw	r2,56(r16)
   246e4:	10001226 	beq	r2,zero,24730 <_fwrite_r+0xa4>
   246e8:	d9400a17 	ldw	r5,40(sp)
   246ec:	8009883a 	mov	r4,r16
   246f0:	d80d883a 	mov	r6,sp
   246f4:	002aa440 	call	2aa44 <__sfvwrite_r>
   246f8:	10000526 	beq	r2,zero,24710 <_fwrite_r+0x84>
   246fc:	d9000217 	ldw	r4,8(sp)
   24700:	980b883a 	mov	r5,r19
   24704:	9109c83a 	sub	r4,r18,r4
   24708:	0022d040 	call	22d04 <__udivsi3>
   2470c:	1023883a 	mov	r17,r2
   24710:	8805883a 	mov	r2,r17
   24714:	dfc00917 	ldw	ra,36(sp)
   24718:	dcc00817 	ldw	r19,32(sp)
   2471c:	dc800717 	ldw	r18,28(sp)
   24720:	dc400617 	ldw	r17,24(sp)
   24724:	dc000517 	ldw	r16,20(sp)
   24728:	dec00a04 	addi	sp,sp,40
   2472c:	f800283a 	ret
   24730:	8009883a 	mov	r4,r16
   24734:	00235b40 	call	235b4 <__sinit>
   24738:	003feb06 	br	246e8 <_fwrite_r+0x5c>

0002473c <fwrite>:
   2473c:	008000f4 	movhi	r2,3
   24740:	1096ef04 	addi	r2,r2,23484
   24744:	2011883a 	mov	r8,r4
   24748:	11000017 	ldw	r4,0(r2)
   2474c:	defffe04 	addi	sp,sp,-8
   24750:	2807883a 	mov	r3,r5
   24754:	3005883a 	mov	r2,r6
   24758:	d9c00015 	stw	r7,0(sp)
   2475c:	400b883a 	mov	r5,r8
   24760:	180d883a 	mov	r6,r3
   24764:	100f883a 	mov	r7,r2
   24768:	dfc00115 	stw	ra,4(sp)
   2476c:	002468c0 	call	2468c <_fwrite_r>
   24770:	dfc00117 	ldw	ra,4(sp)
   24774:	dec00204 	addi	sp,sp,8
   24778:	f800283a 	ret

0002477c <__smakebuf_r>:
   2477c:	2880030b 	ldhu	r2,12(r5)
   24780:	deffed04 	addi	sp,sp,-76
   24784:	dc401015 	stw	r17,64(sp)
   24788:	10c0008c 	andi	r3,r2,2
   2478c:	18ffffcc 	andi	r3,r3,65535
   24790:	18e0001c 	xori	r3,r3,32768
   24794:	dc000f15 	stw	r16,60(sp)
   24798:	dfc01215 	stw	ra,72(sp)
   2479c:	dc801115 	stw	r18,68(sp)
   247a0:	18e00004 	addi	r3,r3,-32768
   247a4:	2821883a 	mov	r16,r5
   247a8:	2023883a 	mov	r17,r4
   247ac:	1800381e 	bne	r3,zero,24890 <__smakebuf_r+0x114>
   247b0:	2940038f 	ldh	r5,14(r5)
   247b4:	28002d16 	blt	r5,zero,2486c <__smakebuf_r+0xf0>
   247b8:	d80d883a 	mov	r6,sp
   247bc:	00244c40 	call	244c4 <_fstat_r>
   247c0:	10002916 	blt	r2,zero,24868 <__smakebuf_r+0xec>
   247c4:	d8800117 	ldw	r2,4(sp)
   247c8:	00e00014 	movui	r3,32768
   247cc:	10bc000c 	andi	r2,r2,61440
   247d0:	10c03c26 	beq	r2,r3,248c4 <__smakebuf_r+0x148>
   247d4:	80c0030b 	ldhu	r3,12(r16)
   247d8:	18c20014 	ori	r3,r3,2048
   247dc:	80c0030d 	sth	r3,12(r16)
   247e0:	00c80004 	movi	r3,8192
   247e4:	10c00c1e 	bne	r2,r3,24818 <__smakebuf_r+0x9c>
   247e8:	8140038f 	ldh	r5,14(r16)
   247ec:	8809883a 	mov	r4,r17
   247f0:	002af280 	call	2af28 <_isatty_r>
   247f4:	10000826 	beq	r2,zero,24818 <__smakebuf_r+0x9c>
   247f8:	80c0030b 	ldhu	r3,12(r16)
   247fc:	808010c4 	addi	r2,r16,67
   24800:	80800015 	stw	r2,0(r16)
   24804:	18c00054 	ori	r3,r3,1
   24808:	80800415 	stw	r2,16(r16)
   2480c:	00800044 	movi	r2,1
   24810:	80c0030d 	sth	r3,12(r16)
   24814:	80800515 	stw	r2,20(r16)
   24818:	04810004 	movi	r18,1024
   2481c:	8809883a 	mov	r4,r17
   24820:	900b883a 	mov	r5,r18
   24824:	00249240 	call	24924 <_malloc_r>
   24828:	10003026 	beq	r2,zero,248ec <__smakebuf_r+0x170>
   2482c:	80c0030b 	ldhu	r3,12(r16)
   24830:	010000b4 	movhi	r4,2
   24834:	210d4804 	addi	r4,r4,13600
   24838:	89000f15 	stw	r4,60(r17)
   2483c:	18c02014 	ori	r3,r3,128
   24840:	80c0030d 	sth	r3,12(r16)
   24844:	80800015 	stw	r2,0(r16)
   24848:	80800415 	stw	r2,16(r16)
   2484c:	84800515 	stw	r18,20(r16)
   24850:	dfc01217 	ldw	ra,72(sp)
   24854:	dc801117 	ldw	r18,68(sp)
   24858:	dc401017 	ldw	r17,64(sp)
   2485c:	dc000f17 	ldw	r16,60(sp)
   24860:	dec01304 	addi	sp,sp,76
   24864:	f800283a 	ret
   24868:	8080030b 	ldhu	r2,12(r16)
   2486c:	10c0200c 	andi	r3,r2,128
   24870:	18ffffcc 	andi	r3,r3,65535
   24874:	18e0001c 	xori	r3,r3,32768
   24878:	18e00004 	addi	r3,r3,-32768
   2487c:	18000f1e 	bne	r3,zero,248bc <__smakebuf_r+0x140>
   24880:	04810004 	movi	r18,1024
   24884:	10820014 	ori	r2,r2,2048
   24888:	8080030d 	sth	r2,12(r16)
   2488c:	003fe306 	br	2481c <__smakebuf_r+0xa0>
   24890:	288010c4 	addi	r2,r5,67
   24894:	28800015 	stw	r2,0(r5)
   24898:	28800415 	stw	r2,16(r5)
   2489c:	00800044 	movi	r2,1
   248a0:	28800515 	stw	r2,20(r5)
   248a4:	dfc01217 	ldw	ra,72(sp)
   248a8:	dc801117 	ldw	r18,68(sp)
   248ac:	dc401017 	ldw	r17,64(sp)
   248b0:	dc000f17 	ldw	r16,60(sp)
   248b4:	dec01304 	addi	sp,sp,76
   248b8:	f800283a 	ret
   248bc:	04801004 	movi	r18,64
   248c0:	003ff006 	br	24884 <__smakebuf_r+0x108>
   248c4:	81000a17 	ldw	r4,40(r16)
   248c8:	00c000b4 	movhi	r3,2
   248cc:	18d5f104 	addi	r3,r3,22468
   248d0:	20ffc01e 	bne	r4,r3,247d4 <__smakebuf_r+0x58>
   248d4:	8080030b 	ldhu	r2,12(r16)
   248d8:	00c10004 	movi	r3,1024
   248dc:	80c01315 	stw	r3,76(r16)
   248e0:	10c4b03a 	or	r2,r2,r3
   248e4:	8080030d 	sth	r2,12(r16)
   248e8:	003fcb06 	br	24818 <__smakebuf_r+0x9c>
   248ec:	8080030b 	ldhu	r2,12(r16)
   248f0:	10c0800c 	andi	r3,r2,512
   248f4:	18ffffcc 	andi	r3,r3,65535
   248f8:	18e0001c 	xori	r3,r3,32768
   248fc:	18e00004 	addi	r3,r3,-32768
   24900:	183fd31e 	bne	r3,zero,24850 <__smakebuf_r+0xd4>
   24904:	10800094 	ori	r2,r2,2
   24908:	80c010c4 	addi	r3,r16,67
   2490c:	8080030d 	sth	r2,12(r16)
   24910:	00800044 	movi	r2,1
   24914:	80c00015 	stw	r3,0(r16)
   24918:	80c00415 	stw	r3,16(r16)
   2491c:	80800515 	stw	r2,20(r16)
   24920:	003fcb06 	br	24850 <__smakebuf_r+0xd4>

00024924 <_malloc_r>:
   24924:	defff604 	addi	sp,sp,-40
   24928:	dc800215 	stw	r18,8(sp)
   2492c:	dfc00915 	stw	ra,36(sp)
   24930:	df000815 	stw	fp,32(sp)
   24934:	ddc00715 	stw	r23,28(sp)
   24938:	dd800615 	stw	r22,24(sp)
   2493c:	dd400515 	stw	r21,20(sp)
   24940:	dd000415 	stw	r20,16(sp)
   24944:	dcc00315 	stw	r19,12(sp)
   24948:	dc400115 	stw	r17,4(sp)
   2494c:	dc000015 	stw	r16,0(sp)
   24950:	288002c4 	addi	r2,r5,11
   24954:	00c00584 	movi	r3,22
   24958:	2025883a 	mov	r18,r4
   2495c:	18802b2e 	bgeu	r3,r2,24a0c <_malloc_r+0xe8>
   24960:	047ffe04 	movi	r17,-8
   24964:	1462703a 	and	r17,r2,r17
   24968:	88002a16 	blt	r17,zero,24a14 <_malloc_r+0xf0>
   2496c:	89402936 	bltu	r17,r5,24a14 <_malloc_r+0xf0>
   24970:	9009883a 	mov	r4,r18
   24974:	00325f80 	call	325f8 <__malloc_lock>
   24978:	00807dc4 	movi	r2,503
   2497c:	14402936 	bltu	r2,r17,24a24 <_malloc_r+0x100>
   24980:	8808d0fa 	srli	r4,r17,3
   24984:	04c000f4 	movhi	r19,3
   24988:	9cd56004 	addi	r19,r19,21888
   2498c:	2105883a 	add	r2,r4,r4
   24990:	1085883a 	add	r2,r2,r2
   24994:	1085883a 	add	r2,r2,r2
   24998:	9885883a 	add	r2,r19,r2
   2499c:	14000317 	ldw	r16,12(r2)
   249a0:	80815526 	beq	r16,r2,24ef8 <_malloc_r+0x5d4>
   249a4:	81000117 	ldw	r4,4(r16)
   249a8:	00bfff04 	movi	r2,-4
   249ac:	80c00317 	ldw	r3,12(r16)
   249b0:	2084703a 	and	r2,r4,r2
   249b4:	8085883a 	add	r2,r16,r2
   249b8:	11800117 	ldw	r6,4(r2)
   249bc:	81400217 	ldw	r5,8(r16)
   249c0:	9009883a 	mov	r4,r18
   249c4:	31800054 	ori	r6,r6,1
   249c8:	11800115 	stw	r6,4(r2)
   249cc:	28c00315 	stw	r3,12(r5)
   249d0:	19400215 	stw	r5,8(r3)
   249d4:	00326180 	call	32618 <__malloc_unlock>
   249d8:	80800204 	addi	r2,r16,8
   249dc:	dfc00917 	ldw	ra,36(sp)
   249e0:	df000817 	ldw	fp,32(sp)
   249e4:	ddc00717 	ldw	r23,28(sp)
   249e8:	dd800617 	ldw	r22,24(sp)
   249ec:	dd400517 	ldw	r21,20(sp)
   249f0:	dd000417 	ldw	r20,16(sp)
   249f4:	dcc00317 	ldw	r19,12(sp)
   249f8:	dc800217 	ldw	r18,8(sp)
   249fc:	dc400117 	ldw	r17,4(sp)
   24a00:	dc000017 	ldw	r16,0(sp)
   24a04:	dec00a04 	addi	sp,sp,40
   24a08:	f800283a 	ret
   24a0c:	04400404 	movi	r17,16
   24a10:	897fd72e 	bgeu	r17,r5,24970 <_malloc_r+0x4c>
   24a14:	00800304 	movi	r2,12
   24a18:	90800015 	stw	r2,0(r18)
   24a1c:	0005883a 	mov	r2,zero
   24a20:	003fee06 	br	249dc <_malloc_r+0xb8>
   24a24:	8808d27a 	srli	r4,r17,9
   24a28:	20007126 	beq	r4,zero,24bf0 <_malloc_r+0x2cc>
   24a2c:	00800104 	movi	r2,4
   24a30:	1100eb36 	bltu	r2,r4,24de0 <_malloc_r+0x4bc>
   24a34:	8808d1ba 	srli	r4,r17,6
   24a38:	21000e04 	addi	r4,r4,56
   24a3c:	210b883a 	add	r5,r4,r4
   24a40:	294b883a 	add	r5,r5,r5
   24a44:	294b883a 	add	r5,r5,r5
   24a48:	04c000f4 	movhi	r19,3
   24a4c:	9cd56004 	addi	r19,r19,21888
   24a50:	994b883a 	add	r5,r19,r5
   24a54:	2c000317 	ldw	r16,12(r5)
   24a58:	2c000e26 	beq	r5,r16,24a94 <_malloc_r+0x170>
   24a5c:	80c00117 	ldw	r3,4(r16)
   24a60:	01ffff04 	movi	r7,-4
   24a64:	018003c4 	movi	r6,15
   24a68:	19c6703a 	and	r3,r3,r7
   24a6c:	1c45c83a 	sub	r2,r3,r17
   24a70:	30800716 	blt	r6,r2,24a90 <_malloc_r+0x16c>
   24a74:	1000610e 	bge	r2,zero,24bfc <_malloc_r+0x2d8>
   24a78:	84000317 	ldw	r16,12(r16)
   24a7c:	2c000526 	beq	r5,r16,24a94 <_malloc_r+0x170>
   24a80:	80c00117 	ldw	r3,4(r16)
   24a84:	19c6703a 	and	r3,r3,r7
   24a88:	1c45c83a 	sub	r2,r3,r17
   24a8c:	30bff90e 	bge	r6,r2,24a74 <_malloc_r+0x150>
   24a90:	213fffc4 	addi	r4,r4,-1
   24a94:	21000044 	addi	r4,r4,1
   24a98:	9c000417 	ldw	r16,16(r19)
   24a9c:	00c000f4 	movhi	r3,3
   24aa0:	18d56004 	addi	r3,r3,21888
   24aa4:	1a400204 	addi	r9,r3,8
   24aa8:	8240ff26 	beq	r16,r9,24ea8 <_malloc_r+0x584>
   24aac:	81400117 	ldw	r5,4(r16)
   24ab0:	00bfff04 	movi	r2,-4
   24ab4:	018003c4 	movi	r6,15
   24ab8:	2884703a 	and	r2,r5,r2
   24abc:	144bc83a 	sub	r5,r2,r17
   24ac0:	3140ea16 	blt	r6,r5,24e6c <_malloc_r+0x548>
   24ac4:	1a400515 	stw	r9,20(r3)
   24ac8:	1a400415 	stw	r9,16(r3)
   24acc:	2800570e 	bge	r5,zero,24c2c <_malloc_r+0x308>
   24ad0:	01407fc4 	movi	r5,511
   24ad4:	2880ca36 	bltu	r5,r2,24e00 <_malloc_r+0x4dc>
   24ad8:	1004d0fa 	srli	r2,r2,3
   24adc:	02000044 	movi	r8,1
   24ae0:	19c00117 	ldw	r7,4(r3)
   24ae4:	108b883a 	add	r5,r2,r2
   24ae8:	294b883a 	add	r5,r5,r5
   24aec:	1005d0ba 	srai	r2,r2,2
   24af0:	294b883a 	add	r5,r5,r5
   24af4:	28cb883a 	add	r5,r5,r3
   24af8:	29800217 	ldw	r6,8(r5)
   24afc:	4084983a 	sll	r2,r8,r2
   24b00:	81400315 	stw	r5,12(r16)
   24b04:	81800215 	stw	r6,8(r16)
   24b08:	11c4b03a 	or	r2,r2,r7
   24b0c:	18800115 	stw	r2,4(r3)
   24b10:	2c000215 	stw	r16,8(r5)
   24b14:	34000315 	stw	r16,12(r6)
   24b18:	200bd0ba 	srai	r5,r4,2
   24b1c:	00c00044 	movi	r3,1
   24b20:	194a983a 	sll	r5,r3,r5
   24b24:	11404936 	bltu	r2,r5,24c4c <_malloc_r+0x328>
   24b28:	1146703a 	and	r3,r2,r5
   24b2c:	18000a1e 	bne	r3,zero,24b58 <_malloc_r+0x234>
   24b30:	00ffff04 	movi	r3,-4
   24b34:	294b883a 	add	r5,r5,r5
   24b38:	20c8703a 	and	r4,r4,r3
   24b3c:	1146703a 	and	r3,r2,r5
   24b40:	21000104 	addi	r4,r4,4
   24b44:	1800041e 	bne	r3,zero,24b58 <_malloc_r+0x234>
   24b48:	294b883a 	add	r5,r5,r5
   24b4c:	1146703a 	and	r3,r2,r5
   24b50:	21000104 	addi	r4,r4,4
   24b54:	183ffc26 	beq	r3,zero,24b48 <_malloc_r+0x224>
   24b58:	023fff04 	movi	r8,-4
   24b5c:	01c003c4 	movi	r7,15
   24b60:	2105883a 	add	r2,r4,r4
   24b64:	1085883a 	add	r2,r2,r2
   24b68:	1085883a 	add	r2,r2,r2
   24b6c:	9899883a 	add	r12,r19,r2
   24b70:	62800304 	addi	r10,r12,12
   24b74:	2017883a 	mov	r11,r4
   24b78:	54000017 	ldw	r16,0(r10)
   24b7c:	51bffd04 	addi	r6,r10,-12
   24b80:	8180041e 	bne	r16,r6,24b94 <_malloc_r+0x270>
   24b84:	0000ca06 	br	24eb0 <_malloc_r+0x58c>
   24b88:	10001c0e 	bge	r2,zero,24bfc <_malloc_r+0x2d8>
   24b8c:	84000317 	ldw	r16,12(r16)
   24b90:	8180c726 	beq	r16,r6,24eb0 <_malloc_r+0x58c>
   24b94:	80c00117 	ldw	r3,4(r16)
   24b98:	1a06703a 	and	r3,r3,r8
   24b9c:	1c45c83a 	sub	r2,r3,r17
   24ba0:	38bff90e 	bge	r7,r2,24b88 <_malloc_r+0x264>
   24ba4:	81000317 	ldw	r4,12(r16)
   24ba8:	81400217 	ldw	r5,8(r16)
   24bac:	8447883a 	add	r3,r16,r17
   24bb0:	8c400054 	ori	r17,r17,1
   24bb4:	29000315 	stw	r4,12(r5)
   24bb8:	21400215 	stw	r5,8(r4)
   24bbc:	84400115 	stw	r17,4(r16)
   24bc0:	1889883a 	add	r4,r3,r2
   24bc4:	11400054 	ori	r5,r2,1
   24bc8:	98c00515 	stw	r3,20(r19)
   24bcc:	98c00415 	stw	r3,16(r19)
   24bd0:	20800015 	stw	r2,0(r4)
   24bd4:	1a400315 	stw	r9,12(r3)
   24bd8:	1a400215 	stw	r9,8(r3)
   24bdc:	19400115 	stw	r5,4(r3)
   24be0:	9009883a 	mov	r4,r18
   24be4:	00326180 	call	32618 <__malloc_unlock>
   24be8:	80800204 	addi	r2,r16,8
   24bec:	003f7b06 	br	249dc <_malloc_r+0xb8>
   24bf0:	8808d0fa 	srli	r4,r17,3
   24bf4:	210b883a 	add	r5,r4,r4
   24bf8:	003f9106 	br	24a40 <_malloc_r+0x11c>
   24bfc:	80c7883a 	add	r3,r16,r3
   24c00:	19400117 	ldw	r5,4(r3)
   24c04:	80800317 	ldw	r2,12(r16)
   24c08:	81000217 	ldw	r4,8(r16)
   24c0c:	29400054 	ori	r5,r5,1
   24c10:	19400115 	stw	r5,4(r3)
   24c14:	20800315 	stw	r2,12(r4)
   24c18:	11000215 	stw	r4,8(r2)
   24c1c:	9009883a 	mov	r4,r18
   24c20:	00326180 	call	32618 <__malloc_unlock>
   24c24:	80800204 	addi	r2,r16,8
   24c28:	003f6c06 	br	249dc <_malloc_r+0xb8>
   24c2c:	8085883a 	add	r2,r16,r2
   24c30:	10c00117 	ldw	r3,4(r2)
   24c34:	9009883a 	mov	r4,r18
   24c38:	18c00054 	ori	r3,r3,1
   24c3c:	10c00115 	stw	r3,4(r2)
   24c40:	00326180 	call	32618 <__malloc_unlock>
   24c44:	80800204 	addi	r2,r16,8
   24c48:	003f6406 	br	249dc <_malloc_r+0xb8>
   24c4c:	9c000217 	ldw	r16,8(r19)
   24c50:	00bfff04 	movi	r2,-4
   24c54:	85400117 	ldw	r21,4(r16)
   24c58:	a8aa703a 	and	r21,r21,r2
   24c5c:	ac400336 	bltu	r21,r17,24c6c <_malloc_r+0x348>
   24c60:	ac45c83a 	sub	r2,r21,r17
   24c64:	00c003c4 	movi	r3,15
   24c68:	18805316 	blt	r3,r2,24db8 <_malloc_r+0x494>
   24c6c:	d5e2eb17 	ldw	r23,-29780(gp)
   24c70:	d0e00217 	ldw	r3,-32760(gp)
   24c74:	00bfffc4 	movi	r2,-1
   24c78:	8579883a 	add	fp,r16,r21
   24c7c:	8def883a 	add	r23,r17,r23
   24c80:	1880d226 	beq	r3,r2,24fcc <_malloc_r+0x6a8>
   24c84:	bdc403c4 	addi	r23,r23,4111
   24c88:	00bc0004 	movi	r2,-4096
   24c8c:	b8ae703a 	and	r23,r23,r2
   24c90:	9009883a 	mov	r4,r18
   24c94:	b80b883a 	mov	r5,r23
   24c98:	00256840 	call	25684 <_sbrk_r>
   24c9c:	1029883a 	mov	r20,r2
   24ca0:	00bfffc4 	movi	r2,-1
   24ca4:	a080d126 	beq	r20,r2,24fec <_malloc_r+0x6c8>
   24ca8:	a7009f36 	bltu	r20,fp,24f28 <_malloc_r+0x604>
   24cac:	058000f4 	movhi	r22,3
   24cb0:	b599e204 	addi	r22,r22,26504
   24cb4:	b0800017 	ldw	r2,0(r22)
   24cb8:	b885883a 	add	r2,r23,r2
   24cbc:	b0800015 	stw	r2,0(r22)
   24cc0:	e500cf26 	beq	fp,r20,25000 <_malloc_r+0x6dc>
   24cc4:	d1200217 	ldw	r4,-32760(gp)
   24cc8:	00ffffc4 	movi	r3,-1
   24ccc:	20c0e026 	beq	r4,r3,25050 <_malloc_r+0x72c>
   24cd0:	a739c83a 	sub	fp,r20,fp
   24cd4:	1705883a 	add	r2,r2,fp
   24cd8:	b0800015 	stw	r2,0(r22)
   24cdc:	a08001cc 	andi	r2,r20,7
   24ce0:	1000a526 	beq	r2,zero,24f78 <_malloc_r+0x654>
   24ce4:	a0a9c83a 	sub	r20,r20,r2
   24ce8:	00c40204 	movi	r3,4104
   24cec:	a5000204 	addi	r20,r20,8
   24cf0:	1885c83a 	sub	r2,r3,r2
   24cf4:	a5c7883a 	add	r3,r20,r23
   24cf8:	18c3ffcc 	andi	r3,r3,4095
   24cfc:	10efc83a 	sub	r23,r2,r3
   24d00:	9009883a 	mov	r4,r18
   24d04:	b80b883a 	mov	r5,r23
   24d08:	00256840 	call	25684 <_sbrk_r>
   24d0c:	00ffffc4 	movi	r3,-1
   24d10:	10c0cc26 	beq	r2,r3,25044 <_malloc_r+0x720>
   24d14:	1505c83a 	sub	r2,r2,r20
   24d18:	b887883a 	add	r3,r23,r2
   24d1c:	18c00054 	ori	r3,r3,1
   24d20:	b0800017 	ldw	r2,0(r22)
   24d24:	9d000215 	stw	r20,8(r19)
   24d28:	a0c00115 	stw	r3,4(r20)
   24d2c:	b885883a 	add	r2,r23,r2
   24d30:	b0800015 	stw	r2,0(r22)
   24d34:	84c00e26 	beq	r16,r19,24d70 <_malloc_r+0x44c>
   24d38:	00c003c4 	movi	r3,15
   24d3c:	1d40902e 	bgeu	r3,r21,24f80 <_malloc_r+0x65c>
   24d40:	ad7ffd04 	addi	r21,r21,-12
   24d44:	013ffe04 	movi	r4,-8
   24d48:	a908703a 	and	r4,r21,r4
   24d4c:	810b883a 	add	r5,r16,r4
   24d50:	01800144 	movi	r6,5
   24d54:	29800115 	stw	r6,4(r5)
   24d58:	29800215 	stw	r6,8(r5)
   24d5c:	81400117 	ldw	r5,4(r16)
   24d60:	2940004c 	andi	r5,r5,1
   24d64:	214ab03a 	or	r5,r4,r5
   24d68:	81400115 	stw	r5,4(r16)
   24d6c:	1900ae36 	bltu	r3,r4,25028 <_malloc_r+0x704>
   24d70:	d0e2ea17 	ldw	r3,-29784(gp)
   24d74:	1880012e 	bgeu	r3,r2,24d7c <_malloc_r+0x458>
   24d78:	d0a2ea15 	stw	r2,-29784(gp)
   24d7c:	d0e2e917 	ldw	r3,-29788(gp)
   24d80:	9c000217 	ldw	r16,8(r19)
   24d84:	1880012e 	bgeu	r3,r2,24d8c <_malloc_r+0x468>
   24d88:	d0a2e915 	stw	r2,-29788(gp)
   24d8c:	80c00117 	ldw	r3,4(r16)
   24d90:	00bfff04 	movi	r2,-4
   24d94:	1886703a 	and	r3,r3,r2
   24d98:	1c45c83a 	sub	r2,r3,r17
   24d9c:	1c400236 	bltu	r3,r17,24da8 <_malloc_r+0x484>
   24da0:	00c003c4 	movi	r3,15
   24da4:	18800416 	blt	r3,r2,24db8 <_malloc_r+0x494>
   24da8:	9009883a 	mov	r4,r18
   24dac:	00326180 	call	32618 <__malloc_unlock>
   24db0:	0005883a 	mov	r2,zero
   24db4:	003f0906 	br	249dc <_malloc_r+0xb8>
   24db8:	88c00054 	ori	r3,r17,1
   24dbc:	10800054 	ori	r2,r2,1
   24dc0:	80c00115 	stw	r3,4(r16)
   24dc4:	8463883a 	add	r17,r16,r17
   24dc8:	88800115 	stw	r2,4(r17)
   24dcc:	9009883a 	mov	r4,r18
   24dd0:	9c400215 	stw	r17,8(r19)
   24dd4:	00326180 	call	32618 <__malloc_unlock>
   24dd8:	80800204 	addi	r2,r16,8
   24ddc:	003eff06 	br	249dc <_malloc_r+0xb8>
   24de0:	00800504 	movi	r2,20
   24de4:	1100492e 	bgeu	r2,r4,24f0c <_malloc_r+0x5e8>
   24de8:	00801504 	movi	r2,84
   24dec:	11005c36 	bltu	r2,r4,24f60 <_malloc_r+0x63c>
   24df0:	8808d33a 	srli	r4,r17,12
   24df4:	21001b84 	addi	r4,r4,110
   24df8:	210b883a 	add	r5,r4,r4
   24dfc:	003f1006 	br	24a40 <_malloc_r+0x11c>
   24e00:	1006d27a 	srli	r3,r2,9
   24e04:	01400104 	movi	r5,4
   24e08:	28c0432e 	bgeu	r5,r3,24f18 <_malloc_r+0x5f4>
   24e0c:	01400504 	movi	r5,20
   24e10:	28c07036 	bltu	r5,r3,24fd4 <_malloc_r+0x6b0>
   24e14:	194016c4 	addi	r5,r3,91
   24e18:	294d883a 	add	r6,r5,r5
   24e1c:	318d883a 	add	r6,r6,r6
   24e20:	318d883a 	add	r6,r6,r6
   24e24:	998d883a 	add	r6,r19,r6
   24e28:	30c00217 	ldw	r3,8(r6)
   24e2c:	01c000f4 	movhi	r7,3
   24e30:	39d56004 	addi	r7,r7,21888
   24e34:	19805726 	beq	r3,r6,24f94 <_malloc_r+0x670>
   24e38:	01ffff04 	movi	r7,-4
   24e3c:	19400117 	ldw	r5,4(r3)
   24e40:	29ca703a 	and	r5,r5,r7
   24e44:	1140022e 	bgeu	r2,r5,24e50 <_malloc_r+0x52c>
   24e48:	18c00217 	ldw	r3,8(r3)
   24e4c:	30fffb1e 	bne	r6,r3,24e3c <_malloc_r+0x518>
   24e50:	19400317 	ldw	r5,12(r3)
   24e54:	98800117 	ldw	r2,4(r19)
   24e58:	81400315 	stw	r5,12(r16)
   24e5c:	80c00215 	stw	r3,8(r16)
   24e60:	2c000215 	stw	r16,8(r5)
   24e64:	1c000315 	stw	r16,12(r3)
   24e68:	003f2b06 	br	24b18 <_malloc_r+0x1f4>
   24e6c:	8445883a 	add	r2,r16,r17
   24e70:	8c400054 	ori	r17,r17,1
   24e74:	18800515 	stw	r2,20(r3)
   24e78:	18800415 	stw	r2,16(r3)
   24e7c:	29000054 	ori	r4,r5,1
   24e80:	1147883a 	add	r3,r2,r5
   24e84:	84400115 	stw	r17,4(r16)
   24e88:	11000115 	stw	r4,4(r2)
   24e8c:	12400315 	stw	r9,12(r2)
   24e90:	12400215 	stw	r9,8(r2)
   24e94:	19400015 	stw	r5,0(r3)
   24e98:	9009883a 	mov	r4,r18
   24e9c:	00326180 	call	32618 <__malloc_unlock>
   24ea0:	80800204 	addi	r2,r16,8
   24ea4:	003ecd06 	br	249dc <_malloc_r+0xb8>
   24ea8:	18800117 	ldw	r2,4(r3)
   24eac:	003f1a06 	br	24b18 <_malloc_r+0x1f4>
   24eb0:	5ac00044 	addi	r11,r11,1
   24eb4:	588000cc 	andi	r2,r11,3
   24eb8:	52800204 	addi	r10,r10,8
   24ebc:	103f2e1e 	bne	r2,zero,24b78 <_malloc_r+0x254>
   24ec0:	20c000cc 	andi	r3,r4,3
   24ec4:	60bffe04 	addi	r2,r12,-8
   24ec8:	18006f26 	beq	r3,zero,25088 <_malloc_r+0x764>
   24ecc:	63000017 	ldw	r12,0(r12)
   24ed0:	213fffc4 	addi	r4,r4,-1
   24ed4:	60bffa26 	beq	r12,r2,24ec0 <_malloc_r+0x59c>
   24ed8:	98800117 	ldw	r2,4(r19)
   24edc:	294b883a 	add	r5,r5,r5
   24ee0:	117f5a36 	bltu	r2,r5,24c4c <_malloc_r+0x328>
   24ee4:	283f5926 	beq	r5,zero,24c4c <_malloc_r+0x328>
   24ee8:	1146703a 	and	r3,r2,r5
   24eec:	18001626 	beq	r3,zero,24f48 <_malloc_r+0x624>
   24ef0:	5809883a 	mov	r4,r11
   24ef4:	003f1a06 	br	24b60 <_malloc_r+0x23c>
   24ef8:	80800204 	addi	r2,r16,8
   24efc:	84000517 	ldw	r16,20(r16)
   24f00:	143ea81e 	bne	r2,r16,249a4 <_malloc_r+0x80>
   24f04:	21000084 	addi	r4,r4,2
   24f08:	003ee306 	br	24a98 <_malloc_r+0x174>
   24f0c:	210016c4 	addi	r4,r4,91
   24f10:	210b883a 	add	r5,r4,r4
   24f14:	003eca06 	br	24a40 <_malloc_r+0x11c>
   24f18:	100ad1ba 	srli	r5,r2,6
   24f1c:	29400e04 	addi	r5,r5,56
   24f20:	294d883a 	add	r6,r5,r5
   24f24:	003fbd06 	br	24e1c <_malloc_r+0x4f8>
   24f28:	84ff6026 	beq	r16,r19,24cac <_malloc_r+0x388>
   24f2c:	008000f4 	movhi	r2,3
   24f30:	10956004 	addi	r2,r2,21888
   24f34:	14000217 	ldw	r16,8(r2)
   24f38:	00bfff04 	movi	r2,-4
   24f3c:	80c00117 	ldw	r3,4(r16)
   24f40:	1886703a 	and	r3,r3,r2
   24f44:	003f9406 	br	24d98 <_malloc_r+0x474>
   24f48:	294b883a 	add	r5,r5,r5
   24f4c:	1146703a 	and	r3,r2,r5
   24f50:	5ac00104 	addi	r11,r11,4
   24f54:	183ffc26 	beq	r3,zero,24f48 <_malloc_r+0x624>
   24f58:	5809883a 	mov	r4,r11
   24f5c:	003f0006 	br	24b60 <_malloc_r+0x23c>
   24f60:	00805504 	movi	r2,340
   24f64:	11001336 	bltu	r2,r4,24fb4 <_malloc_r+0x690>
   24f68:	8808d3fa 	srli	r4,r17,15
   24f6c:	21001dc4 	addi	r4,r4,119
   24f70:	210b883a 	add	r5,r4,r4
   24f74:	003eb206 	br	24a40 <_malloc_r+0x11c>
   24f78:	00840004 	movi	r2,4096
   24f7c:	003f5d06 	br	24cf4 <_malloc_r+0x3d0>
   24f80:	00800044 	movi	r2,1
   24f84:	a0800115 	stw	r2,4(r20)
   24f88:	a021883a 	mov	r16,r20
   24f8c:	0007883a 	mov	r3,zero
   24f90:	003f8106 	br	24d98 <_malloc_r+0x474>
   24f94:	280bd0ba 	srai	r5,r5,2
   24f98:	01800044 	movi	r6,1
   24f9c:	38800117 	ldw	r2,4(r7)
   24fa0:	314c983a 	sll	r6,r6,r5
   24fa4:	180b883a 	mov	r5,r3
   24fa8:	3084b03a 	or	r2,r6,r2
   24fac:	38800115 	stw	r2,4(r7)
   24fb0:	003fa906 	br	24e58 <_malloc_r+0x534>
   24fb4:	00815504 	movi	r2,1364
   24fb8:	11001836 	bltu	r2,r4,2501c <_malloc_r+0x6f8>
   24fbc:	8808d4ba 	srli	r4,r17,18
   24fc0:	21001f04 	addi	r4,r4,124
   24fc4:	210b883a 	add	r5,r4,r4
   24fc8:	003e9d06 	br	24a40 <_malloc_r+0x11c>
   24fcc:	bdc00404 	addi	r23,r23,16
   24fd0:	003f2f06 	br	24c90 <_malloc_r+0x36c>
   24fd4:	01401504 	movi	r5,84
   24fd8:	28c01f36 	bltu	r5,r3,25058 <_malloc_r+0x734>
   24fdc:	100ad33a 	srli	r5,r2,12
   24fe0:	29401b84 	addi	r5,r5,110
   24fe4:	294d883a 	add	r6,r5,r5
   24fe8:	003f8c06 	br	24e1c <_malloc_r+0x4f8>
   24fec:	9c000217 	ldw	r16,8(r19)
   24ff0:	00bfff04 	movi	r2,-4
   24ff4:	80c00117 	ldw	r3,4(r16)
   24ff8:	1886703a 	and	r3,r3,r2
   24ffc:	003f6606 	br	24d98 <_malloc_r+0x474>
   25000:	e0c3ffcc 	andi	r3,fp,4095
   25004:	183f2f1e 	bne	r3,zero,24cc4 <_malloc_r+0x3a0>
   25008:	98c00217 	ldw	r3,8(r19)
   2500c:	bd49883a 	add	r4,r23,r21
   25010:	21000054 	ori	r4,r4,1
   25014:	19000115 	stw	r4,4(r3)
   25018:	003f5506 	br	24d70 <_malloc_r+0x44c>
   2501c:	01403f04 	movi	r5,252
   25020:	01001f84 	movi	r4,126
   25024:	003e8606 	br	24a40 <_malloc_r+0x11c>
   25028:	9009883a 	mov	r4,r18
   2502c:	81400204 	addi	r5,r16,8
   25030:	0023d000 	call	23d00 <_free_r>
   25034:	008000f4 	movhi	r2,3
   25038:	1099e204 	addi	r2,r2,26504
   2503c:	10800017 	ldw	r2,0(r2)
   25040:	003f4b06 	br	24d70 <_malloc_r+0x44c>
   25044:	00c00044 	movi	r3,1
   25048:	002f883a 	mov	r23,zero
   2504c:	003f3406 	br	24d20 <_malloc_r+0x3fc>
   25050:	d5200215 	stw	r20,-32760(gp)
   25054:	003f2106 	br	24cdc <_malloc_r+0x3b8>
   25058:	01405504 	movi	r5,340
   2505c:	28c00436 	bltu	r5,r3,25070 <_malloc_r+0x74c>
   25060:	100ad3fa 	srli	r5,r2,15
   25064:	29401dc4 	addi	r5,r5,119
   25068:	294d883a 	add	r6,r5,r5
   2506c:	003f6b06 	br	24e1c <_malloc_r+0x4f8>
   25070:	01415504 	movi	r5,1364
   25074:	28c00936 	bltu	r5,r3,2509c <_malloc_r+0x778>
   25078:	100ad4ba 	srli	r5,r2,18
   2507c:	29401f04 	addi	r5,r5,124
   25080:	294d883a 	add	r6,r5,r5
   25084:	003f6506 	br	24e1c <_malloc_r+0x4f8>
   25088:	98800117 	ldw	r2,4(r19)
   2508c:	0146303a 	nor	r3,zero,r5
   25090:	1884703a 	and	r2,r3,r2
   25094:	98800115 	stw	r2,4(r19)
   25098:	003f9006 	br	24edc <_malloc_r+0x5b8>
   2509c:	01803f04 	movi	r6,252
   250a0:	01401f84 	movi	r5,126
   250a4:	003f5d06 	br	24e1c <_malloc_r+0x4f8>

000250a8 <memcpy>:
   250a8:	defffb04 	addi	sp,sp,-20
   250ac:	dc000015 	stw	r16,0(sp)
   250b0:	dfc00415 	stw	ra,16(sp)
   250b4:	dcc00315 	stw	r19,12(sp)
   250b8:	dc800215 	stw	r18,8(sp)
   250bc:	dc400115 	stw	r17,4(sp)
   250c0:	00c003c4 	movi	r3,15
   250c4:	2021883a 	mov	r16,r4
   250c8:	3005883a 	mov	r2,r6
   250cc:	1980032e 	bgeu	r3,r6,250dc <memcpy+0x34>
   250d0:	2906b03a 	or	r3,r5,r4
   250d4:	18c000cc 	andi	r3,r3,3
   250d8:	18001026 	beq	r3,zero,2511c <memcpy+0x74>
   250dc:	8007883a 	mov	r3,r16
   250e0:	288f883a 	add	r7,r5,r2
   250e4:	10000526 	beq	r2,zero,250fc <memcpy+0x54>
   250e8:	29800003 	ldbu	r6,0(r5)
   250ec:	18c00044 	addi	r3,r3,1
   250f0:	29400044 	addi	r5,r5,1
   250f4:	19bfffc5 	stb	r6,-1(r3)
   250f8:	29fffb1e 	bne	r5,r7,250e8 <memcpy+0x40>
   250fc:	8005883a 	mov	r2,r16
   25100:	dfc00417 	ldw	ra,16(sp)
   25104:	dcc00317 	ldw	r19,12(sp)
   25108:	dc800217 	ldw	r18,8(sp)
   2510c:	dc400117 	ldw	r17,4(sp)
   25110:	dc000017 	ldw	r16,0(sp)
   25114:	dec00504 	addi	sp,sp,20
   25118:	f800283a 	ret
   2511c:	32bffc04 	addi	r10,r6,-16
   25120:	5014d13a 	srli	r10,r10,4
   25124:	20800404 	addi	r2,r4,16
   25128:	2007883a 	mov	r3,r4
   2512c:	5008913a 	slli	r4,r10,4
   25130:	280f883a 	mov	r7,r5
   25134:	1105883a 	add	r2,r2,r4
   25138:	3a000017 	ldw	r8,0(r7)
   2513c:	18c00404 	addi	r3,r3,16
   25140:	39c00404 	addi	r7,r7,16
   25144:	1a3ffc15 	stw	r8,-16(r3)
   25148:	3a3ffd17 	ldw	r8,-12(r7)
   2514c:	1a3ffd15 	stw	r8,-12(r3)
   25150:	3a3ffe17 	ldw	r8,-8(r7)
   25154:	1a3ffe15 	stw	r8,-8(r3)
   25158:	3a3fff17 	ldw	r8,-4(r7)
   2515c:	1a3fff15 	stw	r8,-4(r3)
   25160:	18bff51e 	bne	r3,r2,25138 <memcpy+0x90>
   25164:	52800044 	addi	r10,r10,1
   25168:	5014913a 	slli	r10,r10,4
   2516c:	308003cc 	andi	r2,r6,15
   25170:	010000c4 	movi	r4,3
   25174:	8287883a 	add	r3,r16,r10
   25178:	2a95883a 	add	r10,r5,r10
   2517c:	2080182e 	bgeu	r4,r2,251e0 <memcpy+0x138>
   25180:	147fff04 	addi	r17,r2,-4
   25184:	8808d0ba 	srli	r4,r17,2
   25188:	1a400104 	addi	r9,r3,4
   2518c:	180d883a 	mov	r6,r3
   25190:	2105883a 	add	r2,r4,r4
   25194:	1085883a 	add	r2,r2,r2
   25198:	4893883a 	add	r9,r9,r2
   2519c:	500f883a 	mov	r7,r10
   251a0:	3a000017 	ldw	r8,0(r7)
   251a4:	31800104 	addi	r6,r6,4
   251a8:	39c00104 	addi	r7,r7,4
   251ac:	323fff15 	stw	r8,-4(r6)
   251b0:	327ffb1e 	bne	r6,r9,251a0 <memcpy+0xf8>
   251b4:	20800044 	addi	r2,r4,1
   251b8:	1085883a 	add	r2,r2,r2
   251bc:	1085883a 	add	r2,r2,r2
   251c0:	017fff04 	movi	r5,-4
   251c4:	18a5883a 	add	r18,r3,r2
   251c8:	50a7883a 	add	r19,r10,r2
   251cc:	0022d140 	call	22d14 <__mulsi3>
   251d0:	1445883a 	add	r2,r2,r17
   251d4:	980b883a 	mov	r5,r19
   251d8:	9007883a 	mov	r3,r18
   251dc:	003fc006 	br	250e0 <memcpy+0x38>
   251e0:	500b883a 	mov	r5,r10
   251e4:	003fbe06 	br	250e0 <memcpy+0x38>

000251e8 <memset>:
   251e8:	00c000c4 	movi	r3,3
   251ec:	2005883a 	mov	r2,r4
   251f0:	29403fcc 	andi	r5,r5,255
   251f4:	19802d2e 	bgeu	r3,r6,252ac <memset+0xc4>
   251f8:	20c6703a 	and	r3,r4,r3
   251fc:	18002e1e 	bne	r3,zero,252b8 <memset+0xd0>
   25200:	2806923a 	slli	r3,r5,8
   25204:	010003c4 	movi	r4,15
   25208:	3011883a 	mov	r8,r6
   2520c:	1946b03a 	or	r3,r3,r5
   25210:	180e943a 	slli	r7,r3,16
   25214:	38ceb03a 	or	r7,r7,r3
   25218:	1007883a 	mov	r3,r2
   2521c:	21800f2e 	bgeu	r4,r6,2525c <memset+0x74>
   25220:	19c00015 	stw	r7,0(r3)
   25224:	19c00115 	stw	r7,4(r3)
   25228:	19c00215 	stw	r7,8(r3)
   2522c:	19c00315 	stw	r7,12(r3)
   25230:	423ffc04 	addi	r8,r8,-16
   25234:	18c00404 	addi	r3,r3,16
   25238:	223ff936 	bltu	r4,r8,25220 <memset+0x38>
   2523c:	30fffc04 	addi	r3,r6,-16
   25240:	1806d13a 	srli	r3,r3,4
   25244:	318003cc 	andi	r6,r6,15
   25248:	010000c4 	movi	r4,3
   2524c:	18c00044 	addi	r3,r3,1
   25250:	1806913a 	slli	r3,r3,4
   25254:	10c7883a 	add	r3,r2,r3
   25258:	21800e2e 	bgeu	r4,r6,25294 <memset+0xac>
   2525c:	1813883a 	mov	r9,r3
   25260:	3011883a 	mov	r8,r6
   25264:	010000c4 	movi	r4,3
   25268:	49c00015 	stw	r7,0(r9)
   2526c:	423fff04 	addi	r8,r8,-4
   25270:	4a400104 	addi	r9,r9,4
   25274:	223ffc36 	bltu	r4,r8,25268 <memset+0x80>
   25278:	313fff04 	addi	r4,r6,-4
   2527c:	2008d0ba 	srli	r4,r4,2
   25280:	318000cc 	andi	r6,r6,3
   25284:	21000044 	addi	r4,r4,1
   25288:	2109883a 	add	r4,r4,r4
   2528c:	2109883a 	add	r4,r4,r4
   25290:	1907883a 	add	r3,r3,r4
   25294:	30000a26 	beq	r6,zero,252c0 <memset+0xd8>
   25298:	198d883a 	add	r6,r3,r6
   2529c:	19400005 	stb	r5,0(r3)
   252a0:	18c00044 	addi	r3,r3,1
   252a4:	19bffd1e 	bne	r3,r6,2529c <memset+0xb4>
   252a8:	f800283a 	ret
   252ac:	2007883a 	mov	r3,r4
   252b0:	303ff91e 	bne	r6,zero,25298 <memset+0xb0>
   252b4:	00000206 	br	252c0 <memset+0xd8>
   252b8:	2007883a 	mov	r3,r4
   252bc:	003ff606 	br	25298 <memset+0xb0>
   252c0:	f800283a 	ret

000252c4 <_open_r>:
   252c4:	defffd04 	addi	sp,sp,-12
   252c8:	dc400115 	stw	r17,4(sp)
   252cc:	dc000015 	stw	r16,0(sp)
   252d0:	2023883a 	mov	r17,r4
   252d4:	040000f4 	movhi	r16,3
   252d8:	8419d604 	addi	r16,r16,26456
   252dc:	2809883a 	mov	r4,r5
   252e0:	300b883a 	mov	r5,r6
   252e4:	380d883a 	mov	r6,r7
   252e8:	dfc00215 	stw	ra,8(sp)
   252ec:	80000015 	stw	zero,0(r16)
   252f0:	00327780 	call	32778 <open>
   252f4:	00ffffc4 	movi	r3,-1
   252f8:	10c00526 	beq	r2,r3,25310 <_open_r+0x4c>
   252fc:	dfc00217 	ldw	ra,8(sp)
   25300:	dc400117 	ldw	r17,4(sp)
   25304:	dc000017 	ldw	r16,0(sp)
   25308:	dec00304 	addi	sp,sp,12
   2530c:	f800283a 	ret
   25310:	80c00017 	ldw	r3,0(r16)
   25314:	183ff926 	beq	r3,zero,252fc <_open_r+0x38>
   25318:	88c00015 	stw	r3,0(r17)
   2531c:	dfc00217 	ldw	ra,8(sp)
   25320:	dc400117 	ldw	r17,4(sp)
   25324:	dc000017 	ldw	r16,0(sp)
   25328:	dec00304 	addi	sp,sp,12
   2532c:	f800283a 	ret

00025330 <_printf_r>:
   25330:	defffd04 	addi	sp,sp,-12
   25334:	dfc00015 	stw	ra,0(sp)
   25338:	d9800115 	stw	r6,4(sp)
   2533c:	d9c00215 	stw	r7,8(sp)
   25340:	280d883a 	mov	r6,r5
   25344:	21400217 	ldw	r5,8(r4)
   25348:	d9c00104 	addi	r7,sp,4
   2534c:	00258e80 	call	258e8 <___vfprintf_internal_r>
   25350:	dfc00017 	ldw	ra,0(sp)
   25354:	dec00304 	addi	sp,sp,12
   25358:	f800283a 	ret

0002535c <printf>:
   2535c:	defffc04 	addi	sp,sp,-16
   25360:	dfc00015 	stw	ra,0(sp)
   25364:	d9400115 	stw	r5,4(sp)
   25368:	d9800215 	stw	r6,8(sp)
   2536c:	d9c00315 	stw	r7,12(sp)
   25370:	008000f4 	movhi	r2,3
   25374:	1096ef04 	addi	r2,r2,23484
   25378:	10800017 	ldw	r2,0(r2)
   2537c:	200b883a 	mov	r5,r4
   25380:	d9800104 	addi	r6,sp,4
   25384:	11000217 	ldw	r4,8(r2)
   25388:	00277640 	call	27764 <__vfprintf_internal>
   2538c:	dfc00017 	ldw	ra,0(sp)
   25390:	dec00404 	addi	sp,sp,16
   25394:	f800283a 	ret

00025398 <_puts_r>:
   25398:	defff604 	addi	sp,sp,-40
   2539c:	dc400815 	stw	r17,32(sp)
   253a0:	2023883a 	mov	r17,r4
   253a4:	2809883a 	mov	r4,r5
   253a8:	dc000715 	stw	r16,28(sp)
   253ac:	dfc00915 	stw	ra,36(sp)
   253b0:	2821883a 	mov	r16,r5
   253b4:	00258280 	call	25828 <strlen>
   253b8:	10c00044 	addi	r3,r2,1
   253bc:	d8800115 	stw	r2,4(sp)
   253c0:	89400217 	ldw	r5,8(r17)
   253c4:	008000f4 	movhi	r2,3
   253c8:	1092fc04 	addi	r2,r2,19440
   253cc:	d8800215 	stw	r2,8(sp)
   253d0:	00800044 	movi	r2,1
   253d4:	d8800315 	stw	r2,12(sp)
   253d8:	8809883a 	mov	r4,r17
   253dc:	00800084 	movi	r2,2
   253e0:	d9800404 	addi	r6,sp,16
   253e4:	dc000015 	stw	r16,0(sp)
   253e8:	d8c00615 	stw	r3,24(sp)
   253ec:	dec00415 	stw	sp,16(sp)
   253f0:	d8800515 	stw	r2,20(sp)
   253f4:	002aa440 	call	2aa44 <__sfvwrite_r>
   253f8:	1000061e 	bne	r2,zero,25414 <_puts_r+0x7c>
   253fc:	00800284 	movi	r2,10
   25400:	dfc00917 	ldw	ra,36(sp)
   25404:	dc400817 	ldw	r17,32(sp)
   25408:	dc000717 	ldw	r16,28(sp)
   2540c:	dec00a04 	addi	sp,sp,40
   25410:	f800283a 	ret
   25414:	00bfffc4 	movi	r2,-1
   25418:	003ff906 	br	25400 <_puts_r+0x68>

0002541c <puts>:
   2541c:	008000f4 	movhi	r2,3
   25420:	1096ef04 	addi	r2,r2,23484
   25424:	200b883a 	mov	r5,r4
   25428:	11000017 	ldw	r4,0(r2)
   2542c:	00253981 	jmpi	25398 <_puts_r>

00025430 <lflush>:
   25430:	20c0030b 	ldhu	r3,12(r4)
   25434:	00800244 	movi	r2,9
   25438:	18c0024c 	andi	r3,r3,9
   2543c:	18800226 	beq	r3,r2,25448 <lflush+0x18>
   25440:	0005883a 	mov	r2,zero
   25444:	f800283a 	ret
   25448:	00234e01 	jmpi	234e0 <fflush>

0002544c <__srefill_r>:
   2544c:	defffd04 	addi	sp,sp,-12
   25450:	dc400115 	stw	r17,4(sp)
   25454:	dc000015 	stw	r16,0(sp)
   25458:	dfc00215 	stw	ra,8(sp)
   2545c:	2023883a 	mov	r17,r4
   25460:	2821883a 	mov	r16,r5
   25464:	20000226 	beq	r4,zero,25470 <__srefill_r+0x24>
   25468:	20800e17 	ldw	r2,56(r4)
   2546c:	10004426 	beq	r2,zero,25580 <__srefill_r+0x134>
   25470:	8080030b 	ldhu	r2,12(r16)
   25474:	80000115 	stw	zero,4(r16)
   25478:	10c0080c 	andi	r3,r2,32
   2547c:	18ffffcc 	andi	r3,r3,65535
   25480:	18e0001c 	xori	r3,r3,32768
   25484:	18e00004 	addi	r3,r3,-32768
   25488:	1800371e 	bne	r3,zero,25568 <__srefill_r+0x11c>
   2548c:	10c0010c 	andi	r3,r2,4
   25490:	18ffffcc 	andi	r3,r3,65535
   25494:	18e0001c 	xori	r3,r3,32768
   25498:	18e00004 	addi	r3,r3,-32768
   2549c:	18002226 	beq	r3,zero,25528 <__srefill_r+0xdc>
   254a0:	81400c17 	ldw	r5,48(r16)
   254a4:	28000826 	beq	r5,zero,254c8 <__srefill_r+0x7c>
   254a8:	80801004 	addi	r2,r16,64
   254ac:	28800226 	beq	r5,r2,254b8 <__srefill_r+0x6c>
   254b0:	8809883a 	mov	r4,r17
   254b4:	0023d000 	call	23d00 <_free_r>
   254b8:	80800f17 	ldw	r2,60(r16)
   254bc:	80000c15 	stw	zero,48(r16)
   254c0:	80800115 	stw	r2,4(r16)
   254c4:	1000401e 	bne	r2,zero,255c8 <__srefill_r+0x17c>
   254c8:	80800417 	ldw	r2,16(r16)
   254cc:	10005026 	beq	r2,zero,25610 <__srefill_r+0x1c4>
   254d0:	8080030b 	ldhu	r2,12(r16)
   254d4:	108000cc 	andi	r2,r2,3
   254d8:	10002b1e 	bne	r2,zero,25588 <__srefill_r+0x13c>
   254dc:	81800417 	ldw	r6,16(r16)
   254e0:	80800817 	ldw	r2,32(r16)
   254e4:	81400717 	ldw	r5,28(r16)
   254e8:	81c00517 	ldw	r7,20(r16)
   254ec:	8809883a 	mov	r4,r17
   254f0:	81800015 	stw	r6,0(r16)
   254f4:	103ee83a 	callr	r2
   254f8:	8100030b 	ldhu	r4,12(r16)
   254fc:	00f7ffc4 	movi	r3,-8193
   25500:	80800115 	stw	r2,4(r16)
   25504:	20c6703a 	and	r3,r4,r3
   25508:	80c0030d 	sth	r3,12(r16)
   2550c:	0080130e 	bge	zero,r2,2555c <__srefill_r+0x110>
   25510:	0005883a 	mov	r2,zero
   25514:	dfc00217 	ldw	ra,8(sp)
   25518:	dc400117 	ldw	r17,4(sp)
   2551c:	dc000017 	ldw	r16,0(sp)
   25520:	dec00304 	addi	sp,sp,12
   25524:	f800283a 	ret
   25528:	10c0040c 	andi	r3,r2,16
   2552c:	18ffffcc 	andi	r3,r3,65535
   25530:	18e0001c 	xori	r3,r3,32768
   25534:	18e00004 	addi	r3,r3,-32768
   25538:	18003926 	beq	r3,zero,25620 <__srefill_r+0x1d4>
   2553c:	10c0020c 	andi	r3,r2,8
   25540:	18ffffcc 	andi	r3,r3,65535
   25544:	18e0001c 	xori	r3,r3,32768
   25548:	18e00004 	addi	r3,r3,-32768
   2554c:	1800261e 	bne	r3,zero,255e8 <__srefill_r+0x19c>
   25550:	10800114 	ori	r2,r2,4
   25554:	8080030d 	sth	r2,12(r16)
   25558:	003fdb06 	br	254c8 <__srefill_r+0x7c>
   2555c:	1000111e 	bne	r2,zero,255a4 <__srefill_r+0x158>
   25560:	18c00814 	ori	r3,r3,32
   25564:	80c0030d 	sth	r3,12(r16)
   25568:	00bfffc4 	movi	r2,-1
   2556c:	dfc00217 	ldw	ra,8(sp)
   25570:	dc400117 	ldw	r17,4(sp)
   25574:	dc000017 	ldw	r16,0(sp)
   25578:	dec00304 	addi	sp,sp,12
   2557c:	f800283a 	ret
   25580:	00235b40 	call	235b4 <__sinit>
   25584:	003fba06 	br	25470 <__srefill_r+0x24>
   25588:	008000f4 	movhi	r2,3
   2558c:	1096ee04 	addi	r2,r2,23480
   25590:	11000017 	ldw	r4,0(r2)
   25594:	014000b4 	movhi	r5,2
   25598:	29550c04 	addi	r5,r5,21552
   2559c:	002452c0 	call	2452c <_fwalk>
   255a0:	003fce06 	br	254dc <__srefill_r+0x90>
   255a4:	18c01014 	ori	r3,r3,64
   255a8:	00bfffc4 	movi	r2,-1
   255ac:	80000115 	stw	zero,4(r16)
   255b0:	80c0030d 	sth	r3,12(r16)
   255b4:	dfc00217 	ldw	ra,8(sp)
   255b8:	dc400117 	ldw	r17,4(sp)
   255bc:	dc000017 	ldw	r16,0(sp)
   255c0:	dec00304 	addi	sp,sp,12
   255c4:	f800283a 	ret
   255c8:	80c00e17 	ldw	r3,56(r16)
   255cc:	0005883a 	mov	r2,zero
   255d0:	80c00015 	stw	r3,0(r16)
   255d4:	dfc00217 	ldw	ra,8(sp)
   255d8:	dc400117 	ldw	r17,4(sp)
   255dc:	dc000017 	ldw	r16,0(sp)
   255e0:	dec00304 	addi	sp,sp,12
   255e4:	f800283a 	ret
   255e8:	8809883a 	mov	r4,r17
   255ec:	800b883a 	mov	r5,r16
   255f0:	00232f80 	call	232f8 <_fflush_r>
   255f4:	103fdc1e 	bne	r2,zero,25568 <__srefill_r+0x11c>
   255f8:	8080030b 	ldhu	r2,12(r16)
   255fc:	00fffdc4 	movi	r3,-9
   25600:	80000215 	stw	zero,8(r16)
   25604:	1884703a 	and	r2,r3,r2
   25608:	80000615 	stw	zero,24(r16)
   2560c:	003fd006 	br	25550 <__srefill_r+0x104>
   25610:	8809883a 	mov	r4,r17
   25614:	800b883a 	mov	r5,r16
   25618:	002477c0 	call	2477c <__smakebuf_r>
   2561c:	003fac06 	br	254d0 <__srefill_r+0x84>
   25620:	00c00244 	movi	r3,9
   25624:	10801014 	ori	r2,r2,64
   25628:	88c00015 	stw	r3,0(r17)
   2562c:	8080030d 	sth	r2,12(r16)
   25630:	00bfffc4 	movi	r2,-1
   25634:	003fb706 	br	25514 <__srefill_r+0xc8>

00025638 <_rewind_r>:
   25638:	defffe04 	addi	sp,sp,-8
   2563c:	000d883a 	mov	r6,zero
   25640:	000f883a 	mov	r7,zero
   25644:	dc000015 	stw	r16,0(sp)
   25648:	dfc00115 	stw	ra,4(sp)
   2564c:	2821883a 	mov	r16,r5
   25650:	002402c0 	call	2402c <_fseek_r>
   25654:	8080030b 	ldhu	r2,12(r16)
   25658:	10bfe7cc 	andi	r2,r2,65439
   2565c:	8080030d 	sth	r2,12(r16)
   25660:	dfc00117 	ldw	ra,4(sp)
   25664:	dc000017 	ldw	r16,0(sp)
   25668:	dec00204 	addi	sp,sp,8
   2566c:	f800283a 	ret

00025670 <rewind>:
   25670:	008000f4 	movhi	r2,3
   25674:	1096ef04 	addi	r2,r2,23484
   25678:	200b883a 	mov	r5,r4
   2567c:	11000017 	ldw	r4,0(r2)
   25680:	00256381 	jmpi	25638 <_rewind_r>

00025684 <_sbrk_r>:
   25684:	defffd04 	addi	sp,sp,-12
   25688:	dc400115 	stw	r17,4(sp)
   2568c:	dc000015 	stw	r16,0(sp)
   25690:	2023883a 	mov	r17,r4
   25694:	040000f4 	movhi	r16,3
   25698:	8419d604 	addi	r16,r16,26456
   2569c:	2809883a 	mov	r4,r5
   256a0:	dfc00215 	stw	ra,8(sp)
   256a4:	80000015 	stw	zero,0(r16)
   256a8:	0032a940 	call	32a94 <sbrk>
   256ac:	00ffffc4 	movi	r3,-1
   256b0:	10c00526 	beq	r2,r3,256c8 <_sbrk_r+0x44>
   256b4:	dfc00217 	ldw	ra,8(sp)
   256b8:	dc400117 	ldw	r17,4(sp)
   256bc:	dc000017 	ldw	r16,0(sp)
   256c0:	dec00304 	addi	sp,sp,12
   256c4:	f800283a 	ret
   256c8:	80c00017 	ldw	r3,0(r16)
   256cc:	183ff926 	beq	r3,zero,256b4 <_sbrk_r+0x30>
   256d0:	88c00015 	stw	r3,0(r17)
   256d4:	dfc00217 	ldw	ra,8(sp)
   256d8:	dc400117 	ldw	r17,4(sp)
   256dc:	dc000017 	ldw	r16,0(sp)
   256e0:	dec00304 	addi	sp,sp,12
   256e4:	f800283a 	ret

000256e8 <__sread>:
   256e8:	defffe04 	addi	sp,sp,-8
   256ec:	dc000015 	stw	r16,0(sp)
   256f0:	2821883a 	mov	r16,r5
   256f4:	2940038f 	ldh	r5,14(r5)
   256f8:	dfc00115 	stw	ra,4(sp)
   256fc:	002c4c80 	call	2c4c8 <_read_r>
   25700:	10000716 	blt	r2,zero,25720 <__sread+0x38>
   25704:	80c01417 	ldw	r3,80(r16)
   25708:	1887883a 	add	r3,r3,r2
   2570c:	80c01415 	stw	r3,80(r16)
   25710:	dfc00117 	ldw	ra,4(sp)
   25714:	dc000017 	ldw	r16,0(sp)
   25718:	dec00204 	addi	sp,sp,8
   2571c:	f800283a 	ret
   25720:	80c0030b 	ldhu	r3,12(r16)
   25724:	18fbffcc 	andi	r3,r3,61439
   25728:	80c0030d 	sth	r3,12(r16)
   2572c:	dfc00117 	ldw	ra,4(sp)
   25730:	dc000017 	ldw	r16,0(sp)
   25734:	dec00204 	addi	sp,sp,8
   25738:	f800283a 	ret

0002573c <__swrite>:
   2573c:	2880030b 	ldhu	r2,12(r5)
   25740:	defffb04 	addi	sp,sp,-20
   25744:	dcc00315 	stw	r19,12(sp)
   25748:	10c0400c 	andi	r3,r2,256
   2574c:	18ffffcc 	andi	r3,r3,65535
   25750:	18e0001c 	xori	r3,r3,32768
   25754:	dc800215 	stw	r18,8(sp)
   25758:	dc400115 	stw	r17,4(sp)
   2575c:	dc000015 	stw	r16,0(sp)
   25760:	dfc00415 	stw	ra,16(sp)
   25764:	18e00004 	addi	r3,r3,-32768
   25768:	2821883a 	mov	r16,r5
   2576c:	2027883a 	mov	r19,r4
   25770:	3025883a 	mov	r18,r6
   25774:	3823883a 	mov	r17,r7
   25778:	18000526 	beq	r3,zero,25790 <__swrite+0x54>
   2577c:	2940038f 	ldh	r5,14(r5)
   25780:	000d883a 	mov	r6,zero
   25784:	01c00084 	movi	r7,2
   25788:	002b0a00 	call	2b0a0 <_lseek_r>
   2578c:	8080030b 	ldhu	r2,12(r16)
   25790:	8140038f 	ldh	r5,14(r16)
   25794:	10bbffcc 	andi	r2,r2,61439
   25798:	9809883a 	mov	r4,r19
   2579c:	900d883a 	mov	r6,r18
   257a0:	880f883a 	mov	r7,r17
   257a4:	8080030d 	sth	r2,12(r16)
   257a8:	dfc00417 	ldw	ra,16(sp)
   257ac:	dcc00317 	ldw	r19,12(sp)
   257b0:	dc800217 	ldw	r18,8(sp)
   257b4:	dc400117 	ldw	r17,4(sp)
   257b8:	dc000017 	ldw	r16,0(sp)
   257bc:	dec00504 	addi	sp,sp,20
   257c0:	0028f101 	jmpi	28f10 <_write_r>

000257c4 <__sseek>:
   257c4:	defffe04 	addi	sp,sp,-8
   257c8:	dc000015 	stw	r16,0(sp)
   257cc:	2821883a 	mov	r16,r5
   257d0:	2940038f 	ldh	r5,14(r5)
   257d4:	dfc00115 	stw	ra,4(sp)
   257d8:	002b0a00 	call	2b0a0 <_lseek_r>
   257dc:	00ffffc4 	movi	r3,-1
   257e0:	10c00826 	beq	r2,r3,25804 <__sseek+0x40>
   257e4:	80c0030b 	ldhu	r3,12(r16)
   257e8:	80801415 	stw	r2,80(r16)
   257ec:	18c40014 	ori	r3,r3,4096
   257f0:	80c0030d 	sth	r3,12(r16)
   257f4:	dfc00117 	ldw	ra,4(sp)
   257f8:	dc000017 	ldw	r16,0(sp)
   257fc:	dec00204 	addi	sp,sp,8
   25800:	f800283a 	ret
   25804:	80c0030b 	ldhu	r3,12(r16)
   25808:	18fbffcc 	andi	r3,r3,61439
   2580c:	80c0030d 	sth	r3,12(r16)
   25810:	dfc00117 	ldw	ra,4(sp)
   25814:	dc000017 	ldw	r16,0(sp)
   25818:	dec00204 	addi	sp,sp,8
   2581c:	f800283a 	ret

00025820 <__sclose>:
   25820:	2940038f 	ldh	r5,14(r5)
   25824:	00290f01 	jmpi	290f0 <_close_r>

00025828 <strlen>:
   25828:	208000cc 	andi	r2,r4,3
   2582c:	10001f1e 	bne	r2,zero,258ac <strlen+0x84>
   25830:	20800017 	ldw	r2,0(r4)
   25834:	01ffbff4 	movhi	r7,65279
   25838:	39ffbfc4 	addi	r7,r7,-257
   2583c:	01a02074 	movhi	r6,32897
   25840:	31a02004 	addi	r6,r6,-32640
   25844:	11c7883a 	add	r3,r2,r7
   25848:	0084303a 	nor	r2,zero,r2
   2584c:	1886703a 	and	r3,r3,r2
   25850:	1986703a 	and	r3,r3,r6
   25854:	2005883a 	mov	r2,r4
   25858:	1800101e 	bne	r3,zero,2589c <strlen+0x74>
   2585c:	10800104 	addi	r2,r2,4
   25860:	10c00017 	ldw	r3,0(r2)
   25864:	19cb883a 	add	r5,r3,r7
   25868:	00c6303a 	nor	r3,zero,r3
   2586c:	28c6703a 	and	r3,r5,r3
   25870:	1986703a 	and	r3,r3,r6
   25874:	1800091e 	bne	r3,zero,2589c <strlen+0x74>
   25878:	10800104 	addi	r2,r2,4
   2587c:	10c00017 	ldw	r3,0(r2)
   25880:	19cb883a 	add	r5,r3,r7
   25884:	00c6303a 	nor	r3,zero,r3
   25888:	28c6703a 	and	r3,r5,r3
   2588c:	1986703a 	and	r3,r3,r6
   25890:	183ff226 	beq	r3,zero,2585c <strlen+0x34>
   25894:	00000106 	br	2589c <strlen+0x74>
   25898:	10800044 	addi	r2,r2,1
   2589c:	10c00007 	ldb	r3,0(r2)
   258a0:	183ffd1e 	bne	r3,zero,25898 <strlen+0x70>
   258a4:	1105c83a 	sub	r2,r2,r4
   258a8:	f800283a 	ret
   258ac:	2005883a 	mov	r2,r4
   258b0:	003ffa06 	br	2589c <strlen+0x74>

000258b4 <__sprint_r>:
   258b4:	30800217 	ldw	r2,8(r6)
   258b8:	defffe04 	addi	sp,sp,-8
   258bc:	dc000015 	stw	r16,0(sp)
   258c0:	dfc00115 	stw	ra,4(sp)
   258c4:	3021883a 	mov	r16,r6
   258c8:	10000226 	beq	r2,zero,258d4 <__sprint_r+0x20>
   258cc:	002aa440 	call	2aa44 <__sfvwrite_r>
   258d0:	80000215 	stw	zero,8(r16)
   258d4:	80000115 	stw	zero,4(r16)
   258d8:	dfc00117 	ldw	ra,4(sp)
   258dc:	dc000017 	ldw	r16,0(sp)
   258e0:	dec00204 	addi	sp,sp,8
   258e4:	f800283a 	ret

000258e8 <___vfprintf_internal_r>:
   258e8:	defeb904 	addi	sp,sp,-1308
   258ec:	dc013d15 	stw	r16,1268(sp)
   258f0:	d9013015 	stw	r4,1216(sp)
   258f4:	dfc14615 	stw	ra,1304(sp)
   258f8:	df014515 	stw	fp,1300(sp)
   258fc:	ddc14415 	stw	r23,1296(sp)
   25900:	dd814315 	stw	r22,1292(sp)
   25904:	dd414215 	stw	r21,1288(sp)
   25908:	dd014115 	stw	r20,1284(sp)
   2590c:	dcc14015 	stw	r19,1280(sp)
   25910:	dc813f15 	stw	r18,1276(sp)
   25914:	dc413e15 	stw	r17,1272(sp)
   25918:	d9412915 	stw	r5,1188(sp)
   2591c:	3021883a 	mov	r16,r6
   25920:	d9c12d15 	stw	r7,1204(sp)
   25924:	002b06c0 	call	2b06c <_localeconv_r>
   25928:	10800017 	ldw	r2,0(r2)
   2592c:	d9013017 	ldw	r4,1216(sp)
   25930:	d8013315 	stw	zero,1228(sp)
   25934:	d8813715 	stw	r2,1244(sp)
   25938:	d8013415 	stw	zero,1232(sp)
   2593c:	20000226 	beq	r4,zero,25948 <___vfprintf_internal_r+0x60>
   25940:	20800e17 	ldw	r2,56(r4)
   25944:	10014b26 	beq	r2,zero,25e74 <___vfprintf_internal_r+0x58c>
   25948:	d8c12917 	ldw	r3,1188(sp)
   2594c:	1880030b 	ldhu	r2,12(r3)
   25950:	10c0020c 	andi	r3,r2,8
   25954:	18ffffcc 	andi	r3,r3,65535
   25958:	18e0001c 	xori	r3,r3,32768
   2595c:	18e00004 	addi	r3,r3,-32768
   25960:	1800ed26 	beq	r3,zero,25d18 <___vfprintf_internal_r+0x430>
   25964:	d9012917 	ldw	r4,1188(sp)
   25968:	20c00417 	ldw	r3,16(r4)
   2596c:	1800ea26 	beq	r3,zero,25d18 <___vfprintf_internal_r+0x430>
   25970:	1100068c 	andi	r4,r2,26
   25974:	00c00284 	movi	r3,10
   25978:	20c0f026 	beq	r4,r3,25d3c <___vfprintf_internal_r+0x454>
   2597c:	d9010dc4 	addi	r4,sp,1079
   25980:	d8810e04 	addi	r2,sp,1080
   25984:	dc413017 	ldw	r17,1216(sp)
   25988:	d8c00404 	addi	r3,sp,16
   2598c:	d9012615 	stw	r4,1176(sp)
   25990:	1109c83a 	sub	r4,r2,r4
   25994:	d8812715 	stw	r2,1180(sp)
   25998:	d8c11b15 	stw	r3,1132(sp)
   2599c:	d8011d15 	stw	zero,1140(sp)
   259a0:	d8011c15 	stw	zero,1136(sp)
   259a4:	802b883a 	mov	r21,r16
   259a8:	d8013215 	stw	zero,1224(sp)
   259ac:	d8013615 	stw	zero,1240(sp)
   259b0:	d8013515 	stw	zero,1236(sp)
   259b4:	d8012c15 	stw	zero,1200(sp)
   259b8:	1813883a 	mov	r9,r3
   259bc:	d9013915 	stw	r4,1252(sp)
   259c0:	a8800007 	ldb	r2,0(r21)
   259c4:	1002f326 	beq	r2,zero,26594 <___vfprintf_internal_r+0xcac>
   259c8:	00c00944 	movi	r3,37
   259cc:	a825883a 	mov	r18,r21
   259d0:	10c0021e 	bne	r2,r3,259dc <___vfprintf_internal_r+0xf4>
   259d4:	00001406 	br	25a28 <___vfprintf_internal_r+0x140>
   259d8:	10c00326 	beq	r2,r3,259e8 <___vfprintf_internal_r+0x100>
   259dc:	94800044 	addi	r18,r18,1
   259e0:	90800007 	ldb	r2,0(r18)
   259e4:	103ffc1e 	bne	r2,zero,259d8 <___vfprintf_internal_r+0xf0>
   259e8:	9561c83a 	sub	r16,r18,r21
   259ec:	80000e26 	beq	r16,zero,25a28 <___vfprintf_internal_r+0x140>
   259f0:	da011d17 	ldw	r8,1140(sp)
   259f4:	d8c11c17 	ldw	r3,1136(sp)
   259f8:	4d400015 	stw	r21,0(r9)
   259fc:	4c000115 	stw	r16,4(r9)
   25a00:	4411883a 	add	r8,r8,r16
   25a04:	18c00044 	addi	r3,r3,1
   25a08:	da011d15 	stw	r8,1140(sp)
   25a0c:	d8c11c15 	stw	r3,1136(sp)
   25a10:	008001c4 	movi	r2,7
   25a14:	10c11016 	blt	r2,r3,25e58 <___vfprintf_internal_r+0x570>
   25a18:	4a400204 	addi	r9,r9,8
   25a1c:	d8812c17 	ldw	r2,1200(sp)
   25a20:	1405883a 	add	r2,r2,r16
   25a24:	d8812c15 	stw	r2,1200(sp)
   25a28:	90800007 	ldb	r2,0(r18)
   25a2c:	1000ee26 	beq	r2,zero,25de8 <___vfprintf_internal_r+0x500>
   25a30:	95400044 	addi	r21,r18,1
   25a34:	94800047 	ldb	r18,1(r18)
   25a38:	073fffc4 	movi	fp,-1
   25a3c:	e007883a 	mov	r3,fp
   25a40:	d8012585 	stb	zero,1174(sp)
   25a44:	d8012e15 	stw	zero,1208(sp)
   25a48:	0021883a 	mov	r16,zero
   25a4c:	05001604 	movi	r20,88
   25a50:	04c00244 	movi	r19,9
   25a54:	4839883a 	mov	fp,r9
   25a58:	ad400044 	addi	r21,r21,1
   25a5c:	90bff804 	addi	r2,r18,-32
   25a60:	a080462e 	bgeu	r20,r2,25b7c <___vfprintf_internal_r+0x294>
   25a64:	e013883a 	mov	r9,fp
   25a68:	9000df26 	beq	r18,zero,25de8 <___vfprintf_internal_r+0x500>
   25a6c:	00c00044 	movi	r3,1
   25a70:	d8c12815 	stw	r3,1184(sp)
   25a74:	dc810405 	stb	r18,1040(sp)
   25a78:	d8012585 	stb	zero,1174(sp)
   25a7c:	d8c12b15 	stw	r3,1196(sp)
   25a80:	dcc10404 	addi	r19,sp,1040
   25a84:	d8013115 	stw	zero,1220(sp)
   25a88:	80c0008c 	andi	r3,r16,2
   25a8c:	d8c12a15 	stw	r3,1192(sp)
   25a90:	18000326 	beq	r3,zero,25aa0 <___vfprintf_internal_r+0x1b8>
   25a94:	d8c12817 	ldw	r3,1184(sp)
   25a98:	18c00084 	addi	r3,r3,2
   25a9c:	d8c12815 	stw	r3,1184(sp)
   25aa0:	80c0210c 	andi	r3,r16,132
   25aa4:	d8c12f15 	stw	r3,1212(sp)
   25aa8:	1802251e 	bne	r3,zero,26340 <___vfprintf_internal_r+0xa58>
   25aac:	d9012e17 	ldw	r4,1208(sp)
   25ab0:	d8c12817 	ldw	r3,1184(sp)
   25ab4:	20edc83a 	sub	r22,r4,r3
   25ab8:	0582210e 	bge	zero,r22,26340 <___vfprintf_internal_r+0xa58>
   25abc:	02800404 	movi	r10,16
   25ac0:	da011d17 	ldw	r8,1140(sp)
   25ac4:	d8c11c17 	ldw	r3,1136(sp)
   25ac8:	05c000f4 	movhi	r23,3
   25acc:	bdd30d84 	addi	r23,r23,19510
   25ad0:	5580200e 	bge	r10,r22,25b54 <___vfprintf_internal_r+0x26c>
   25ad4:	dc813815 	stw	r18,1248(sp)
   25ad8:	5039883a 	mov	fp,r10
   25adc:	b825883a 	mov	r18,r23
   25ae0:	050001c4 	movi	r20,7
   25ae4:	b02f883a 	mov	r23,r22
   25ae8:	802d883a 	mov	r22,r16
   25aec:	dc012917 	ldw	r16,1188(sp)
   25af0:	00000306 	br	25b00 <___vfprintf_internal_r+0x218>
   25af4:	bdfffc04 	addi	r23,r23,-16
   25af8:	4a400204 	addi	r9,r9,8
   25afc:	e5c0110e 	bge	fp,r23,25b44 <___vfprintf_internal_r+0x25c>
   25b00:	4c800015 	stw	r18,0(r9)
   25b04:	4f000115 	stw	fp,4(r9)
   25b08:	42000404 	addi	r8,r8,16
   25b0c:	18c00044 	addi	r3,r3,1
   25b10:	da011d15 	stw	r8,1140(sp)
   25b14:	d8c11c15 	stw	r3,1136(sp)
   25b18:	a0fff60e 	bge	r20,r3,25af4 <___vfprintf_internal_r+0x20c>
   25b1c:	8809883a 	mov	r4,r17
   25b20:	800b883a 	mov	r5,r16
   25b24:	d9811b04 	addi	r6,sp,1132
   25b28:	00258b40 	call	258b4 <__sprint_r>
   25b2c:	1000b41e 	bne	r2,zero,25e00 <___vfprintf_internal_r+0x518>
   25b30:	bdfffc04 	addi	r23,r23,-16
   25b34:	da011d17 	ldw	r8,1140(sp)
   25b38:	d8c11c17 	ldw	r3,1136(sp)
   25b3c:	da400404 	addi	r9,sp,16
   25b40:	e5ffef16 	blt	fp,r23,25b00 <___vfprintf_internal_r+0x218>
   25b44:	b021883a 	mov	r16,r22
   25b48:	b82d883a 	mov	r22,r23
   25b4c:	902f883a 	mov	r23,r18
   25b50:	dc813817 	ldw	r18,1248(sp)
   25b54:	4dc00015 	stw	r23,0(r9)
   25b58:	4d800115 	stw	r22,4(r9)
   25b5c:	4591883a 	add	r8,r8,r22
   25b60:	18c00044 	addi	r3,r3,1
   25b64:	da011d15 	stw	r8,1140(sp)
   25b68:	d8c11c15 	stw	r3,1136(sp)
   25b6c:	008001c4 	movi	r2,7
   25b70:	10c3fe16 	blt	r2,r3,26b6c <___vfprintf_internal_r+0x1284>
   25b74:	4a400204 	addi	r9,r9,8
   25b78:	0001f306 	br	26348 <___vfprintf_internal_r+0xa60>
   25b7c:	1085883a 	add	r2,r2,r2
   25b80:	1085883a 	add	r2,r2,r2
   25b84:	010000b4 	movhi	r4,2
   25b88:	2116e604 	addi	r4,r4,23448
   25b8c:	1105883a 	add	r2,r2,r4
   25b90:	10800017 	ldw	r2,0(r2)
   25b94:	1000683a 	jmp	r2
   25b98:	00026274 	movhi	zero,2441
   25b9c:	00025a64 	muli	zero,zero,2409
   25ba0:	00025a64 	muli	zero,zero,2409
   25ba4:	0002628c 	andi	zero,zero,2442
   25ba8:	00025a64 	muli	zero,zero,2409
   25bac:	00025a64 	muli	zero,zero,2409
   25bb0:	00025a64 	muli	zero,zero,2409
   25bb4:	00025a64 	muli	zero,zero,2409
   25bb8:	00025a64 	muli	zero,zero,2409
   25bbc:	00025a64 	muli	zero,zero,2409
   25bc0:	00026144 	movi	zero,2437
   25bc4:	000262d8 	cmpnei	zero,zero,2443
   25bc8:	00025a64 	muli	zero,zero,2409
   25bcc:	00025d0c 	andi	zero,zero,2420
   25bd0:	000260ac 	andhi	zero,zero,2434
   25bd4:	00025a64 	muli	zero,zero,2409
   25bd8:	00026298 	cmpnei	zero,zero,2442
   25bdc:	000262a4 	muli	zero,zero,2442
   25be0:	000262a4 	muli	zero,zero,2442
   25be4:	000262a4 	muli	zero,zero,2442
   25be8:	000262a4 	muli	zero,zero,2442
   25bec:	000262a4 	muli	zero,zero,2442
   25bf0:	000262a4 	muli	zero,zero,2442
   25bf4:	000262a4 	muli	zero,zero,2442
   25bf8:	000262a4 	muli	zero,zero,2442
   25bfc:	000262a4 	muli	zero,zero,2442
   25c00:	00025a64 	muli	zero,zero,2409
   25c04:	00025a64 	muli	zero,zero,2409
   25c08:	00025a64 	muli	zero,zero,2409
   25c0c:	00025a64 	muli	zero,zero,2409
   25c10:	00025a64 	muli	zero,zero,2409
   25c14:	00025a64 	muli	zero,zero,2409
   25c18:	00025a64 	muli	zero,zero,2409
   25c1c:	00025a64 	muli	zero,zero,2409
   25c20:	00025a64 	muli	zero,zero,2409
   25c24:	00025a64 	muli	zero,zero,2409
   25c28:	00025e7c 	xorhi	zero,zero,2425
   25c2c:	00025f3c 	xorhi	zero,zero,2428
   25c30:	00025a64 	muli	zero,zero,2409
   25c34:	00025f3c 	xorhi	zero,zero,2428
   25c38:	00025a64 	muli	zero,zero,2409
   25c3c:	00025a64 	muli	zero,zero,2409
   25c40:	00025a64 	muli	zero,zero,2409
   25c44:	00025a64 	muli	zero,zero,2409
   25c48:	00025fd0 	cmplti	zero,zero,2431
   25c4c:	00025a64 	muli	zero,zero,2409
   25c50:	00025a64 	muli	zero,zero,2409
   25c54:	00025fdc 	xori	zero,zero,2431
   25c58:	00025a64 	muli	zero,zero,2409
   25c5c:	00025a64 	muli	zero,zero,2409
   25c60:	00025a64 	muli	zero,zero,2409
   25c64:	00025a64 	muli	zero,zero,2409
   25c68:	00025a64 	muli	zero,zero,2409
   25c6c:	00026014 	movui	zero,2432
   25c70:	00025a64 	muli	zero,zero,2409
   25c74:	00025a64 	muli	zero,zero,2409
   25c78:	00026050 	cmplti	zero,zero,2433
   25c7c:	00025a64 	muli	zero,zero,2409
   25c80:	00025a64 	muli	zero,zero,2409
   25c84:	00025a64 	muli	zero,zero,2409
   25c88:	00025a64 	muli	zero,zero,2409
   25c8c:	00025a64 	muli	zero,zero,2409
   25c90:	00025a64 	muli	zero,zero,2409
   25c94:	00025a64 	muli	zero,zero,2409
   25c98:	00025a64 	muli	zero,zero,2409
   25c9c:	00025a64 	muli	zero,zero,2409
   25ca0:	00025a64 	muli	zero,zero,2409
   25ca4:	000262e8 	cmpgeui	zero,zero,2443
   25ca8:	0002631c 	xori	zero,zero,2444
   25cac:	00025f3c 	xorhi	zero,zero,2428
   25cb0:	00025f3c 	xorhi	zero,zero,2428
   25cb4:	00025f3c 	xorhi	zero,zero,2428
   25cb8:	00026268 	cmpgeui	zero,zero,2441
   25cbc:	0002631c 	xori	zero,zero,2444
   25cc0:	00025a64 	muli	zero,zero,2409
   25cc4:	00025a64 	muli	zero,zero,2409
   25cc8:	000260f4 	movhi	zero,2435
   25ccc:	00025a64 	muli	zero,zero,2409
   25cd0:	0002610c 	andi	zero,zero,2436
   25cd4:	00026328 	cmpgeui	zero,zero,2444
   25cd8:	0002616c 	andhi	zero,zero,2437
   25cdc:	000261bc 	xorhi	zero,zero,2438
   25ce0:	00025a64 	muli	zero,zero,2409
   25ce4:	000261c8 	cmpgei	zero,zero,2439
   25ce8:	00025a64 	muli	zero,zero,2409
   25cec:	00026334 	movhi	zero,2444
   25cf0:	00025a64 	muli	zero,zero,2409
   25cf4:	00025a64 	muli	zero,zero,2409
   25cf8:	0002622c 	andhi	zero,zero,2440
   25cfc:	d9012e17 	ldw	r4,1208(sp)
   25d00:	d8812d15 	stw	r2,1204(sp)
   25d04:	0109c83a 	sub	r4,zero,r4
   25d08:	d9012e15 	stw	r4,1208(sp)
   25d0c:	84000114 	ori	r16,r16,4
   25d10:	ac800007 	ldb	r18,0(r21)
   25d14:	003f5006 	br	25a58 <___vfprintf_internal_r+0x170>
   25d18:	d9013017 	ldw	r4,1216(sp)
   25d1c:	d9412917 	ldw	r5,1188(sp)
   25d20:	0028f7c0 	call	28f7c <__swsetup_r>
   25d24:	10003d1e 	bne	r2,zero,25e1c <___vfprintf_internal_r+0x534>
   25d28:	d8c12917 	ldw	r3,1188(sp)
   25d2c:	1880030b 	ldhu	r2,12(r3)
   25d30:	00c00284 	movi	r3,10
   25d34:	1100068c 	andi	r4,r2,26
   25d38:	20ff101e 	bne	r4,r3,2597c <___vfprintf_internal_r+0x94>
   25d3c:	d9012917 	ldw	r4,1188(sp)
   25d40:	20c0038b 	ldhu	r3,14(r4)
   25d44:	193fffcc 	andi	r4,r3,65535
   25d48:	2120001c 	xori	r4,r4,32768
   25d4c:	21200004 	addi	r4,r4,-32768
   25d50:	203f0a16 	blt	r4,zero,2597c <___vfprintf_internal_r+0x94>
   25d54:	d9012917 	ldw	r4,1188(sp)
   25d58:	d9c12d17 	ldw	r7,1204(sp)
   25d5c:	10bfff4c 	andi	r2,r2,65533
   25d60:	22800717 	ldw	r10,28(r4)
   25d64:	22400917 	ldw	r9,36(r4)
   25d68:	d9013017 	ldw	r4,1216(sp)
   25d6c:	02010004 	movi	r8,1024
   25d70:	d881070d 	sth	r2,1052(sp)
   25d74:	d9410404 	addi	r5,sp,1040
   25d78:	d8800404 	addi	r2,sp,16
   25d7c:	800d883a 	mov	r6,r16
   25d80:	d8c1078d 	sth	r3,1054(sp)
   25d84:	da810b15 	stw	r10,1068(sp)
   25d88:	da410d15 	stw	r9,1076(sp)
   25d8c:	d8810415 	stw	r2,1040(sp)
   25d90:	d8810815 	stw	r2,1056(sp)
   25d94:	da010615 	stw	r8,1048(sp)
   25d98:	da010915 	stw	r8,1060(sp)
   25d9c:	d8010a15 	stw	zero,1064(sp)
   25da0:	00258e80 	call	258e8 <___vfprintf_internal_r>
   25da4:	d8812c15 	stw	r2,1200(sp)
   25da8:	10000416 	blt	r2,zero,25dbc <___vfprintf_internal_r+0x4d4>
   25dac:	d9013017 	ldw	r4,1216(sp)
   25db0:	d9410404 	addi	r5,sp,1040
   25db4:	00232f80 	call	232f8 <_fflush_r>
   25db8:	1006501e 	bne	r2,zero,276fc <___vfprintf_internal_r+0x1e14>
   25dbc:	d881070b 	ldhu	r2,1052(sp)
   25dc0:	1080100c 	andi	r2,r2,64
   25dc4:	10bfffcc 	andi	r2,r2,65535
   25dc8:	10a0001c 	xori	r2,r2,32768
   25dcc:	10a00004 	addi	r2,r2,-32768
   25dd0:	10001426 	beq	r2,zero,25e24 <___vfprintf_internal_r+0x53c>
   25dd4:	d8c12917 	ldw	r3,1188(sp)
   25dd8:	1880030b 	ldhu	r2,12(r3)
   25ddc:	10801014 	ori	r2,r2,64
   25de0:	1880030d 	sth	r2,12(r3)
   25de4:	00000f06 	br	25e24 <___vfprintf_internal_r+0x53c>
   25de8:	d8811d17 	ldw	r2,1140(sp)
   25dec:	10000426 	beq	r2,zero,25e00 <___vfprintf_internal_r+0x518>
   25df0:	d9013017 	ldw	r4,1216(sp)
   25df4:	d9412917 	ldw	r5,1188(sp)
   25df8:	d9811b04 	addi	r6,sp,1132
   25dfc:	00258b40 	call	258b4 <__sprint_r>
   25e00:	d8c12917 	ldw	r3,1188(sp)
   25e04:	1880030b 	ldhu	r2,12(r3)
   25e08:	1080100c 	andi	r2,r2,64
   25e0c:	10bfffcc 	andi	r2,r2,65535
   25e10:	10a0001c 	xori	r2,r2,32768
   25e14:	10a00004 	addi	r2,r2,-32768
   25e18:	10000226 	beq	r2,zero,25e24 <___vfprintf_internal_r+0x53c>
   25e1c:	00bfffc4 	movi	r2,-1
   25e20:	d8812c15 	stw	r2,1200(sp)
   25e24:	d8812c17 	ldw	r2,1200(sp)
   25e28:	dfc14617 	ldw	ra,1304(sp)
   25e2c:	df014517 	ldw	fp,1300(sp)
   25e30:	ddc14417 	ldw	r23,1296(sp)
   25e34:	dd814317 	ldw	r22,1292(sp)
   25e38:	dd414217 	ldw	r21,1288(sp)
   25e3c:	dd014117 	ldw	r20,1284(sp)
   25e40:	dcc14017 	ldw	r19,1280(sp)
   25e44:	dc813f17 	ldw	r18,1276(sp)
   25e48:	dc413e17 	ldw	r17,1272(sp)
   25e4c:	dc013d17 	ldw	r16,1268(sp)
   25e50:	dec14704 	addi	sp,sp,1308
   25e54:	f800283a 	ret
   25e58:	d9412917 	ldw	r5,1188(sp)
   25e5c:	8809883a 	mov	r4,r17
   25e60:	d9811b04 	addi	r6,sp,1132
   25e64:	00258b40 	call	258b4 <__sprint_r>
   25e68:	103fe51e 	bne	r2,zero,25e00 <___vfprintf_internal_r+0x518>
   25e6c:	da400404 	addi	r9,sp,16
   25e70:	003eea06 	br	25a1c <___vfprintf_internal_r+0x134>
   25e74:	00235b40 	call	235b4 <__sinit>
   25e78:	003eb306 	br	25948 <___vfprintf_internal_r+0x60>
   25e7c:	e013883a 	mov	r9,fp
   25e80:	84000414 	ori	r16,r16,16
   25e84:	1839883a 	mov	fp,r3
   25e88:	8080080c 	andi	r2,r16,32
   25e8c:	10034426 	beq	r2,zero,26ba0 <___vfprintf_internal_r+0x12b8>
   25e90:	d8c12d17 	ldw	r3,1204(sp)
   25e94:	18800117 	ldw	r2,4(r3)
   25e98:	1dc00017 	ldw	r23,0(r3)
   25e9c:	18c00204 	addi	r3,r3,8
   25ea0:	d8c12d15 	stw	r3,1204(sp)
   25ea4:	102d883a 	mov	r22,r2
   25ea8:	1003020e 	bge	r2,zero,26ab4 <___vfprintf_internal_r+0x11cc>
   25eac:	05efc83a 	sub	r23,zero,r23
   25eb0:	b804c03a 	cmpne	r2,r23,zero
   25eb4:	05adc83a 	sub	r22,zero,r22
   25eb8:	b0adc83a 	sub	r22,r22,r2
   25ebc:	00800b44 	movi	r2,45
   25ec0:	d8812585 	stb	r2,1174(sp)
   25ec4:	00c00044 	movi	r3,1
   25ec8:	bd84b03a 	or	r2,r23,r22
   25ecc:	e0000216 	blt	fp,zero,25ed8 <___vfprintf_internal_r+0x5f0>
   25ed0:	013fdfc4 	movi	r4,-129
   25ed4:	8120703a 	and	r16,r16,r4
   25ed8:	1001cc1e 	bne	r2,zero,2660c <___vfprintf_internal_r+0xd24>
   25edc:	e001cb1e 	bne	fp,zero,2660c <___vfprintf_internal_r+0xd24>
   25ee0:	18c03fcc 	andi	r3,r3,255
   25ee4:	1802ca1e 	bne	r3,zero,26a10 <___vfprintf_internal_r+0x1128>
   25ee8:	8080004c 	andi	r2,r16,1
   25eec:	1002c826 	beq	r2,zero,26a10 <___vfprintf_internal_r+0x1128>
   25ef0:	d8c13917 	ldw	r3,1252(sp)
   25ef4:	00800c04 	movi	r2,48
   25ef8:	d8810dc5 	stb	r2,1079(sp)
   25efc:	d8c12b15 	stw	r3,1196(sp)
   25f00:	dcc10dc4 	addi	r19,sp,1079
   25f04:	d8812b17 	ldw	r2,1196(sp)
   25f08:	d8812815 	stw	r2,1184(sp)
   25f0c:	1700010e 	bge	r2,fp,25f14 <___vfprintf_internal_r+0x62c>
   25f10:	df012815 	stw	fp,1184(sp)
   25f14:	d8812583 	ldbu	r2,1174(sp)
   25f18:	df013115 	stw	fp,1220(sp)
   25f1c:	10803fcc 	andi	r2,r2,255
   25f20:	1080201c 	xori	r2,r2,128
   25f24:	10bfe004 	addi	r2,r2,-128
   25f28:	103ed726 	beq	r2,zero,25a88 <___vfprintf_internal_r+0x1a0>
   25f2c:	d8c12817 	ldw	r3,1184(sp)
   25f30:	18c00044 	addi	r3,r3,1
   25f34:	d8c12815 	stw	r3,1184(sp)
   25f38:	003ed306 	br	25a88 <___vfprintf_internal_r+0x1a0>
   25f3c:	8080020c 	andi	r2,r16,8
   25f40:	e013883a 	mov	r9,fp
   25f44:	1839883a 	mov	fp,r3
   25f48:	1003a626 	beq	r2,zero,26de4 <___vfprintf_internal_r+0x14fc>
   25f4c:	d9012d17 	ldw	r4,1204(sp)
   25f50:	25800017 	ldw	r22,0(r4)
   25f54:	25000117 	ldw	r20,4(r4)
   25f58:	21000204 	addi	r4,r4,8
   25f5c:	d9012d15 	stw	r4,1204(sp)
   25f60:	dd813315 	stw	r22,1228(sp)
   25f64:	dd013415 	stw	r20,1232(sp)
   25f68:	b009883a 	mov	r4,r22
   25f6c:	a00b883a 	mov	r5,r20
   25f70:	da413c15 	stw	r9,1264(sp)
   25f74:	002cb300 	call	2cb30 <__isinfd>
   25f78:	da413c17 	ldw	r9,1264(sp)
   25f7c:	b009883a 	mov	r4,r22
   25f80:	a00b883a 	mov	r5,r20
   25f84:	10041d26 	beq	r2,zero,26ffc <___vfprintf_internal_r+0x1714>
   25f88:	000d883a 	mov	r6,zero
   25f8c:	000f883a 	mov	r7,zero
   25f90:	00317ac0 	call	317ac <__ltdf2>
   25f94:	da413c17 	ldw	r9,1264(sp)
   25f98:	1004da16 	blt	r2,zero,27304 <___vfprintf_internal_r+0x1a1c>
   25f9c:	d8812583 	ldbu	r2,1174(sp)
   25fa0:	00c011c4 	movi	r3,71
   25fa4:	1c83d116 	blt	r3,r18,26eec <___vfprintf_internal_r+0x1604>
   25fa8:	04c000f4 	movhi	r19,3
   25fac:	9cd2fd04 	addi	r19,r19,19444
   25fb0:	00c000c4 	movi	r3,3
   25fb4:	d8c12815 	stw	r3,1184(sp)
   25fb8:	00ffdfc4 	movi	r3,-129
   25fbc:	80e0703a 	and	r16,r16,r3
   25fc0:	d8c12817 	ldw	r3,1184(sp)
   25fc4:	d8013115 	stw	zero,1220(sp)
   25fc8:	d8c12b15 	stw	r3,1196(sp)
   25fcc:	003fd306 	br	25f1c <___vfprintf_internal_r+0x634>
   25fd0:	84000214 	ori	r16,r16,8
   25fd4:	ac800007 	ldb	r18,0(r21)
   25fd8:	003e9f06 	br	25a58 <___vfprintf_internal_r+0x170>
   25fdc:	e013883a 	mov	r9,fp
   25fe0:	84000414 	ori	r16,r16,16
   25fe4:	1839883a 	mov	fp,r3
   25fe8:	8080080c 	andi	r2,r16,32
   25fec:	10031d26 	beq	r2,zero,26c64 <___vfprintf_internal_r+0x137c>
   25ff0:	d8812d17 	ldw	r2,1204(sp)
   25ff4:	0007883a 	mov	r3,zero
   25ff8:	15c00017 	ldw	r23,0(r2)
   25ffc:	15800117 	ldw	r22,4(r2)
   26000:	10800204 	addi	r2,r2,8
   26004:	d8812d15 	stw	r2,1204(sp)
   26008:	d8012585 	stb	zero,1174(sp)
   2600c:	bd84b03a 	or	r2,r23,r22
   26010:	003fae06 	br	25ecc <___vfprintf_internal_r+0x5e4>
   26014:	e013883a 	mov	r9,fp
   26018:	84000414 	ori	r16,r16,16
   2601c:	1839883a 	mov	fp,r3
   26020:	8080080c 	andi	r2,r16,32
   26024:	1002e726 	beq	r2,zero,26bc4 <___vfprintf_internal_r+0x12dc>
   26028:	d8c12d17 	ldw	r3,1204(sp)
   2602c:	d9012d17 	ldw	r4,1204(sp)
   26030:	1dc00017 	ldw	r23,0(r3)
   26034:	1d800117 	ldw	r22,4(r3)
   26038:	21000204 	addi	r4,r4,8
   2603c:	00c00044 	movi	r3,1
   26040:	d9012d15 	stw	r4,1204(sp)
   26044:	bd84b03a 	or	r2,r23,r22
   26048:	d8012585 	stb	zero,1174(sp)
   2604c:	003f9f06 	br	25ecc <___vfprintf_internal_r+0x5e4>
   26050:	e013883a 	mov	r9,fp
   26054:	1839883a 	mov	fp,r3
   26058:	00c000f4 	movhi	r3,3
   2605c:	18d30104 	addi	r3,r3,19460
   26060:	d8c13615 	stw	r3,1240(sp)
   26064:	8080080c 	andi	r2,r16,32
   26068:	10007726 	beq	r2,zero,26248 <___vfprintf_internal_r+0x960>
   2606c:	d9012d17 	ldw	r4,1204(sp)
   26070:	25c00017 	ldw	r23,0(r4)
   26074:	25800117 	ldw	r22,4(r4)
   26078:	21000204 	addi	r4,r4,8
   2607c:	d9012d15 	stw	r4,1204(sp)
   26080:	8080004c 	andi	r2,r16,1
   26084:	1002c226 	beq	r2,zero,26b90 <___vfprintf_internal_r+0x12a8>
   26088:	bd84b03a 	or	r2,r23,r22
   2608c:	10035d26 	beq	r2,zero,26e04 <___vfprintf_internal_r+0x151c>
   26090:	00c00c04 	movi	r3,48
   26094:	d8c12505 	stb	r3,1172(sp)
   26098:	dc812545 	stb	r18,1173(sp)
   2609c:	84000094 	ori	r16,r16,2
   260a0:	00c00084 	movi	r3,2
   260a4:	d8012585 	stb	zero,1174(sp)
   260a8:	003f8806 	br	25ecc <___vfprintf_internal_r+0x5e4>
   260ac:	ac800007 	ldb	r18,0(r21)
   260b0:	00c00a84 	movi	r3,42
   260b4:	adc00044 	addi	r23,r21,1
   260b8:	90c57526 	beq	r18,r3,27690 <___vfprintf_internal_r+0x1da8>
   260bc:	95bff404 	addi	r22,r18,-48
   260c0:	0009883a 	mov	r4,zero
   260c4:	9d84ff36 	bltu	r19,r22,274c4 <___vfprintf_internal_r+0x1bdc>
   260c8:	01400284 	movi	r5,10
   260cc:	0022d140 	call	22d14 <__mulsi3>
   260d0:	bc800007 	ldb	r18,0(r23)
   260d4:	b089883a 	add	r4,r22,r2
   260d8:	bdc00044 	addi	r23,r23,1
   260dc:	95bff404 	addi	r22,r18,-48
   260e0:	9dbff92e 	bgeu	r19,r22,260c8 <___vfprintf_internal_r+0x7e0>
   260e4:	2007883a 	mov	r3,r4
   260e8:	20044316 	blt	r4,zero,271f8 <___vfprintf_internal_r+0x1910>
   260ec:	b82b883a 	mov	r21,r23
   260f0:	003e5a06 	br	25a5c <___vfprintf_internal_r+0x174>
   260f4:	ac800007 	ldb	r18,0(r21)
   260f8:	01001b04 	movi	r4,108
   260fc:	a805883a 	mov	r2,r21
   26100:	91045526 	beq	r18,r4,27258 <___vfprintf_internal_r+0x1970>
   26104:	84000414 	ori	r16,r16,16
   26108:	003e5306 	br	25a58 <___vfprintf_internal_r+0x170>
   2610c:	8080080c 	andi	r2,r16,32
   26110:	e013883a 	mov	r9,fp
   26114:	10034026 	beq	r2,zero,26e18 <___vfprintf_internal_r+0x1530>
   26118:	d9012d17 	ldw	r4,1204(sp)
   2611c:	20800017 	ldw	r2,0(r4)
   26120:	d9012c17 	ldw	r4,1200(sp)
   26124:	2007d7fa 	srai	r3,r4,31
   26128:	d9012d17 	ldw	r4,1204(sp)
   2612c:	10c00115 	stw	r3,4(r2)
   26130:	21000104 	addi	r4,r4,4
   26134:	d9012d15 	stw	r4,1204(sp)
   26138:	d9012c17 	ldw	r4,1200(sp)
   2613c:	11000015 	stw	r4,0(r2)
   26140:	003e1f06 	br	259c0 <___vfprintf_internal_r+0xd8>
   26144:	d9012d17 	ldw	r4,1204(sp)
   26148:	21000017 	ldw	r4,0(r4)
   2614c:	d9012e15 	stw	r4,1208(sp)
   26150:	d9012d17 	ldw	r4,1204(sp)
   26154:	20800104 	addi	r2,r4,4
   26158:	d9012e17 	ldw	r4,1208(sp)
   2615c:	203ee716 	blt	r4,zero,25cfc <___vfprintf_internal_r+0x414>
   26160:	d8812d15 	stw	r2,1204(sp)
   26164:	ac800007 	ldb	r18,0(r21)
   26168:	003e3b06 	br	25a58 <___vfprintf_internal_r+0x170>
   2616c:	e013883a 	mov	r9,fp
   26170:	1839883a 	mov	fp,r3
   26174:	d8c12d17 	ldw	r3,1204(sp)
   26178:	00800c04 	movi	r2,48
   2617c:	010000f4 	movhi	r4,3
   26180:	21130604 	addi	r4,r4,19480
   26184:	1dc00017 	ldw	r23,0(r3)
   26188:	18c00104 	addi	r3,r3,4
   2618c:	d8812505 	stb	r2,1172(sp)
   26190:	00801e04 	movi	r2,120
   26194:	d8812545 	stb	r2,1173(sp)
   26198:	d8c12d15 	stw	r3,1204(sp)
   2619c:	002d883a 	mov	r22,zero
   261a0:	84000094 	ori	r16,r16,2
   261a4:	d9013615 	stw	r4,1240(sp)
   261a8:	00c00084 	movi	r3,2
   261ac:	04801e04 	movi	r18,120
   261b0:	b805883a 	mov	r2,r23
   261b4:	d8012585 	stb	zero,1174(sp)
   261b8:	003f4406 	br	25ecc <___vfprintf_internal_r+0x5e4>
   261bc:	84000814 	ori	r16,r16,32
   261c0:	ac800007 	ldb	r18,0(r21)
   261c4:	003e2406 	br	25a58 <___vfprintf_internal_r+0x170>
   261c8:	d8812d17 	ldw	r2,1204(sp)
   261cc:	d8012585 	stb	zero,1174(sp)
   261d0:	e013883a 	mov	r9,fp
   261d4:	14c00017 	ldw	r19,0(r2)
   261d8:	1839883a 	mov	fp,r3
   261dc:	15c00104 	addi	r23,r2,4
   261e0:	98045526 	beq	r19,zero,27338 <___vfprintf_internal_r+0x1a50>
   261e4:	9809883a 	mov	r4,r19
   261e8:	18043116 	blt	r3,zero,272b0 <___vfprintf_internal_r+0x19c8>
   261ec:	000b883a 	mov	r5,zero
   261f0:	180d883a 	mov	r6,r3
   261f4:	da413c15 	stw	r9,1264(sp)
   261f8:	002b1f40 	call	2b1f4 <memchr>
   261fc:	da413c17 	ldw	r9,1264(sp)
   26200:	10047a26 	beq	r2,zero,273ec <___vfprintf_internal_r+0x1b04>
   26204:	14c5c83a 	sub	r2,r2,r19
   26208:	d8812b15 	stw	r2,1196(sp)
   2620c:	e083d40e 	bge	fp,r2,27160 <___vfprintf_internal_r+0x1878>
   26210:	df012815 	stw	fp,1184(sp)
   26214:	e004e416 	blt	fp,zero,275a8 <___vfprintf_internal_r+0x1cc0>
   26218:	d8812583 	ldbu	r2,1174(sp)
   2621c:	df012b15 	stw	fp,1196(sp)
   26220:	ddc12d15 	stw	r23,1204(sp)
   26224:	d8013115 	stw	zero,1220(sp)
   26228:	003f3c06 	br	25f1c <___vfprintf_internal_r+0x634>
   2622c:	008000f4 	movhi	r2,3
   26230:	10930604 	addi	r2,r2,19480
   26234:	d8813615 	stw	r2,1240(sp)
   26238:	8080080c 	andi	r2,r16,32
   2623c:	e013883a 	mov	r9,fp
   26240:	1839883a 	mov	fp,r3
   26244:	103f891e 	bne	r2,zero,2606c <___vfprintf_internal_r+0x784>
   26248:	8080040c 	andi	r2,r16,16
   2624c:	1002c326 	beq	r2,zero,26d5c <___vfprintf_internal_r+0x1474>
   26250:	d8812d17 	ldw	r2,1204(sp)
   26254:	002d883a 	mov	r22,zero
   26258:	15c00017 	ldw	r23,0(r2)
   2625c:	10800104 	addi	r2,r2,4
   26260:	d8812d15 	stw	r2,1204(sp)
   26264:	003f8606 	br	26080 <___vfprintf_internal_r+0x798>
   26268:	84001014 	ori	r16,r16,64
   2626c:	ac800007 	ldb	r18,0(r21)
   26270:	003df906 	br	25a58 <___vfprintf_internal_r+0x170>
   26274:	d8812587 	ldb	r2,1174(sp)
   26278:	1002e51e 	bne	r2,zero,26e10 <___vfprintf_internal_r+0x1528>
   2627c:	00800804 	movi	r2,32
   26280:	d8812585 	stb	r2,1174(sp)
   26284:	ac800007 	ldb	r18,0(r21)
   26288:	003df306 	br	25a58 <___vfprintf_internal_r+0x170>
   2628c:	84000054 	ori	r16,r16,1
   26290:	ac800007 	ldb	r18,0(r21)
   26294:	003df006 	br	25a58 <___vfprintf_internal_r+0x170>
   26298:	84002014 	ori	r16,r16,128
   2629c:	ac800007 	ldb	r18,0(r21)
   262a0:	003ded06 	br	25a58 <___vfprintf_internal_r+0x170>
   262a4:	0009883a 	mov	r4,zero
   262a8:	95bff404 	addi	r22,r18,-48
   262ac:	182f883a 	mov	r23,r3
   262b0:	01400284 	movi	r5,10
   262b4:	0022d140 	call	22d14 <__mulsi3>
   262b8:	ac800007 	ldb	r18,0(r21)
   262bc:	1589883a 	add	r4,r2,r22
   262c0:	ad400044 	addi	r21,r21,1
   262c4:	95bff404 	addi	r22,r18,-48
   262c8:	9dbff92e 	bgeu	r19,r22,262b0 <___vfprintf_internal_r+0x9c8>
   262cc:	b807883a 	mov	r3,r23
   262d0:	d9012e15 	stw	r4,1208(sp)
   262d4:	003de106 	br	25a5c <___vfprintf_internal_r+0x174>
   262d8:	00800ac4 	movi	r2,43
   262dc:	d8812585 	stb	r2,1174(sp)
   262e0:	ac800007 	ldb	r18,0(r21)
   262e4:	003ddc06 	br	25a58 <___vfprintf_internal_r+0x170>
   262e8:	d8c12d17 	ldw	r3,1204(sp)
   262ec:	d9012d17 	ldw	r4,1204(sp)
   262f0:	e013883a 	mov	r9,fp
   262f4:	18800017 	ldw	r2,0(r3)
   262f8:	21000104 	addi	r4,r4,4
   262fc:	00c00044 	movi	r3,1
   26300:	d8c12815 	stw	r3,1184(sp)
   26304:	d8012585 	stb	zero,1174(sp)
   26308:	d8810405 	stb	r2,1040(sp)
   2630c:	d9012d15 	stw	r4,1204(sp)
   26310:	d8c12b15 	stw	r3,1196(sp)
   26314:	dcc10404 	addi	r19,sp,1040
   26318:	003dda06 	br	25a84 <___vfprintf_internal_r+0x19c>
   2631c:	e013883a 	mov	r9,fp
   26320:	1839883a 	mov	fp,r3
   26324:	003ed806 	br	25e88 <___vfprintf_internal_r+0x5a0>
   26328:	e013883a 	mov	r9,fp
   2632c:	1839883a 	mov	fp,r3
   26330:	003f2d06 	br	25fe8 <___vfprintf_internal_r+0x700>
   26334:	e013883a 	mov	r9,fp
   26338:	1839883a 	mov	fp,r3
   2633c:	003f3806 	br	26020 <___vfprintf_internal_r+0x738>
   26340:	da011d17 	ldw	r8,1140(sp)
   26344:	d8c11c17 	ldw	r3,1136(sp)
   26348:	d8812587 	ldb	r2,1174(sp)
   2634c:	10000b26 	beq	r2,zero,2637c <___vfprintf_internal_r+0xa94>
   26350:	d8812584 	addi	r2,sp,1174
   26354:	48800015 	stw	r2,0(r9)
   26358:	00800044 	movi	r2,1
   2635c:	48800115 	stw	r2,4(r9)
   26360:	4091883a 	add	r8,r8,r2
   26364:	1887883a 	add	r3,r3,r2
   26368:	da011d15 	stw	r8,1140(sp)
   2636c:	d8c11c15 	stw	r3,1136(sp)
   26370:	008001c4 	movi	r2,7
   26374:	10c18e16 	blt	r2,r3,269b0 <___vfprintf_internal_r+0x10c8>
   26378:	4a400204 	addi	r9,r9,8
   2637c:	d9012a17 	ldw	r4,1192(sp)
   26380:	20000b26 	beq	r4,zero,263b0 <___vfprintf_internal_r+0xac8>
   26384:	d8812504 	addi	r2,sp,1172
   26388:	48800015 	stw	r2,0(r9)
   2638c:	00800084 	movi	r2,2
   26390:	48800115 	stw	r2,4(r9)
   26394:	4091883a 	add	r8,r8,r2
   26398:	18c00044 	addi	r3,r3,1
   2639c:	da011d15 	stw	r8,1140(sp)
   263a0:	d8c11c15 	stw	r3,1136(sp)
   263a4:	008001c4 	movi	r2,7
   263a8:	10c17816 	blt	r2,r3,2698c <___vfprintf_internal_r+0x10a4>
   263ac:	4a400204 	addi	r9,r9,8
   263b0:	d9012f17 	ldw	r4,1212(sp)
   263b4:	00802004 	movi	r2,128
   263b8:	2080fc26 	beq	r4,r2,267ac <___vfprintf_internal_r+0xec4>
   263bc:	d8813117 	ldw	r2,1220(sp)
   263c0:	d9012b17 	ldw	r4,1196(sp)
   263c4:	112fc83a 	sub	r23,r2,r4
   263c8:	05c02a0e 	bge	zero,r23,26474 <___vfprintf_internal_r+0xb8c>
   263cc:	07000404 	movi	fp,16
   263d0:	050000f4 	movhi	r20,3
   263d4:	a5131184 	addi	r20,r20,19526
   263d8:	e5c01d0e 	bge	fp,r23,26450 <___vfprintf_internal_r+0xb68>
   263dc:	dc812a15 	stw	r18,1192(sp)
   263e0:	058001c4 	movi	r22,7
   263e4:	a025883a 	mov	r18,r20
   263e8:	8029883a 	mov	r20,r16
   263ec:	dc012917 	ldw	r16,1188(sp)
   263f0:	00000306 	br	26400 <___vfprintf_internal_r+0xb18>
   263f4:	bdfffc04 	addi	r23,r23,-16
   263f8:	4a400204 	addi	r9,r9,8
   263fc:	e5c0110e 	bge	fp,r23,26444 <___vfprintf_internal_r+0xb5c>
   26400:	4c800015 	stw	r18,0(r9)
   26404:	4f000115 	stw	fp,4(r9)
   26408:	42000404 	addi	r8,r8,16
   2640c:	18c00044 	addi	r3,r3,1
   26410:	da011d15 	stw	r8,1140(sp)
   26414:	d8c11c15 	stw	r3,1136(sp)
   26418:	b0fff60e 	bge	r22,r3,263f4 <___vfprintf_internal_r+0xb0c>
   2641c:	8809883a 	mov	r4,r17
   26420:	800b883a 	mov	r5,r16
   26424:	d9811b04 	addi	r6,sp,1132
   26428:	00258b40 	call	258b4 <__sprint_r>
   2642c:	103e741e 	bne	r2,zero,25e00 <___vfprintf_internal_r+0x518>
   26430:	bdfffc04 	addi	r23,r23,-16
   26434:	da011d17 	ldw	r8,1140(sp)
   26438:	d8c11c17 	ldw	r3,1136(sp)
   2643c:	da400404 	addi	r9,sp,16
   26440:	e5ffef16 	blt	fp,r23,26400 <___vfprintf_internal_r+0xb18>
   26444:	a021883a 	mov	r16,r20
   26448:	9029883a 	mov	r20,r18
   2644c:	dc812a17 	ldw	r18,1192(sp)
   26450:	4d000015 	stw	r20,0(r9)
   26454:	4dc00115 	stw	r23,4(r9)
   26458:	45d1883a 	add	r8,r8,r23
   2645c:	18c00044 	addi	r3,r3,1
   26460:	da011d15 	stw	r8,1140(sp)
   26464:	d8c11c15 	stw	r3,1136(sp)
   26468:	008001c4 	movi	r2,7
   2646c:	10c13e16 	blt	r2,r3,26968 <___vfprintf_internal_r+0x1080>
   26470:	4a400204 	addi	r9,r9,8
   26474:	8080400c 	andi	r2,r16,256
   26478:	1000831e 	bne	r2,zero,26688 <___vfprintf_internal_r+0xda0>
   2647c:	d8812b17 	ldw	r2,1196(sp)
   26480:	4cc00015 	stw	r19,0(r9)
   26484:	48800115 	stw	r2,4(r9)
   26488:	4091883a 	add	r8,r8,r2
   2648c:	18c00044 	addi	r3,r3,1
   26490:	da011d15 	stw	r8,1140(sp)
   26494:	d8c11c15 	stw	r3,1136(sp)
   26498:	008001c4 	movi	r2,7
   2649c:	10c05316 	blt	r2,r3,265ec <___vfprintf_internal_r+0xd04>
   264a0:	4a400204 	addi	r9,r9,8
   264a4:	8400010c 	andi	r16,r16,4
   264a8:	80002e26 	beq	r16,zero,26564 <___vfprintf_internal_r+0xc7c>
   264ac:	d8812e17 	ldw	r2,1208(sp)
   264b0:	d8c12817 	ldw	r3,1184(sp)
   264b4:	10e1c83a 	sub	r16,r2,r3
   264b8:	04002a0e 	bge	zero,r16,26564 <___vfprintf_internal_r+0xc7c>
   264bc:	04800404 	movi	r18,16
   264c0:	d8c11c17 	ldw	r3,1136(sp)
   264c4:	05c000f4 	movhi	r23,3
   264c8:	bdd30d84 	addi	r23,r23,19510
   264cc:	9400170e 	bge	r18,r16,2652c <___vfprintf_internal_r+0xc44>
   264d0:	04c001c4 	movi	r19,7
   264d4:	dd012917 	ldw	r20,1188(sp)
   264d8:	00000306 	br	264e8 <___vfprintf_internal_r+0xc00>
   264dc:	843ffc04 	addi	r16,r16,-16
   264e0:	4a400204 	addi	r9,r9,8
   264e4:	9400110e 	bge	r18,r16,2652c <___vfprintf_internal_r+0xc44>
   264e8:	4dc00015 	stw	r23,0(r9)
   264ec:	4c800115 	stw	r18,4(r9)
   264f0:	42000404 	addi	r8,r8,16
   264f4:	18c00044 	addi	r3,r3,1
   264f8:	da011d15 	stw	r8,1140(sp)
   264fc:	d8c11c15 	stw	r3,1136(sp)
   26500:	98fff60e 	bge	r19,r3,264dc <___vfprintf_internal_r+0xbf4>
   26504:	8809883a 	mov	r4,r17
   26508:	a00b883a 	mov	r5,r20
   2650c:	d9811b04 	addi	r6,sp,1132
   26510:	00258b40 	call	258b4 <__sprint_r>
   26514:	103e3a1e 	bne	r2,zero,25e00 <___vfprintf_internal_r+0x518>
   26518:	843ffc04 	addi	r16,r16,-16
   2651c:	da011d17 	ldw	r8,1140(sp)
   26520:	d8c11c17 	ldw	r3,1136(sp)
   26524:	da400404 	addi	r9,sp,16
   26528:	943fef16 	blt	r18,r16,264e8 <___vfprintf_internal_r+0xc00>
   2652c:	4dc00015 	stw	r23,0(r9)
   26530:	4c000115 	stw	r16,4(r9)
   26534:	8211883a 	add	r8,r16,r8
   26538:	18c00044 	addi	r3,r3,1
   2653c:	da011d15 	stw	r8,1140(sp)
   26540:	d8c11c15 	stw	r3,1136(sp)
   26544:	008001c4 	movi	r2,7
   26548:	10c0060e 	bge	r2,r3,26564 <___vfprintf_internal_r+0xc7c>
   2654c:	d9412917 	ldw	r5,1188(sp)
   26550:	8809883a 	mov	r4,r17
   26554:	d9811b04 	addi	r6,sp,1132
   26558:	00258b40 	call	258b4 <__sprint_r>
   2655c:	103e281e 	bne	r2,zero,25e00 <___vfprintf_internal_r+0x518>
   26560:	da011d17 	ldw	r8,1140(sp)
   26564:	dd012817 	ldw	r20,1184(sp)
   26568:	d9012e17 	ldw	r4,1208(sp)
   2656c:	a100010e 	bge	r20,r4,26574 <___vfprintf_internal_r+0xc8c>
   26570:	2029883a 	mov	r20,r4
   26574:	d8812c17 	ldw	r2,1200(sp)
   26578:	1505883a 	add	r2,r2,r20
   2657c:	d8812c15 	stw	r2,1200(sp)
   26580:	4000b91e 	bne	r8,zero,26868 <___vfprintf_internal_r+0xf80>
   26584:	d8011c15 	stw	zero,1136(sp)
   26588:	a8800007 	ldb	r2,0(r21)
   2658c:	da400404 	addi	r9,sp,16
   26590:	103d0d1e 	bne	r2,zero,259c8 <___vfprintf_internal_r+0xe0>
   26594:	a825883a 	mov	r18,r21
   26598:	003d2306 	br	25a28 <___vfprintf_internal_r+0x140>
   2659c:	d9412917 	ldw	r5,1188(sp)
   265a0:	8809883a 	mov	r4,r17
   265a4:	d9811b04 	addi	r6,sp,1132
   265a8:	00258b40 	call	258b4 <__sprint_r>
   265ac:	103e141e 	bne	r2,zero,25e00 <___vfprintf_internal_r+0x518>
   265b0:	da011d17 	ldw	r8,1140(sp)
   265b4:	da400404 	addi	r9,sp,16
   265b8:	8080004c 	andi	r2,r16,1
   265bc:	103fb926 	beq	r2,zero,264a4 <___vfprintf_internal_r+0xbbc>
   265c0:	d8c11c17 	ldw	r3,1136(sp)
   265c4:	d9013717 	ldw	r4,1244(sp)
   265c8:	00800044 	movi	r2,1
   265cc:	48800115 	stw	r2,4(r9)
   265d0:	49000015 	stw	r4,0(r9)
   265d4:	4091883a 	add	r8,r8,r2
   265d8:	1887883a 	add	r3,r3,r2
   265dc:	da011d15 	stw	r8,1140(sp)
   265e0:	d8c11c15 	stw	r3,1136(sp)
   265e4:	008001c4 	movi	r2,7
   265e8:	10ffad0e 	bge	r2,r3,264a0 <___vfprintf_internal_r+0xbb8>
   265ec:	d9412917 	ldw	r5,1188(sp)
   265f0:	8809883a 	mov	r4,r17
   265f4:	d9811b04 	addi	r6,sp,1132
   265f8:	00258b40 	call	258b4 <__sprint_r>
   265fc:	103e001e 	bne	r2,zero,25e00 <___vfprintf_internal_r+0x518>
   26600:	da400404 	addi	r9,sp,16
   26604:	da011d17 	ldw	r8,1140(sp)
   26608:	003fa606 	br	264a4 <___vfprintf_internal_r+0xbbc>
   2660c:	18803fcc 	andi	r2,r3,255
   26610:	00c00044 	movi	r3,1
   26614:	10c10126 	beq	r2,r3,26a1c <___vfprintf_internal_r+0x1134>
   26618:	00c00084 	movi	r3,2
   2661c:	10c0ed26 	beq	r2,r3,269d4 <___vfprintf_internal_r+0x10ec>
   26620:	d8c10dc4 	addi	r3,sp,1079
   26624:	b808d0fa 	srli	r4,r23,3
   26628:	b00a977a 	slli	r5,r22,29
   2662c:	b02cd0fa 	srli	r22,r22,3
   26630:	bdc001cc 	andi	r23,r23,7
   26634:	b8800c04 	addi	r2,r23,48
   26638:	292eb03a 	or	r23,r5,r4
   2663c:	18800005 	stb	r2,0(r3)
   26640:	bd88b03a 	or	r4,r23,r22
   26644:	1827883a 	mov	r19,r3
   26648:	18ffffc4 	addi	r3,r3,-1
   2664c:	203ff51e 	bne	r4,zero,26624 <___vfprintf_internal_r+0xd3c>
   26650:	8100004c 	andi	r4,r16,1
   26654:	980b883a 	mov	r5,r19
   26658:	20000726 	beq	r4,zero,26678 <___vfprintf_internal_r+0xd90>
   2665c:	10803fcc 	andi	r2,r2,255
   26660:	1080201c 	xori	r2,r2,128
   26664:	10bfe004 	addi	r2,r2,-128
   26668:	01000c04 	movi	r4,48
   2666c:	11000226 	beq	r2,r4,26678 <___vfprintf_internal_r+0xd90>
   26670:	1827883a 	mov	r19,r3
   26674:	293fffc5 	stb	r4,-1(r5)
   26678:	d8812717 	ldw	r2,1180(sp)
   2667c:	14c5c83a 	sub	r2,r2,r19
   26680:	d8812b15 	stw	r2,1196(sp)
   26684:	003e1f06 	br	25f04 <___vfprintf_internal_r+0x61c>
   26688:	00801944 	movi	r2,101
   2668c:	14807c0e 	bge	r2,r18,26880 <___vfprintf_internal_r+0xf98>
   26690:	d9013317 	ldw	r4,1228(sp)
   26694:	d9413417 	ldw	r5,1232(sp)
   26698:	000d883a 	mov	r6,zero
   2669c:	000f883a 	mov	r7,zero
   266a0:	d8c13b15 	stw	r3,1260(sp)
   266a4:	da013a15 	stw	r8,1256(sp)
   266a8:	da413c15 	stw	r9,1264(sp)
   266ac:	003162c0 	call	3162c <__eqdf2>
   266b0:	d8c13b17 	ldw	r3,1260(sp)
   266b4:	da013a17 	ldw	r8,1256(sp)
   266b8:	da413c17 	ldw	r9,1264(sp)
   266bc:	1001001e 	bne	r2,zero,26ac0 <___vfprintf_internal_r+0x11d8>
   266c0:	008000f4 	movhi	r2,3
   266c4:	10930d04 	addi	r2,r2,19508
   266c8:	48800015 	stw	r2,0(r9)
   266cc:	00800044 	movi	r2,1
   266d0:	48800115 	stw	r2,4(r9)
   266d4:	4091883a 	add	r8,r8,r2
   266d8:	1887883a 	add	r3,r3,r2
   266dc:	da011d15 	stw	r8,1140(sp)
   266e0:	d8c11c15 	stw	r3,1136(sp)
   266e4:	008001c4 	movi	r2,7
   266e8:	10c20316 	blt	r2,r3,26ef8 <___vfprintf_internal_r+0x1610>
   266ec:	4a400204 	addi	r9,r9,8
   266f0:	d8812417 	ldw	r2,1168(sp)
   266f4:	d8c13217 	ldw	r3,1224(sp)
   266f8:	10c00216 	blt	r2,r3,26704 <___vfprintf_internal_r+0xe1c>
   266fc:	8080004c 	andi	r2,r16,1
   26700:	103f6826 	beq	r2,zero,264a4 <___vfprintf_internal_r+0xbbc>
   26704:	d8c11c17 	ldw	r3,1136(sp)
   26708:	d9013717 	ldw	r4,1244(sp)
   2670c:	00800044 	movi	r2,1
   26710:	48800115 	stw	r2,4(r9)
   26714:	49000015 	stw	r4,0(r9)
   26718:	4091883a 	add	r8,r8,r2
   2671c:	1887883a 	add	r3,r3,r2
   26720:	da011d15 	stw	r8,1140(sp)
   26724:	d8c11c15 	stw	r3,1136(sp)
   26728:	008001c4 	movi	r2,7
   2672c:	10c2ce16 	blt	r2,r3,27268 <___vfprintf_internal_r+0x1980>
   26730:	4a400204 	addi	r9,r9,8
   26734:	d8813217 	ldw	r2,1224(sp)
   26738:	14bfffc4 	addi	r18,r2,-1
   2673c:	04bf590e 	bge	zero,r18,264a4 <___vfprintf_internal_r+0xbbc>
   26740:	04c00404 	movi	r19,16
   26744:	d8c11c17 	ldw	r3,1136(sp)
   26748:	050000f4 	movhi	r20,3
   2674c:	a5131184 	addi	r20,r20,19526
   26750:	9c818a0e 	bge	r19,r18,26d7c <___vfprintf_internal_r+0x1494>
   26754:	058001c4 	movi	r22,7
   26758:	ddc12917 	ldw	r23,1188(sp)
   2675c:	00000306 	br	2676c <___vfprintf_internal_r+0xe84>
   26760:	4a400204 	addi	r9,r9,8
   26764:	94bffc04 	addi	r18,r18,-16
   26768:	9c81840e 	bge	r19,r18,26d7c <___vfprintf_internal_r+0x1494>
   2676c:	4d000015 	stw	r20,0(r9)
   26770:	4cc00115 	stw	r19,4(r9)
   26774:	42000404 	addi	r8,r8,16
   26778:	18c00044 	addi	r3,r3,1
   2677c:	da011d15 	stw	r8,1140(sp)
   26780:	d8c11c15 	stw	r3,1136(sp)
   26784:	b0fff60e 	bge	r22,r3,26760 <___vfprintf_internal_r+0xe78>
   26788:	8809883a 	mov	r4,r17
   2678c:	b80b883a 	mov	r5,r23
   26790:	d9811b04 	addi	r6,sp,1132
   26794:	00258b40 	call	258b4 <__sprint_r>
   26798:	103d991e 	bne	r2,zero,25e00 <___vfprintf_internal_r+0x518>
   2679c:	da011d17 	ldw	r8,1140(sp)
   267a0:	d8c11c17 	ldw	r3,1136(sp)
   267a4:	da400404 	addi	r9,sp,16
   267a8:	003fee06 	br	26764 <___vfprintf_internal_r+0xe7c>
   267ac:	d8812e17 	ldw	r2,1208(sp)
   267b0:	d9012817 	ldw	r4,1184(sp)
   267b4:	112fc83a 	sub	r23,r2,r4
   267b8:	05ff000e 	bge	zero,r23,263bc <___vfprintf_internal_r+0xad4>
   267bc:	07000404 	movi	fp,16
   267c0:	050000f4 	movhi	r20,3
   267c4:	a5131184 	addi	r20,r20,19526
   267c8:	e5c01d0e 	bge	fp,r23,26840 <___vfprintf_internal_r+0xf58>
   267cc:	dc812a15 	stw	r18,1192(sp)
   267d0:	058001c4 	movi	r22,7
   267d4:	a025883a 	mov	r18,r20
   267d8:	8029883a 	mov	r20,r16
   267dc:	dc012917 	ldw	r16,1188(sp)
   267e0:	00000306 	br	267f0 <___vfprintf_internal_r+0xf08>
   267e4:	bdfffc04 	addi	r23,r23,-16
   267e8:	4a400204 	addi	r9,r9,8
   267ec:	e5c0110e 	bge	fp,r23,26834 <___vfprintf_internal_r+0xf4c>
   267f0:	4c800015 	stw	r18,0(r9)
   267f4:	4f000115 	stw	fp,4(r9)
   267f8:	42000404 	addi	r8,r8,16
   267fc:	18c00044 	addi	r3,r3,1
   26800:	da011d15 	stw	r8,1140(sp)
   26804:	d8c11c15 	stw	r3,1136(sp)
   26808:	b0fff60e 	bge	r22,r3,267e4 <___vfprintf_internal_r+0xefc>
   2680c:	8809883a 	mov	r4,r17
   26810:	800b883a 	mov	r5,r16
   26814:	d9811b04 	addi	r6,sp,1132
   26818:	00258b40 	call	258b4 <__sprint_r>
   2681c:	103d781e 	bne	r2,zero,25e00 <___vfprintf_internal_r+0x518>
   26820:	bdfffc04 	addi	r23,r23,-16
   26824:	da011d17 	ldw	r8,1140(sp)
   26828:	d8c11c17 	ldw	r3,1136(sp)
   2682c:	da400404 	addi	r9,sp,16
   26830:	e5ffef16 	blt	fp,r23,267f0 <___vfprintf_internal_r+0xf08>
   26834:	a021883a 	mov	r16,r20
   26838:	9029883a 	mov	r20,r18
   2683c:	dc812a17 	ldw	r18,1192(sp)
   26840:	4d000015 	stw	r20,0(r9)
   26844:	4dc00115 	stw	r23,4(r9)
   26848:	45d1883a 	add	r8,r8,r23
   2684c:	18c00044 	addi	r3,r3,1
   26850:	da011d15 	stw	r8,1140(sp)
   26854:	d8c11c15 	stw	r3,1136(sp)
   26858:	008001c4 	movi	r2,7
   2685c:	10c13616 	blt	r2,r3,26d38 <___vfprintf_internal_r+0x1450>
   26860:	4a400204 	addi	r9,r9,8
   26864:	003ed506 	br	263bc <___vfprintf_internal_r+0xad4>
   26868:	d9412917 	ldw	r5,1188(sp)
   2686c:	8809883a 	mov	r4,r17
   26870:	d9811b04 	addi	r6,sp,1132
   26874:	00258b40 	call	258b4 <__sprint_r>
   26878:	103f4226 	beq	r2,zero,26584 <___vfprintf_internal_r+0xc9c>
   2687c:	003d6006 	br	25e00 <___vfprintf_internal_r+0x518>
   26880:	d9013217 	ldw	r4,1224(sp)
   26884:	00800044 	movi	r2,1
   26888:	4cc00015 	stw	r19,0(r9)
   2688c:	1101000e 	bge	r2,r4,26c90 <___vfprintf_internal_r+0x13a8>
   26890:	00800044 	movi	r2,1
   26894:	48800115 	stw	r2,4(r9)
   26898:	4091883a 	add	r8,r8,r2
   2689c:	1887883a 	add	r3,r3,r2
   268a0:	da011d15 	stw	r8,1140(sp)
   268a4:	d8c11c15 	stw	r3,1136(sp)
   268a8:	008001c4 	movi	r2,7
   268ac:	10c10c16 	blt	r2,r3,26ce0 <___vfprintf_internal_r+0x13f8>
   268b0:	4a400204 	addi	r9,r9,8
   268b4:	d8813717 	ldw	r2,1244(sp)
   268b8:	48800015 	stw	r2,0(r9)
   268bc:	00800044 	movi	r2,1
   268c0:	48800115 	stw	r2,4(r9)
   268c4:	4091883a 	add	r8,r8,r2
   268c8:	1887883a 	add	r3,r3,r2
   268cc:	da011d15 	stw	r8,1140(sp)
   268d0:	d8c11c15 	stw	r3,1136(sp)
   268d4:	008001c4 	movi	r2,7
   268d8:	10c10a16 	blt	r2,r3,26d04 <___vfprintf_internal_r+0x141c>
   268dc:	4c800204 	addi	r18,r9,8
   268e0:	d9013317 	ldw	r4,1228(sp)
   268e4:	d9413417 	ldw	r5,1232(sp)
   268e8:	000d883a 	mov	r6,zero
   268ec:	000f883a 	mov	r7,zero
   268f0:	d8c13b15 	stw	r3,1260(sp)
   268f4:	da013a15 	stw	r8,1256(sp)
   268f8:	00316880 	call	31688 <__nedf2>
   268fc:	d8c13b17 	ldw	r3,1260(sp)
   26900:	da013a17 	ldw	r8,1256(sp)
   26904:	1000ba26 	beq	r2,zero,26bf0 <___vfprintf_internal_r+0x1308>
   26908:	d9013217 	ldw	r4,1224(sp)
   2690c:	9cc00044 	addi	r19,r19,1
   26910:	94c00015 	stw	r19,0(r18)
   26914:	20bfffc4 	addi	r2,r4,-1
   26918:	90800115 	stw	r2,4(r18)
   2691c:	4091883a 	add	r8,r8,r2
   26920:	18c00044 	addi	r3,r3,1
   26924:	da011d15 	stw	r8,1140(sp)
   26928:	d8c11c15 	stw	r3,1136(sp)
   2692c:	008001c4 	movi	r2,7
   26930:	10c0e216 	blt	r2,r3,26cbc <___vfprintf_internal_r+0x13d4>
   26934:	94800204 	addi	r18,r18,8
   26938:	d9013517 	ldw	r4,1236(sp)
   2693c:	d8811fc4 	addi	r2,sp,1151
   26940:	90800015 	stw	r2,0(r18)
   26944:	91000115 	stw	r4,4(r18)
   26948:	4111883a 	add	r8,r8,r4
   2694c:	18c00044 	addi	r3,r3,1
   26950:	da011d15 	stw	r8,1140(sp)
   26954:	d8c11c15 	stw	r3,1136(sp)
   26958:	008001c4 	movi	r2,7
   2695c:	10ff2316 	blt	r2,r3,265ec <___vfprintf_internal_r+0xd04>
   26960:	92400204 	addi	r9,r18,8
   26964:	003ecf06 	br	264a4 <___vfprintf_internal_r+0xbbc>
   26968:	d9412917 	ldw	r5,1188(sp)
   2696c:	8809883a 	mov	r4,r17
   26970:	d9811b04 	addi	r6,sp,1132
   26974:	00258b40 	call	258b4 <__sprint_r>
   26978:	103d211e 	bne	r2,zero,25e00 <___vfprintf_internal_r+0x518>
   2697c:	da011d17 	ldw	r8,1140(sp)
   26980:	d8c11c17 	ldw	r3,1136(sp)
   26984:	da400404 	addi	r9,sp,16
   26988:	003eba06 	br	26474 <___vfprintf_internal_r+0xb8c>
   2698c:	d9412917 	ldw	r5,1188(sp)
   26990:	8809883a 	mov	r4,r17
   26994:	d9811b04 	addi	r6,sp,1132
   26998:	00258b40 	call	258b4 <__sprint_r>
   2699c:	103d181e 	bne	r2,zero,25e00 <___vfprintf_internal_r+0x518>
   269a0:	da011d17 	ldw	r8,1140(sp)
   269a4:	d8c11c17 	ldw	r3,1136(sp)
   269a8:	da400404 	addi	r9,sp,16
   269ac:	003e8006 	br	263b0 <___vfprintf_internal_r+0xac8>
   269b0:	d9412917 	ldw	r5,1188(sp)
   269b4:	8809883a 	mov	r4,r17
   269b8:	d9811b04 	addi	r6,sp,1132
   269bc:	00258b40 	call	258b4 <__sprint_r>
   269c0:	103d0f1e 	bne	r2,zero,25e00 <___vfprintf_internal_r+0x518>
   269c4:	da011d17 	ldw	r8,1140(sp)
   269c8:	d8c11c17 	ldw	r3,1136(sp)
   269cc:	da400404 	addi	r9,sp,16
   269d0:	003e6a06 	br	2637c <___vfprintf_internal_r+0xa94>
   269d4:	d9413617 	ldw	r5,1240(sp)
   269d8:	d8810dc4 	addi	r2,sp,1079
   269dc:	b8c003cc 	andi	r3,r23,15
   269e0:	b008973a 	slli	r4,r22,28
   269e4:	28c7883a 	add	r3,r5,r3
   269e8:	b82ed13a 	srli	r23,r23,4
   269ec:	18c00003 	ldbu	r3,0(r3)
   269f0:	b02cd13a 	srli	r22,r22,4
   269f4:	25eeb03a 	or	r23,r4,r23
   269f8:	10c00005 	stb	r3,0(r2)
   269fc:	bd86b03a 	or	r3,r23,r22
   26a00:	1027883a 	mov	r19,r2
   26a04:	10bfffc4 	addi	r2,r2,-1
   26a08:	183ff41e 	bne	r3,zero,269dc <___vfprintf_internal_r+0x10f4>
   26a0c:	003f1a06 	br	26678 <___vfprintf_internal_r+0xd90>
   26a10:	d8012b15 	stw	zero,1196(sp)
   26a14:	dcc10e04 	addi	r19,sp,1080
   26a18:	003d3a06 	br	25f04 <___vfprintf_internal_r+0x61c>
   26a1c:	b0025426 	beq	r22,zero,27370 <___vfprintf_internal_r+0x1a88>
   26a20:	b807883a 	mov	r3,r23
   26a24:	d8810dc4 	addi	r2,sp,1079
   26a28:	882f883a 	mov	r23,r17
   26a2c:	04c00244 	movi	r19,9
   26a30:	8023883a 	mov	r17,r16
   26a34:	da412815 	stw	r9,1184(sp)
   26a38:	1821883a 	mov	r16,r3
   26a3c:	8009883a 	mov	r4,r16
   26a40:	b00b883a 	mov	r5,r22
   26a44:	01800284 	movi	r6,10
   26a48:	000f883a 	mov	r7,zero
   26a4c:	1029883a 	mov	r20,r2
   26a50:	00306600 	call	30660 <__umoddi3>
   26a54:	10800c04 	addi	r2,r2,48
   26a58:	8009883a 	mov	r4,r16
   26a5c:	b00b883a 	mov	r5,r22
   26a60:	a0800005 	stb	r2,0(r20)
   26a64:	01800284 	movi	r6,10
   26a68:	000f883a 	mov	r7,zero
   26a6c:	00300100 	call	30010 <__udivdi3>
   26a70:	1021883a 	mov	r16,r2
   26a74:	182d883a 	mov	r22,r3
   26a78:	a0bfffc4 	addi	r2,r20,-1
   26a7c:	183fef1e 	bne	r3,zero,26a3c <___vfprintf_internal_r+0x1154>
   26a80:	9c3fee36 	bltu	r19,r16,26a3c <___vfprintf_internal_r+0x1154>
   26a84:	da412817 	ldw	r9,1184(sp)
   26a88:	8005883a 	mov	r2,r16
   26a8c:	8821883a 	mov	r16,r17
   26a90:	b823883a 	mov	r17,r23
   26a94:	102f883a 	mov	r23,r2
   26a98:	d8812717 	ldw	r2,1180(sp)
   26a9c:	a4ffffc4 	addi	r19,r20,-1
   26aa0:	bdc00c04 	addi	r23,r23,48
   26aa4:	14c5c83a 	sub	r2,r2,r19
   26aa8:	a5ffffc5 	stb	r23,-1(r20)
   26aac:	d8812b15 	stw	r2,1196(sp)
   26ab0:	003d1406 	br	25f04 <___vfprintf_internal_r+0x61c>
   26ab4:	00c00044 	movi	r3,1
   26ab8:	bd84b03a 	or	r2,r23,r22
   26abc:	003d0306 	br	25ecc <___vfprintf_internal_r+0x5e4>
   26ac0:	dc812417 	ldw	r18,1168(sp)
   26ac4:	0481140e 	bge	zero,r18,26f18 <___vfprintf_internal_r+0x1630>
   26ac8:	d9013217 	ldw	r4,1224(sp)
   26acc:	4cc00015 	stw	r19,0(r9)
   26ad0:	9100ec16 	blt	r18,r4,26e84 <___vfprintf_internal_r+0x159c>
   26ad4:	49000115 	stw	r4,4(r9)
   26ad8:	4111883a 	add	r8,r8,r4
   26adc:	18c00044 	addi	r3,r3,1
   26ae0:	da011d15 	stw	r8,1140(sp)
   26ae4:	d8c11c15 	stw	r3,1136(sp)
   26ae8:	008001c4 	movi	r2,7
   26aec:	10c23616 	blt	r2,r3,273c8 <___vfprintf_internal_r+0x1ae0>
   26af0:	4a400204 	addi	r9,r9,8
   26af4:	d8813217 	ldw	r2,1224(sp)
   26af8:	90a5c83a 	sub	r18,r18,r2
   26afc:	04beae0e 	bge	zero,r18,265b8 <___vfprintf_internal_r+0xcd0>
   26b00:	04c00404 	movi	r19,16
   26b04:	d8c11c17 	ldw	r3,1136(sp)
   26b08:	050000f4 	movhi	r20,3
   26b0c:	a5131184 	addi	r20,r20,19526
   26b10:	9c81dd0e 	bge	r19,r18,27288 <___vfprintf_internal_r+0x19a0>
   26b14:	058001c4 	movi	r22,7
   26b18:	ddc12917 	ldw	r23,1188(sp)
   26b1c:	00000306 	br	26b2c <___vfprintf_internal_r+0x1244>
   26b20:	4a400204 	addi	r9,r9,8
   26b24:	94bffc04 	addi	r18,r18,-16
   26b28:	9c81d70e 	bge	r19,r18,27288 <___vfprintf_internal_r+0x19a0>
   26b2c:	4d000015 	stw	r20,0(r9)
   26b30:	4cc00115 	stw	r19,4(r9)
   26b34:	42000404 	addi	r8,r8,16
   26b38:	18c00044 	addi	r3,r3,1
   26b3c:	da011d15 	stw	r8,1140(sp)
   26b40:	d8c11c15 	stw	r3,1136(sp)
   26b44:	b0fff60e 	bge	r22,r3,26b20 <___vfprintf_internal_r+0x1238>
   26b48:	8809883a 	mov	r4,r17
   26b4c:	b80b883a 	mov	r5,r23
   26b50:	d9811b04 	addi	r6,sp,1132
   26b54:	00258b40 	call	258b4 <__sprint_r>
   26b58:	103ca91e 	bne	r2,zero,25e00 <___vfprintf_internal_r+0x518>
   26b5c:	da011d17 	ldw	r8,1140(sp)
   26b60:	d8c11c17 	ldw	r3,1136(sp)
   26b64:	da400404 	addi	r9,sp,16
   26b68:	003fee06 	br	26b24 <___vfprintf_internal_r+0x123c>
   26b6c:	d9412917 	ldw	r5,1188(sp)
   26b70:	8809883a 	mov	r4,r17
   26b74:	d9811b04 	addi	r6,sp,1132
   26b78:	00258b40 	call	258b4 <__sprint_r>
   26b7c:	103ca01e 	bne	r2,zero,25e00 <___vfprintf_internal_r+0x518>
   26b80:	da011d17 	ldw	r8,1140(sp)
   26b84:	d8c11c17 	ldw	r3,1136(sp)
   26b88:	da400404 	addi	r9,sp,16
   26b8c:	003dee06 	br	26348 <___vfprintf_internal_r+0xa60>
   26b90:	00c00084 	movi	r3,2
   26b94:	bd84b03a 	or	r2,r23,r22
   26b98:	d8012585 	stb	zero,1174(sp)
   26b9c:	003ccb06 	br	25ecc <___vfprintf_internal_r+0x5e4>
   26ba0:	8080040c 	andi	r2,r16,16
   26ba4:	1000ae26 	beq	r2,zero,26e60 <___vfprintf_internal_r+0x1578>
   26ba8:	d9012d17 	ldw	r4,1204(sp)
   26bac:	25c00017 	ldw	r23,0(r4)
   26bb0:	21000104 	addi	r4,r4,4
   26bb4:	d9012d15 	stw	r4,1204(sp)
   26bb8:	b82dd7fa 	srai	r22,r23,31
   26bbc:	b005883a 	mov	r2,r22
   26bc0:	003cb906 	br	25ea8 <___vfprintf_internal_r+0x5c0>
   26bc4:	8080040c 	andi	r2,r16,16
   26bc8:	10007026 	beq	r2,zero,26d8c <___vfprintf_internal_r+0x14a4>
   26bcc:	d8812d17 	ldw	r2,1204(sp)
   26bd0:	002d883a 	mov	r22,zero
   26bd4:	00c00044 	movi	r3,1
   26bd8:	15c00017 	ldw	r23,0(r2)
   26bdc:	10800104 	addi	r2,r2,4
   26be0:	d8812d15 	stw	r2,1204(sp)
   26be4:	d8012585 	stb	zero,1174(sp)
   26be8:	b805883a 	mov	r2,r23
   26bec:	003cb706 	br	25ecc <___vfprintf_internal_r+0x5e4>
   26bf0:	d8813217 	ldw	r2,1224(sp)
   26bf4:	14ffffc4 	addi	r19,r2,-1
   26bf8:	04ff4f0e 	bge	zero,r19,26938 <___vfprintf_internal_r+0x1050>
   26bfc:	05800404 	movi	r22,16
   26c00:	050000f4 	movhi	r20,3
   26c04:	a5131184 	addi	r20,r20,19526
   26c08:	b4c0470e 	bge	r22,r19,26d28 <___vfprintf_internal_r+0x1440>
   26c0c:	05c001c4 	movi	r23,7
   26c10:	df012917 	ldw	fp,1188(sp)
   26c14:	00000306 	br	26c24 <___vfprintf_internal_r+0x133c>
   26c18:	94800204 	addi	r18,r18,8
   26c1c:	9cfffc04 	addi	r19,r19,-16
   26c20:	b4c0410e 	bge	r22,r19,26d28 <___vfprintf_internal_r+0x1440>
   26c24:	95000015 	stw	r20,0(r18)
   26c28:	95800115 	stw	r22,4(r18)
   26c2c:	42000404 	addi	r8,r8,16
   26c30:	18c00044 	addi	r3,r3,1
   26c34:	da011d15 	stw	r8,1140(sp)
   26c38:	d8c11c15 	stw	r3,1136(sp)
   26c3c:	b8fff60e 	bge	r23,r3,26c18 <___vfprintf_internal_r+0x1330>
   26c40:	8809883a 	mov	r4,r17
   26c44:	e00b883a 	mov	r5,fp
   26c48:	d9811b04 	addi	r6,sp,1132
   26c4c:	00258b40 	call	258b4 <__sprint_r>
   26c50:	103c6b1e 	bne	r2,zero,25e00 <___vfprintf_internal_r+0x518>
   26c54:	da011d17 	ldw	r8,1140(sp)
   26c58:	d8c11c17 	ldw	r3,1136(sp)
   26c5c:	dc800404 	addi	r18,sp,16
   26c60:	003fee06 	br	26c1c <___vfprintf_internal_r+0x1334>
   26c64:	8080040c 	andi	r2,r16,16
   26c68:	10005326 	beq	r2,zero,26db8 <___vfprintf_internal_r+0x14d0>
   26c6c:	d8c12d17 	ldw	r3,1204(sp)
   26c70:	002d883a 	mov	r22,zero
   26c74:	1dc00017 	ldw	r23,0(r3)
   26c78:	18c00104 	addi	r3,r3,4
   26c7c:	d8c12d15 	stw	r3,1204(sp)
   26c80:	b805883a 	mov	r2,r23
   26c84:	0007883a 	mov	r3,zero
   26c88:	d8012585 	stb	zero,1174(sp)
   26c8c:	003c8f06 	br	25ecc <___vfprintf_internal_r+0x5e4>
   26c90:	8088703a 	and	r4,r16,r2
   26c94:	203efe1e 	bne	r4,zero,26890 <___vfprintf_internal_r+0xfa8>
   26c98:	48800115 	stw	r2,4(r9)
   26c9c:	42000044 	addi	r8,r8,1
   26ca0:	18c00044 	addi	r3,r3,1
   26ca4:	da011d15 	stw	r8,1140(sp)
   26ca8:	d8c11c15 	stw	r3,1136(sp)
   26cac:	008001c4 	movi	r2,7
   26cb0:	10c00216 	blt	r2,r3,26cbc <___vfprintf_internal_r+0x13d4>
   26cb4:	4c800204 	addi	r18,r9,8
   26cb8:	003f1f06 	br	26938 <___vfprintf_internal_r+0x1050>
   26cbc:	d9412917 	ldw	r5,1188(sp)
   26cc0:	8809883a 	mov	r4,r17
   26cc4:	d9811b04 	addi	r6,sp,1132
   26cc8:	00258b40 	call	258b4 <__sprint_r>
   26ccc:	103c4c1e 	bne	r2,zero,25e00 <___vfprintf_internal_r+0x518>
   26cd0:	dc800404 	addi	r18,sp,16
   26cd4:	da011d17 	ldw	r8,1140(sp)
   26cd8:	d8c11c17 	ldw	r3,1136(sp)
   26cdc:	003f1606 	br	26938 <___vfprintf_internal_r+0x1050>
   26ce0:	d9412917 	ldw	r5,1188(sp)
   26ce4:	8809883a 	mov	r4,r17
   26ce8:	d9811b04 	addi	r6,sp,1132
   26cec:	00258b40 	call	258b4 <__sprint_r>
   26cf0:	103c431e 	bne	r2,zero,25e00 <___vfprintf_internal_r+0x518>
   26cf4:	da011d17 	ldw	r8,1140(sp)
   26cf8:	d8c11c17 	ldw	r3,1136(sp)
   26cfc:	da400404 	addi	r9,sp,16
   26d00:	003eec06 	br	268b4 <___vfprintf_internal_r+0xfcc>
   26d04:	d9412917 	ldw	r5,1188(sp)
   26d08:	8809883a 	mov	r4,r17
   26d0c:	d9811b04 	addi	r6,sp,1132
   26d10:	00258b40 	call	258b4 <__sprint_r>
   26d14:	103c3a1e 	bne	r2,zero,25e00 <___vfprintf_internal_r+0x518>
   26d18:	da011d17 	ldw	r8,1140(sp)
   26d1c:	d8c11c17 	ldw	r3,1136(sp)
   26d20:	dc800404 	addi	r18,sp,16
   26d24:	003eee06 	br	268e0 <___vfprintf_internal_r+0xff8>
   26d28:	95000015 	stw	r20,0(r18)
   26d2c:	94c00115 	stw	r19,4(r18)
   26d30:	44d1883a 	add	r8,r8,r19
   26d34:	003efa06 	br	26920 <___vfprintf_internal_r+0x1038>
   26d38:	d9412917 	ldw	r5,1188(sp)
   26d3c:	8809883a 	mov	r4,r17
   26d40:	d9811b04 	addi	r6,sp,1132
   26d44:	00258b40 	call	258b4 <__sprint_r>
   26d48:	103c2d1e 	bne	r2,zero,25e00 <___vfprintf_internal_r+0x518>
   26d4c:	da011d17 	ldw	r8,1140(sp)
   26d50:	d8c11c17 	ldw	r3,1136(sp)
   26d54:	da400404 	addi	r9,sp,16
   26d58:	003d9806 	br	263bc <___vfprintf_internal_r+0xad4>
   26d5c:	8080100c 	andi	r2,r16,64
   26d60:	10011626 	beq	r2,zero,271bc <___vfprintf_internal_r+0x18d4>
   26d64:	d8c12d17 	ldw	r3,1204(sp)
   26d68:	002d883a 	mov	r22,zero
   26d6c:	1dc0000b 	ldhu	r23,0(r3)
   26d70:	18c00104 	addi	r3,r3,4
   26d74:	d8c12d15 	stw	r3,1204(sp)
   26d78:	003cc106 	br	26080 <___vfprintf_internal_r+0x798>
   26d7c:	4d000015 	stw	r20,0(r9)
   26d80:	4c800115 	stw	r18,4(r9)
   26d84:	4491883a 	add	r8,r8,r18
   26d88:	003dc006 	br	2648c <___vfprintf_internal_r+0xba4>
   26d8c:	8080100c 	andi	r2,r16,64
   26d90:	10010126 	beq	r2,zero,27198 <___vfprintf_internal_r+0x18b0>
   26d94:	d8c12d17 	ldw	r3,1204(sp)
   26d98:	002d883a 	mov	r22,zero
   26d9c:	1dc0000b 	ldhu	r23,0(r3)
   26da0:	18c00104 	addi	r3,r3,4
   26da4:	d8c12d15 	stw	r3,1204(sp)
   26da8:	b805883a 	mov	r2,r23
   26dac:	00c00044 	movi	r3,1
   26db0:	d8012585 	stb	zero,1174(sp)
   26db4:	003c4506 	br	25ecc <___vfprintf_internal_r+0x5e4>
   26db8:	8080100c 	andi	r2,r16,64
   26dbc:	10010526 	beq	r2,zero,271d4 <___vfprintf_internal_r+0x18ec>
   26dc0:	d9012d17 	ldw	r4,1204(sp)
   26dc4:	002d883a 	mov	r22,zero
   26dc8:	0007883a 	mov	r3,zero
   26dcc:	25c0000b 	ldhu	r23,0(r4)
   26dd0:	21000104 	addi	r4,r4,4
   26dd4:	d9012d15 	stw	r4,1204(sp)
   26dd8:	b805883a 	mov	r2,r23
   26ddc:	d8012585 	stb	zero,1174(sp)
   26de0:	003c3a06 	br	25ecc <___vfprintf_internal_r+0x5e4>
   26de4:	d8812d17 	ldw	r2,1204(sp)
   26de8:	15800017 	ldw	r22,0(r2)
   26dec:	15000117 	ldw	r20,4(r2)
   26df0:	10800204 	addi	r2,r2,8
   26df4:	d8812d15 	stw	r2,1204(sp)
   26df8:	dd813315 	stw	r22,1228(sp)
   26dfc:	dd013415 	stw	r20,1232(sp)
   26e00:	003c5906 	br	25f68 <___vfprintf_internal_r+0x680>
   26e04:	00c00084 	movi	r3,2
   26e08:	d8012585 	stb	zero,1174(sp)
   26e0c:	003c2f06 	br	25ecc <___vfprintf_internal_r+0x5e4>
   26e10:	ac800007 	ldb	r18,0(r21)
   26e14:	003b1006 	br	25a58 <___vfprintf_internal_r+0x170>
   26e18:	8080040c 	andi	r2,r16,16
   26e1c:	1000091e 	bne	r2,zero,26e44 <___vfprintf_internal_r+0x155c>
   26e20:	8400100c 	andi	r16,r16,64
   26e24:	80000726 	beq	r16,zero,26e44 <___vfprintf_internal_r+0x155c>
   26e28:	d8c12d17 	ldw	r3,1204(sp)
   26e2c:	d9012c17 	ldw	r4,1200(sp)
   26e30:	18800017 	ldw	r2,0(r3)
   26e34:	18c00104 	addi	r3,r3,4
   26e38:	d8c12d15 	stw	r3,1204(sp)
   26e3c:	1100000d 	sth	r4,0(r2)
   26e40:	003adf06 	br	259c0 <___vfprintf_internal_r+0xd8>
   26e44:	d8c12d17 	ldw	r3,1204(sp)
   26e48:	d9012c17 	ldw	r4,1200(sp)
   26e4c:	18800017 	ldw	r2,0(r3)
   26e50:	18c00104 	addi	r3,r3,4
   26e54:	d8c12d15 	stw	r3,1204(sp)
   26e58:	11000015 	stw	r4,0(r2)
   26e5c:	003ad806 	br	259c0 <___vfprintf_internal_r+0xd8>
   26e60:	8080100c 	andi	r2,r16,64
   26e64:	1000c526 	beq	r2,zero,2717c <___vfprintf_internal_r+0x1894>
   26e68:	d8812d17 	ldw	r2,1204(sp)
   26e6c:	15c0000f 	ldh	r23,0(r2)
   26e70:	10800104 	addi	r2,r2,4
   26e74:	d8812d15 	stw	r2,1204(sp)
   26e78:	b82dd7fa 	srai	r22,r23,31
   26e7c:	b005883a 	mov	r2,r22
   26e80:	003c0906 	br	25ea8 <___vfprintf_internal_r+0x5c0>
   26e84:	4c800115 	stw	r18,4(r9)
   26e88:	9211883a 	add	r8,r18,r8
   26e8c:	18c00044 	addi	r3,r3,1
   26e90:	da011d15 	stw	r8,1140(sp)
   26e94:	d8c11c15 	stw	r3,1136(sp)
   26e98:	008001c4 	movi	r2,7
   26e9c:	10c14016 	blt	r2,r3,273a0 <___vfprintf_internal_r+0x1ab8>
   26ea0:	4a400204 	addi	r9,r9,8
   26ea4:	d8813717 	ldw	r2,1244(sp)
   26ea8:	9ca7883a 	add	r19,r19,r18
   26eac:	48800015 	stw	r2,0(r9)
   26eb0:	00800044 	movi	r2,1
   26eb4:	48800115 	stw	r2,4(r9)
   26eb8:	4091883a 	add	r8,r8,r2
   26ebc:	1887883a 	add	r3,r3,r2
   26ec0:	da011d15 	stw	r8,1140(sp)
   26ec4:	d8c11c15 	stw	r3,1136(sp)
   26ec8:	008001c4 	movi	r2,7
   26ecc:	10c12c16 	blt	r2,r3,27380 <___vfprintf_internal_r+0x1a98>
   26ed0:	4a400204 	addi	r9,r9,8
   26ed4:	d9013217 	ldw	r4,1224(sp)
   26ed8:	da011d17 	ldw	r8,1140(sp)
   26edc:	d8c11c17 	ldw	r3,1136(sp)
   26ee0:	24a5c83a 	sub	r18,r4,r18
   26ee4:	4cc00015 	stw	r19,0(r9)
   26ee8:	003fa506 	br	26d80 <___vfprintf_internal_r+0x1498>
   26eec:	04c000f4 	movhi	r19,3
   26ef0:	9cd2fe04 	addi	r19,r19,19448
   26ef4:	003c2e06 	br	25fb0 <___vfprintf_internal_r+0x6c8>
   26ef8:	d9412917 	ldw	r5,1188(sp)
   26efc:	8809883a 	mov	r4,r17
   26f00:	d9811b04 	addi	r6,sp,1132
   26f04:	00258b40 	call	258b4 <__sprint_r>
   26f08:	103bbd1e 	bne	r2,zero,25e00 <___vfprintf_internal_r+0x518>
   26f0c:	da011d17 	ldw	r8,1140(sp)
   26f10:	da400404 	addi	r9,sp,16
   26f14:	003df606 	br	266f0 <___vfprintf_internal_r+0xe08>
   26f18:	008000f4 	movhi	r2,3
   26f1c:	10930d04 	addi	r2,r2,19508
   26f20:	48800015 	stw	r2,0(r9)
   26f24:	00800044 	movi	r2,1
   26f28:	48800115 	stw	r2,4(r9)
   26f2c:	4091883a 	add	r8,r8,r2
   26f30:	1887883a 	add	r3,r3,r2
   26f34:	da011d15 	stw	r8,1140(sp)
   26f38:	d8c11c15 	stw	r3,1136(sp)
   26f3c:	008001c4 	movi	r2,7
   26f40:	10c0bc16 	blt	r2,r3,27234 <___vfprintf_internal_r+0x194c>
   26f44:	4a400204 	addi	r9,r9,8
   26f48:	9000041e 	bne	r18,zero,26f5c <___vfprintf_internal_r+0x1674>
   26f4c:	d8c13217 	ldw	r3,1224(sp)
   26f50:	1800021e 	bne	r3,zero,26f5c <___vfprintf_internal_r+0x1674>
   26f54:	8080004c 	andi	r2,r16,1
   26f58:	103d5226 	beq	r2,zero,264a4 <___vfprintf_internal_r+0xbbc>
   26f5c:	d8c11c17 	ldw	r3,1136(sp)
   26f60:	d9013717 	ldw	r4,1244(sp)
   26f64:	00800044 	movi	r2,1
   26f68:	48800115 	stw	r2,4(r9)
   26f6c:	49000015 	stw	r4,0(r9)
   26f70:	4091883a 	add	r8,r8,r2
   26f74:	1887883a 	add	r3,r3,r2
   26f78:	da011d15 	stw	r8,1140(sp)
   26f7c:	d8c11c15 	stw	r3,1136(sp)
   26f80:	008001c4 	movi	r2,7
   26f84:	10c14516 	blt	r2,r3,2749c <___vfprintf_internal_r+0x1bb4>
   26f88:	4a400204 	addi	r9,r9,8
   26f8c:	04a5c83a 	sub	r18,zero,r18
   26f90:	0480d70e 	bge	zero,r18,272f0 <___vfprintf_internal_r+0x1a08>
   26f94:	05800404 	movi	r22,16
   26f98:	050000f4 	movhi	r20,3
   26f9c:	a5131184 	addi	r20,r20,19526
   26fa0:	b480db0e 	bge	r22,r18,27310 <___vfprintf_internal_r+0x1a28>
   26fa4:	05c001c4 	movi	r23,7
   26fa8:	df012917 	ldw	fp,1188(sp)
   26fac:	00000306 	br	26fbc <___vfprintf_internal_r+0x16d4>
   26fb0:	4a400204 	addi	r9,r9,8
   26fb4:	94bffc04 	addi	r18,r18,-16
   26fb8:	b480d50e 	bge	r22,r18,27310 <___vfprintf_internal_r+0x1a28>
   26fbc:	4d000015 	stw	r20,0(r9)
   26fc0:	4d800115 	stw	r22,4(r9)
   26fc4:	42000404 	addi	r8,r8,16
   26fc8:	18c00044 	addi	r3,r3,1
   26fcc:	da011d15 	stw	r8,1140(sp)
   26fd0:	d8c11c15 	stw	r3,1136(sp)
   26fd4:	b8fff60e 	bge	r23,r3,26fb0 <___vfprintf_internal_r+0x16c8>
   26fd8:	8809883a 	mov	r4,r17
   26fdc:	e00b883a 	mov	r5,fp
   26fe0:	d9811b04 	addi	r6,sp,1132
   26fe4:	00258b40 	call	258b4 <__sprint_r>
   26fe8:	103b851e 	bne	r2,zero,25e00 <___vfprintf_internal_r+0x518>
   26fec:	da011d17 	ldw	r8,1140(sp)
   26ff0:	d8c11c17 	ldw	r3,1136(sp)
   26ff4:	da400404 	addi	r9,sp,16
   26ff8:	003fee06 	br	26fb4 <___vfprintf_internal_r+0x16cc>
   26ffc:	da413c15 	stw	r9,1264(sp)
   27000:	002cb680 	call	2cb68 <__isnand>
   27004:	da413c17 	ldw	r9,1264(sp)
   27008:	10007e1e 	bne	r2,zero,27204 <___vfprintf_internal_r+0x191c>
   2700c:	00bfffc4 	movi	r2,-1
   27010:	e0816a26 	beq	fp,r2,275bc <___vfprintf_internal_r+0x1cd4>
   27014:	008019c4 	movi	r2,103
   27018:	90816526 	beq	r18,r2,275b0 <___vfprintf_internal_r+0x1cc8>
   2701c:	008011c4 	movi	r2,71
   27020:	90816326 	beq	r18,r2,275b0 <___vfprintf_internal_r+0x1cc8>
   27024:	80c04014 	ori	r3,r16,256
   27028:	d8c12a15 	stw	r3,1192(sp)
   2702c:	a0016516 	blt	r20,zero,275c4 <___vfprintf_internal_r+0x1cdc>
   27030:	d8012f05 	stb	zero,1212(sp)
   27034:	00801984 	movi	r2,102
   27038:	9080f226 	beq	r18,r2,27404 <___vfprintf_internal_r+0x1b1c>
   2703c:	00801184 	movi	r2,70
   27040:	9080f026 	beq	r18,r2,27404 <___vfprintf_internal_r+0x1b1c>
   27044:	00801944 	movi	r2,101
   27048:	90818d26 	beq	r18,r2,27680 <___vfprintf_internal_r+0x1d98>
   2704c:	00801144 	movi	r2,69
   27050:	90818b26 	beq	r18,r2,27680 <___vfprintf_internal_r+0x1d98>
   27054:	e02f883a 	mov	r23,fp
   27058:	d8812404 	addi	r2,sp,1168
   2705c:	d8800115 	stw	r2,4(sp)
   27060:	d8812304 	addi	r2,sp,1164
   27064:	d8800215 	stw	r2,8(sp)
   27068:	d8812204 	addi	r2,sp,1160
   2706c:	ddc00015 	stw	r23,0(sp)
   27070:	d8800315 	stw	r2,12(sp)
   27074:	8809883a 	mov	r4,r17
   27078:	b00b883a 	mov	r5,r22
   2707c:	a00d883a 	mov	r6,r20
   27080:	01c00084 	movi	r7,2
   27084:	da413c15 	stw	r9,1264(sp)
   27088:	00293900 	call	29390 <_dtoa_r>
   2708c:	1027883a 	mov	r19,r2
   27090:	008019c4 	movi	r2,103
   27094:	da413c17 	ldw	r9,1264(sp)
   27098:	9081951e 	bne	r18,r2,276f0 <___vfprintf_internal_r+0x1e08>
   2709c:	8080004c 	andi	r2,r16,1
   270a0:	10017926 	beq	r2,zero,27688 <___vfprintf_internal_r+0x1da0>
   270a4:	00801184 	movi	r2,70
   270a8:	9dc7883a 	add	r3,r19,r23
   270ac:	9080e626 	beq	r18,r2,27448 <___vfprintf_internal_r+0x1b60>
   270b0:	b009883a 	mov	r4,r22
   270b4:	a00b883a 	mov	r5,r20
   270b8:	000d883a 	mov	r6,zero
   270bc:	000f883a 	mov	r7,zero
   270c0:	d8c13b15 	stw	r3,1260(sp)
   270c4:	da413c15 	stw	r9,1264(sp)
   270c8:	003162c0 	call	3162c <__eqdf2>
   270cc:	d8c13b17 	ldw	r3,1260(sp)
   270d0:	da413c17 	ldw	r9,1264(sp)
   270d4:	10000726 	beq	r2,zero,270f4 <___vfprintf_internal_r+0x180c>
   270d8:	d8812217 	ldw	r2,1160(sp)
   270dc:	10c18a2e 	bgeu	r2,r3,27708 <___vfprintf_internal_r+0x1e20>
   270e0:	01000c04 	movi	r4,48
   270e4:	11000005 	stb	r4,0(r2)
   270e8:	10800044 	addi	r2,r2,1
   270ec:	d8812215 	stw	r2,1160(sp)
   270f0:	10fffc1e 	bne	r2,r3,270e4 <___vfprintf_internal_r+0x17fc>
   270f4:	1cc7c83a 	sub	r3,r3,r19
   270f8:	d8c13215 	stw	r3,1224(sp)
   270fc:	008019c4 	movi	r2,103
   27100:	9080fa26 	beq	r18,r2,274ec <___vfprintf_internal_r+0x1c04>
   27104:	008011c4 	movi	r2,71
   27108:	9080f826 	beq	r18,r2,274ec <___vfprintf_internal_r+0x1c04>
   2710c:	00801984 	movi	r2,102
   27110:	90818e1e 	bne	r18,r2,2774c <___vfprintf_internal_r+0x1e64>
   27114:	d8812417 	ldw	r2,1168(sp)
   27118:	d8812b15 	stw	r2,1196(sp)
   2711c:	00817c0e 	bge	zero,r2,27710 <___vfprintf_internal_r+0x1e28>
   27120:	e000021e 	bne	fp,zero,2712c <___vfprintf_internal_r+0x1844>
   27124:	8400004c 	andi	r16,r16,1
   27128:	80000426 	beq	r16,zero,2713c <___vfprintf_internal_r+0x1854>
   2712c:	d8812b17 	ldw	r2,1196(sp)
   27130:	e2000044 	addi	r8,fp,1
   27134:	1205883a 	add	r2,r2,r8
   27138:	d8812b15 	stw	r2,1196(sp)
   2713c:	d8812815 	stw	r2,1184(sp)
   27140:	10010b16 	blt	r2,zero,27570 <___vfprintf_internal_r+0x1c88>
   27144:	ddc12f07 	ldb	r23,1212(sp)
   27148:	b800e426 	beq	r23,zero,274dc <___vfprintf_internal_r+0x1bf4>
   2714c:	00800b44 	movi	r2,45
   27150:	d8812585 	stb	r2,1174(sp)
   27154:	dc012a17 	ldw	r16,1192(sp)
   27158:	d8013115 	stw	zero,1220(sp)
   2715c:	003b7306 	br	25f2c <___vfprintf_internal_r+0x644>
   27160:	d8812b17 	ldw	r2,1196(sp)
   27164:	d8812815 	stw	r2,1184(sp)
   27168:	10005716 	blt	r2,zero,272c8 <___vfprintf_internal_r+0x19e0>
   2716c:	d8812583 	ldbu	r2,1174(sp)
   27170:	ddc12d15 	stw	r23,1204(sp)
   27174:	d8013115 	stw	zero,1220(sp)
   27178:	003b6806 	br	25f1c <___vfprintf_internal_r+0x634>
   2717c:	d8c12d17 	ldw	r3,1204(sp)
   27180:	1dc00017 	ldw	r23,0(r3)
   27184:	18c00104 	addi	r3,r3,4
   27188:	d8c12d15 	stw	r3,1204(sp)
   2718c:	b82dd7fa 	srai	r22,r23,31
   27190:	b005883a 	mov	r2,r22
   27194:	003b4406 	br	25ea8 <___vfprintf_internal_r+0x5c0>
   27198:	d9012d17 	ldw	r4,1204(sp)
   2719c:	002d883a 	mov	r22,zero
   271a0:	00c00044 	movi	r3,1
   271a4:	25c00017 	ldw	r23,0(r4)
   271a8:	21000104 	addi	r4,r4,4
   271ac:	d9012d15 	stw	r4,1204(sp)
   271b0:	b805883a 	mov	r2,r23
   271b4:	d8012585 	stb	zero,1174(sp)
   271b8:	003b4406 	br	25ecc <___vfprintf_internal_r+0x5e4>
   271bc:	d9012d17 	ldw	r4,1204(sp)
   271c0:	002d883a 	mov	r22,zero
   271c4:	25c00017 	ldw	r23,0(r4)
   271c8:	21000104 	addi	r4,r4,4
   271cc:	d9012d15 	stw	r4,1204(sp)
   271d0:	003bab06 	br	26080 <___vfprintf_internal_r+0x798>
   271d4:	d8812d17 	ldw	r2,1204(sp)
   271d8:	002d883a 	mov	r22,zero
   271dc:	0007883a 	mov	r3,zero
   271e0:	15c00017 	ldw	r23,0(r2)
   271e4:	10800104 	addi	r2,r2,4
   271e8:	d8812d15 	stw	r2,1204(sp)
   271ec:	d8012585 	stb	zero,1174(sp)
   271f0:	b805883a 	mov	r2,r23
   271f4:	003b3506 	br	25ecc <___vfprintf_internal_r+0x5e4>
   271f8:	00ffffc4 	movi	r3,-1
   271fc:	b82b883a 	mov	r21,r23
   27200:	003a1606 	br	25a5c <___vfprintf_internal_r+0x174>
   27204:	008011c4 	movi	r2,71
   27208:	1480b116 	blt	r2,r18,274d0 <___vfprintf_internal_r+0x1be8>
   2720c:	04c000f4 	movhi	r19,3
   27210:	9cd2ff04 	addi	r19,r19,19452
   27214:	00c000c4 	movi	r3,3
   27218:	00bfdfc4 	movi	r2,-129
   2721c:	80a0703a 	and	r16,r16,r2
   27220:	d8c12815 	stw	r3,1184(sp)
   27224:	d8812583 	ldbu	r2,1174(sp)
   27228:	d8c12b15 	stw	r3,1196(sp)
   2722c:	d8013115 	stw	zero,1220(sp)
   27230:	003b3a06 	br	25f1c <___vfprintf_internal_r+0x634>
   27234:	d9412917 	ldw	r5,1188(sp)
   27238:	8809883a 	mov	r4,r17
   2723c:	d9811b04 	addi	r6,sp,1132
   27240:	00258b40 	call	258b4 <__sprint_r>
   27244:	103aee1e 	bne	r2,zero,25e00 <___vfprintf_internal_r+0x518>
   27248:	dc812417 	ldw	r18,1168(sp)
   2724c:	da011d17 	ldw	r8,1140(sp)
   27250:	da400404 	addi	r9,sp,16
   27254:	003f3c06 	br	26f48 <___vfprintf_internal_r+0x1660>
   27258:	ad400044 	addi	r21,r21,1
   2725c:	84000814 	ori	r16,r16,32
   27260:	14800047 	ldb	r18,1(r2)
   27264:	0039fc06 	br	25a58 <___vfprintf_internal_r+0x170>
   27268:	d9412917 	ldw	r5,1188(sp)
   2726c:	8809883a 	mov	r4,r17
   27270:	d9811b04 	addi	r6,sp,1132
   27274:	00258b40 	call	258b4 <__sprint_r>
   27278:	103ae11e 	bne	r2,zero,25e00 <___vfprintf_internal_r+0x518>
   2727c:	da011d17 	ldw	r8,1140(sp)
   27280:	da400404 	addi	r9,sp,16
   27284:	003d2b06 	br	26734 <___vfprintf_internal_r+0xe4c>
   27288:	4d000015 	stw	r20,0(r9)
   2728c:	4c800115 	stw	r18,4(r9)
   27290:	4491883a 	add	r8,r8,r18
   27294:	18c00044 	addi	r3,r3,1
   27298:	da011d15 	stw	r8,1140(sp)
   2729c:	d8c11c15 	stw	r3,1136(sp)
   272a0:	008001c4 	movi	r2,7
   272a4:	10fcbd16 	blt	r2,r3,2659c <___vfprintf_internal_r+0xcb4>
   272a8:	4a400204 	addi	r9,r9,8
   272ac:	003cc206 	br	265b8 <___vfprintf_internal_r+0xcd0>
   272b0:	da413c15 	stw	r9,1264(sp)
   272b4:	00258280 	call	25828 <strlen>
   272b8:	d8812b15 	stw	r2,1196(sp)
   272bc:	d8812815 	stw	r2,1184(sp)
   272c0:	da413c17 	ldw	r9,1264(sp)
   272c4:	103fa90e 	bge	r2,zero,2716c <___vfprintf_internal_r+0x1884>
   272c8:	d8012815 	stw	zero,1184(sp)
   272cc:	003fa706 	br	2716c <___vfprintf_internal_r+0x1884>
   272d0:	d9412917 	ldw	r5,1188(sp)
   272d4:	8809883a 	mov	r4,r17
   272d8:	d9811b04 	addi	r6,sp,1132
   272dc:	00258b40 	call	258b4 <__sprint_r>
   272e0:	103ac71e 	bne	r2,zero,25e00 <___vfprintf_internal_r+0x518>
   272e4:	da011d17 	ldw	r8,1140(sp)
   272e8:	d8c11c17 	ldw	r3,1136(sp)
   272ec:	da400404 	addi	r9,sp,16
   272f0:	d8813217 	ldw	r2,1224(sp)
   272f4:	4cc00015 	stw	r19,0(r9)
   272f8:	48800115 	stw	r2,4(r9)
   272fc:	4091883a 	add	r8,r8,r2
   27300:	003c6206 	br	2648c <___vfprintf_internal_r+0xba4>
   27304:	00800b44 	movi	r2,45
   27308:	d8812585 	stb	r2,1174(sp)
   2730c:	003b2406 	br	25fa0 <___vfprintf_internal_r+0x6b8>
   27310:	4d000015 	stw	r20,0(r9)
   27314:	4c800115 	stw	r18,4(r9)
   27318:	4491883a 	add	r8,r8,r18
   2731c:	18c00044 	addi	r3,r3,1
   27320:	da011d15 	stw	r8,1140(sp)
   27324:	d8c11c15 	stw	r3,1136(sp)
   27328:	008001c4 	movi	r2,7
   2732c:	10ffe816 	blt	r2,r3,272d0 <___vfprintf_internal_r+0x19e8>
   27330:	4a400204 	addi	r9,r9,8
   27334:	003fee06 	br	272f0 <___vfprintf_internal_r+0x1a08>
   27338:	d8c12b15 	stw	r3,1196(sp)
   2733c:	00800184 	movi	r2,6
   27340:	10c0062e 	bgeu	r2,r3,2735c <___vfprintf_internal_r+0x1a74>
   27344:	d8812b15 	stw	r2,1196(sp)
   27348:	d8812815 	stw	r2,1184(sp)
   2734c:	ddc12d15 	stw	r23,1204(sp)
   27350:	04c000f4 	movhi	r19,3
   27354:	9cd30b04 	addi	r19,r19,19500
   27358:	0039ca06 	br	25a84 <___vfprintf_internal_r+0x19c>
   2735c:	d8812b17 	ldw	r2,1196(sp)
   27360:	d8812815 	stw	r2,1184(sp)
   27364:	103ff90e 	bge	r2,zero,2734c <___vfprintf_internal_r+0x1a64>
   27368:	d8012815 	stw	zero,1184(sp)
   2736c:	003ff706 	br	2734c <___vfprintf_internal_r+0x1a64>
   27370:	00800244 	movi	r2,9
   27374:	15fdaa36 	bltu	r2,r23,26a20 <___vfprintf_internal_r+0x1138>
   27378:	dd010e04 	addi	r20,sp,1080
   2737c:	003dc606 	br	26a98 <___vfprintf_internal_r+0x11b0>
   27380:	d9412917 	ldw	r5,1188(sp)
   27384:	8809883a 	mov	r4,r17
   27388:	d9811b04 	addi	r6,sp,1132
   2738c:	00258b40 	call	258b4 <__sprint_r>
   27390:	103a9b1e 	bne	r2,zero,25e00 <___vfprintf_internal_r+0x518>
   27394:	dc812417 	ldw	r18,1168(sp)
   27398:	da400404 	addi	r9,sp,16
   2739c:	003ecd06 	br	26ed4 <___vfprintf_internal_r+0x15ec>
   273a0:	d9412917 	ldw	r5,1188(sp)
   273a4:	8809883a 	mov	r4,r17
   273a8:	d9811b04 	addi	r6,sp,1132
   273ac:	00258b40 	call	258b4 <__sprint_r>
   273b0:	103a931e 	bne	r2,zero,25e00 <___vfprintf_internal_r+0x518>
   273b4:	dc812417 	ldw	r18,1168(sp)
   273b8:	da011d17 	ldw	r8,1140(sp)
   273bc:	d8c11c17 	ldw	r3,1136(sp)
   273c0:	da400404 	addi	r9,sp,16
   273c4:	003eb706 	br	26ea4 <___vfprintf_internal_r+0x15bc>
   273c8:	d9412917 	ldw	r5,1188(sp)
   273cc:	8809883a 	mov	r4,r17
   273d0:	d9811b04 	addi	r6,sp,1132
   273d4:	00258b40 	call	258b4 <__sprint_r>
   273d8:	103a891e 	bne	r2,zero,25e00 <___vfprintf_internal_r+0x518>
   273dc:	dc812417 	ldw	r18,1168(sp)
   273e0:	da011d17 	ldw	r8,1140(sp)
   273e4:	da400404 	addi	r9,sp,16
   273e8:	003dc206 	br	26af4 <___vfprintf_internal_r+0x120c>
   273ec:	df012815 	stw	fp,1184(sp)
   273f0:	d8812583 	ldbu	r2,1174(sp)
   273f4:	df012b15 	stw	fp,1196(sp)
   273f8:	ddc12d15 	stw	r23,1204(sp)
   273fc:	d8013115 	stw	zero,1220(sp)
   27400:	003ac606 	br	25f1c <___vfprintf_internal_r+0x634>
   27404:	d8812404 	addi	r2,sp,1168
   27408:	d8800115 	stw	r2,4(sp)
   2740c:	d8812304 	addi	r2,sp,1164
   27410:	d8800215 	stw	r2,8(sp)
   27414:	d8812204 	addi	r2,sp,1160
   27418:	df000015 	stw	fp,0(sp)
   2741c:	d8800315 	stw	r2,12(sp)
   27420:	8809883a 	mov	r4,r17
   27424:	b00b883a 	mov	r5,r22
   27428:	a00d883a 	mov	r6,r20
   2742c:	01c000c4 	movi	r7,3
   27430:	da413c15 	stw	r9,1264(sp)
   27434:	00293900 	call	29390 <_dtoa_r>
   27438:	da413c17 	ldw	r9,1264(sp)
   2743c:	1027883a 	mov	r19,r2
   27440:	1707883a 	add	r3,r2,fp
   27444:	e02f883a 	mov	r23,fp
   27448:	99000007 	ldb	r4,0(r19)
   2744c:	00800c04 	movi	r2,48
   27450:	20800326 	beq	r4,r2,27460 <___vfprintf_internal_r+0x1b78>
   27454:	da812417 	ldw	r10,1168(sp)
   27458:	1a87883a 	add	r3,r3,r10
   2745c:	003f1406 	br	270b0 <___vfprintf_internal_r+0x17c8>
   27460:	b009883a 	mov	r4,r22
   27464:	a00b883a 	mov	r5,r20
   27468:	000d883a 	mov	r6,zero
   2746c:	000f883a 	mov	r7,zero
   27470:	d8c13b15 	stw	r3,1260(sp)
   27474:	da413c15 	stw	r9,1264(sp)
   27478:	00316880 	call	31688 <__nedf2>
   2747c:	d8c13b17 	ldw	r3,1260(sp)
   27480:	da413c17 	ldw	r9,1264(sp)
   27484:	103ff326 	beq	r2,zero,27454 <___vfprintf_internal_r+0x1b6c>
   27488:	00800044 	movi	r2,1
   2748c:	15d5c83a 	sub	r10,r2,r23
   27490:	da812415 	stw	r10,1168(sp)
   27494:	1a87883a 	add	r3,r3,r10
   27498:	003f0506 	br	270b0 <___vfprintf_internal_r+0x17c8>
   2749c:	d9412917 	ldw	r5,1188(sp)
   274a0:	8809883a 	mov	r4,r17
   274a4:	d9811b04 	addi	r6,sp,1132
   274a8:	00258b40 	call	258b4 <__sprint_r>
   274ac:	103a541e 	bne	r2,zero,25e00 <___vfprintf_internal_r+0x518>
   274b0:	dc812417 	ldw	r18,1168(sp)
   274b4:	da011d17 	ldw	r8,1140(sp)
   274b8:	d8c11c17 	ldw	r3,1136(sp)
   274bc:	da400404 	addi	r9,sp,16
   274c0:	003eb206 	br	26f8c <___vfprintf_internal_r+0x16a4>
   274c4:	b82b883a 	mov	r21,r23
   274c8:	0007883a 	mov	r3,zero
   274cc:	00396306 	br	25a5c <___vfprintf_internal_r+0x174>
   274d0:	04c000f4 	movhi	r19,3
   274d4:	9cd30004 	addi	r19,r19,19456
   274d8:	003f4e06 	br	27214 <___vfprintf_internal_r+0x192c>
   274dc:	d8812583 	ldbu	r2,1174(sp)
   274e0:	dc012a17 	ldw	r16,1192(sp)
   274e4:	d8013115 	stw	zero,1220(sp)
   274e8:	003a8c06 	br	25f1c <___vfprintf_internal_r+0x634>
   274ec:	d8812417 	ldw	r2,1168(sp)
   274f0:	d8812b15 	stw	r2,1196(sp)
   274f4:	1029883a 	mov	r20,r2
   274f8:	00bfff44 	movi	r2,-3
   274fc:	a0800116 	blt	r20,r2,27504 <___vfprintf_internal_r+0x1c1c>
   27500:	e5001d0e 	bge	fp,r20,27578 <___vfprintf_internal_r+0x1c90>
   27504:	94bfff84 	addi	r18,r18,-2
   27508:	a53fffc4 	addi	r20,r20,-1
   2750c:	dd012415 	stw	r20,1168(sp)
   27510:	dc811fc5 	stb	r18,1151(sp)
   27514:	a0007216 	blt	r20,zero,276e0 <___vfprintf_internal_r+0x1df8>
   27518:	00800ac4 	movi	r2,43
   2751c:	d8812005 	stb	r2,1152(sp)
   27520:	00800244 	movi	r2,9
   27524:	15003516 	blt	r2,r20,275fc <___vfprintf_internal_r+0x1d14>
   27528:	00800c04 	movi	r2,48
   2752c:	a5000c04 	addi	r20,r20,48
   27530:	d8812045 	stb	r2,1153(sp)
   27534:	dd012085 	stb	r20,1154(sp)
   27538:	d8c120c4 	addi	r3,sp,1155
   2753c:	d8811fc4 	addi	r2,sp,1151
   27540:	1885c83a 	sub	r2,r3,r2
   27544:	d8c13217 	ldw	r3,1224(sp)
   27548:	d8813515 	stw	r2,1236(sp)
   2754c:	1885883a 	add	r2,r3,r2
   27550:	d8812b15 	stw	r2,1196(sp)
   27554:	00800044 	movi	r2,1
   27558:	10c0580e 	bge	r2,r3,276bc <___vfprintf_internal_r+0x1dd4>
   2755c:	d8812b17 	ldw	r2,1196(sp)
   27560:	10800044 	addi	r2,r2,1
   27564:	d8812b15 	stw	r2,1196(sp)
   27568:	d8812815 	stw	r2,1184(sp)
   2756c:	103ef50e 	bge	r2,zero,27144 <___vfprintf_internal_r+0x185c>
   27570:	d8012815 	stw	zero,1184(sp)
   27574:	003ef306 	br	27144 <___vfprintf_internal_r+0x185c>
   27578:	d8812b17 	ldw	r2,1196(sp)
   2757c:	d8c13217 	ldw	r3,1224(sp)
   27580:	10c01416 	blt	r2,r3,275d4 <___vfprintf_internal_r+0x1cec>
   27584:	8400004c 	andi	r16,r16,1
   27588:	80000326 	beq	r16,zero,27598 <___vfprintf_internal_r+0x1cb0>
   2758c:	d8812b17 	ldw	r2,1196(sp)
   27590:	10800044 	addi	r2,r2,1
   27594:	d8812b15 	stw	r2,1196(sp)
   27598:	d8812815 	stw	r2,1184(sp)
   2759c:	10001416 	blt	r2,zero,275f0 <___vfprintf_internal_r+0x1d08>
   275a0:	048019c4 	movi	r18,103
   275a4:	003ee706 	br	27144 <___vfprintf_internal_r+0x185c>
   275a8:	d8012815 	stw	zero,1184(sp)
   275ac:	003b1a06 	br	26218 <___vfprintf_internal_r+0x930>
   275b0:	e03e9c1e 	bne	fp,zero,27024 <___vfprintf_internal_r+0x173c>
   275b4:	07000044 	movi	fp,1
   275b8:	003e9a06 	br	27024 <___vfprintf_internal_r+0x173c>
   275bc:	07000184 	movi	fp,6
   275c0:	003e9806 	br	27024 <___vfprintf_internal_r+0x173c>
   275c4:	00c00b44 	movi	r3,45
   275c8:	a520003c 	xorhi	r20,r20,32768
   275cc:	d8c12f05 	stb	r3,1212(sp)
   275d0:	003e9806 	br	27034 <___vfprintf_internal_r+0x174c>
   275d4:	05003f0e 	bge	zero,r20,276d4 <___vfprintf_internal_r+0x1dec>
   275d8:	05000044 	movi	r20,1
   275dc:	d8c13217 	ldw	r3,1224(sp)
   275e0:	a0e9883a 	add	r20,r20,r3
   275e4:	dd012b15 	stw	r20,1196(sp)
   275e8:	dd012815 	stw	r20,1184(sp)
   275ec:	a03fec0e 	bge	r20,zero,275a0 <___vfprintf_internal_r+0x1cb8>
   275f0:	d8012815 	stw	zero,1184(sp)
   275f4:	048019c4 	movi	r18,103
   275f8:	003ed206 	br	27144 <___vfprintf_internal_r+0x185c>
   275fc:	d8c11f84 	addi	r3,sp,1150
   27600:	102f883a 	mov	r23,r2
   27604:	4839883a 	mov	fp,r9
   27608:	a009883a 	mov	r4,r20
   2760c:	01400284 	movi	r5,10
   27610:	182d883a 	mov	r22,r3
   27614:	0022ca80 	call	22ca8 <__modsi3>
   27618:	10800c04 	addi	r2,r2,48
   2761c:	a009883a 	mov	r4,r20
   27620:	b0800005 	stb	r2,0(r22)
   27624:	01400284 	movi	r5,10
   27628:	0022c580 	call	22c58 <__divsi3>
   2762c:	1029883a 	mov	r20,r2
   27630:	b0ffffc4 	addi	r3,r22,-1
   27634:	b8bff416 	blt	r23,r2,27608 <___vfprintf_internal_r+0x1d20>
   27638:	11400c04 	addi	r5,r2,48
   2763c:	b17fffc5 	stb	r5,-1(r22)
   27640:	d8811fc4 	addi	r2,sp,1151
   27644:	e013883a 	mov	r9,fp
   27648:	18803e2e 	bgeu	r3,r2,27744 <___vfprintf_internal_r+0x1e5c>
   2764c:	b007883a 	mov	r3,r22
   27650:	d9012044 	addi	r4,sp,1153
   27654:	00000206 	br	27660 <___vfprintf_internal_r+0x1d78>
   27658:	19400003 	ldbu	r5,0(r3)
   2765c:	18c00044 	addi	r3,r3,1
   27660:	21400005 	stb	r5,0(r4)
   27664:	21000044 	addi	r4,r4,1
   27668:	10fffb1e 	bne	r2,r3,27658 <___vfprintf_internal_r+0x1d70>
   2766c:	d8c12004 	addi	r3,sp,1152
   27670:	1d87c83a 	sub	r3,r3,r22
   27674:	d9012044 	addi	r4,sp,1153
   27678:	20c7883a 	add	r3,r4,r3
   2767c:	003fb006 	br	27540 <___vfprintf_internal_r+0x1c58>
   27680:	e5c00044 	addi	r23,fp,1
   27684:	003e7406 	br	27058 <___vfprintf_internal_r+0x1770>
   27688:	d8c12217 	ldw	r3,1160(sp)
   2768c:	003e9906 	br	270f4 <___vfprintf_internal_r+0x180c>
   27690:	d9012d17 	ldw	r4,1204(sp)
   27694:	ac800043 	ldbu	r18,1(r21)
   27698:	b82b883a 	mov	r21,r23
   2769c:	20c00017 	ldw	r3,0(r4)
   276a0:	20800104 	addi	r2,r4,4
   276a4:	d8812d15 	stw	r2,1204(sp)
   276a8:	18002116 	blt	r3,zero,27730 <___vfprintf_internal_r+0x1e48>
   276ac:	94803fcc 	andi	r18,r18,255
   276b0:	9480201c 	xori	r18,r18,128
   276b4:	94bfe004 	addi	r18,r18,-128
   276b8:	0038e706 	br	25a58 <___vfprintf_internal_r+0x170>
   276bc:	80a0703a 	and	r16,r16,r2
   276c0:	803fa61e 	bne	r16,zero,2755c <___vfprintf_internal_r+0x1c74>
   276c4:	d8812b17 	ldw	r2,1196(sp)
   276c8:	d8812815 	stw	r2,1184(sp)
   276cc:	103e9d0e 	bge	r2,zero,27144 <___vfprintf_internal_r+0x185c>
   276d0:	003fa706 	br	27570 <___vfprintf_internal_r+0x1c88>
   276d4:	00800084 	movi	r2,2
   276d8:	1529c83a 	sub	r20,r2,r20
   276dc:	003fbf06 	br	275dc <___vfprintf_internal_r+0x1cf4>
   276e0:	00800b44 	movi	r2,45
   276e4:	0529c83a 	sub	r20,zero,r20
   276e8:	d8812005 	stb	r2,1152(sp)
   276ec:	003f8c06 	br	27520 <___vfprintf_internal_r+0x1c38>
   276f0:	008011c4 	movi	r2,71
   276f4:	90be6926 	beq	r18,r2,2709c <___vfprintf_internal_r+0x17b4>
   276f8:	003e6a06 	br	270a4 <___vfprintf_internal_r+0x17bc>
   276fc:	00bfffc4 	movi	r2,-1
   27700:	d8812c15 	stw	r2,1200(sp)
   27704:	0039ad06 	br	25dbc <___vfprintf_internal_r+0x4d4>
   27708:	1007883a 	mov	r3,r2
   2770c:	003e7906 	br	270f4 <___vfprintf_internal_r+0x180c>
   27710:	e000021e 	bne	fp,zero,2771c <___vfprintf_internal_r+0x1e34>
   27714:	8400004c 	andi	r16,r16,1
   27718:	80000e26 	beq	r16,zero,27754 <___vfprintf_internal_r+0x1e6c>
   2771c:	e7000084 	addi	fp,fp,2
   27720:	df012b15 	stw	fp,1196(sp)
   27724:	df012815 	stw	fp,1184(sp)
   27728:	e03e860e 	bge	fp,zero,27144 <___vfprintf_internal_r+0x185c>
   2772c:	003f9006 	br	27570 <___vfprintf_internal_r+0x1c88>
   27730:	94803fcc 	andi	r18,r18,255
   27734:	9480201c 	xori	r18,r18,128
   27738:	00ffffc4 	movi	r3,-1
   2773c:	94bfe004 	addi	r18,r18,-128
   27740:	0038c506 	br	25a58 <___vfprintf_internal_r+0x170>
   27744:	d8c12044 	addi	r3,sp,1153
   27748:	003f7d06 	br	27540 <___vfprintf_internal_r+0x1c58>
   2774c:	dd012417 	ldw	r20,1168(sp)
   27750:	003f6d06 	br	27508 <___vfprintf_internal_r+0x1c20>
   27754:	00c00044 	movi	r3,1
   27758:	d8c12815 	stw	r3,1184(sp)
   2775c:	d8c12b15 	stw	r3,1196(sp)
   27760:	003e7806 	br	27144 <___vfprintf_internal_r+0x185c>

00027764 <__vfprintf_internal>:
   27764:	008000f4 	movhi	r2,3
   27768:	1096ef04 	addi	r2,r2,23484
   2776c:	2007883a 	mov	r3,r4
   27770:	11000017 	ldw	r4,0(r2)
   27774:	2805883a 	mov	r2,r5
   27778:	300f883a 	mov	r7,r6
   2777c:	180b883a 	mov	r5,r3
   27780:	100d883a 	mov	r6,r2
   27784:	00258e81 	jmpi	258e8 <___vfprintf_internal_r>

00027788 <__svfscanf_r>:
   27788:	deff4c04 	addi	sp,sp,-720
   2778c:	ddc0b115 	stw	r23,708(sp)
   27790:	dd00ae15 	stw	r20,696(sp)
   27794:	dcc0ad15 	stw	r19,692(sp)
   27798:	dc80ac15 	stw	r18,688(sp)
   2779c:	dc40ab15 	stw	r17,684(sp)
   277a0:	dc00aa15 	stw	r16,680(sp)
   277a4:	dfc0b315 	stw	ra,716(sp)
   277a8:	df00b215 	stw	fp,712(sp)
   277ac:	dd80b015 	stw	r22,704(sp)
   277b0:	dd40af15 	stw	r21,700(sp)
   277b4:	30800007 	ldb	r2,0(r6)
   277b8:	002f883a 	mov	r23,zero
   277bc:	d9c09c15 	stw	r7,624(sp)
   277c0:	d800a015 	stw	zero,640(sp)
   277c4:	d8009f15 	stw	zero,636(sp)
   277c8:	d8009e15 	stw	zero,632(sp)
   277cc:	d8809b15 	stw	r2,620(sp)
   277d0:	2023883a 	mov	r17,r4
   277d4:	048000f4 	movhi	r18,3
   277d8:	9496f204 	addi	r18,r18,23496
   277dc:	b829883a 	mov	r20,r23
   277e0:	2827883a 	mov	r19,r5
   277e4:	34000044 	addi	r16,r6,1
   277e8:	10002426 	beq	r2,zero,2787c <__svfscanf_r+0xf4>
   277ec:	95400017 	ldw	r21,0(r18)
   277f0:	a887883a 	add	r3,r21,r2
   277f4:	18c00003 	ldbu	r3,0(r3)
   277f8:	18c0020c 	andi	r3,r3,8
   277fc:	18c03fcc 	andi	r3,r3,255
   27800:	18c0201c 	xori	r3,r3,128
   27804:	18ffe004 	addi	r3,r3,-128
   27808:	18002926 	beq	r3,zero,278b0 <__svfscanf_r+0x128>
   2780c:	98800117 	ldw	r2,4(r19)
   27810:	0080110e 	bge	zero,r2,27858 <__svfscanf_r+0xd0>
   27814:	98c00017 	ldw	r3,0(r19)
   27818:	91000017 	ldw	r4,0(r18)
   2781c:	18800003 	ldbu	r2,0(r3)
   27820:	2085883a 	add	r2,r4,r2
   27824:	10800003 	ldbu	r2,0(r2)
   27828:	1080020c 	andi	r2,r2,8
   2782c:	10803fcc 	andi	r2,r2,255
   27830:	1080201c 	xori	r2,r2,128
   27834:	10bfe004 	addi	r2,r2,-128
   27838:	10000b26 	beq	r2,zero,27868 <__svfscanf_r+0xe0>
   2783c:	98800117 	ldw	r2,4(r19)
   27840:	18c00044 	addi	r3,r3,1
   27844:	98c00015 	stw	r3,0(r19)
   27848:	10bfffc4 	addi	r2,r2,-1
   2784c:	98800115 	stw	r2,4(r19)
   27850:	a5000044 	addi	r20,r20,1
   27854:	00bfef16 	blt	zero,r2,27814 <__svfscanf_r+0x8c>
   27858:	8809883a 	mov	r4,r17
   2785c:	980b883a 	mov	r5,r19
   27860:	002544c0 	call	2544c <__srefill_r>
   27864:	103feb26 	beq	r2,zero,27814 <__svfscanf_r+0x8c>
   27868:	800d883a 	mov	r6,r16
   2786c:	30800007 	ldb	r2,0(r6)
   27870:	34000044 	addi	r16,r6,1
   27874:	d8809b15 	stw	r2,620(sp)
   27878:	103fdc1e 	bne	r2,zero,277ec <__svfscanf_r+0x64>
   2787c:	d8809e17 	ldw	r2,632(sp)
   27880:	dfc0b317 	ldw	ra,716(sp)
   27884:	df00b217 	ldw	fp,712(sp)
   27888:	ddc0b117 	ldw	r23,708(sp)
   2788c:	dd80b017 	ldw	r22,704(sp)
   27890:	dd40af17 	ldw	r21,700(sp)
   27894:	dd00ae17 	ldw	r20,696(sp)
   27898:	dcc0ad17 	ldw	r19,692(sp)
   2789c:	dc80ac17 	ldw	r18,688(sp)
   278a0:	dc40ab17 	ldw	r17,684(sp)
   278a4:	dc00aa17 	ldw	r16,680(sp)
   278a8:	dec0b404 	addi	sp,sp,720
   278ac:	f800283a 	ret
   278b0:	00c00944 	movi	r3,37
   278b4:	10c00e26 	beq	r2,r3,278f0 <__svfscanf_r+0x168>
   278b8:	98800117 	ldw	r2,4(r19)
   278bc:	0080e40e 	bge	zero,r2,27c50 <__svfscanf_r+0x4c8>
   278c0:	98800017 	ldw	r2,0(r19)
   278c4:	80ffffc7 	ldb	r3,-1(r16)
   278c8:	11000003 	ldbu	r4,0(r2)
   278cc:	20ffeb1e 	bne	r4,r3,2787c <__svfscanf_r+0xf4>
   278d0:	98c00117 	ldw	r3,4(r19)
   278d4:	10800044 	addi	r2,r2,1
   278d8:	98800015 	stw	r2,0(r19)
   278dc:	18bfffc4 	addi	r2,r3,-1
   278e0:	98800115 	stw	r2,4(r19)
   278e4:	a5000044 	addi	r20,r20,1
   278e8:	800d883a 	mov	r6,r16
   278ec:	003fdf06 	br	2786c <__svfscanf_r+0xe4>
   278f0:	0039883a 	mov	fp,zero
   278f4:	35c00043 	ldbu	r23,1(r6)
   278f8:	002d883a 	mov	r22,zero
   278fc:	00c01e04 	movi	r3,120
   27900:	01801b04 	movi	r6,108
   27904:	e009883a 	mov	r4,fp
   27908:	b8803fcc 	andi	r2,r23,255
   2790c:	87000044 	addi	fp,r16,1
   27910:	18804f2e 	bgeu	r3,r2,27a50 <__svfscanf_r+0x2c8>
   27914:	bdc03fcc 	andi	r23,r23,255
   27918:	bdc0201c 	xori	r23,r23,128
   2791c:	bdffe004 	addi	r23,r23,-128
   27920:	adeb883a 	add	r21,r21,r23
   27924:	a8800003 	ldbu	r2,0(r21)
   27928:	df009d15 	stw	fp,628(sp)
   2792c:	2039883a 	mov	fp,r4
   27930:	1080004c 	andi	r2,r2,1
   27934:	1002d926 	beq	r2,zero,2849c <__svfscanf_r+0xd14>
   27938:	b5800054 	ori	r22,r22,1
   2793c:	008000f4 	movhi	r2,3
   27940:	10b91304 	addi	r2,r2,-7092
   27944:	00c00284 	movi	r3,10
   27948:	d880a015 	stw	r2,640(sp)
   2794c:	d8c09f15 	stw	r3,636(sp)
   27950:	040000c4 	movi	r16,3
   27954:	98800117 	ldw	r2,4(r19)
   27958:	0081bd0e 	bge	zero,r2,28050 <__svfscanf_r+0x8c8>
   2795c:	b080100c 	andi	r2,r22,64
   27960:	1000ce26 	beq	r2,zero,27c9c <__svfscanf_r+0x514>
   27964:	00800084 	movi	r2,2
   27968:	80818426 	beq	r16,r2,27f7c <__svfscanf_r+0x7f4>
   2796c:	1400f716 	blt	r2,r16,27d4c <__svfscanf_r+0x5c4>
   27970:	00800044 	movi	r2,1
   27974:	8080dc26 	beq	r16,r2,27ce8 <__svfscanf_r+0x560>
   27978:	e000011e 	bne	fp,zero,27980 <__svfscanf_r+0x1f8>
   2797c:	07000044 	movi	fp,1
   27980:	b080004c 	andi	r2,r22,1
   27984:	10022826 	beq	r2,zero,28228 <__svfscanf_r+0xaa0>
   27988:	b5c0040c 	andi	r23,r22,16
   2798c:	b804601e 	bne	r23,zero,28b10 <__svfscanf_r+0x1388>
   27990:	d8c09c17 	ldw	r3,624(sp)
   27994:	1d800017 	ldw	r22,0(r3)
   27998:	18c00104 	addi	r3,r3,4
   2799c:	d8c09c15 	stw	r3,624(sp)
   279a0:	0021883a 	mov	r16,zero
   279a4:	dd409904 	addi	r21,sp,612
   279a8:	010000f4 	movhi	r4,3
   279ac:	2116f304 	addi	r4,r4,23500
   279b0:	20800017 	ldw	r2,0(r4)
   279b4:	8080aa26 	beq	r16,r2,27c60 <__svfscanf_r+0x4d8>
   279b8:	98800017 	ldw	r2,0(r19)
   279bc:	9a000117 	ldw	r8,4(r19)
   279c0:	d9400104 	addi	r5,sp,4
   279c4:	11c00003 	ldbu	r7,0(r2)
   279c8:	423fffc4 	addi	r8,r8,-1
   279cc:	10800044 	addi	r2,r2,1
   279d0:	2c07883a 	add	r3,r5,r16
   279d4:	a809883a 	mov	r4,r21
   279d8:	000b883a 	mov	r5,zero
   279dc:	01800204 	movi	r6,8
   279e0:	9a000115 	stw	r8,4(r19)
   279e4:	98800015 	stw	r2,0(r19)
   279e8:	19c00005 	stb	r7,0(r3)
   279ec:	84000044 	addi	r16,r16,1
   279f0:	00251e80 	call	251e8 <memset>
   279f4:	8809883a 	mov	r4,r17
   279f8:	dd400015 	stw	r21,0(sp)
   279fc:	b00b883a 	mov	r5,r22
   27a00:	d9800104 	addi	r6,sp,4
   27a04:	800f883a 	mov	r7,r16
   27a08:	002b10c0 	call	2b10c <_mbrtowc_r>
   27a0c:	00ffffc4 	movi	r3,-1
   27a10:	10c09326 	beq	r2,r3,27c60 <__svfscanf_r+0x4d8>
   27a14:	1003281e 	bne	r2,zero,286b8 <__svfscanf_r+0xf30>
   27a18:	b800011e 	bne	r23,zero,27a20 <__svfscanf_r+0x298>
   27a1c:	b0000015 	stw	zero,0(r22)
   27a20:	a429883a 	add	r20,r20,r16
   27a24:	e73fffc4 	addi	fp,fp,-1
   27a28:	b803281e 	bne	r23,zero,286cc <__svfscanf_r+0xf44>
   27a2c:	b5800104 	addi	r22,r22,4
   27a30:	0021883a 	mov	r16,zero
   27a34:	98800117 	ldw	r2,4(r19)
   27a38:	00820b0e 	bge	zero,r2,28268 <__svfscanf_r+0xae0>
   27a3c:	e03fda1e 	bne	fp,zero,279a8 <__svfscanf_r+0x220>
   27a40:	b8012226 	beq	r23,zero,27ecc <__svfscanf_r+0x744>
   27a44:	dc009d17 	ldw	r16,628(sp)
   27a48:	800d883a 	mov	r6,r16
   27a4c:	003f8706 	br	2786c <__svfscanf_r+0xe4>
   27a50:	1085883a 	add	r2,r2,r2
   27a54:	1085883a 	add	r2,r2,r2
   27a58:	014000b4 	movhi	r5,2
   27a5c:	295e9b04 	addi	r5,r5,31340
   27a60:	1145883a 	add	r2,r2,r5
   27a64:	10800017 	ldw	r2,0(r2)
   27a68:	1000683a 	jmp	r2
   27a6c:	00027c80 	call	27c8 <__alt_mem_mem_1-0x1d838>
   27a70:	00027914 	movui	zero,2532
   27a74:	00027914 	movui	zero,2532
   27a78:	00027914 	movui	zero,2532
   27a7c:	00027914 	movui	zero,2532
   27a80:	00027914 	movui	zero,2532
   27a84:	00027914 	movui	zero,2532
   27a88:	00027914 	movui	zero,2532
   27a8c:	00027914 	movui	zero,2532
   27a90:	00027914 	movui	zero,2532
   27a94:	00027914 	movui	zero,2532
   27a98:	00027914 	movui	zero,2532
   27a9c:	00027914 	movui	zero,2532
   27aa0:	00027914 	movui	zero,2532
   27aa4:	00027914 	movui	zero,2532
   27aa8:	00027914 	movui	zero,2532
   27aac:	00027914 	movui	zero,2532
   27ab0:	00027914 	movui	zero,2532
   27ab4:	00027914 	movui	zero,2532
   27ab8:	00027914 	movui	zero,2532
   27abc:	00027914 	movui	zero,2532
   27ac0:	00027914 	movui	zero,2532
   27ac4:	00027914 	movui	zero,2532
   27ac8:	00027914 	movui	zero,2532
   27acc:	00027914 	movui	zero,2532
   27ad0:	00027914 	movui	zero,2532
   27ad4:	00027914 	movui	zero,2532
   27ad8:	00027914 	movui	zero,2532
   27adc:	00027914 	movui	zero,2532
   27ae0:	00027914 	movui	zero,2532
   27ae4:	00027914 	movui	zero,2532
   27ae8:	00027914 	movui	zero,2532
   27aec:	00027914 	movui	zero,2532
   27af0:	00027914 	movui	zero,2532
   27af4:	00027914 	movui	zero,2532
   27af8:	00027914 	movui	zero,2532
   27afc:	00027914 	movui	zero,2532
   27b00:	00028550 	cmplti	zero,zero,2581
   27b04:	00027914 	movui	zero,2532
   27b08:	00027914 	movui	zero,2532
   27b0c:	00027914 	movui	zero,2532
   27b10:	00027914 	movui	zero,2532
   27b14:	0002855c 	xori	zero,zero,2581
   27b18:	00027914 	movui	zero,2532
   27b1c:	00027914 	movui	zero,2532
   27b20:	00027914 	movui	zero,2532
   27b24:	00027914 	movui	zero,2532
   27b28:	00027914 	movui	zero,2532
   27b2c:	000284ec 	andhi	zero,zero,2579
   27b30:	000284ec 	andhi	zero,zero,2579
   27b34:	000284ec 	andhi	zero,zero,2579
   27b38:	000284ec 	andhi	zero,zero,2579
   27b3c:	000284ec 	andhi	zero,zero,2579
   27b40:	000284ec 	andhi	zero,zero,2579
   27b44:	000284ec 	andhi	zero,zero,2579
   27b48:	000284ec 	andhi	zero,zero,2579
   27b4c:	000284ec 	andhi	zero,zero,2579
   27b50:	000284ec 	andhi	zero,zero,2579
   27b54:	00027914 	movui	zero,2532
   27b58:	00027914 	movui	zero,2532
   27b5c:	00027914 	movui	zero,2532
   27b60:	00027914 	movui	zero,2532
   27b64:	00027914 	movui	zero,2532
   27b68:	00027914 	movui	zero,2532
   27b6c:	00027914 	movui	zero,2532
   27b70:	00027914 	movui	zero,2532
   27b74:	00027914 	movui	zero,2532
   27b78:	00027914 	movui	zero,2532
   27b7c:	00028524 	muli	zero,zero,2580
   27b80:	00028530 	cmpltui	zero,zero,2580
   27b84:	00027914 	movui	zero,2532
   27b88:	00028530 	cmpltui	zero,zero,2580
   27b8c:	00027914 	movui	zero,2532
   27b90:	00027914 	movui	zero,2532
   27b94:	00027914 	movui	zero,2532
   27b98:	00027914 	movui	zero,2532
   27b9c:	00028540 	call	2854 <__alt_mem_mem_1-0x1d7ac>
   27ba0:	00027914 	movui	zero,2532
   27ba4:	00027914 	movui	zero,2532
   27ba8:	0002856c 	andhi	zero,zero,2581
   27bac:	00027914 	movui	zero,2532
   27bb0:	00027914 	movui	zero,2532
   27bb4:	00027914 	movui	zero,2532
   27bb8:	00027914 	movui	zero,2532
   27bbc:	00027914 	movui	zero,2532
   27bc0:	00027914 	movui	zero,2532
   27bc4:	00027914 	movui	zero,2532
   27bc8:	00027914 	movui	zero,2532
   27bcc:	00028594 	movui	zero,2582
   27bd0:	00027914 	movui	zero,2532
   27bd4:	00027914 	movui	zero,2532
   27bd8:	000285bc 	xorhi	zero,zero,2582
   27bdc:	00027914 	movui	zero,2532
   27be0:	00027914 	movui	zero,2532
   27be4:	00027914 	movui	zero,2532
   27be8:	00027914 	movui	zero,2532
   27bec:	00027914 	movui	zero,2532
   27bf0:	00027914 	movui	zero,2532
   27bf4:	00027914 	movui	zero,2532
   27bf8:	000285e0 	cmpeqi	zero,zero,2583
   27bfc:	000285f4 	movhi	zero,2583
   27c00:	00028530 	cmpltui	zero,zero,2580
   27c04:	00028530 	cmpltui	zero,zero,2580
   27c08:	00028530 	cmpltui	zero,zero,2580
   27c0c:	00028600 	call	2860 <__alt_mem_mem_1-0x1d7a0>
   27c10:	00028610 	cmplti	zero,zero,2584
   27c14:	00027914 	movui	zero,2532
   27c18:	00027914 	movui	zero,2532
   27c1c:	00028630 	cmpltui	zero,zero,2584
   27c20:	00027914 	movui	zero,2532
   27c24:	00028650 	cmplti	zero,zero,2585
   27c28:	00028684 	movi	zero,2586
   27c2c:	00028690 	cmplti	zero,zero,2586
   27c30:	00027914 	movui	zero,2532
   27c34:	00027914 	movui	zero,2532
   27c38:	000284b8 	rdprs	zero,zero,2578
   27c3c:	00027914 	movui	zero,2532
   27c40:	000284c8 	cmpgei	zero,zero,2579
   27c44:	00027914 	movui	zero,2532
   27c48:	00027914 	movui	zero,2532
   27c4c:	00028594 	movui	zero,2582
   27c50:	8809883a 	mov	r4,r17
   27c54:	980b883a 	mov	r5,r19
   27c58:	002544c0 	call	2544c <__srefill_r>
   27c5c:	103f1826 	beq	r2,zero,278c0 <__svfscanf_r+0x138>
   27c60:	d8809e17 	ldw	r2,632(sp)
   27c64:	10000626 	beq	r2,zero,27c80 <__svfscanf_r+0x4f8>
   27c68:	9880030b 	ldhu	r2,12(r19)
   27c6c:	1080100c 	andi	r2,r2,64
   27c70:	10bfffcc 	andi	r2,r2,65535
   27c74:	10a0001c 	xori	r2,r2,32768
   27c78:	10a00004 	addi	r2,r2,-32768
   27c7c:	103eff26 	beq	r2,zero,2787c <__svfscanf_r+0xf4>
   27c80:	00bfffc4 	movi	r2,-1
   27c84:	d8809e15 	stw	r2,632(sp)
   27c88:	003efc06 	br	2787c <__svfscanf_r+0xf4>
   27c8c:	8809883a 	mov	r4,r17
   27c90:	980b883a 	mov	r5,r19
   27c94:	002544c0 	call	2544c <__srefill_r>
   27c98:	103ff11e 	bne	r2,zero,27c60 <__svfscanf_r+0x4d8>
   27c9c:	91400017 	ldw	r5,0(r18)
   27ca0:	98800017 	ldw	r2,0(r19)
   27ca4:	00000206 	br	27cb0 <__svfscanf_r+0x528>
   27ca8:	10800044 	addi	r2,r2,1
   27cac:	98800015 	stw	r2,0(r19)
   27cb0:	10c00003 	ldbu	r3,0(r2)
   27cb4:	28c7883a 	add	r3,r5,r3
   27cb8:	18c00003 	ldbu	r3,0(r3)
   27cbc:	18c0020c 	andi	r3,r3,8
   27cc0:	18c03fcc 	andi	r3,r3,255
   27cc4:	18c0201c 	xori	r3,r3,128
   27cc8:	18ffe004 	addi	r3,r3,-128
   27ccc:	183f2526 	beq	r3,zero,27964 <__svfscanf_r+0x1dc>
   27cd0:	98c00117 	ldw	r3,4(r19)
   27cd4:	a5000044 	addi	r20,r20,1
   27cd8:	18ffffc4 	addi	r3,r3,-1
   27cdc:	98c00115 	stw	r3,4(r19)
   27ce0:	00fff116 	blt	zero,r3,27ca8 <__svfscanf_r+0x520>
   27ce4:	003fe906 	br	27c8c <__svfscanf_r+0x504>
   27ce8:	e000011e 	bne	fp,zero,27cf0 <__svfscanf_r+0x568>
   27cec:	073fffc4 	movi	fp,-1
   27cf0:	b580040c 	andi	r22,r22,16
   27cf4:	b0016826 	beq	r22,zero,28298 <__svfscanf_r+0xb10>
   27cf8:	98800017 	ldw	r2,0(r19)
   27cfc:	0021883a 	mov	r16,zero
   27d00:	dd805884 	addi	r22,sp,354
   27d04:	10c00003 	ldbu	r3,0(r2)
   27d08:	b0c7883a 	add	r3,r22,r3
   27d0c:	18c00007 	ldb	r3,0(r3)
   27d10:	18039726 	beq	r3,zero,28b70 <__svfscanf_r+0x13e8>
   27d14:	98c00117 	ldw	r3,4(r19)
   27d18:	10800044 	addi	r2,r2,1
   27d1c:	84000044 	addi	r16,r16,1
   27d20:	18ffffc4 	addi	r3,r3,-1
   27d24:	98c00115 	stw	r3,4(r19)
   27d28:	98800015 	stw	r2,0(r19)
   27d2c:	e4008f26 	beq	fp,r16,27f6c <__svfscanf_r+0x7e4>
   27d30:	00fff416 	blt	zero,r3,27d04 <__svfscanf_r+0x57c>
   27d34:	8809883a 	mov	r4,r17
   27d38:	980b883a 	mov	r5,r19
   27d3c:	002544c0 	call	2544c <__srefill_r>
   27d40:	10008a1e 	bne	r2,zero,27f6c <__svfscanf_r+0x7e4>
   27d44:	98800017 	ldw	r2,0(r19)
   27d48:	003fee06 	br	27d04 <__svfscanf_r+0x57c>
   27d4c:	008000c4 	movi	r2,3
   27d50:	80806426 	beq	r16,r2,27ee4 <__svfscanf_r+0x75c>
   27d54:	00800104 	movi	r2,4
   27d58:	80bf071e 	bne	r16,r2,27978 <__svfscanf_r+0x1f0>
   27d5c:	e0bfffc4 	addi	r2,fp,-1
   27d60:	01005704 	movi	r4,348
   27d64:	20814736 	bltu	r4,r2,28284 <__svfscanf_r+0xafc>
   27d68:	0017883a 	mov	r11,zero
   27d6c:	b581e014 	ori	r22,r22,1920
   27d70:	0021883a 	mov	r16,zero
   27d74:	d800a115 	stw	zero,644(sp)
   27d78:	d800a315 	stw	zero,652(sp)
   27d7c:	002b883a 	mov	r21,zero
   27d80:	d800a215 	stw	zero,648(sp)
   27d84:	ddc00104 	addi	r23,sp,4
   27d88:	000d883a 	mov	r6,zero
   27d8c:	00c01384 	movi	r3,78
   27d90:	03810004 	movi	r14,1024
   27d94:	033e1fc4 	movi	r12,-1921
   27d98:	03ff5fc4 	movi	r15,-641
   27d9c:	99c00017 	ldw	r7,0(r19)
   27da0:	39400003 	ldbu	r5,0(r7)
   27da4:	28bff544 	addi	r2,r5,-43
   27da8:	10803fcc 	andi	r2,r2,255
   27dac:	1880c82e 	bgeu	r3,r2,280d0 <__svfscanf_r+0x948>
   27db0:	a8000226 	beq	r21,zero,27dbc <__svfscanf_r+0x634>
   27db4:	00bfbfc4 	movi	r2,-257
   27db8:	b0ac703a 	and	r22,r22,r2
   27dbc:	31bfffc4 	addi	r6,r6,-1
   27dc0:	00800044 	movi	r2,1
   27dc4:	1184092e 	bgeu	r2,r6,28dec <__svfscanf_r+0x1664>
   27dc8:	80803fcc 	andi	r2,r16,255
   27dcc:	1080201c 	xori	r2,r2,128
   27dd0:	10bfe004 	addi	r2,r2,-128
   27dd4:	10ffffc4 	addi	r3,r2,-1
   27dd8:	01000184 	movi	r4,6
   27ddc:	20c01036 	bltu	r4,r3,27e20 <__svfscanf_r+0x698>
   27de0:	00c00084 	movi	r3,2
   27de4:	1883f50e 	bge	r3,r2,28dbc <__svfscanf_r+0x1634>
   27de8:	00c000c4 	movi	r3,3
   27dec:	10c00c26 	beq	r2,r3,27e20 <__svfscanf_r+0x698>
   27df0:	843fff04 	addi	r16,r16,-4
   27df4:	84003fcc 	andi	r16,r16,255
   27df8:	0438303a 	nor	fp,zero,r16
   27dfc:	bf39883a 	add	fp,r23,fp
   27e00:	bdffffc4 	addi	r23,r23,-1
   27e04:	b9400007 	ldb	r5,0(r23)
   27e08:	8809883a 	mov	r4,r17
   27e0c:	980d883a 	mov	r6,r19
   27e10:	002f1640 	call	2f164 <_ungetc_r>
   27e14:	bf3ffa1e 	bne	r23,fp,27e00 <__svfscanf_r+0x678>
   27e18:	a27fffc4 	addi	r9,r20,-1
   27e1c:	4c29c83a 	sub	r20,r9,r16
   27e20:	b080400c 	andi	r2,r22,256
   27e24:	10001326 	beq	r2,zero,27e74 <__svfscanf_r+0x6ec>
   27e28:	b081000c 	andi	r2,r22,1024
   27e2c:	1003d21e 	bne	r2,zero,28d78 <__svfscanf_r+0x15f0>
   27e30:	b97fffc7 	ldb	r5,-1(r23)
   27e34:	00801944 	movi	r2,101
   27e38:	bc3fffc4 	addi	r16,r23,-1
   27e3c:	a53fffc4 	addi	r20,r20,-1
   27e40:	28800826 	beq	r5,r2,27e64 <__svfscanf_r+0x6dc>
   27e44:	00801144 	movi	r2,69
   27e48:	28800626 	beq	r5,r2,27e64 <__svfscanf_r+0x6dc>
   27e4c:	8809883a 	mov	r4,r17
   27e50:	980d883a 	mov	r6,r19
   27e54:	002f1640 	call	2f164 <_ungetc_r>
   27e58:	b97fff87 	ldb	r5,-2(r23)
   27e5c:	bc3fff84 	addi	r16,r23,-2
   27e60:	a53fffc4 	addi	r20,r20,-1
   27e64:	8809883a 	mov	r4,r17
   27e68:	980d883a 	mov	r6,r19
   27e6c:	002f1640 	call	2f164 <_ungetc_r>
   27e70:	802f883a 	mov	r23,r16
   27e74:	b080040c 	andi	r2,r22,16
   27e78:	103ef21e 	bne	r2,zero,27a44 <__svfscanf_r+0x2bc>
   27e7c:	b8000005 	stb	zero,0(r23)
   27e80:	b0c1800c 	andi	r3,r22,1536
   27e84:	00810004 	movi	r2,1024
   27e88:	18837726 	beq	r3,r2,28c68 <__svfscanf_r+0x14e0>
   27e8c:	d8c0a317 	ldw	r3,652(sp)
   27e90:	1803601e 	bne	r3,zero,28c14 <__svfscanf_r+0x148c>
   27e94:	8809883a 	mov	r4,r17
   27e98:	d9400104 	addi	r5,sp,4
   27e9c:	000d883a 	mov	r6,zero
   27ea0:	002cdc80 	call	2cdc8 <_strtod_r>
   27ea4:	102b883a 	mov	r21,r2
   27ea8:	b080004c 	andi	r2,r22,1
   27eac:	182f883a 	mov	r23,r3
   27eb0:	10031f26 	beq	r2,zero,28b30 <__svfscanf_r+0x13a8>
   27eb4:	d9409c17 	ldw	r5,624(sp)
   27eb8:	28800017 	ldw	r2,0(r5)
   27ebc:	29400104 	addi	r5,r5,4
   27ec0:	d9409c15 	stw	r5,624(sp)
   27ec4:	15400015 	stw	r21,0(r2)
   27ec8:	10c00115 	stw	r3,4(r2)
   27ecc:	d8809e17 	ldw	r2,632(sp)
   27ed0:	dc009d17 	ldw	r16,628(sp)
   27ed4:	10800044 	addi	r2,r2,1
   27ed8:	d8809e15 	stw	r2,632(sp)
   27edc:	800d883a 	mov	r6,r16
   27ee0:	003e6206 	br	2786c <__svfscanf_r+0xe4>
   27ee4:	e0bfffc4 	addi	r2,fp,-1
   27ee8:	01005704 	movi	r4,348
   27eec:	2080e82e 	bgeu	r4,r2,28290 <__svfscanf_r+0xb08>
   27ef0:	e0ffa8c4 	addi	r3,fp,-349
   27ef4:	07005744 	movi	fp,349
   27ef8:	da409f17 	ldw	r9,636(sp)
   27efc:	b5836014 	ori	r22,r22,3456
   27f00:	0021883a 	mov	r16,zero
   27f04:	dd400104 	addi	r21,sp,4
   27f08:	05c01344 	movi	r23,77
   27f0c:	01c08004 	movi	r7,512
   27f10:	01bf7fc4 	movi	r6,-513
   27f14:	9a000017 	ldw	r8,0(r19)
   27f18:	41400003 	ldbu	r5,0(r8)
   27f1c:	28bff544 	addi	r2,r5,-43
   27f20:	10803fcc 	andi	r2,r2,255
   27f24:	b881eb2e 	bgeu	r23,r2,286d4 <__svfscanf_r+0xf4c>
   27f28:	da409f15 	stw	r9,636(sp)
   27f2c:	b080400c 	andi	r2,r22,256
   27f30:	10000926 	beq	r2,zero,27f58 <__svfscanf_r+0x7d0>
   27f34:	d9400104 	addi	r5,sp,4
   27f38:	2d40052e 	bgeu	r5,r21,27f50 <__svfscanf_r+0x7c8>
   27f3c:	a97fffc7 	ldb	r5,-1(r21)
   27f40:	8809883a 	mov	r4,r17
   27f44:	980d883a 	mov	r6,r19
   27f48:	ad7fffc4 	addi	r21,r21,-1
   27f4c:	002f1640 	call	2f164 <_ungetc_r>
   27f50:	d8800104 	addi	r2,sp,4
   27f54:	157e4926 	beq	r2,r21,2787c <__svfscanf_r+0xf4>
   27f58:	b080040c 	andi	r2,r22,16
   27f5c:	1002ac26 	beq	r2,zero,28a10 <__svfscanf_r+0x1288>
   27f60:	d8c00104 	addi	r3,sp,4
   27f64:	a8ebc83a 	sub	r21,r21,r3
   27f68:	ac21883a 	add	r16,r21,r16
   27f6c:	a429883a 	add	r20,r20,r16
   27f70:	dc009d17 	ldw	r16,628(sp)
   27f74:	800d883a 	mov	r6,r16
   27f78:	003e3c06 	br	2786c <__svfscanf_r+0xe4>
   27f7c:	e000011e 	bne	fp,zero,27f84 <__svfscanf_r+0x7fc>
   27f80:	073fffc4 	movi	fp,-1
   27f84:	b080004c 	andi	r2,r22,1
   27f88:	b580040c 	andi	r22,r22,16
   27f8c:	10003526 	beq	r2,zero,28064 <__svfscanf_r+0x8dc>
   27f90:	b002dd1e 	bne	r22,zero,28b08 <__svfscanf_r+0x1380>
   27f94:	d8c09c17 	ldw	r3,624(sp)
   27f98:	1d400017 	ldw	r21,0(r3)
   27f9c:	18c00104 	addi	r3,r3,4
   27fa0:	d8c09c15 	stw	r3,624(sp)
   27fa4:	0021883a 	mov	r16,zero
   27fa8:	ddc09904 	addi	r23,sp,612
   27fac:	98c00017 	ldw	r3,0(r19)
   27fb0:	91400017 	ldw	r5,0(r18)
   27fb4:	18800003 	ldbu	r2,0(r3)
   27fb8:	11003fcc 	andi	r4,r2,255
   27fbc:	2909883a 	add	r4,r5,r4
   27fc0:	21000003 	ldbu	r4,0(r4)
   27fc4:	2100020c 	andi	r4,r4,8
   27fc8:	21003fcc 	andi	r4,r4,255
   27fcc:	2100201c 	xori	r4,r4,128
   27fd0:	213fe004 	addi	r4,r4,-128
   27fd4:	2002731e 	bne	r4,zero,289a4 <__svfscanf_r+0x121c>
   27fd8:	e0027226 	beq	fp,zero,289a4 <__svfscanf_r+0x121c>
   27fdc:	014000f4 	movhi	r5,3
   27fe0:	2956f304 	addi	r5,r5,23500
   27fe4:	29000017 	ldw	r4,0(r5)
   27fe8:	813f1d26 	beq	r16,r4,27c60 <__svfscanf_r+0x4d8>
   27fec:	9a000117 	ldw	r8,4(r19)
   27ff0:	18c00044 	addi	r3,r3,1
   27ff4:	d9000104 	addi	r4,sp,4
   27ff8:	423fffc4 	addi	r8,r8,-1
   27ffc:	240f883a 	add	r7,r4,r16
   28000:	000b883a 	mov	r5,zero
   28004:	b809883a 	mov	r4,r23
   28008:	01800204 	movi	r6,8
   2800c:	9a000115 	stw	r8,4(r19)
   28010:	98c00015 	stw	r3,0(r19)
   28014:	38800005 	stb	r2,0(r7)
   28018:	84000044 	addi	r16,r16,1
   2801c:	00251e80 	call	251e8 <memset>
   28020:	a80b883a 	mov	r5,r21
   28024:	8809883a 	mov	r4,r17
   28028:	ddc00015 	stw	r23,0(sp)
   2802c:	d9800104 	addi	r6,sp,4
   28030:	800f883a 	mov	r7,r16
   28034:	002b10c0 	call	2b10c <_mbrtowc_r>
   28038:	017fffc4 	movi	r5,-1
   2803c:	117f0826 	beq	r2,r5,27c60 <__svfscanf_r+0x4d8>
   28040:	1002de1e 	bne	r2,zero,28bbc <__svfscanf_r+0x1434>
   28044:	a8000015 	stw	zero,0(r21)
   28048:	0009883a 	mov	r4,zero
   2804c:	0002de06 	br	28bc8 <__svfscanf_r+0x1440>
   28050:	8809883a 	mov	r4,r17
   28054:	980b883a 	mov	r5,r19
   28058:	002544c0 	call	2544c <__srefill_r>
   2805c:	103e3f26 	beq	r2,zero,2795c <__svfscanf_r+0x1d4>
   28060:	003eff06 	br	27c60 <__svfscanf_r+0x4d8>
   28064:	b0027e26 	beq	r22,zero,28a60 <__svfscanf_r+0x12d8>
   28068:	91400017 	ldw	r5,0(r18)
   2806c:	98800017 	ldw	r2,0(r19)
   28070:	0021883a 	mov	r16,zero
   28074:	10c00003 	ldbu	r3,0(r2)
   28078:	28c7883a 	add	r3,r5,r3
   2807c:	18c00003 	ldbu	r3,0(r3)
   28080:	18c0020c 	andi	r3,r3,8
   28084:	18c03fcc 	andi	r3,r3,255
   28088:	18c0201c 	xori	r3,r3,128
   2808c:	18ffe004 	addi	r3,r3,-128
   28090:	183fb61e 	bne	r3,zero,27f6c <__svfscanf_r+0x7e4>
   28094:	98c00117 	ldw	r3,4(r19)
   28098:	10800044 	addi	r2,r2,1
   2809c:	84000044 	addi	r16,r16,1
   280a0:	18ffffc4 	addi	r3,r3,-1
   280a4:	98c00115 	stw	r3,4(r19)
   280a8:	98800015 	stw	r2,0(r19)
   280ac:	e43faf26 	beq	fp,r16,27f6c <__svfscanf_r+0x7e4>
   280b0:	00fff016 	blt	zero,r3,28074 <__svfscanf_r+0x8ec>
   280b4:	8809883a 	mov	r4,r17
   280b8:	980b883a 	mov	r5,r19
   280bc:	002544c0 	call	2544c <__srefill_r>
   280c0:	103faa1e 	bne	r2,zero,27f6c <__svfscanf_r+0x7e4>
   280c4:	91400017 	ldw	r5,0(r18)
   280c8:	98800017 	ldw	r2,0(r19)
   280cc:	003fe906 	br	28074 <__svfscanf_r+0x8ec>
   280d0:	1085883a 	add	r2,r2,r2
   280d4:	1085883a 	add	r2,r2,r2
   280d8:	010000f4 	movhi	r4,3
   280dc:	21203b04 	addi	r4,r4,-32532
   280e0:	1105883a 	add	r2,r2,r4
   280e4:	10800017 	ldw	r2,0(r2)
   280e8:	1000683a 	jmp	r2
   280ec:	0002838c 	andi	zero,zero,2574
   280f0:	00027db0 	cmpltui	zero,zero,2550
   280f4:	0002838c 	andi	zero,zero,2574
   280f8:	00028378 	rdprs	zero,zero,2573
   280fc:	00027db0 	cmpltui	zero,zero,2550
   28100:	00028354 	movui	zero,2573
   28104:	00028308 	cmpgei	zero,zero,2572
   28108:	00028308 	cmpgei	zero,zero,2572
   2810c:	00028308 	cmpgei	zero,zero,2572
   28110:	00028308 	cmpgei	zero,zero,2572
   28114:	00028308 	cmpgei	zero,zero,2572
   28118:	00028308 	cmpgei	zero,zero,2572
   2811c:	00028308 	cmpgei	zero,zero,2572
   28120:	00028308 	cmpgei	zero,zero,2572
   28124:	00028308 	cmpgei	zero,zero,2572
   28128:	00027db0 	cmpltui	zero,zero,2550
   2812c:	00027db0 	cmpltui	zero,zero,2550
   28130:	00027db0 	cmpltui	zero,zero,2550
   28134:	00027db0 	cmpltui	zero,zero,2550
   28138:	00027db0 	cmpltui	zero,zero,2550
   2813c:	00027db0 	cmpltui	zero,zero,2550
   28140:	00027db0 	cmpltui	zero,zero,2550
   28144:	00028470 	cmpltui	zero,zero,2577
   28148:	00027db0 	cmpltui	zero,zero,2550
   2814c:	00027db0 	cmpltui	zero,zero,2550
   28150:	00027db0 	cmpltui	zero,zero,2550
   28154:	00028434 	movhi	zero,2576
   28158:	00028480 	call	2848 <__alt_mem_mem_1-0x1d7b8>
   2815c:	00027db0 	cmpltui	zero,zero,2550
   28160:	00027db0 	cmpltui	zero,zero,2550
   28164:	0002840c 	andi	zero,zero,2576
   28168:	00027db0 	cmpltui	zero,zero,2550
   2816c:	00027db0 	cmpltui	zero,zero,2550
   28170:	00027db0 	cmpltui	zero,zero,2550
   28174:	00027db0 	cmpltui	zero,zero,2550
   28178:	000283d8 	cmpnei	zero,zero,2575
   2817c:	00027db0 	cmpltui	zero,zero,2550
   28180:	00027db0 	cmpltui	zero,zero,2550
   28184:	00027db0 	cmpltui	zero,zero,2550
   28188:	00027db0 	cmpltui	zero,zero,2550
   2818c:	00027db0 	cmpltui	zero,zero,2550
   28190:	000283bc 	xorhi	zero,zero,2574
   28194:	00027db0 	cmpltui	zero,zero,2550
   28198:	00027db0 	cmpltui	zero,zero,2550
   2819c:	00027db0 	cmpltui	zero,zero,2550
   281a0:	00027db0 	cmpltui	zero,zero,2550
   281a4:	000283a0 	cmpeqi	zero,zero,2574
   281a8:	00027db0 	cmpltui	zero,zero,2550
   281ac:	00027db0 	cmpltui	zero,zero,2550
   281b0:	00027db0 	cmpltui	zero,zero,2550
   281b4:	00027db0 	cmpltui	zero,zero,2550
   281b8:	00027db0 	cmpltui	zero,zero,2550
   281bc:	00027db0 	cmpltui	zero,zero,2550
   281c0:	00027db0 	cmpltui	zero,zero,2550
   281c4:	00028470 	cmpltui	zero,zero,2577
   281c8:	00027db0 	cmpltui	zero,zero,2550
   281cc:	00027db0 	cmpltui	zero,zero,2550
   281d0:	00027db0 	cmpltui	zero,zero,2550
   281d4:	00028434 	movhi	zero,2576
   281d8:	00028480 	call	2848 <__alt_mem_mem_1-0x1d7b8>
   281dc:	00027db0 	cmpltui	zero,zero,2550
   281e0:	00027db0 	cmpltui	zero,zero,2550
   281e4:	0002840c 	andi	zero,zero,2576
   281e8:	00027db0 	cmpltui	zero,zero,2550
   281ec:	00027db0 	cmpltui	zero,zero,2550
   281f0:	00027db0 	cmpltui	zero,zero,2550
   281f4:	00027db0 	cmpltui	zero,zero,2550
   281f8:	000283d8 	cmpnei	zero,zero,2575
   281fc:	00027db0 	cmpltui	zero,zero,2550
   28200:	00027db0 	cmpltui	zero,zero,2550
   28204:	00027db0 	cmpltui	zero,zero,2550
   28208:	00027db0 	cmpltui	zero,zero,2550
   2820c:	00027db0 	cmpltui	zero,zero,2550
   28210:	000283bc 	xorhi	zero,zero,2574
   28214:	00027db0 	cmpltui	zero,zero,2550
   28218:	00027db0 	cmpltui	zero,zero,2550
   2821c:	00027db0 	cmpltui	zero,zero,2550
   28220:	00027db0 	cmpltui	zero,zero,2550
   28224:	000283a0 	cmpeqi	zero,zero,2574
   28228:	b580040c 	andi	r22,r22,16
   2822c:	b0025226 	beq	r22,zero,28b78 <__svfscanf_r+0x13f0>
   28230:	0021883a 	mov	r16,zero
   28234:	98800117 	ldw	r2,4(r19)
   28238:	17026f0e 	bge	r2,fp,28bf8 <__svfscanf_r+0x1470>
   2823c:	98c00017 	ldw	r3,0(r19)
   28240:	8809883a 	mov	r4,r17
   28244:	980b883a 	mov	r5,r19
   28248:	1887883a 	add	r3,r3,r2
   2824c:	98c00015 	stw	r3,0(r19)
   28250:	80a1883a 	add	r16,r16,r2
   28254:	e0b9c83a 	sub	fp,fp,r2
   28258:	002544c0 	call	2544c <__srefill_r>
   2825c:	103ff526 	beq	r2,zero,28234 <__svfscanf_r+0xaac>
   28260:	803f421e 	bne	r16,zero,27f6c <__svfscanf_r+0x7e4>
   28264:	003e7e06 	br	27c60 <__svfscanf_r+0x4d8>
   28268:	8809883a 	mov	r4,r17
   2826c:	980b883a 	mov	r5,r19
   28270:	002544c0 	call	2544c <__srefill_r>
   28274:	103df126 	beq	r2,zero,27a3c <__svfscanf_r+0x2b4>
   28278:	803e791e 	bne	r16,zero,27c60 <__svfscanf_r+0x4d8>
   2827c:	b83f1326 	beq	r23,zero,27ecc <__svfscanf_r+0x744>
   28280:	003df006 	br	27a44 <__svfscanf_r+0x2bc>
   28284:	e2ffa8c4 	addi	r11,fp,-349
   28288:	07005744 	movi	fp,349
   2828c:	003eb706 	br	27d6c <__svfscanf_r+0x5e4>
   28290:	0007883a 	mov	r3,zero
   28294:	003f1806 	br	27ef8 <__svfscanf_r+0x770>
   28298:	d8c09c17 	ldw	r3,624(sp)
   2829c:	98800017 	ldw	r2,0(r19)
   282a0:	dd805884 	addi	r22,sp,354
   282a4:	1c000017 	ldw	r16,0(r3)
   282a8:	1dc00104 	addi	r23,r3,4
   282ac:	802b883a 	mov	r21,r16
   282b0:	10c00003 	ldbu	r3,0(r2)
   282b4:	b0c7883a 	add	r3,r22,r3
   282b8:	18c00007 	ldb	r3,0(r3)
   282bc:	1801c226 	beq	r3,zero,289c8 <__svfscanf_r+0x1240>
   282c0:	98c00117 	ldw	r3,4(r19)
   282c4:	10800044 	addi	r2,r2,1
   282c8:	ad400044 	addi	r21,r21,1
   282cc:	18ffffc4 	addi	r3,r3,-1
   282d0:	98c00115 	stw	r3,4(r19)
   282d4:	10ffffc3 	ldbu	r3,-1(r2)
   282d8:	e73fffc4 	addi	fp,fp,-1
   282dc:	a8ffffc5 	stb	r3,-1(r21)
   282e0:	98800015 	stw	r2,0(r19)
   282e4:	e001b826 	beq	fp,zero,289c8 <__svfscanf_r+0x1240>
   282e8:	98c00117 	ldw	r3,4(r19)
   282ec:	00fff016 	blt	zero,r3,282b0 <__svfscanf_r+0xb28>
   282f0:	8809883a 	mov	r4,r17
   282f4:	980b883a 	mov	r5,r19
   282f8:	002544c0 	call	2544c <__srefill_r>
   282fc:	1001b11e 	bne	r2,zero,289c4 <__svfscanf_r+0x123c>
   28300:	98800017 	ldw	r2,0(r19)
   28304:	003fea06 	br	282b0 <__svfscanf_r+0xb28>
   28308:	80803fcc 	andi	r2,r16,255
   2830c:	1080201c 	xori	r2,r2,128
   28310:	10bfe004 	addi	r2,r2,-128
   28314:	3085883a 	add	r2,r6,r2
   28318:	103ea51e 	bne	r2,zero,27db0 <__svfscanf_r+0x628>
   2831c:	00bf9fc4 	movi	r2,-385
   28320:	b0ac703a 	and	r22,r22,r2
   28324:	b9400005 	stb	r5,0(r23)
   28328:	bdc00044 	addi	r23,r23,1
   2832c:	98800117 	ldw	r2,4(r19)
   28330:	e73fffc4 	addi	fp,fp,-1
   28334:	a5000044 	addi	r20,r20,1
   28338:	10bfffc4 	addi	r2,r2,-1
   2833c:	98800115 	stw	r2,4(r19)
   28340:	00816d0e 	bge	zero,r2,288f8 <__svfscanf_r+0x1170>
   28344:	39c00044 	addi	r7,r7,1
   28348:	99c00015 	stw	r7,0(r19)
   2834c:	e03e931e 	bne	fp,zero,27d9c <__svfscanf_r+0x614>
   28350:	003e9706 	br	27db0 <__svfscanf_r+0x628>
   28354:	b080400c 	andi	r2,r22,256
   28358:	103feb26 	beq	r2,zero,28308 <__svfscanf_r+0xb80>
   2835c:	00bfdfc4 	movi	r2,-129
   28360:	b0ac703a 	and	r22,r22,r2
   28364:	ad400044 	addi	r21,r21,1
   28368:	583ff026 	beq	r11,zero,2832c <__svfscanf_r+0xba4>
   2836c:	5affffc4 	addi	r11,r11,-1
   28370:	e7000044 	addi	fp,fp,1
   28374:	003fed06 	br	2832c <__svfscanf_r+0xba4>
   28378:	b080800c 	andi	r2,r22,512
   2837c:	103e8c26 	beq	r2,zero,27db0 <__svfscanf_r+0x628>
   28380:	b3ec703a 	and	r22,r22,r15
   28384:	dd40a215 	stw	r21,648(sp)
   28388:	003fe606 	br	28324 <__svfscanf_r+0xb9c>
   2838c:	b080200c 	andi	r2,r22,128
   28390:	103e8726 	beq	r2,zero,27db0 <__svfscanf_r+0x628>
   28394:	00bfdfc4 	movi	r2,-129
   28398:	b0ac703a 	and	r22,r22,r2
   2839c:	003fe106 	br	28324 <__svfscanf_r+0xb9c>
   283a0:	81003fcc 	andi	r4,r16,255
   283a4:	2100201c 	xori	r4,r4,128
   283a8:	213fe004 	addi	r4,r4,-128
   283ac:	008001c4 	movi	r2,7
   283b0:	20be7f1e 	bne	r4,r2,27db0 <__svfscanf_r+0x628>
   283b4:	04000204 	movi	r16,8
   283b8:	003fda06 	br	28324 <__svfscanf_r+0xb9c>
   283bc:	81003fcc 	andi	r4,r16,255
   283c0:	2100201c 	xori	r4,r4,128
   283c4:	213fe004 	addi	r4,r4,-128
   283c8:	00800184 	movi	r2,6
   283cc:	20be781e 	bne	r4,r2,27db0 <__svfscanf_r+0x628>
   283d0:	040001c4 	movi	r16,7
   283d4:	003fd306 	br	28324 <__svfscanf_r+0xb9c>
   283d8:	3001891e 	bne	r6,zero,28a00 <__svfscanf_r+0x1278>
   283dc:	b101c00c 	andi	r4,r22,1792
   283e0:	0081c004 	movi	r2,1792
   283e4:	20821d26 	beq	r4,r2,28c5c <__svfscanf_r+0x14d4>
   283e8:	80803fcc 	andi	r2,r16,255
   283ec:	1080201c 	xori	r2,r2,128
   283f0:	10bfe004 	addi	r2,r2,-128
   283f4:	01000044 	movi	r4,1
   283f8:	11000226 	beq	r2,r4,28404 <__svfscanf_r+0xc7c>
   283fc:	01000104 	movi	r4,4
   28400:	113e6b1e 	bne	r2,r4,27db0 <__svfscanf_r+0x628>
   28404:	84000044 	addi	r16,r16,1
   28408:	003fc606 	br	28324 <__svfscanf_r+0xb9c>
   2840c:	80803fcc 	andi	r2,r16,255
   28410:	1080201c 	xori	r2,r2,128
   28414:	10bfe004 	addi	r2,r2,-128
   28418:	1001731e 	bne	r2,zero,289e8 <__svfscanf_r+0x1260>
   2841c:	b101c00c 	andi	r4,r22,1792
   28420:	0081c004 	movi	r2,1792
   28424:	20be621e 	bne	r4,r2,27db0 <__svfscanf_r+0x628>
   28428:	b32c703a 	and	r22,r22,r12
   2842c:	04000044 	movi	r16,1
   28430:	003fbc06 	br	28324 <__svfscanf_r+0xb9c>
   28434:	b081400c 	andi	r2,r22,1280
   28438:	13800326 	beq	r2,r14,28448 <__svfscanf_r+0xcc0>
   2843c:	b081000c 	andi	r2,r22,1024
   28440:	103e5b26 	beq	r2,zero,27db0 <__svfscanf_r+0x628>
   28444:	a83e5d26 	beq	r21,zero,27dbc <__svfscanf_r+0x634>
   28448:	b080800c 	andi	r2,r22,512
   2844c:	1000041e 	bne	r2,zero,28460 <__svfscanf_r+0xcd8>
   28450:	d880a217 	ldw	r2,648(sp)
   28454:	ddc0a115 	stw	r23,644(sp)
   28458:	a8abc83a 	sub	r21,r21,r2
   2845c:	dd40a315 	stw	r21,652(sp)
   28460:	b32c703a 	and	r22,r22,r12
   28464:	b5806014 	ori	r22,r22,384
   28468:	002b883a 	mov	r21,zero
   2846c:	003fad06 	br	28324 <__svfscanf_r+0xb9c>
   28470:	00800044 	movi	r2,1
   28474:	30be4e1e 	bne	r6,r2,27db0 <__svfscanf_r+0x628>
   28478:	01800084 	movi	r6,2
   2847c:	003fa906 	br	28324 <__svfscanf_r+0xb9c>
   28480:	81003fcc 	andi	r4,r16,255
   28484:	2100201c 	xori	r4,r4,128
   28488:	213fe004 	addi	r4,r4,-128
   2848c:	00800084 	movi	r2,2
   28490:	20be471e 	bne	r4,r2,27db0 <__svfscanf_r+0x628>
   28494:	040000c4 	movi	r16,3
   28498:	003fa206 	br	28324 <__svfscanf_r+0xb9c>
   2849c:	014000f4 	movhi	r5,3
   284a0:	29791304 	addi	r5,r5,-7092
   284a4:	00800284 	movi	r2,10
   284a8:	d940a015 	stw	r5,640(sp)
   284ac:	d8809f15 	stw	r2,636(sp)
   284b0:	040000c4 	movi	r16,3
   284b4:	003d2706 	br	27954 <__svfscanf_r+0x1cc>
   284b8:	df009d15 	stw	fp,628(sp)
   284bc:	04000084 	movi	r16,2
   284c0:	2039883a 	mov	fp,r4
   284c4:	003d2306 	br	27954 <__svfscanf_r+0x1cc>
   284c8:	008000f4 	movhi	r2,3
   284cc:	10ba8604 	addi	r2,r2,-5608
   284d0:	00c00284 	movi	r3,10
   284d4:	df009d15 	stw	fp,628(sp)
   284d8:	d880a015 	stw	r2,640(sp)
   284dc:	2039883a 	mov	fp,r4
   284e0:	d8c09f15 	stw	r3,636(sp)
   284e4:	040000c4 	movi	r16,3
   284e8:	003d1a06 	br	27954 <__svfscanf_r+0x1cc>
   284ec:	bdc03fcc 	andi	r23,r23,255
   284f0:	01400284 	movi	r5,10
   284f4:	bdc0201c 	xori	r23,r23,128
   284f8:	d8c0a815 	stw	r3,672(sp)
   284fc:	d980a915 	stw	r6,676(sp)
   28500:	bdffe004 	addi	r23,r23,-128
   28504:	0022d140 	call	22d14 <__mulsi3>
   28508:	15c5883a 	add	r2,r2,r23
   2850c:	113ff404 	addi	r4,r2,-48
   28510:	85c00043 	ldbu	r23,1(r16)
   28514:	d8c0a817 	ldw	r3,672(sp)
   28518:	e021883a 	mov	r16,fp
   2851c:	d980a917 	ldw	r6,676(sp)
   28520:	003cf906 	br	27908 <__svfscanf_r+0x180>
   28524:	df009d15 	stw	fp,628(sp)
   28528:	2039883a 	mov	fp,r4
   2852c:	003d0206 	br	27938 <__svfscanf_r+0x1b0>
   28530:	df009d15 	stw	fp,628(sp)
   28534:	04000104 	movi	r16,4
   28538:	2039883a 	mov	fp,r4
   2853c:	003d0506 	br	27954 <__svfscanf_r+0x1cc>
   28540:	85c00043 	ldbu	r23,1(r16)
   28544:	b5800094 	ori	r22,r22,2
   28548:	e021883a 	mov	r16,fp
   2854c:	003cee06 	br	27908 <__svfscanf_r+0x180>
   28550:	df009d15 	stw	fp,628(sp)
   28554:	e021883a 	mov	r16,fp
   28558:	003cd706 	br	278b8 <__svfscanf_r+0x130>
   2855c:	85c00043 	ldbu	r23,1(r16)
   28560:	b5800414 	ori	r22,r22,16
   28564:	e021883a 	mov	r16,fp
   28568:	003ce706 	br	27908 <__svfscanf_r+0x180>
   2856c:	df009d15 	stw	fp,628(sp)
   28570:	b5800054 	ori	r22,r22,1
   28574:	2039883a 	mov	fp,r4
   28578:	010000f4 	movhi	r4,3
   2857c:	213a8604 	addi	r4,r4,-5608
   28580:	01400204 	movi	r5,8
   28584:	d900a015 	stw	r4,640(sp)
   28588:	d9409f15 	stw	r5,636(sp)
   2858c:	040000c4 	movi	r16,3
   28590:	003cf006 	br	27954 <__svfscanf_r+0x1cc>
   28594:	df009d15 	stw	fp,628(sp)
   28598:	01400404 	movi	r5,16
   2859c:	2039883a 	mov	fp,r4
   285a0:	010000f4 	movhi	r4,3
   285a4:	213a8604 	addi	r4,r4,-5608
   285a8:	b5808014 	ori	r22,r22,512
   285ac:	d900a015 	stw	r4,640(sp)
   285b0:	d9409f15 	stw	r5,636(sp)
   285b4:	040000c4 	movi	r16,3
   285b8:	003ce606 	br	27954 <__svfscanf_r+0x1cc>
   285bc:	df009d15 	stw	fp,628(sp)
   285c0:	d9409d17 	ldw	r5,628(sp)
   285c4:	2039883a 	mov	fp,r4
   285c8:	d9005884 	addi	r4,sp,354
   285cc:	002cb940 	call	2cb94 <__sccl>
   285d0:	d8809d15 	stw	r2,628(sp)
   285d4:	b5801014 	ori	r22,r22,64
   285d8:	04000044 	movi	r16,1
   285dc:	003cdd06 	br	27954 <__svfscanf_r+0x1cc>
   285e0:	df009d15 	stw	fp,628(sp)
   285e4:	b5801014 	ori	r22,r22,64
   285e8:	2039883a 	mov	fp,r4
   285ec:	0021883a 	mov	r16,zero
   285f0:	003cd806 	br	27954 <__svfscanf_r+0x1cc>
   285f4:	df009d15 	stw	fp,628(sp)
   285f8:	2039883a 	mov	fp,r4
   285fc:	003ccf06 	br	2793c <__svfscanf_r+0x1b4>
   28600:	85c00043 	ldbu	r23,1(r16)
   28604:	b5800114 	ori	r22,r22,4
   28608:	e021883a 	mov	r16,fp
   2860c:	003cbe06 	br	27908 <__svfscanf_r+0x180>
   28610:	df009d15 	stw	fp,628(sp)
   28614:	2039883a 	mov	fp,r4
   28618:	010000f4 	movhi	r4,3
   2861c:	21391304 	addi	r4,r4,-7092
   28620:	d900a015 	stw	r4,640(sp)
   28624:	d8009f15 	stw	zero,636(sp)
   28628:	040000c4 	movi	r16,3
   2862c:	003cc906 	br	27954 <__svfscanf_r+0x1cc>
   28630:	85c00043 	ldbu	r23,1(r16)
   28634:	b8803fcc 	andi	r2,r23,255
   28638:	1080201c 	xori	r2,r2,128
   2863c:	10bfe004 	addi	r2,r2,-128
   28640:	11818f26 	beq	r2,r6,28c80 <__svfscanf_r+0x14f8>
   28644:	b5800054 	ori	r22,r22,1
   28648:	e021883a 	mov	r16,fp
   2864c:	003cae06 	br	27908 <__svfscanf_r+0x180>
   28650:	df009d15 	stw	fp,628(sp)
   28654:	b080040c 	andi	r2,r22,16
   28658:	103cfa1e 	bne	r2,zero,27a44 <__svfscanf_r+0x2bc>
   2865c:	b080010c 	andi	r2,r22,4
   28660:	10018b26 	beq	r2,zero,28c90 <__svfscanf_r+0x1508>
   28664:	d9009c17 	ldw	r4,624(sp)
   28668:	e021883a 	mov	r16,fp
   2866c:	800d883a 	mov	r6,r16
   28670:	20800017 	ldw	r2,0(r4)
   28674:	21000104 	addi	r4,r4,4
   28678:	d9009c15 	stw	r4,624(sp)
   2867c:	1500000d 	sth	r20,0(r2)
   28680:	003c7a06 	br	2786c <__svfscanf_r+0xe4>
   28684:	df009d15 	stw	fp,628(sp)
   28688:	2039883a 	mov	fp,r4
   2868c:	003fba06 	br	28578 <__svfscanf_r+0xdf0>
   28690:	008000f4 	movhi	r2,3
   28694:	10ba8604 	addi	r2,r2,-5608
   28698:	00c00404 	movi	r3,16
   2869c:	df009d15 	stw	fp,628(sp)
   286a0:	b5808814 	ori	r22,r22,544
   286a4:	2039883a 	mov	fp,r4
   286a8:	d880a015 	stw	r2,640(sp)
   286ac:	d8c09f15 	stw	r3,636(sp)
   286b0:	040000c4 	movi	r16,3
   286b4:	003ca706 	br	27954 <__svfscanf_r+0x1cc>
   286b8:	013fff84 	movi	r4,-2
   286bc:	113cdd26 	beq	r2,r4,27a34 <__svfscanf_r+0x2ac>
   286c0:	a429883a 	add	r20,r20,r16
   286c4:	e73fffc4 	addi	fp,fp,-1
   286c8:	b83cd826 	beq	r23,zero,27a2c <__svfscanf_r+0x2a4>
   286cc:	0021883a 	mov	r16,zero
   286d0:	003cd806 	br	27a34 <__svfscanf_r+0x2ac>
   286d4:	1085883a 	add	r2,r2,r2
   286d8:	1085883a 	add	r2,r2,r2
   286dc:	010000f4 	movhi	r4,3
   286e0:	2121bc04 	addi	r4,r4,-30992
   286e4:	1105883a 	add	r2,r2,r4
   286e8:	10800017 	ldw	r2,0(r2)
   286ec:	1000683a 	jmp	r2
   286f0:	000288e4 	muli	zero,zero,2595
   286f4:	00027f28 	cmpgeui	zero,zero,2556
   286f8:	000288e4 	muli	zero,zero,2595
   286fc:	00027f28 	cmpgeui	zero,zero,2556
   28700:	00027f28 	cmpgeui	zero,zero,2556
   28704:	000288bc 	xorhi	zero,zero,2594
   28708:	0002889c 	xori	zero,zero,2594
   2870c:	0002889c 	xori	zero,zero,2594
   28710:	0002889c 	xori	zero,zero,2594
   28714:	0002889c 	xori	zero,zero,2594
   28718:	0002889c 	xori	zero,zero,2594
   2871c:	0002889c 	xori	zero,zero,2594
   28720:	0002889c 	xori	zero,zero,2594
   28724:	0002887c 	xorhi	zero,zero,2593
   28728:	0002887c 	xorhi	zero,zero,2593
   2872c:	00027f28 	cmpgeui	zero,zero,2556
   28730:	00027f28 	cmpgeui	zero,zero,2556
   28734:	00027f28 	cmpgeui	zero,zero,2556
   28738:	00027f28 	cmpgeui	zero,zero,2556
   2873c:	00027f28 	cmpgeui	zero,zero,2556
   28740:	00027f28 	cmpgeui	zero,zero,2556
   28744:	00027f28 	cmpgeui	zero,zero,2556
   28748:	00028868 	cmpgeui	zero,zero,2593
   2874c:	00028868 	cmpgeui	zero,zero,2593
   28750:	00028868 	cmpgeui	zero,zero,2593
   28754:	00028868 	cmpgeui	zero,zero,2593
   28758:	00028868 	cmpgeui	zero,zero,2593
   2875c:	00028868 	cmpgeui	zero,zero,2593
   28760:	00027f28 	cmpgeui	zero,zero,2556
   28764:	00027f28 	cmpgeui	zero,zero,2556
   28768:	00027f28 	cmpgeui	zero,zero,2556
   2876c:	00027f28 	cmpgeui	zero,zero,2556
   28770:	00027f28 	cmpgeui	zero,zero,2556
   28774:	00027f28 	cmpgeui	zero,zero,2556
   28778:	00027f28 	cmpgeui	zero,zero,2556
   2877c:	00027f28 	cmpgeui	zero,zero,2556
   28780:	00027f28 	cmpgeui	zero,zero,2556
   28784:	00027f28 	cmpgeui	zero,zero,2556
   28788:	00027f28 	cmpgeui	zero,zero,2556
   2878c:	00027f28 	cmpgeui	zero,zero,2556
   28790:	00027f28 	cmpgeui	zero,zero,2556
   28794:	00027f28 	cmpgeui	zero,zero,2556
   28798:	00027f28 	cmpgeui	zero,zero,2556
   2879c:	00027f28 	cmpgeui	zero,zero,2556
   287a0:	00027f28 	cmpgeui	zero,zero,2556
   287a4:	00028828 	cmpgeui	zero,zero,2592
   287a8:	00027f28 	cmpgeui	zero,zero,2556
   287ac:	00027f28 	cmpgeui	zero,zero,2556
   287b0:	00027f28 	cmpgeui	zero,zero,2556
   287b4:	00027f28 	cmpgeui	zero,zero,2556
   287b8:	00027f28 	cmpgeui	zero,zero,2556
   287bc:	00027f28 	cmpgeui	zero,zero,2556
   287c0:	00027f28 	cmpgeui	zero,zero,2556
   287c4:	00027f28 	cmpgeui	zero,zero,2556
   287c8:	00028868 	cmpgeui	zero,zero,2593
   287cc:	00028868 	cmpgeui	zero,zero,2593
   287d0:	00028868 	cmpgeui	zero,zero,2593
   287d4:	00028868 	cmpgeui	zero,zero,2593
   287d8:	00028868 	cmpgeui	zero,zero,2593
   287dc:	00028868 	cmpgeui	zero,zero,2593
   287e0:	00027f28 	cmpgeui	zero,zero,2556
   287e4:	00027f28 	cmpgeui	zero,zero,2556
   287e8:	00027f28 	cmpgeui	zero,zero,2556
   287ec:	00027f28 	cmpgeui	zero,zero,2556
   287f0:	00027f28 	cmpgeui	zero,zero,2556
   287f4:	00027f28 	cmpgeui	zero,zero,2556
   287f8:	00027f28 	cmpgeui	zero,zero,2556
   287fc:	00027f28 	cmpgeui	zero,zero,2556
   28800:	00027f28 	cmpgeui	zero,zero,2556
   28804:	00027f28 	cmpgeui	zero,zero,2556
   28808:	00027f28 	cmpgeui	zero,zero,2556
   2880c:	00027f28 	cmpgeui	zero,zero,2556
   28810:	00027f28 	cmpgeui	zero,zero,2556
   28814:	00027f28 	cmpgeui	zero,zero,2556
   28818:	00027f28 	cmpgeui	zero,zero,2556
   2881c:	00027f28 	cmpgeui	zero,zero,2556
   28820:	00027f28 	cmpgeui	zero,zero,2556
   28824:	00028828 	cmpgeui	zero,zero,2592
   28828:	b081800c 	andi	r2,r22,1536
   2882c:	11fdbe1e 	bne	r2,r7,27f28 <__svfscanf_r+0x7a0>
   28830:	b1ac703a 	and	r22,r22,r6
   28834:	b5814014 	ori	r22,r22,1280
   28838:	02400404 	movi	r9,16
   2883c:	a9400005 	stb	r5,0(r21)
   28840:	ad400044 	addi	r21,r21,1
   28844:	98800117 	ldw	r2,4(r19)
   28848:	10bfffc4 	addi	r2,r2,-1
   2884c:	98800115 	stw	r2,4(r19)
   28850:	00803b0e 	bge	zero,r2,28940 <__svfscanf_r+0x11b8>
   28854:	42000044 	addi	r8,r8,1
   28858:	9a000015 	stw	r8,0(r19)
   2885c:	e73fffc4 	addi	fp,fp,-1
   28860:	e03dac1e 	bne	fp,zero,27f14 <__svfscanf_r+0x78c>
   28864:	003db006 	br	27f28 <__svfscanf_r+0x7a0>
   28868:	00800284 	movi	r2,10
   2886c:	127dae0e 	bge	r2,r9,27f28 <__svfscanf_r+0x7a0>
   28870:	00bd1fc4 	movi	r2,-2945
   28874:	b0ac703a 	and	r22,r22,r2
   28878:	003ff006 	br	2883c <__svfscanf_r+0x10b4>
   2887c:	4a53883a 	add	r9,r9,r9
   28880:	010000f4 	movhi	r4,3
   28884:	21131784 	addi	r4,r4,19550
   28888:	2245883a 	add	r2,r4,r9
   2888c:	1240000f 	ldh	r9,0(r2)
   28890:	00800204 	movi	r2,8
   28894:	127ff616 	blt	r2,r9,28870 <__svfscanf_r+0x10e8>
   28898:	003da306 	br	27f28 <__svfscanf_r+0x7a0>
   2889c:	4a53883a 	add	r9,r9,r9
   288a0:	010000f4 	movhi	r4,3
   288a4:	21131784 	addi	r4,r4,19550
   288a8:	2245883a 	add	r2,r4,r9
   288ac:	1240000f 	ldh	r9,0(r2)
   288b0:	00bd1fc4 	movi	r2,-2945
   288b4:	b0ac703a 	and	r22,r22,r2
   288b8:	003fe006 	br	2883c <__svfscanf_r+0x10b4>
   288bc:	b082000c 	andi	r2,r22,2048
   288c0:	103fde26 	beq	r2,zero,2883c <__svfscanf_r+0x10b4>
   288c4:	4800021e 	bne	r9,zero,288d0 <__svfscanf_r+0x1148>
   288c8:	b5808014 	ori	r22,r22,512
   288cc:	02400204 	movi	r9,8
   288d0:	b081000c 	andi	r2,r22,1024
   288d4:	10009f26 	beq	r2,zero,28b54 <__svfscanf_r+0x13cc>
   288d8:	00be9fc4 	movi	r2,-1409
   288dc:	b0ac703a 	and	r22,r22,r2
   288e0:	003fd606 	br	2883c <__svfscanf_r+0x10b4>
   288e4:	b080200c 	andi	r2,r22,128
   288e8:	103d8f26 	beq	r2,zero,27f28 <__svfscanf_r+0x7a0>
   288ec:	00bfdfc4 	movi	r2,-129
   288f0:	b0ac703a 	and	r22,r22,r2
   288f4:	003fd106 	br	2883c <__svfscanf_r+0x10b4>
   288f8:	8809883a 	mov	r4,r17
   288fc:	980b883a 	mov	r5,r19
   28900:	d8c0a815 	stw	r3,672(sp)
   28904:	d980a915 	stw	r6,676(sp)
   28908:	dac0a715 	stw	r11,668(sp)
   2890c:	db00a515 	stw	r12,660(sp)
   28910:	db80a415 	stw	r14,656(sp)
   28914:	dbc0a615 	stw	r15,664(sp)
   28918:	002544c0 	call	2544c <__srefill_r>
   2891c:	d8c0a817 	ldw	r3,672(sp)
   28920:	d980a917 	ldw	r6,676(sp)
   28924:	dac0a717 	ldw	r11,668(sp)
   28928:	db00a517 	ldw	r12,660(sp)
   2892c:	db80a417 	ldw	r14,656(sp)
   28930:	dbc0a617 	ldw	r15,664(sp)
   28934:	103d1e1e 	bne	r2,zero,27db0 <__svfscanf_r+0x628>
   28938:	e03d181e 	bne	fp,zero,27d9c <__svfscanf_r+0x614>
   2893c:	003d1c06 	br	27db0 <__svfscanf_r+0x628>
   28940:	8809883a 	mov	r4,r17
   28944:	980b883a 	mov	r5,r19
   28948:	d8c0a815 	stw	r3,672(sp)
   2894c:	d980a915 	stw	r6,676(sp)
   28950:	d9c0a415 	stw	r7,656(sp)
   28954:	da40a515 	stw	r9,660(sp)
   28958:	002544c0 	call	2544c <__srefill_r>
   2895c:	d8c0a817 	ldw	r3,672(sp)
   28960:	d980a917 	ldw	r6,676(sp)
   28964:	d9c0a417 	ldw	r7,656(sp)
   28968:	da40a517 	ldw	r9,660(sp)
   2896c:	103fbb26 	beq	r2,zero,2885c <__svfscanf_r+0x10d4>
   28970:	003d6d06 	br	27f28 <__svfscanf_r+0x7a0>
   28974:	a429883a 	add	r20,r20,r16
   28978:	e73fffc4 	addi	fp,fp,-1
   2897c:	b000fc1e 	bne	r22,zero,28d70 <__svfscanf_r+0x15e8>
   28980:	ad400104 	addi	r21,r21,4
   28984:	0021883a 	mov	r16,zero
   28988:	98800117 	ldw	r2,4(r19)
   2898c:	00bd8716 	blt	zero,r2,27fac <__svfscanf_r+0x824>
   28990:	8809883a 	mov	r4,r17
   28994:	980b883a 	mov	r5,r19
   28998:	002544c0 	call	2544c <__srefill_r>
   2899c:	103d8326 	beq	r2,zero,27fac <__svfscanf_r+0x824>
   289a0:	803caf1e 	bne	r16,zero,27c60 <__svfscanf_r+0x4d8>
   289a4:	b03c271e 	bne	r22,zero,27a44 <__svfscanf_r+0x2bc>
   289a8:	d8809e17 	ldw	r2,632(sp)
   289ac:	dc009d17 	ldw	r16,628(sp)
   289b0:	a8000015 	stw	zero,0(r21)
   289b4:	10800044 	addi	r2,r2,1
   289b8:	d8809e15 	stw	r2,632(sp)
   289bc:	800d883a 	mov	r6,r16
   289c0:	003baa06 	br	2786c <__svfscanf_r+0xe4>
   289c4:	857ca626 	beq	r16,r21,27c60 <__svfscanf_r+0x4d8>
   289c8:	ac21c83a 	sub	r16,r21,r16
   289cc:	803bab26 	beq	r16,zero,2787c <__svfscanf_r+0xf4>
   289d0:	d8809e17 	ldw	r2,632(sp)
   289d4:	a8000005 	stb	zero,0(r21)
   289d8:	ddc09c15 	stw	r23,624(sp)
   289dc:	10800044 	addi	r2,r2,1
   289e0:	d8809e15 	stw	r2,632(sp)
   289e4:	003d6106 	br	27f6c <__svfscanf_r+0x7e4>
   289e8:	010000c4 	movi	r4,3
   289ec:	113e8526 	beq	r2,r4,28404 <__svfscanf_r+0xc7c>
   289f0:	01000144 	movi	r4,5
   289f4:	113cee1e 	bne	r2,r4,27db0 <__svfscanf_r+0x628>
   289f8:	84000044 	addi	r16,r16,1
   289fc:	003e4906 	br	28324 <__svfscanf_r+0xb9c>
   28a00:	00800084 	movi	r2,2
   28a04:	30be781e 	bne	r6,r2,283e8 <__svfscanf_r+0xc60>
   28a08:	018000c4 	movi	r6,3
   28a0c:	003e4506 	br	28324 <__svfscanf_r+0xb9c>
   28a10:	d8c0a017 	ldw	r3,640(sp)
   28a14:	d9c09f17 	ldw	r7,636(sp)
   28a18:	8809883a 	mov	r4,r17
   28a1c:	d9400104 	addi	r5,sp,4
   28a20:	000d883a 	mov	r6,zero
   28a24:	a8000005 	stb	zero,0(r21)
   28a28:	183ee83a 	callr	r3
   28a2c:	b0c0080c 	andi	r3,r22,32
   28a30:	1800391e 	bne	r3,zero,28b18 <__svfscanf_r+0x1390>
   28a34:	b0c0010c 	andi	r3,r22,4
   28a38:	1800ac26 	beq	r3,zero,28cec <__svfscanf_r+0x1564>
   28a3c:	d9409c17 	ldw	r5,624(sp)
   28a40:	28c00017 	ldw	r3,0(r5)
   28a44:	29400104 	addi	r5,r5,4
   28a48:	d9409c15 	stw	r5,624(sp)
   28a4c:	1880000d 	sth	r2,0(r3)
   28a50:	d8809e17 	ldw	r2,632(sp)
   28a54:	10800044 	addi	r2,r2,1
   28a58:	d8809e15 	stw	r2,632(sp)
   28a5c:	003d4006 	br	27f60 <__svfscanf_r+0x7d8>
   28a60:	d8c09c17 	ldw	r3,624(sp)
   28a64:	98800017 	ldw	r2,0(r19)
   28a68:	1d400017 	ldw	r21,0(r3)
   28a6c:	1d800104 	addi	r22,r3,4
   28a70:	a821883a 	mov	r16,r21
   28a74:	10c00003 	ldbu	r3,0(r2)
   28a78:	91400017 	ldw	r5,0(r18)
   28a7c:	28c7883a 	add	r3,r5,r3
   28a80:	18c00003 	ldbu	r3,0(r3)
   28a84:	18c0020c 	andi	r3,r3,8
   28a88:	18c03fcc 	andi	r3,r3,255
   28a8c:	18c0201c 	xori	r3,r3,128
   28a90:	18ffe004 	addi	r3,r3,-128
   28a94:	1800121e 	bne	r3,zero,28ae0 <__svfscanf_r+0x1358>
   28a98:	98c00117 	ldw	r3,4(r19)
   28a9c:	10800044 	addi	r2,r2,1
   28aa0:	84000044 	addi	r16,r16,1
   28aa4:	18ffffc4 	addi	r3,r3,-1
   28aa8:	98c00115 	stw	r3,4(r19)
   28aac:	10ffffc3 	ldbu	r3,-1(r2)
   28ab0:	e73fffc4 	addi	fp,fp,-1
   28ab4:	80ffffc5 	stb	r3,-1(r16)
   28ab8:	98800015 	stw	r2,0(r19)
   28abc:	e0000826 	beq	fp,zero,28ae0 <__svfscanf_r+0x1358>
   28ac0:	98c00117 	ldw	r3,4(r19)
   28ac4:	00ffeb16 	blt	zero,r3,28a74 <__svfscanf_r+0x12ec>
   28ac8:	8809883a 	mov	r4,r17
   28acc:	980b883a 	mov	r5,r19
   28ad0:	002544c0 	call	2544c <__srefill_r>
   28ad4:	1000021e 	bne	r2,zero,28ae0 <__svfscanf_r+0x1358>
   28ad8:	98800017 	ldw	r2,0(r19)
   28adc:	003fe506 	br	28a74 <__svfscanf_r+0x12ec>
   28ae0:	d8809e17 	ldw	r2,632(sp)
   28ae4:	856bc83a 	sub	r21,r16,r21
   28ae8:	80000005 	stb	zero,0(r16)
   28aec:	dc009d17 	ldw	r16,628(sp)
   28af0:	10800044 	addi	r2,r2,1
   28af4:	a569883a 	add	r20,r20,r21
   28af8:	d8809e15 	stw	r2,632(sp)
   28afc:	dd809c15 	stw	r22,624(sp)
   28b00:	800d883a 	mov	r6,r16
   28b04:	003b5906 	br	2786c <__svfscanf_r+0xe4>
   28b08:	dd409b04 	addi	r21,sp,620
   28b0c:	003d2506 	br	27fa4 <__svfscanf_r+0x81c>
   28b10:	002d883a 	mov	r22,zero
   28b14:	003ba206 	br	279a0 <__svfscanf_r+0x218>
   28b18:	d9009c17 	ldw	r4,624(sp)
   28b1c:	20c00017 	ldw	r3,0(r4)
   28b20:	21000104 	addi	r4,r4,4
   28b24:	d9009c15 	stw	r4,624(sp)
   28b28:	18800015 	stw	r2,0(r3)
   28b2c:	003fc806 	br	28a50 <__svfscanf_r+0x12c8>
   28b30:	b280008c 	andi	r10,r22,2
   28b34:	50008126 	beq	r10,zero,28d3c <__svfscanf_r+0x15b4>
   28b38:	d8c09c17 	ldw	r3,624(sp)
   28b3c:	18800017 	ldw	r2,0(r3)
   28b40:	18c00104 	addi	r3,r3,4
   28b44:	d8c09c15 	stw	r3,624(sp)
   28b48:	15400015 	stw	r21,0(r2)
   28b4c:	15c00115 	stw	r23,4(r2)
   28b50:	003cde06 	br	27ecc <__svfscanf_r+0x744>
   28b54:	00bf1fc4 	movi	r2,-897
   28b58:	b0ac703a 	and	r22,r22,r2
   28b5c:	18000226 	beq	r3,zero,28b68 <__svfscanf_r+0x13e0>
   28b60:	18ffffc4 	addi	r3,r3,-1
   28b64:	e7000044 	addi	fp,fp,1
   28b68:	84000044 	addi	r16,r16,1
   28b6c:	003f3506 	br	28844 <__svfscanf_r+0x10bc>
   28b70:	803cfe1e 	bne	r16,zero,27f6c <__svfscanf_r+0x7e4>
   28b74:	003b4106 	br	2787c <__svfscanf_r+0xf4>
   28b78:	d8c09c17 	ldw	r3,624(sp)
   28b7c:	01400044 	movi	r5,1
   28b80:	e00d883a 	mov	r6,fp
   28b84:	19000017 	ldw	r4,0(r3)
   28b88:	980f883a 	mov	r7,r19
   28b8c:	0023b840 	call	23b84 <fread>
   28b90:	d9009c17 	ldw	r4,624(sp)
   28b94:	20c00104 	addi	r3,r4,4
   28b98:	103c3126 	beq	r2,zero,27c60 <__svfscanf_r+0x4d8>
   28b9c:	1529883a 	add	r20,r2,r20
   28ba0:	d8809e17 	ldw	r2,632(sp)
   28ba4:	dc009d17 	ldw	r16,628(sp)
   28ba8:	d8c09c15 	stw	r3,624(sp)
   28bac:	10800044 	addi	r2,r2,1
   28bb0:	d8809e15 	stw	r2,632(sp)
   28bb4:	800d883a 	mov	r6,r16
   28bb8:	003b2c06 	br	2786c <__svfscanf_r+0xe4>
   28bbc:	00ffff84 	movi	r3,-2
   28bc0:	10ff7126 	beq	r2,r3,28988 <__svfscanf_r+0x1200>
   28bc4:	a9000017 	ldw	r4,0(r21)
   28bc8:	002af8c0 	call	2af8c <iswspace>
   28bcc:	103f6926 	beq	r2,zero,28974 <__svfscanf_r+0x11ec>
   28bd0:	803f7426 	beq	r16,zero,289a4 <__svfscanf_r+0x121c>
   28bd4:	843fffc4 	addi	r16,r16,-1
   28bd8:	d9000104 	addi	r4,sp,4
   28bdc:	2405883a 	add	r2,r4,r16
   28be0:	11400003 	ldbu	r5,0(r2)
   28be4:	8809883a 	mov	r4,r17
   28be8:	980d883a 	mov	r6,r19
   28bec:	002f1640 	call	2f164 <_ungetc_r>
   28bf0:	803ff81e 	bne	r16,zero,28bd4 <__svfscanf_r+0x144c>
   28bf4:	003f6b06 	br	289a4 <__svfscanf_r+0x121c>
   28bf8:	99000017 	ldw	r4,0(r19)
   28bfc:	1705c83a 	sub	r2,r2,fp
   28c00:	8721883a 	add	r16,r16,fp
   28c04:	2707883a 	add	r3,r4,fp
   28c08:	98800115 	stw	r2,4(r19)
   28c0c:	98c00015 	stw	r3,0(r19)
   28c10:	003cd606 	br	27f6c <__svfscanf_r+0x7e4>
   28c14:	d880a117 	ldw	r2,644(sp)
   28c18:	000d883a 	mov	r6,zero
   28c1c:	8809883a 	mov	r4,r17
   28c20:	11400044 	addi	r5,r2,1
   28c24:	01c00284 	movi	r7,10
   28c28:	002e44c0 	call	2e44c <_strtol_r>
   28c2c:	d8c0a317 	ldw	r3,652(sp)
   28c30:	10cdc83a 	sub	r6,r2,r3
   28c34:	d900a117 	ldw	r4,644(sp)
   28c38:	d88055c4 	addi	r2,sp,343
   28c3c:	20800236 	bltu	r4,r2,28c48 <__svfscanf_r+0x14c0>
   28c40:	d9005584 	addi	r4,sp,342
   28c44:	d900a115 	stw	r4,644(sp)
   28c48:	d900a117 	ldw	r4,644(sp)
   28c4c:	014000f4 	movhi	r5,3
   28c50:	29531604 	addi	r5,r5,19544
   28c54:	002ccb80 	call	2ccb8 <sprintf>
   28c58:	003c8e06 	br	27e94 <__svfscanf_r+0x70c>
   28c5c:	b32c703a 	and	r22,r22,r12
   28c60:	01800044 	movi	r6,1
   28c64:	003daf06 	br	28324 <__svfscanf_r+0xb9c>
   28c68:	d8c0a217 	ldw	r3,648(sp)
   28c6c:	a8ebc83a 	sub	r21,r21,r3
   28c70:	054dc83a 	sub	r6,zero,r21
   28c74:	a83c8726 	beq	r21,zero,27e94 <__svfscanf_r+0x70c>
   28c78:	ddc0a115 	stw	r23,644(sp)
   28c7c:	003fed06 	br	28c34 <__svfscanf_r+0x14ac>
   28c80:	85c00083 	ldbu	r23,2(r16)
   28c84:	b5800094 	ori	r22,r22,2
   28c88:	84000084 	addi	r16,r16,2
   28c8c:	003b1e06 	br	27908 <__svfscanf_r+0x180>
   28c90:	b080004c 	andi	r2,r22,1
   28c94:	10000d1e 	bne	r2,zero,28ccc <__svfscanf_r+0x1544>
   28c98:	b580008c 	andi	r22,r22,2
   28c9c:	b0000b26 	beq	r22,zero,28ccc <__svfscanf_r+0x1544>
   28ca0:	d8c09c17 	ldw	r3,624(sp)
   28ca4:	d9009c17 	ldw	r4,624(sp)
   28ca8:	dc009d17 	ldw	r16,628(sp)
   28cac:	18800017 	ldw	r2,0(r3)
   28cb0:	a007d7fa 	srai	r3,r20,31
   28cb4:	21000104 	addi	r4,r4,4
   28cb8:	15000015 	stw	r20,0(r2)
   28cbc:	10c00115 	stw	r3,4(r2)
   28cc0:	d9009c15 	stw	r4,624(sp)
   28cc4:	800d883a 	mov	r6,r16
   28cc8:	003ae806 	br	2786c <__svfscanf_r+0xe4>
   28ccc:	d9409c17 	ldw	r5,624(sp)
   28cd0:	dc009d17 	ldw	r16,628(sp)
   28cd4:	28800017 	ldw	r2,0(r5)
   28cd8:	29400104 	addi	r5,r5,4
   28cdc:	d9409c15 	stw	r5,624(sp)
   28ce0:	15000015 	stw	r20,0(r2)
   28ce4:	800d883a 	mov	r6,r16
   28ce8:	003ae006 	br	2786c <__svfscanf_r+0xe4>
   28cec:	b0c0004c 	andi	r3,r22,1
   28cf0:	183f891e 	bne	r3,zero,28b18 <__svfscanf_r+0x1390>
   28cf4:	b580008c 	andi	r22,r22,2
   28cf8:	b03f8726 	beq	r22,zero,28b18 <__svfscanf_r+0x1390>
   28cfc:	d940a017 	ldw	r5,640(sp)
   28d00:	008000f4 	movhi	r2,3
   28d04:	10ba8604 	addi	r2,r2,-5608
   28d08:	8809883a 	mov	r4,r17
   28d0c:	28802626 	beq	r5,r2,28da8 <__svfscanf_r+0x1620>
   28d10:	d9c09f17 	ldw	r7,636(sp)
   28d14:	d9400104 	addi	r5,sp,4
   28d18:	000d883a 	mov	r6,zero
   28d1c:	002e6e80 	call	2e6e8 <_strtoll_r>
   28d20:	d9409c17 	ldw	r5,624(sp)
   28d24:	29000017 	ldw	r4,0(r5)
   28d28:	29400104 	addi	r5,r5,4
   28d2c:	d9409c15 	stw	r5,624(sp)
   28d30:	20800015 	stw	r2,0(r4)
   28d34:	20c00115 	stw	r3,4(r4)
   28d38:	003f4506 	br	28a50 <__svfscanf_r+0x12c8>
   28d3c:	d8809c17 	ldw	r2,624(sp)
   28d40:	a809883a 	mov	r4,r21
   28d44:	180b883a 	mov	r5,r3
   28d48:	14000104 	addi	r16,r2,4
   28d4c:	15800017 	ldw	r22,0(r2)
   28d50:	002cb680 	call	2cb68 <__isnand>
   28d54:	1000311e 	bne	r2,zero,28e1c <__svfscanf_r+0x1694>
   28d58:	a809883a 	mov	r4,r21
   28d5c:	b80b883a 	mov	r5,r23
   28d60:	0031a0c0 	call	31a0c <__truncdfsf2>
   28d64:	b0800015 	stw	r2,0(r22)
   28d68:	dc009c15 	stw	r16,624(sp)
   28d6c:	003c5706 	br	27ecc <__svfscanf_r+0x744>
   28d70:	0021883a 	mov	r16,zero
   28d74:	003f0406 	br	28988 <__svfscanf_r+0x1200>
   28d78:	d9400104 	addi	r5,sp,4
   28d7c:	9821883a 	mov	r16,r19
   28d80:	2dfabe2e 	bgeu	r5,r23,2787c <__svfscanf_r+0xf4>
   28d84:	bcbfffc4 	addi	r18,r23,-1
   28d88:	dcc000c4 	addi	r19,sp,3
   28d8c:	91400007 	ldb	r5,0(r18)
   28d90:	8809883a 	mov	r4,r17
   28d94:	94bfffc4 	addi	r18,r18,-1
   28d98:	800d883a 	mov	r6,r16
   28d9c:	002f1640 	call	2f164 <_ungetc_r>
   28da0:	94fffa1e 	bne	r18,r19,28d8c <__svfscanf_r+0x1604>
   28da4:	003ab506 	br	2787c <__svfscanf_r+0xf4>
   28da8:	d9c09f17 	ldw	r7,636(sp)
   28dac:	d9400104 	addi	r5,sp,4
   28db0:	000d883a 	mov	r6,zero
   28db4:	002ece00 	call	2ece0 <_strtoull_r>
   28db8:	003fd906 	br	28d20 <__svfscanf_r+0x1598>
   28dbc:	d9000104 	addi	r4,sp,4
   28dc0:	9821883a 	mov	r16,r19
   28dc4:	25faad2e 	bgeu	r4,r23,2787c <__svfscanf_r+0xf4>
   28dc8:	bcbfffc4 	addi	r18,r23,-1
   28dcc:	dcc000c4 	addi	r19,sp,3
   28dd0:	91400007 	ldb	r5,0(r18)
   28dd4:	8809883a 	mov	r4,r17
   28dd8:	94bfffc4 	addi	r18,r18,-1
   28ddc:	800d883a 	mov	r6,r16
   28de0:	002f1640 	call	2f164 <_ungetc_r>
   28de4:	94fffa1e 	bne	r18,r19,28dd0 <__svfscanf_r+0x1648>
   28de8:	003aa406 	br	2787c <__svfscanf_r+0xf4>
   28dec:	d8c00104 	addi	r3,sp,4
   28df0:	9821883a 	mov	r16,r19
   28df4:	1dfaa12e 	bgeu	r3,r23,2787c <__svfscanf_r+0xf4>
   28df8:	bcbfffc4 	addi	r18,r23,-1
   28dfc:	dcc000c4 	addi	r19,sp,3
   28e00:	91400007 	ldb	r5,0(r18)
   28e04:	8809883a 	mov	r4,r17
   28e08:	94bfffc4 	addi	r18,r18,-1
   28e0c:	800d883a 	mov	r6,r16
   28e10:	002f1640 	call	2f164 <_ungetc_r>
   28e14:	94fffa1e 	bne	r18,r19,28e00 <__svfscanf_r+0x1678>
   28e18:	003a9806 	br	2787c <__svfscanf_r+0xf4>
   28e1c:	0009883a 	mov	r4,zero
   28e20:	002cc580 	call	2cc58 <nanf>
   28e24:	b0800015 	stw	r2,0(r22)
   28e28:	dc009c15 	stw	r16,624(sp)
   28e2c:	003c2706 	br	27ecc <__svfscanf_r+0x744>

00028e30 <_vfscanf_r>:
   28e30:	defffb04 	addi	sp,sp,-20
   28e34:	dc000315 	stw	r16,12(sp)
   28e38:	dfc00415 	stw	ra,16(sp)
   28e3c:	2021883a 	mov	r16,r4
   28e40:	20000926 	beq	r4,zero,28e68 <_vfscanf_r+0x38>
   28e44:	20800e17 	ldw	r2,56(r4)
   28e48:	1000071e 	bne	r2,zero,28e68 <_vfscanf_r+0x38>
   28e4c:	d9400015 	stw	r5,0(sp)
   28e50:	d9800115 	stw	r6,4(sp)
   28e54:	d9c00215 	stw	r7,8(sp)
   28e58:	00235b40 	call	235b4 <__sinit>
   28e5c:	d9c00217 	ldw	r7,8(sp)
   28e60:	d9800117 	ldw	r6,4(sp)
   28e64:	d9400017 	ldw	r5,0(sp)
   28e68:	8009883a 	mov	r4,r16
   28e6c:	dfc00417 	ldw	ra,16(sp)
   28e70:	dc000317 	ldw	r16,12(sp)
   28e74:	dec00504 	addi	sp,sp,20
   28e78:	00277881 	jmpi	27788 <__svfscanf_r>

00028e7c <__svfscanf>:
   28e7c:	008000f4 	movhi	r2,3
   28e80:	1096ef04 	addi	r2,r2,23484
   28e84:	2007883a 	mov	r3,r4
   28e88:	11000017 	ldw	r4,0(r2)
   28e8c:	2805883a 	mov	r2,r5
   28e90:	300f883a 	mov	r7,r6
   28e94:	180b883a 	mov	r5,r3
   28e98:	100d883a 	mov	r6,r2
   28e9c:	00277881 	jmpi	27788 <__svfscanf_r>

00028ea0 <vfscanf>:
   28ea0:	defffb04 	addi	sp,sp,-20
   28ea4:	dc000115 	stw	r16,4(sp)
   28ea8:	040000f4 	movhi	r16,3
   28eac:	8416ef04 	addi	r16,r16,23484
   28eb0:	80800017 	ldw	r2,0(r16)
   28eb4:	dc800315 	stw	r18,12(sp)
   28eb8:	dc400215 	stw	r17,8(sp)
   28ebc:	dfc00415 	stw	ra,16(sp)
   28ec0:	2025883a 	mov	r18,r4
   28ec4:	2823883a 	mov	r17,r5
   28ec8:	300f883a 	mov	r7,r6
   28ecc:	10000726 	beq	r2,zero,28eec <vfscanf+0x4c>
   28ed0:	10c00e17 	ldw	r3,56(r2)
   28ed4:	1800051e 	bne	r3,zero,28eec <vfscanf+0x4c>
   28ed8:	1009883a 	mov	r4,r2
   28edc:	d9800015 	stw	r6,0(sp)
   28ee0:	00235b40 	call	235b4 <__sinit>
   28ee4:	80800017 	ldw	r2,0(r16)
   28ee8:	d9c00017 	ldw	r7,0(sp)
   28eec:	1009883a 	mov	r4,r2
   28ef0:	900b883a 	mov	r5,r18
   28ef4:	880d883a 	mov	r6,r17
   28ef8:	dfc00417 	ldw	ra,16(sp)
   28efc:	dc800317 	ldw	r18,12(sp)
   28f00:	dc400217 	ldw	r17,8(sp)
   28f04:	dc000117 	ldw	r16,4(sp)
   28f08:	dec00504 	addi	sp,sp,20
   28f0c:	00277881 	jmpi	27788 <__svfscanf_r>

00028f10 <_write_r>:
   28f10:	defffd04 	addi	sp,sp,-12
   28f14:	dc400115 	stw	r17,4(sp)
   28f18:	dc000015 	stw	r16,0(sp)
   28f1c:	2023883a 	mov	r17,r4
   28f20:	040000f4 	movhi	r16,3
   28f24:	8419d604 	addi	r16,r16,26456
   28f28:	2809883a 	mov	r4,r5
   28f2c:	300b883a 	mov	r5,r6
   28f30:	380d883a 	mov	r6,r7
   28f34:	dfc00215 	stw	ra,8(sp)
   28f38:	80000015 	stw	zero,0(r16)
   28f3c:	0032b940 	call	32b94 <write>
   28f40:	00ffffc4 	movi	r3,-1
   28f44:	10c00526 	beq	r2,r3,28f5c <_write_r+0x4c>
   28f48:	dfc00217 	ldw	ra,8(sp)
   28f4c:	dc400117 	ldw	r17,4(sp)
   28f50:	dc000017 	ldw	r16,0(sp)
   28f54:	dec00304 	addi	sp,sp,12
   28f58:	f800283a 	ret
   28f5c:	80c00017 	ldw	r3,0(r16)
   28f60:	183ff926 	beq	r3,zero,28f48 <_write_r+0x38>
   28f64:	88c00015 	stw	r3,0(r17)
   28f68:	dfc00217 	ldw	ra,8(sp)
   28f6c:	dc400117 	ldw	r17,4(sp)
   28f70:	dc000017 	ldw	r16,0(sp)
   28f74:	dec00304 	addi	sp,sp,12
   28f78:	f800283a 	ret

00028f7c <__swsetup_r>:
   28f7c:	008000f4 	movhi	r2,3
   28f80:	1096ef04 	addi	r2,r2,23484
   28f84:	10800017 	ldw	r2,0(r2)
   28f88:	defffd04 	addi	sp,sp,-12
   28f8c:	dc400115 	stw	r17,4(sp)
   28f90:	dc000015 	stw	r16,0(sp)
   28f94:	dfc00215 	stw	ra,8(sp)
   28f98:	2023883a 	mov	r17,r4
   28f9c:	2821883a 	mov	r16,r5
   28fa0:	10000226 	beq	r2,zero,28fac <__swsetup_r+0x30>
   28fa4:	10c00e17 	ldw	r3,56(r2)
   28fa8:	18003d26 	beq	r3,zero,290a0 <__swsetup_r+0x124>
   28fac:	8080030b 	ldhu	r2,12(r16)
   28fb0:	10c0020c 	andi	r3,r2,8
   28fb4:	18ffffcc 	andi	r3,r3,65535
   28fb8:	18e0001c 	xori	r3,r3,32768
   28fbc:	18e00004 	addi	r3,r3,-32768
   28fc0:	18001226 	beq	r3,zero,2900c <__swsetup_r+0x90>
   28fc4:	80c00417 	ldw	r3,16(r16)
   28fc8:	18001f26 	beq	r3,zero,29048 <__swsetup_r+0xcc>
   28fcc:	1100004c 	andi	r4,r2,1
   28fd0:	2000261e 	bne	r4,zero,2906c <__swsetup_r+0xf0>
   28fd4:	1080008c 	andi	r2,r2,2
   28fd8:	10bfffcc 	andi	r2,r2,65535
   28fdc:	10a0001c 	xori	r2,r2,32768
   28fe0:	10a00004 	addi	r2,r2,-32768
   28fe4:	1000311e 	bne	r2,zero,290ac <__swsetup_r+0x130>
   28fe8:	80800517 	ldw	r2,20(r16)
   28fec:	80800215 	stw	r2,8(r16)
   28ff0:	18002326 	beq	r3,zero,29080 <__swsetup_r+0x104>
   28ff4:	0005883a 	mov	r2,zero
   28ff8:	dfc00217 	ldw	ra,8(sp)
   28ffc:	dc400117 	ldw	r17,4(sp)
   29000:	dc000017 	ldw	r16,0(sp)
   29004:	dec00304 	addi	sp,sp,12
   29008:	f800283a 	ret
   2900c:	10c0040c 	andi	r3,r2,16
   29010:	18ffffcc 	andi	r3,r3,65535
   29014:	18e0001c 	xori	r3,r3,32768
   29018:	18e00004 	addi	r3,r3,-32768
   2901c:	18001e26 	beq	r3,zero,29098 <__swsetup_r+0x11c>
   29020:	10c0010c 	andi	r3,r2,4
   29024:	18ffffcc 	andi	r3,r3,65535
   29028:	18e0001c 	xori	r3,r3,32768
   2902c:	18e00004 	addi	r3,r3,-32768
   29030:	1800211e 	bne	r3,zero,290b8 <__swsetup_r+0x13c>
   29034:	80c00417 	ldw	r3,16(r16)
   29038:	11400214 	ori	r5,r2,8
   2903c:	8140030d 	sth	r5,12(r16)
   29040:	2805883a 	mov	r2,r5
   29044:	183fe11e 	bne	r3,zero,28fcc <__swsetup_r+0x50>
   29048:	1140a00c 	andi	r5,r2,640
   2904c:	01008004 	movi	r4,512
   29050:	293fde26 	beq	r5,r4,28fcc <__swsetup_r+0x50>
   29054:	8809883a 	mov	r4,r17
   29058:	800b883a 	mov	r5,r16
   2905c:	002477c0 	call	2477c <__smakebuf_r>
   29060:	8080030b 	ldhu	r2,12(r16)
   29064:	80c00417 	ldw	r3,16(r16)
   29068:	003fd806 	br	28fcc <__swsetup_r+0x50>
   2906c:	80800517 	ldw	r2,20(r16)
   29070:	80000215 	stw	zero,8(r16)
   29074:	0085c83a 	sub	r2,zero,r2
   29078:	80800615 	stw	r2,24(r16)
   2907c:	183fdd1e 	bne	r3,zero,28ff4 <__swsetup_r+0x78>
   29080:	8080030b 	ldhu	r2,12(r16)
   29084:	1080200c 	andi	r2,r2,128
   29088:	10bfffcc 	andi	r2,r2,65535
   2908c:	10a0001c 	xori	r2,r2,32768
   29090:	10a00004 	addi	r2,r2,-32768
   29094:	103fd826 	beq	r2,zero,28ff8 <__swsetup_r+0x7c>
   29098:	00bfffc4 	movi	r2,-1
   2909c:	003fd606 	br	28ff8 <__swsetup_r+0x7c>
   290a0:	1009883a 	mov	r4,r2
   290a4:	00235b40 	call	235b4 <__sinit>
   290a8:	003fc006 	br	28fac <__swsetup_r+0x30>
   290ac:	0005883a 	mov	r2,zero
   290b0:	80800215 	stw	r2,8(r16)
   290b4:	003fce06 	br	28ff0 <__swsetup_r+0x74>
   290b8:	81400c17 	ldw	r5,48(r16)
   290bc:	28000626 	beq	r5,zero,290d8 <__swsetup_r+0x15c>
   290c0:	80c01004 	addi	r3,r16,64
   290c4:	28c00326 	beq	r5,r3,290d4 <__swsetup_r+0x158>
   290c8:	8809883a 	mov	r4,r17
   290cc:	0023d000 	call	23d00 <_free_r>
   290d0:	8080030b 	ldhu	r2,12(r16)
   290d4:	80000c15 	stw	zero,48(r16)
   290d8:	80c00417 	ldw	r3,16(r16)
   290dc:	013ff6c4 	movi	r4,-37
   290e0:	2084703a 	and	r2,r4,r2
   290e4:	80000115 	stw	zero,4(r16)
   290e8:	80c00015 	stw	r3,0(r16)
   290ec:	003fd206 	br	29038 <__swsetup_r+0xbc>

000290f0 <_close_r>:
   290f0:	defffd04 	addi	sp,sp,-12
   290f4:	dc400115 	stw	r17,4(sp)
   290f8:	dc000015 	stw	r16,0(sp)
   290fc:	2023883a 	mov	r17,r4
   29100:	040000f4 	movhi	r16,3
   29104:	8419d604 	addi	r16,r16,26456
   29108:	2809883a 	mov	r4,r5
   2910c:	dfc00215 	stw	ra,8(sp)
   29110:	80000015 	stw	zero,0(r16)
   29114:	00320840 	call	32084 <close>
   29118:	00ffffc4 	movi	r3,-1
   2911c:	10c00526 	beq	r2,r3,29134 <_close_r+0x44>
   29120:	dfc00217 	ldw	ra,8(sp)
   29124:	dc400117 	ldw	r17,4(sp)
   29128:	dc000017 	ldw	r16,0(sp)
   2912c:	dec00304 	addi	sp,sp,12
   29130:	f800283a 	ret
   29134:	80c00017 	ldw	r3,0(r16)
   29138:	183ff926 	beq	r3,zero,29120 <_close_r+0x30>
   2913c:	88c00015 	stw	r3,0(r17)
   29140:	dfc00217 	ldw	ra,8(sp)
   29144:	dc400117 	ldw	r17,4(sp)
   29148:	dc000017 	ldw	r16,0(sp)
   2914c:	dec00304 	addi	sp,sp,12
   29150:	f800283a 	ret

00029154 <quorem>:
   29154:	defff204 	addi	sp,sp,-56
   29158:	dd000815 	stw	r20,32(sp)
   2915c:	20800417 	ldw	r2,16(r4)
   29160:	2d000417 	ldw	r20,16(r5)
   29164:	dcc00715 	stw	r19,28(sp)
   29168:	dfc00d15 	stw	ra,52(sp)
   2916c:	df000c15 	stw	fp,48(sp)
   29170:	ddc00b15 	stw	r23,44(sp)
   29174:	dd800a15 	stw	r22,40(sp)
   29178:	dd400915 	stw	r21,36(sp)
   2917c:	dc800615 	stw	r18,24(sp)
   29180:	dc400515 	stw	r17,20(sp)
   29184:	dc000415 	stw	r16,16(sp)
   29188:	d9400015 	stw	r5,0(sp)
   2918c:	2027883a 	mov	r19,r4
   29190:	15007d16 	blt	r2,r20,29388 <quorem+0x234>
   29194:	a0800104 	addi	r2,r20,4
   29198:	1085883a 	add	r2,r2,r2
   2919c:	1085883a 	add	r2,r2,r2
   291a0:	28ad883a 	add	r22,r5,r2
   291a4:	2085883a 	add	r2,r4,r2
   291a8:	10800017 	ldw	r2,0(r2)
   291ac:	b1400017 	ldw	r5,0(r22)
   291b0:	a53fffc4 	addi	r20,r20,-1
   291b4:	1009883a 	mov	r4,r2
   291b8:	29400044 	addi	r5,r5,1
   291bc:	d8800115 	stw	r2,4(sp)
   291c0:	0022d040 	call	22d04 <__udivsi3>
   291c4:	1025883a 	mov	r18,r2
   291c8:	d8800017 	ldw	r2,0(sp)
   291cc:	9f000504 	addi	fp,r19,20
   291d0:	14000504 	addi	r16,r2,20
   291d4:	90003626 	beq	r18,zero,292b0 <quorem+0x15c>
   291d8:	802b883a 	mov	r21,r16
   291dc:	e023883a 	mov	r17,fp
   291e0:	0007883a 	mov	r3,zero
   291e4:	002f883a 	mov	r23,zero
   291e8:	a9800017 	ldw	r6,0(r21)
   291ec:	900b883a 	mov	r5,r18
   291f0:	d8c00315 	stw	r3,12(sp)
   291f4:	313fffcc 	andi	r4,r6,65535
   291f8:	d9800215 	stw	r6,8(sp)
   291fc:	0022d140 	call	22d14 <__mulsi3>
   29200:	d9800217 	ldw	r6,8(sp)
   29204:	d8c00317 	ldw	r3,12(sp)
   29208:	900b883a 	mov	r5,r18
   2920c:	3008d43a 	srli	r4,r6,16
   29210:	1887883a 	add	r3,r3,r2
   29214:	d8c00315 	stw	r3,12(sp)
   29218:	0022d140 	call	22d14 <__mulsi3>
   2921c:	89400017 	ldw	r5,0(r17)
   29220:	d8c00317 	ldw	r3,12(sp)
   29224:	ad400104 	addi	r21,r21,4
   29228:	293fffcc 	andi	r4,r5,65535
   2922c:	1810d43a 	srli	r8,r3,16
   29230:	25c9883a 	add	r4,r4,r23
   29234:	18ffffcc 	andi	r3,r3,65535
   29238:	20c9c83a 	sub	r4,r4,r3
   2923c:	280cd43a 	srli	r6,r5,16
   29240:	4085883a 	add	r2,r8,r2
   29244:	2007d43a 	srai	r3,r4,16
   29248:	117fffcc 	andi	r5,r2,65535
   2924c:	314bc83a 	sub	r5,r6,r5
   29250:	28cb883a 	add	r5,r5,r3
   29254:	8940008d 	sth	r5,2(r17)
   29258:	8900000d 	sth	r4,0(r17)
   2925c:	1006d43a 	srli	r3,r2,16
   29260:	282fd43a 	srai	r23,r5,16
   29264:	8c400104 	addi	r17,r17,4
   29268:	b57fdf2e 	bgeu	r22,r21,291e8 <quorem+0x94>
   2926c:	d8c00117 	ldw	r3,4(sp)
   29270:	18000f1e 	bne	r3,zero,292b0 <quorem+0x15c>
   29274:	a0800144 	addi	r2,r20,5
   29278:	1085883a 	add	r2,r2,r2
   2927c:	1085883a 	add	r2,r2,r2
   29280:	9887883a 	add	r3,r19,r2
   29284:	18bfff04 	addi	r2,r3,-4
   29288:	e080082e 	bgeu	fp,r2,292ac <quorem+0x158>
   2928c:	18ffff17 	ldw	r3,-4(r3)
   29290:	18000326 	beq	r3,zero,292a0 <quorem+0x14c>
   29294:	00000506 	br	292ac <quorem+0x158>
   29298:	10c00017 	ldw	r3,0(r2)
   2929c:	1800031e 	bne	r3,zero,292ac <quorem+0x158>
   292a0:	10bfff04 	addi	r2,r2,-4
   292a4:	a53fffc4 	addi	r20,r20,-1
   292a8:	e0bffb36 	bltu	fp,r2,29298 <quorem+0x144>
   292ac:	9d000415 	stw	r20,16(r19)
   292b0:	d9400017 	ldw	r5,0(sp)
   292b4:	9809883a 	mov	r4,r19
   292b8:	002bdc40 	call	2bdc4 <__mcmp>
   292bc:	10002516 	blt	r2,zero,29354 <quorem+0x200>
   292c0:	94800044 	addi	r18,r18,1
   292c4:	e007883a 	mov	r3,fp
   292c8:	000d883a 	mov	r6,zero
   292cc:	18800017 	ldw	r2,0(r3)
   292d0:	82000017 	ldw	r8,0(r16)
   292d4:	84000104 	addi	r16,r16,4
   292d8:	11ffffcc 	andi	r7,r2,65535
   292dc:	413fffcc 	andi	r4,r8,65535
   292e0:	398d883a 	add	r6,r7,r6
   292e4:	310fc83a 	sub	r7,r6,r4
   292e8:	4010d43a 	srli	r8,r8,16
   292ec:	100cd43a 	srli	r6,r2,16
   292f0:	3809d43a 	srai	r4,r7,16
   292f4:	19c0000d 	sth	r7,0(r3)
   292f8:	320dc83a 	sub	r6,r6,r8
   292fc:	310d883a 	add	r6,r6,r4
   29300:	1980008d 	sth	r6,2(r3)
   29304:	300dd43a 	srai	r6,r6,16
   29308:	18c00104 	addi	r3,r3,4
   2930c:	b43fef2e 	bgeu	r22,r16,292cc <quorem+0x178>
   29310:	a0800144 	addi	r2,r20,5
   29314:	1085883a 	add	r2,r2,r2
   29318:	1085883a 	add	r2,r2,r2
   2931c:	9885883a 	add	r2,r19,r2
   29320:	10c00017 	ldw	r3,0(r2)
   29324:	18000b1e 	bne	r3,zero,29354 <quorem+0x200>
   29328:	10ffff04 	addi	r3,r2,-4
   2932c:	e0c0082e 	bgeu	fp,r3,29350 <quorem+0x1fc>
   29330:	10bfff17 	ldw	r2,-4(r2)
   29334:	10000326 	beq	r2,zero,29344 <quorem+0x1f0>
   29338:	00000506 	br	29350 <quorem+0x1fc>
   2933c:	18800017 	ldw	r2,0(r3)
   29340:	1000031e 	bne	r2,zero,29350 <quorem+0x1fc>
   29344:	18ffff04 	addi	r3,r3,-4
   29348:	a53fffc4 	addi	r20,r20,-1
   2934c:	e0fffb36 	bltu	fp,r3,2933c <quorem+0x1e8>
   29350:	9d000415 	stw	r20,16(r19)
   29354:	9005883a 	mov	r2,r18
   29358:	dfc00d17 	ldw	ra,52(sp)
   2935c:	df000c17 	ldw	fp,48(sp)
   29360:	ddc00b17 	ldw	r23,44(sp)
   29364:	dd800a17 	ldw	r22,40(sp)
   29368:	dd400917 	ldw	r21,36(sp)
   2936c:	dd000817 	ldw	r20,32(sp)
   29370:	dcc00717 	ldw	r19,28(sp)
   29374:	dc800617 	ldw	r18,24(sp)
   29378:	dc400517 	ldw	r17,20(sp)
   2937c:	dc000417 	ldw	r16,16(sp)
   29380:	dec00e04 	addi	sp,sp,56
   29384:	f800283a 	ret
   29388:	0005883a 	mov	r2,zero
   2938c:	003ff206 	br	29358 <quorem+0x204>

00029390 <_dtoa_r>:
   29390:	20801017 	ldw	r2,64(r4)
   29394:	deffdf04 	addi	sp,sp,-132
   29398:	dcc01a15 	stw	r19,104(sp)
   2939c:	dc801915 	stw	r18,100(sp)
   293a0:	dc401815 	stw	r17,96(sp)
   293a4:	dc001715 	stw	r16,92(sp)
   293a8:	dfc02015 	stw	ra,128(sp)
   293ac:	df001f15 	stw	fp,124(sp)
   293b0:	ddc01e15 	stw	r23,120(sp)
   293b4:	dd801d15 	stw	r22,116(sp)
   293b8:	dd401c15 	stw	r21,112(sp)
   293bc:	dd001b15 	stw	r20,108(sp)
   293c0:	d9400315 	stw	r5,12(sp)
   293c4:	d9c00415 	stw	r7,16(sp)
   293c8:	2021883a 	mov	r16,r4
   293cc:	3025883a 	mov	r18,r6
   293d0:	dcc02317 	ldw	r19,140(sp)
   293d4:	3023883a 	mov	r17,r6
   293d8:	10000826 	beq	r2,zero,293fc <_dtoa_r+0x6c>
   293dc:	20c01117 	ldw	r3,68(r4)
   293e0:	01800044 	movi	r6,1
   293e4:	100b883a 	mov	r5,r2
   293e8:	30cc983a 	sll	r6,r6,r3
   293ec:	10c00115 	stw	r3,4(r2)
   293f0:	11800215 	stw	r6,8(r2)
   293f4:	002b5200 	call	2b520 <_Bfree>
   293f8:	80001015 	stw	zero,64(r16)
   293fc:	90002f16 	blt	r18,zero,294bc <_dtoa_r+0x12c>
   29400:	98000015 	stw	zero,0(r19)
   29404:	90dffc2c 	andhi	r3,r18,32752
   29408:	009ffc34 	movhi	r2,32752
   2940c:	18801c26 	beq	r3,r2,29480 <_dtoa_r+0xf0>
   29410:	d9000317 	ldw	r4,12(sp)
   29414:	880b883a 	mov	r5,r17
   29418:	000d883a 	mov	r6,zero
   2941c:	000f883a 	mov	r7,zero
   29420:	003162c0 	call	3162c <__eqdf2>
   29424:	10002c1e 	bne	r2,zero,294d8 <_dtoa_r+0x148>
   29428:	d9002217 	ldw	r4,136(sp)
   2942c:	d9c02417 	ldw	r7,144(sp)
   29430:	00800044 	movi	r2,1
   29434:	20800015 	stw	r2,0(r4)
   29438:	38019426 	beq	r7,zero,29a8c <_dtoa_r+0x6fc>
   2943c:	008000f4 	movhi	r2,3
   29440:	10930d44 	addi	r2,r2,19509
   29444:	38800015 	stw	r2,0(r7)
   29448:	15ffffc4 	addi	r23,r2,-1
   2944c:	b805883a 	mov	r2,r23
   29450:	dfc02017 	ldw	ra,128(sp)
   29454:	df001f17 	ldw	fp,124(sp)
   29458:	ddc01e17 	ldw	r23,120(sp)
   2945c:	dd801d17 	ldw	r22,116(sp)
   29460:	dd401c17 	ldw	r21,112(sp)
   29464:	dd001b17 	ldw	r20,108(sp)
   29468:	dcc01a17 	ldw	r19,104(sp)
   2946c:	dc801917 	ldw	r18,100(sp)
   29470:	dc401817 	ldw	r17,96(sp)
   29474:	dc001717 	ldw	r16,92(sp)
   29478:	dec02104 	addi	sp,sp,132
   2947c:	f800283a 	ret
   29480:	d8c02217 	ldw	r3,136(sp)
   29484:	d9000317 	ldw	r4,12(sp)
   29488:	0089c3c4 	movi	r2,9999
   2948c:	18800015 	stw	r2,0(r3)
   29490:	20016c26 	beq	r4,zero,29a44 <_dtoa_r+0x6b4>
   29494:	05c000f4 	movhi	r23,3
   29498:	bdd3c404 	addi	r23,r23,20240
   2949c:	d9c02417 	ldw	r7,144(sp)
   294a0:	383fea26 	beq	r7,zero,2944c <_dtoa_r+0xbc>
   294a4:	b88000c7 	ldb	r2,3(r23)
   294a8:	10016d1e 	bne	r2,zero,29a60 <_dtoa_r+0x6d0>
   294ac:	b88000c4 	addi	r2,r23,3
   294b0:	d8c02417 	ldw	r3,144(sp)
   294b4:	18800015 	stw	r2,0(r3)
   294b8:	003fe406 	br	2944c <_dtoa_r+0xbc>
   294bc:	04600034 	movhi	r17,32768
   294c0:	8c7fffc4 	addi	r17,r17,-1
   294c4:	9462703a 	and	r17,r18,r17
   294c8:	00800044 	movi	r2,1
   294cc:	98800015 	stw	r2,0(r19)
   294d0:	8825883a 	mov	r18,r17
   294d4:	003fcb06 	br	29404 <_dtoa_r+0x74>
   294d8:	d9400317 	ldw	r5,12(sp)
   294dc:	9028d53a 	srli	r20,r18,20
   294e0:	d8800204 	addi	r2,sp,8
   294e4:	d8800015 	stw	r2,0(sp)
   294e8:	8009883a 	mov	r4,r16
   294ec:	880d883a 	mov	r6,r17
   294f0:	d9c00104 	addi	r7,sp,4
   294f4:	002c16c0 	call	2c16c <__d2b>
   294f8:	a501ffcc 	andi	r20,r20,2047
   294fc:	1039883a 	mov	fp,r2
   29500:	a001591e 	bne	r20,zero,29a68 <_dtoa_r+0x6d8>
   29504:	dd400217 	ldw	r21,8(sp)
   29508:	dd000117 	ldw	r20,4(sp)
   2950c:	00befbc4 	movi	r2,-1041
   29510:	ad29883a 	add	r20,r21,r20
   29514:	a082d216 	blt	r20,r2,2a060 <_dtoa_r+0xcd0>
   29518:	d8c00317 	ldw	r3,12(sp)
   2951c:	013f0384 	movi	r4,-1010
   29520:	2509c83a 	sub	r4,r4,r20
   29524:	a0810484 	addi	r2,r20,1042
   29528:	9124983a 	sll	r18,r18,r4
   2952c:	1884d83a 	srl	r2,r3,r2
   29530:	9088b03a 	or	r4,r18,r2
   29534:	0031a6c0 	call	31a6c <__floatunsidf>
   29538:	1009883a 	mov	r4,r2
   2953c:	017f8434 	movhi	r5,65040
   29540:	00800044 	movi	r2,1
   29544:	194b883a 	add	r5,r3,r5
   29548:	a53fffc4 	addi	r20,r20,-1
   2954c:	d8800f15 	stw	r2,60(sp)
   29550:	000d883a 	mov	r6,zero
   29554:	01cffe34 	movhi	r7,16376
   29558:	00311340 	call	31134 <__subdf3>
   2955c:	1009883a 	mov	r4,r2
   29560:	180b883a 	mov	r5,r3
   29564:	0198dbf4 	movhi	r6,25455
   29568:	3190d844 	addi	r6,r6,17249
   2956c:	01cff4f4 	movhi	r7,16339
   29570:	39e1e9c4 	addi	r7,r7,-30809
   29574:	00311940 	call	31194 <__muldf3>
   29578:	180b883a 	mov	r5,r3
   2957c:	01a2d874 	movhi	r6,35681
   29580:	31b22cc4 	addi	r6,r6,-14157
   29584:	01cff1f4 	movhi	r7,16327
   29588:	39e28a04 	addi	r7,r7,-30168
   2958c:	1009883a 	mov	r4,r2
   29590:	00310e00 	call	310e0 <__adddf3>
   29594:	a009883a 	mov	r4,r20
   29598:	1027883a 	mov	r19,r2
   2959c:	1825883a 	mov	r18,r3
   295a0:	00318640 	call	31864 <__floatsidf>
   295a4:	1009883a 	mov	r4,r2
   295a8:	180b883a 	mov	r5,r3
   295ac:	019427f4 	movhi	r6,20639
   295b0:	319e7ec4 	addi	r6,r6,31227
   295b4:	01cff4f4 	movhi	r7,16339
   295b8:	39d104c4 	addi	r7,r7,17427
   295bc:	00311940 	call	31194 <__muldf3>
   295c0:	9809883a 	mov	r4,r19
   295c4:	900b883a 	mov	r5,r18
   295c8:	100d883a 	mov	r6,r2
   295cc:	180f883a 	mov	r7,r3
   295d0:	00310e00 	call	310e0 <__adddf3>
   295d4:	1009883a 	mov	r4,r2
   295d8:	180b883a 	mov	r5,r3
   295dc:	1027883a 	mov	r19,r2
   295e0:	1825883a 	mov	r18,r3
   295e4:	00319380 	call	31938 <__fixdfsi>
   295e8:	9809883a 	mov	r4,r19
   295ec:	900b883a 	mov	r5,r18
   295f0:	000d883a 	mov	r6,zero
   295f4:	000f883a 	mov	r7,zero
   295f8:	d8800615 	stw	r2,24(sp)
   295fc:	00317ac0 	call	317ac <__ltdf2>
   29600:	10027e16 	blt	r2,zero,29ffc <_dtoa_r+0xc6c>
   29604:	d8c00617 	ldw	r3,24(sp)
   29608:	00800584 	movi	r2,22
   2960c:	10c26c36 	bltu	r2,r3,29fc0 <_dtoa_r+0xc30>
   29610:	180490fa 	slli	r2,r3,3
   29614:	00c000f4 	movhi	r3,3
   29618:	18d3e904 	addi	r3,r3,20388
   2961c:	d9800317 	ldw	r6,12(sp)
   29620:	1885883a 	add	r2,r3,r2
   29624:	11000017 	ldw	r4,0(r2)
   29628:	11400117 	ldw	r5,4(r2)
   2962c:	880f883a 	mov	r7,r17
   29630:	00316e40 	call	316e4 <__gtdf2>
   29634:	00828f0e 	bge	zero,r2,2a074 <_dtoa_r+0xce4>
   29638:	d8800617 	ldw	r2,24(sp)
   2963c:	d8000d15 	stw	zero,52(sp)
   29640:	10bfffc4 	addi	r2,r2,-1
   29644:	d8800615 	stw	r2,24(sp)
   29648:	ad29c83a 	sub	r20,r21,r20
   2964c:	a53fffc4 	addi	r20,r20,-1
   29650:	a0026616 	blt	r20,zero,29fec <_dtoa_r+0xc5c>
   29654:	dd000715 	stw	r20,28(sp)
   29658:	d8000815 	stw	zero,32(sp)
   2965c:	d8800617 	ldw	r2,24(sp)
   29660:	10025a16 	blt	r2,zero,29fcc <_dtoa_r+0xc3c>
   29664:	d8c00717 	ldw	r3,28(sp)
   29668:	d8800b15 	stw	r2,44(sp)
   2966c:	d8000a15 	stw	zero,40(sp)
   29670:	1887883a 	add	r3,r3,r2
   29674:	d8c00715 	stw	r3,28(sp)
   29678:	d9c00417 	ldw	r7,16(sp)
   2967c:	00800244 	movi	r2,9
   29680:	11c10536 	bltu	r2,r7,29a98 <_dtoa_r+0x708>
   29684:	00800144 	movi	r2,5
   29688:	11c4c60e 	bge	r2,r7,2a9a4 <_dtoa_r+0x1614>
   2968c:	39ffff04 	addi	r7,r7,-4
   29690:	d9c00415 	stw	r7,16(sp)
   29694:	0027883a 	mov	r19,zero
   29698:	d9c00417 	ldw	r7,16(sp)
   2969c:	008000c4 	movi	r2,3
   296a0:	3883a226 	beq	r7,r2,2a52c <_dtoa_r+0x119c>
   296a4:	11c2bc16 	blt	r2,r7,2a198 <_dtoa_r+0xe08>
   296a8:	00800084 	movi	r2,2
   296ac:	3880fb1e 	bne	r7,r2,29a9c <_dtoa_r+0x70c>
   296b0:	d8000c15 	stw	zero,48(sp)
   296b4:	d9002117 	ldw	r4,132(sp)
   296b8:	0103ae0e 	bge	zero,r4,2a574 <_dtoa_r+0x11e4>
   296bc:	2025883a 	mov	r18,r4
   296c0:	d9000e15 	stw	r4,56(sp)
   296c4:	d9000915 	stw	r4,36(sp)
   296c8:	80001115 	stw	zero,68(r16)
   296cc:	008005c4 	movi	r2,23
   296d0:	1484b22e 	bgeu	r2,r18,2a99c <_dtoa_r+0x160c>
   296d4:	00c00044 	movi	r3,1
   296d8:	00800104 	movi	r2,4
   296dc:	1085883a 	add	r2,r2,r2
   296e0:	11000504 	addi	r4,r2,20
   296e4:	180b883a 	mov	r5,r3
   296e8:	18c00044 	addi	r3,r3,1
   296ec:	913ffb2e 	bgeu	r18,r4,296dc <_dtoa_r+0x34c>
   296f0:	81401115 	stw	r5,68(r16)
   296f4:	8009883a 	mov	r4,r16
   296f8:	002b4780 	call	2b478 <_Balloc>
   296fc:	102f883a 	mov	r23,r2
   29700:	80801015 	stw	r2,64(r16)
   29704:	00800384 	movi	r2,14
   29708:	1480f036 	bltu	r2,r18,29acc <_dtoa_r+0x73c>
   2970c:	9800ef26 	beq	r19,zero,29acc <_dtoa_r+0x73c>
   29710:	d8800617 	ldw	r2,24(sp)
   29714:	00839c0e 	bge	zero,r2,2a588 <_dtoa_r+0x11f8>
   29718:	d8c00617 	ldw	r3,24(sp)
   2971c:	108003cc 	andi	r2,r2,15
   29720:	100490fa 	slli	r2,r2,3
   29724:	182bd13a 	srai	r21,r3,4
   29728:	00c000f4 	movhi	r3,3
   2972c:	18d3e904 	addi	r3,r3,20388
   29730:	1885883a 	add	r2,r3,r2
   29734:	a8c0040c 	andi	r3,r21,16
   29738:	12800017 	ldw	r10,0(r2)
   2973c:	15800117 	ldw	r22,4(r2)
   29740:	18038726 	beq	r3,zero,2a560 <_dtoa_r+0x11d0>
   29744:	008000f4 	movhi	r2,3
   29748:	1093df04 	addi	r2,r2,20348
   2974c:	11800817 	ldw	r6,32(r2)
   29750:	11c00917 	ldw	r7,36(r2)
   29754:	d9000317 	ldw	r4,12(sp)
   29758:	880b883a 	mov	r5,r17
   2975c:	da801515 	stw	r10,84(sp)
   29760:	00314780 	call	31478 <__divdf3>
   29764:	da801517 	ldw	r10,84(sp)
   29768:	d8801015 	stw	r2,64(sp)
   2976c:	1829883a 	mov	r20,r3
   29770:	ad4003cc 	andi	r21,r21,15
   29774:	048000c4 	movi	r18,3
   29778:	a8001126 	beq	r21,zero,297c0 <_dtoa_r+0x430>
   2977c:	04c000f4 	movhi	r19,3
   29780:	9cd3df04 	addi	r19,r19,20348
   29784:	5005883a 	mov	r2,r10
   29788:	b007883a 	mov	r3,r22
   2978c:	a980004c 	andi	r6,r21,1
   29790:	1009883a 	mov	r4,r2
   29794:	a82bd07a 	srai	r21,r21,1
   29798:	180b883a 	mov	r5,r3
   2979c:	30000426 	beq	r6,zero,297b0 <_dtoa_r+0x420>
   297a0:	99800017 	ldw	r6,0(r19)
   297a4:	99c00117 	ldw	r7,4(r19)
   297a8:	94800044 	addi	r18,r18,1
   297ac:	00311940 	call	31194 <__muldf3>
   297b0:	9cc00204 	addi	r19,r19,8
   297b4:	a83ff51e 	bne	r21,zero,2978c <_dtoa_r+0x3fc>
   297b8:	1015883a 	mov	r10,r2
   297bc:	182d883a 	mov	r22,r3
   297c0:	d9001017 	ldw	r4,64(sp)
   297c4:	a00b883a 	mov	r5,r20
   297c8:	500d883a 	mov	r6,r10
   297cc:	b00f883a 	mov	r7,r22
   297d0:	00314780 	call	31478 <__divdf3>
   297d4:	1027883a 	mov	r19,r2
   297d8:	1829883a 	mov	r20,r3
   297dc:	d8c00d17 	ldw	r3,52(sp)
   297e0:	18000626 	beq	r3,zero,297fc <_dtoa_r+0x46c>
   297e4:	9809883a 	mov	r4,r19
   297e8:	a00b883a 	mov	r5,r20
   297ec:	000d883a 	mov	r6,zero
   297f0:	01cffc34 	movhi	r7,16368
   297f4:	00317ac0 	call	317ac <__ltdf2>
   297f8:	10040e16 	blt	r2,zero,2a834 <_dtoa_r+0x14a4>
   297fc:	9009883a 	mov	r4,r18
   29800:	00318640 	call	31864 <__floatsidf>
   29804:	1009883a 	mov	r4,r2
   29808:	180b883a 	mov	r5,r3
   2980c:	980d883a 	mov	r6,r19
   29810:	a00f883a 	mov	r7,r20
   29814:	00311940 	call	31194 <__muldf3>
   29818:	1009883a 	mov	r4,r2
   2981c:	180b883a 	mov	r5,r3
   29820:	000d883a 	mov	r6,zero
   29824:	01d00734 	movhi	r7,16412
   29828:	00310e00 	call	310e0 <__adddf3>
   2982c:	057f3034 	movhi	r21,64704
   29830:	1d6b883a 	add	r21,r3,r21
   29834:	d8c00917 	ldw	r3,36(sp)
   29838:	1025883a 	mov	r18,r2
   2983c:	18031f26 	beq	r3,zero,2a4bc <_dtoa_r+0x112c>
   29840:	d8800617 	ldw	r2,24(sp)
   29844:	dac00917 	ldw	r11,36(sp)
   29848:	d8801315 	stw	r2,76(sp)
   2984c:	d8c00c17 	ldw	r3,48(sp)
   29850:	18039026 	beq	r3,zero,2a694 <_dtoa_r+0x1304>
   29854:	58bfffc4 	addi	r2,r11,-1
   29858:	100490fa 	slli	r2,r2,3
   2985c:	00c000f4 	movhi	r3,3
   29860:	18d3e904 	addi	r3,r3,20388
   29864:	0009883a 	mov	r4,zero
   29868:	1885883a 	add	r2,r3,r2
   2986c:	11800017 	ldw	r6,0(r2)
   29870:	11c00117 	ldw	r7,4(r2)
   29874:	014ff834 	movhi	r5,16352
   29878:	dac01615 	stw	r11,88(sp)
   2987c:	00314780 	call	31478 <__divdf3>
   29880:	900d883a 	mov	r6,r18
   29884:	a80f883a 	mov	r7,r21
   29888:	1009883a 	mov	r4,r2
   2988c:	180b883a 	mov	r5,r3
   29890:	00311340 	call	31134 <__subdf3>
   29894:	a00b883a 	mov	r5,r20
   29898:	9809883a 	mov	r4,r19
   2989c:	182b883a 	mov	r21,r3
   298a0:	d8801015 	stw	r2,64(sp)
   298a4:	00319380 	call	31938 <__fixdfsi>
   298a8:	1009883a 	mov	r4,r2
   298ac:	d8801515 	stw	r2,84(sp)
   298b0:	00318640 	call	31864 <__floatsidf>
   298b4:	9809883a 	mov	r4,r19
   298b8:	a00b883a 	mov	r5,r20
   298bc:	100d883a 	mov	r6,r2
   298c0:	180f883a 	mov	r7,r3
   298c4:	00311340 	call	31134 <__subdf3>
   298c8:	da401517 	ldw	r9,84(sp)
   298cc:	d9001017 	ldw	r4,64(sp)
   298d0:	a80b883a 	mov	r5,r21
   298d4:	4d000c04 	addi	r20,r9,48
   298d8:	bd000005 	stb	r20,0(r23)
   298dc:	100d883a 	mov	r6,r2
   298e0:	180f883a 	mov	r7,r3
   298e4:	bd800044 	addi	r22,r23,1
   298e8:	1025883a 	mov	r18,r2
   298ec:	1827883a 	mov	r19,r3
   298f0:	00316e40 	call	316e4 <__gtdf2>
   298f4:	00842216 	blt	zero,r2,2a980 <_dtoa_r+0x15f0>
   298f8:	0009883a 	mov	r4,zero
   298fc:	014ffc34 	movhi	r5,16368
   29900:	900d883a 	mov	r6,r18
   29904:	980f883a 	mov	r7,r19
   29908:	00311340 	call	31134 <__subdf3>
   2990c:	d9001017 	ldw	r4,64(sp)
   29910:	a80b883a 	mov	r5,r21
   29914:	100d883a 	mov	r6,r2
   29918:	180f883a 	mov	r7,r3
   2991c:	00316e40 	call	316e4 <__gtdf2>
   29920:	dac01617 	ldw	r11,88(sp)
   29924:	00841316 	blt	zero,r2,2a974 <_dtoa_r+0x15e4>
   29928:	00800044 	movi	r2,1
   2992c:	12c0670e 	bge	r2,r11,29acc <_dtoa_r+0x73c>
   29930:	bad7883a 	add	r11,r23,r11
   29934:	df001115 	stw	fp,68(sp)
   29938:	dc401215 	stw	r17,72(sp)
   2993c:	5839883a 	mov	fp,r11
   29940:	dc401017 	ldw	r17,64(sp)
   29944:	00000806 	br	29968 <_dtoa_r+0x5d8>
   29948:	00311340 	call	31134 <__subdf3>
   2994c:	1009883a 	mov	r4,r2
   29950:	180b883a 	mov	r5,r3
   29954:	880d883a 	mov	r6,r17
   29958:	a80f883a 	mov	r7,r21
   2995c:	00317ac0 	call	317ac <__ltdf2>
   29960:	1003ee16 	blt	r2,zero,2a91c <_dtoa_r+0x158c>
   29964:	b703f126 	beq	r22,fp,2a92c <_dtoa_r+0x159c>
   29968:	8809883a 	mov	r4,r17
   2996c:	a80b883a 	mov	r5,r21
   29970:	000d883a 	mov	r6,zero
   29974:	01d00934 	movhi	r7,16420
   29978:	00311940 	call	31194 <__muldf3>
   2997c:	000d883a 	mov	r6,zero
   29980:	01d00934 	movhi	r7,16420
   29984:	9009883a 	mov	r4,r18
   29988:	980b883a 	mov	r5,r19
   2998c:	1023883a 	mov	r17,r2
   29990:	182b883a 	mov	r21,r3
   29994:	00311940 	call	31194 <__muldf3>
   29998:	180b883a 	mov	r5,r3
   2999c:	1009883a 	mov	r4,r2
   299a0:	1825883a 	mov	r18,r3
   299a4:	1027883a 	mov	r19,r2
   299a8:	00319380 	call	31938 <__fixdfsi>
   299ac:	1009883a 	mov	r4,r2
   299b0:	1029883a 	mov	r20,r2
   299b4:	00318640 	call	31864 <__floatsidf>
   299b8:	9809883a 	mov	r4,r19
   299bc:	900b883a 	mov	r5,r18
   299c0:	100d883a 	mov	r6,r2
   299c4:	180f883a 	mov	r7,r3
   299c8:	00311340 	call	31134 <__subdf3>
   299cc:	a5000c04 	addi	r20,r20,48
   299d0:	b5000005 	stb	r20,0(r22)
   299d4:	1009883a 	mov	r4,r2
   299d8:	180b883a 	mov	r5,r3
   299dc:	880d883a 	mov	r6,r17
   299e0:	a80f883a 	mov	r7,r21
   299e4:	1025883a 	mov	r18,r2
   299e8:	1827883a 	mov	r19,r3
   299ec:	00317ac0 	call	317ac <__ltdf2>
   299f0:	b5800044 	addi	r22,r22,1
   299f4:	0009883a 	mov	r4,zero
   299f8:	014ffc34 	movhi	r5,16368
   299fc:	900d883a 	mov	r6,r18
   29a00:	980f883a 	mov	r7,r19
   29a04:	103fd00e 	bge	r2,zero,29948 <_dtoa_r+0x5b8>
   29a08:	d9001317 	ldw	r4,76(sp)
   29a0c:	df001117 	ldw	fp,68(sp)
   29a10:	d9000615 	stw	r4,24(sp)
   29a14:	8009883a 	mov	r4,r16
   29a18:	e00b883a 	mov	r5,fp
   29a1c:	002b5200 	call	2b520 <_Bfree>
   29a20:	d9c00617 	ldw	r7,24(sp)
   29a24:	d8c02217 	ldw	r3,136(sp)
   29a28:	d9002417 	ldw	r4,144(sp)
   29a2c:	b0000005 	stb	zero,0(r22)
   29a30:	38800044 	addi	r2,r7,1
   29a34:	18800015 	stw	r2,0(r3)
   29a38:	203e8426 	beq	r4,zero,2944c <_dtoa_r+0xbc>
   29a3c:	25800015 	stw	r22,0(r4)
   29a40:	003e8206 	br	2944c <_dtoa_r+0xbc>
   29a44:	00800434 	movhi	r2,16
   29a48:	10bfffc4 	addi	r2,r2,-1
   29a4c:	90a4703a 	and	r18,r18,r2
   29a50:	903e901e 	bne	r18,zero,29494 <_dtoa_r+0x104>
   29a54:	05c000f4 	movhi	r23,3
   29a58:	bdd3c104 	addi	r23,r23,20228
   29a5c:	003e8f06 	br	2949c <_dtoa_r+0x10c>
   29a60:	b8800204 	addi	r2,r23,8
   29a64:	003e9206 	br	294b0 <_dtoa_r+0x120>
   29a68:	01400434 	movhi	r5,16
   29a6c:	297fffc4 	addi	r5,r5,-1
   29a70:	894a703a 	and	r5,r17,r5
   29a74:	d9000317 	ldw	r4,12(sp)
   29a78:	294ffc34 	orhi	r5,r5,16368
   29a7c:	a53f0044 	addi	r20,r20,-1023
   29a80:	dd400217 	ldw	r21,8(sp)
   29a84:	d8000f15 	stw	zero,60(sp)
   29a88:	003eb106 	br	29550 <_dtoa_r+0x1c0>
   29a8c:	05c000f4 	movhi	r23,3
   29a90:	bdd30d04 	addi	r23,r23,19508
   29a94:	003e6d06 	br	2944c <_dtoa_r+0xbc>
   29a98:	d8000415 	stw	zero,16(sp)
   29a9c:	80001115 	stw	zero,68(r16)
   29aa0:	8009883a 	mov	r4,r16
   29aa4:	000b883a 	mov	r5,zero
   29aa8:	002b4780 	call	2b478 <_Balloc>
   29aac:	01ffffc4 	movi	r7,-1
   29ab0:	102f883a 	mov	r23,r2
   29ab4:	80801015 	stw	r2,64(r16)
   29ab8:	00800044 	movi	r2,1
   29abc:	d9c00915 	stw	r7,36(sp)
   29ac0:	d8002115 	stw	zero,132(sp)
   29ac4:	d9c00e15 	stw	r7,56(sp)
   29ac8:	d8800c15 	stw	r2,48(sp)
   29acc:	d8800117 	ldw	r2,4(sp)
   29ad0:	10008b16 	blt	r2,zero,29d00 <_dtoa_r+0x970>
   29ad4:	d9000617 	ldw	r4,24(sp)
   29ad8:	00c00384 	movi	r3,14
   29adc:	19008816 	blt	r3,r4,29d00 <_dtoa_r+0x970>
   29ae0:	200490fa 	slli	r2,r4,3
   29ae4:	d9c02117 	ldw	r7,132(sp)
   29ae8:	00c000f4 	movhi	r3,3
   29aec:	18d3e904 	addi	r3,r3,20388
   29af0:	1885883a 	add	r2,r3,r2
   29af4:	14800017 	ldw	r18,0(r2)
   29af8:	14c00117 	ldw	r19,4(r2)
   29afc:	3801c916 	blt	r7,zero,2a224 <_dtoa_r+0xe94>
   29b00:	d9000317 	ldw	r4,12(sp)
   29b04:	900d883a 	mov	r6,r18
   29b08:	980f883a 	mov	r7,r19
   29b0c:	880b883a 	mov	r5,r17
   29b10:	00314780 	call	31478 <__divdf3>
   29b14:	180b883a 	mov	r5,r3
   29b18:	1009883a 	mov	r4,r2
   29b1c:	00319380 	call	31938 <__fixdfsi>
   29b20:	1009883a 	mov	r4,r2
   29b24:	102b883a 	mov	r21,r2
   29b28:	00318640 	call	31864 <__floatsidf>
   29b2c:	1009883a 	mov	r4,r2
   29b30:	180b883a 	mov	r5,r3
   29b34:	900d883a 	mov	r6,r18
   29b38:	980f883a 	mov	r7,r19
   29b3c:	00311940 	call	31194 <__muldf3>
   29b40:	d9000317 	ldw	r4,12(sp)
   29b44:	880b883a 	mov	r5,r17
   29b48:	100d883a 	mov	r6,r2
   29b4c:	180f883a 	mov	r7,r3
   29b50:	00311340 	call	31134 <__subdf3>
   29b54:	d9c00917 	ldw	r7,36(sp)
   29b58:	1009883a 	mov	r4,r2
   29b5c:	a8800c04 	addi	r2,r21,48
   29b60:	b8800005 	stb	r2,0(r23)
   29b64:	01800044 	movi	r6,1
   29b68:	180b883a 	mov	r5,r3
   29b6c:	2005883a 	mov	r2,r4
   29b70:	bd800044 	addi	r22,r23,1
   29b74:	39803726 	beq	r7,r6,29c54 <_dtoa_r+0x8c4>
   29b78:	000d883a 	mov	r6,zero
   29b7c:	01d00934 	movhi	r7,16420
   29b80:	00311940 	call	31194 <__muldf3>
   29b84:	1009883a 	mov	r4,r2
   29b88:	180b883a 	mov	r5,r3
   29b8c:	000d883a 	mov	r6,zero
   29b90:	000f883a 	mov	r7,zero
   29b94:	1029883a 	mov	r20,r2
   29b98:	1823883a 	mov	r17,r3
   29b9c:	003162c0 	call	3162c <__eqdf2>
   29ba0:	103f9c26 	beq	r2,zero,29a14 <_dtoa_r+0x684>
   29ba4:	dd400917 	ldw	r21,36(sp)
   29ba8:	dc000415 	stw	r16,16(sp)
   29bac:	00000906 	br	29bd4 <_dtoa_r+0x844>
   29bb0:	00311940 	call	31194 <__muldf3>
   29bb4:	1009883a 	mov	r4,r2
   29bb8:	180b883a 	mov	r5,r3
   29bbc:	000d883a 	mov	r6,zero
   29bc0:	000f883a 	mov	r7,zero
   29bc4:	1029883a 	mov	r20,r2
   29bc8:	1823883a 	mov	r17,r3
   29bcc:	003162c0 	call	3162c <__eqdf2>
   29bd0:	10022926 	beq	r2,zero,2a478 <_dtoa_r+0x10e8>
   29bd4:	900d883a 	mov	r6,r18
   29bd8:	980f883a 	mov	r7,r19
   29bdc:	a009883a 	mov	r4,r20
   29be0:	880b883a 	mov	r5,r17
   29be4:	00314780 	call	31478 <__divdf3>
   29be8:	180b883a 	mov	r5,r3
   29bec:	1009883a 	mov	r4,r2
   29bf0:	00319380 	call	31938 <__fixdfsi>
   29bf4:	1009883a 	mov	r4,r2
   29bf8:	1021883a 	mov	r16,r2
   29bfc:	00318640 	call	31864 <__floatsidf>
   29c00:	1009883a 	mov	r4,r2
   29c04:	180b883a 	mov	r5,r3
   29c08:	900d883a 	mov	r6,r18
   29c0c:	980f883a 	mov	r7,r19
   29c10:	00311940 	call	31194 <__muldf3>
   29c14:	a009883a 	mov	r4,r20
   29c18:	880b883a 	mov	r5,r17
   29c1c:	100d883a 	mov	r6,r2
   29c20:	180f883a 	mov	r7,r3
   29c24:	00311340 	call	31134 <__subdf3>
   29c28:	82400c04 	addi	r9,r16,48
   29c2c:	b2400005 	stb	r9,0(r22)
   29c30:	b5800044 	addi	r22,r22,1
   29c34:	b5d3c83a 	sub	r9,r22,r23
   29c38:	000d883a 	mov	r6,zero
   29c3c:	01d00934 	movhi	r7,16420
   29c40:	1009883a 	mov	r4,r2
   29c44:	180b883a 	mov	r5,r3
   29c48:	aa7fd91e 	bne	r21,r9,29bb0 <_dtoa_r+0x820>
   29c4c:	802b883a 	mov	r21,r16
   29c50:	dc000417 	ldw	r16,16(sp)
   29c54:	1009883a 	mov	r4,r2
   29c58:	180b883a 	mov	r5,r3
   29c5c:	100d883a 	mov	r6,r2
   29c60:	180f883a 	mov	r7,r3
   29c64:	00310e00 	call	310e0 <__adddf3>
   29c68:	9009883a 	mov	r4,r18
   29c6c:	980b883a 	mov	r5,r19
   29c70:	100d883a 	mov	r6,r2
   29c74:	180f883a 	mov	r7,r3
   29c78:	1023883a 	mov	r17,r2
   29c7c:	1829883a 	mov	r20,r3
   29c80:	00317ac0 	call	317ac <__ltdf2>
   29c84:	10000816 	blt	r2,zero,29ca8 <_dtoa_r+0x918>
   29c88:	9009883a 	mov	r4,r18
   29c8c:	980b883a 	mov	r5,r19
   29c90:	880d883a 	mov	r6,r17
   29c94:	a00f883a 	mov	r7,r20
   29c98:	003162c0 	call	3162c <__eqdf2>
   29c9c:	103f5d1e 	bne	r2,zero,29a14 <_dtoa_r+0x684>
   29ca0:	ad40004c 	andi	r21,r21,1
   29ca4:	a83f5b26 	beq	r21,zero,29a14 <_dtoa_r+0x684>
   29ca8:	b53fffc3 	ldbu	r20,-1(r22)
   29cac:	b0ffff84 	addi	r3,r22,-2
   29cb0:	01400e44 	movi	r5,57
   29cb4:	00000306 	br	29cc4 <_dtoa_r+0x934>
   29cb8:	1d000003 	ldbu	r20,0(r3)
   29cbc:	102d883a 	mov	r22,r2
   29cc0:	18ffffc4 	addi	r3,r3,-1
   29cc4:	a1003fcc 	andi	r4,r20,255
   29cc8:	2100201c 	xori	r4,r4,128
   29ccc:	213fe004 	addi	r4,r4,-128
   29cd0:	b0bfffc4 	addi	r2,r22,-1
   29cd4:	2142ca1e 	bne	r4,r5,2a800 <_dtoa_r+0x1470>
   29cd8:	b8bff71e 	bne	r23,r2,29cb8 <_dtoa_r+0x928>
   29cdc:	d8800617 	ldw	r2,24(sp)
   29ce0:	05000c44 	movi	r20,49
   29ce4:	10800044 	addi	r2,r2,1
   29ce8:	d8800615 	stw	r2,24(sp)
   29cec:	00800c04 	movi	r2,48
   29cf0:	b8800005 	stb	r2,0(r23)
   29cf4:	b805883a 	mov	r2,r23
   29cf8:	15000005 	stb	r20,0(r2)
   29cfc:	003f4506 	br	29a14 <_dtoa_r+0x684>
   29d00:	d9c00c17 	ldw	r7,48(sp)
   29d04:	3800c926 	beq	r7,zero,2a02c <_dtoa_r+0xc9c>
   29d08:	d9c00417 	ldw	r7,16(sp)
   29d0c:	00c00044 	movi	r3,1
   29d10:	19c16c0e 	bge	r3,r7,2a2c4 <_dtoa_r+0xf34>
   29d14:	d9000917 	ldw	r4,36(sp)
   29d18:	d9c00a17 	ldw	r7,40(sp)
   29d1c:	24ffffc4 	addi	r19,r4,-1
   29d20:	3cc20716 	blt	r7,r19,2a540 <_dtoa_r+0x11b0>
   29d24:	3ce7c83a 	sub	r19,r7,r19
   29d28:	d9c00917 	ldw	r7,36(sp)
   29d2c:	3802ae16 	blt	r7,zero,2a7e8 <_dtoa_r+0x1458>
   29d30:	dc800817 	ldw	r18,32(sp)
   29d34:	d8800917 	ldw	r2,36(sp)
   29d38:	d8c00817 	ldw	r3,32(sp)
   29d3c:	d9c00717 	ldw	r7,28(sp)
   29d40:	8009883a 	mov	r4,r16
   29d44:	1887883a 	add	r3,r3,r2
   29d48:	388f883a 	add	r7,r7,r2
   29d4c:	01400044 	movi	r5,1
   29d50:	d8c00815 	stw	r3,32(sp)
   29d54:	d9c00715 	stw	r7,28(sp)
   29d58:	002b8a80 	call	2b8a8 <__i2b>
   29d5c:	102b883a 	mov	r21,r2
   29d60:	90000a26 	beq	r18,zero,29d8c <_dtoa_r+0x9fc>
   29d64:	d8800717 	ldw	r2,28(sp)
   29d68:	0080080e 	bge	zero,r2,29d8c <_dtoa_r+0x9fc>
   29d6c:	90812b16 	blt	r18,r2,2a21c <_dtoa_r+0xe8c>
   29d70:	d8c00817 	ldw	r3,32(sp)
   29d74:	d9000717 	ldw	r4,28(sp)
   29d78:	90a5c83a 	sub	r18,r18,r2
   29d7c:	1887c83a 	sub	r3,r3,r2
   29d80:	2089c83a 	sub	r4,r4,r2
   29d84:	d8c00815 	stw	r3,32(sp)
   29d88:	d9000715 	stw	r4,28(sp)
   29d8c:	d9c00a17 	ldw	r7,40(sp)
   29d90:	01c0140e 	bge	zero,r7,29de4 <_dtoa_r+0xa54>
   29d94:	d8800c17 	ldw	r2,48(sp)
   29d98:	1001de26 	beq	r2,zero,2a514 <_dtoa_r+0x1184>
   29d9c:	04c00e0e 	bge	zero,r19,29dd8 <_dtoa_r+0xa48>
   29da0:	a80b883a 	mov	r5,r21
   29da4:	8009883a 	mov	r4,r16
   29da8:	980d883a 	mov	r6,r19
   29dac:	002bb3c0 	call	2bb3c <__pow5mult>
   29db0:	e00d883a 	mov	r6,fp
   29db4:	8009883a 	mov	r4,r16
   29db8:	100b883a 	mov	r5,r2
   29dbc:	102b883a 	mov	r21,r2
   29dc0:	002b8e40 	call	2b8e4 <__multiply>
   29dc4:	1029883a 	mov	r20,r2
   29dc8:	e00b883a 	mov	r5,fp
   29dcc:	8009883a 	mov	r4,r16
   29dd0:	002b5200 	call	2b520 <_Bfree>
   29dd4:	a039883a 	mov	fp,r20
   29dd8:	d8c00a17 	ldw	r3,40(sp)
   29ddc:	1ccdc83a 	sub	r6,r3,r19
   29de0:	3001291e 	bne	r6,zero,2a288 <_dtoa_r+0xef8>
   29de4:	8009883a 	mov	r4,r16
   29de8:	01400044 	movi	r5,1
   29dec:	002b8a80 	call	2b8a8 <__i2b>
   29df0:	d9000b17 	ldw	r4,44(sp)
   29df4:	1029883a 	mov	r20,r2
   29df8:	0100050e 	bge	zero,r4,29e10 <_dtoa_r+0xa80>
   29dfc:	d9800b17 	ldw	r6,44(sp)
   29e00:	8009883a 	mov	r4,r16
   29e04:	100b883a 	mov	r5,r2
   29e08:	002bb3c0 	call	2bb3c <__pow5mult>
   29e0c:	1029883a 	mov	r20,r2
   29e10:	d9c00417 	ldw	r7,16(sp)
   29e14:	00800044 	movi	r2,1
   29e18:	11c0f00e 	bge	r2,r7,2a1dc <_dtoa_r+0xe4c>
   29e1c:	0023883a 	mov	r17,zero
   29e20:	d8800b17 	ldw	r2,44(sp)
   29e24:	1001741e 	bne	r2,zero,2a3f8 <_dtoa_r+0x1068>
   29e28:	00800044 	movi	r2,1
   29e2c:	d8c00717 	ldw	r3,28(sp)
   29e30:	10c5883a 	add	r2,r2,r3
   29e34:	108007cc 	andi	r2,r2,31
   29e38:	10008026 	beq	r2,zero,2a03c <_dtoa_r+0xcac>
   29e3c:	01000804 	movi	r4,32
   29e40:	2089c83a 	sub	r4,r4,r2
   29e44:	00c00104 	movi	r3,4
   29e48:	1902d00e 	bge	r3,r4,2a98c <_dtoa_r+0x15fc>
   29e4c:	d9000817 	ldw	r4,32(sp)
   29e50:	d9c00717 	ldw	r7,28(sp)
   29e54:	00c00704 	movi	r3,28
   29e58:	1885c83a 	sub	r2,r3,r2
   29e5c:	2089883a 	add	r4,r4,r2
   29e60:	388f883a 	add	r7,r7,r2
   29e64:	d9000815 	stw	r4,32(sp)
   29e68:	90a5883a 	add	r18,r18,r2
   29e6c:	d9c00715 	stw	r7,28(sp)
   29e70:	d9c00817 	ldw	r7,32(sp)
   29e74:	01c0050e 	bge	zero,r7,29e8c <_dtoa_r+0xafc>
   29e78:	e00b883a 	mov	r5,fp
   29e7c:	8009883a 	mov	r4,r16
   29e80:	380d883a 	mov	r6,r7
   29e84:	002bc680 	call	2bc68 <__lshift>
   29e88:	1039883a 	mov	fp,r2
   29e8c:	d8800717 	ldw	r2,28(sp)
   29e90:	0080050e 	bge	zero,r2,29ea8 <_dtoa_r+0xb18>
   29e94:	a00b883a 	mov	r5,r20
   29e98:	8009883a 	mov	r4,r16
   29e9c:	100d883a 	mov	r6,r2
   29ea0:	002bc680 	call	2bc68 <__lshift>
   29ea4:	1029883a 	mov	r20,r2
   29ea8:	d8c00d17 	ldw	r3,52(sp)
   29eac:	1801401e 	bne	r3,zero,2a3b0 <_dtoa_r+0x1020>
   29eb0:	d8800917 	ldw	r2,36(sp)
   29eb4:	00815a0e 	bge	zero,r2,2a420 <_dtoa_r+0x1090>
   29eb8:	d8c00c17 	ldw	r3,48(sp)
   29ebc:	18006f1e 	bne	r3,zero,2a07c <_dtoa_r+0xcec>
   29ec0:	b823883a 	mov	r17,r23
   29ec4:	dc800917 	ldw	r18,36(sp)
   29ec8:	00000206 	br	29ed4 <_dtoa_r+0xb44>
   29ecc:	002b5480 	call	2b548 <__multadd>
   29ed0:	1039883a 	mov	fp,r2
   29ed4:	e009883a 	mov	r4,fp
   29ed8:	a00b883a 	mov	r5,r20
   29edc:	00291540 	call	29154 <quorem>
   29ee0:	10800c04 	addi	r2,r2,48
   29ee4:	88800005 	stb	r2,0(r17)
   29ee8:	8c400044 	addi	r17,r17,1
   29eec:	8dc7c83a 	sub	r3,r17,r23
   29ef0:	8009883a 	mov	r4,r16
   29ef4:	e00b883a 	mov	r5,fp
   29ef8:	01800284 	movi	r6,10
   29efc:	000f883a 	mov	r7,zero
   29f00:	1cbff216 	blt	r3,r18,29ecc <_dtoa_r+0xb3c>
   29f04:	dd800917 	ldw	r22,36(sp)
   29f08:	1007883a 	mov	r3,r2
   29f0c:	05823a0e 	bge	zero,r22,2a7f8 <_dtoa_r+0x1468>
   29f10:	bdad883a 	add	r22,r23,r22
   29f14:	0023883a 	mov	r17,zero
   29f18:	e00b883a 	mov	r5,fp
   29f1c:	01800044 	movi	r6,1
   29f20:	8009883a 	mov	r4,r16
   29f24:	d8c01515 	stw	r3,84(sp)
   29f28:	002bc680 	call	2bc68 <__lshift>
   29f2c:	1009883a 	mov	r4,r2
   29f30:	a00b883a 	mov	r5,r20
   29f34:	1039883a 	mov	fp,r2
   29f38:	002bdc40 	call	2bdc4 <__mcmp>
   29f3c:	d8c01517 	ldw	r3,84(sp)
   29f40:	0080d60e 	bge	zero,r2,2a29c <_dtoa_r+0xf0c>
   29f44:	b13fffc3 	ldbu	r4,-1(r22)
   29f48:	b0ffff84 	addi	r3,r22,-2
   29f4c:	01800e44 	movi	r6,57
   29f50:	00000306 	br	29f60 <_dtoa_r+0xbd0>
   29f54:	19000003 	ldbu	r4,0(r3)
   29f58:	102d883a 	mov	r22,r2
   29f5c:	18ffffc4 	addi	r3,r3,-1
   29f60:	21403fcc 	andi	r5,r4,255
   29f64:	2940201c 	xori	r5,r5,128
   29f68:	297fe004 	addi	r5,r5,-128
   29f6c:	b0bfffc4 	addi	r2,r22,-1
   29f70:	2981a71e 	bne	r5,r6,2a610 <_dtoa_r+0x1280>
   29f74:	b8bff71e 	bne	r23,r2,29f54 <_dtoa_r+0xbc4>
   29f78:	d8800617 	ldw	r2,24(sp)
   29f7c:	10800044 	addi	r2,r2,1
   29f80:	d8800615 	stw	r2,24(sp)
   29f84:	00800c44 	movi	r2,49
   29f88:	b8800005 	stb	r2,0(r23)
   29f8c:	8009883a 	mov	r4,r16
   29f90:	a00b883a 	mov	r5,r20
   29f94:	002b5200 	call	2b520 <_Bfree>
   29f98:	a83e9e26 	beq	r21,zero,29a14 <_dtoa_r+0x684>
   29f9c:	88000426 	beq	r17,zero,29fb0 <_dtoa_r+0xc20>
   29fa0:	8d400326 	beq	r17,r21,29fb0 <_dtoa_r+0xc20>
   29fa4:	8009883a 	mov	r4,r16
   29fa8:	880b883a 	mov	r5,r17
   29fac:	002b5200 	call	2b520 <_Bfree>
   29fb0:	8009883a 	mov	r4,r16
   29fb4:	a80b883a 	mov	r5,r21
   29fb8:	002b5200 	call	2b520 <_Bfree>
   29fbc:	003e9506 	br	29a14 <_dtoa_r+0x684>
   29fc0:	00c00044 	movi	r3,1
   29fc4:	d8c00d15 	stw	r3,52(sp)
   29fc8:	003d9f06 	br	29648 <_dtoa_r+0x2b8>
   29fcc:	d9000817 	ldw	r4,32(sp)
   29fd0:	d8800617 	ldw	r2,24(sp)
   29fd4:	d8000b15 	stw	zero,44(sp)
   29fd8:	2089c83a 	sub	r4,r4,r2
   29fdc:	0087c83a 	sub	r3,zero,r2
   29fe0:	d9000815 	stw	r4,32(sp)
   29fe4:	d8c00a15 	stw	r3,40(sp)
   29fe8:	003da306 	br	29678 <_dtoa_r+0x2e8>
   29fec:	0529c83a 	sub	r20,zero,r20
   29ff0:	dd000815 	stw	r20,32(sp)
   29ff4:	d8000715 	stw	zero,28(sp)
   29ff8:	003d9806 	br	2965c <_dtoa_r+0x2cc>
   29ffc:	d9000617 	ldw	r4,24(sp)
   2a000:	00318640 	call	31864 <__floatsidf>
   2a004:	1009883a 	mov	r4,r2
   2a008:	180b883a 	mov	r5,r3
   2a00c:	980d883a 	mov	r6,r19
   2a010:	900f883a 	mov	r7,r18
   2a014:	00316880 	call	31688 <__nedf2>
   2a018:	103d7a26 	beq	r2,zero,29604 <_dtoa_r+0x274>
   2a01c:	d8800617 	ldw	r2,24(sp)
   2a020:	10bfffc4 	addi	r2,r2,-1
   2a024:	d8800615 	stw	r2,24(sp)
   2a028:	003d7606 	br	29604 <_dtoa_r+0x274>
   2a02c:	dcc00a17 	ldw	r19,40(sp)
   2a030:	dc800817 	ldw	r18,32(sp)
   2a034:	002b883a 	mov	r21,zero
   2a038:	003f4906 	br	29d60 <_dtoa_r+0x9d0>
   2a03c:	00800704 	movi	r2,28
   2a040:	d8c00817 	ldw	r3,32(sp)
   2a044:	d9000717 	ldw	r4,28(sp)
   2a048:	90a5883a 	add	r18,r18,r2
   2a04c:	1887883a 	add	r3,r3,r2
   2a050:	2089883a 	add	r4,r4,r2
   2a054:	d8c00815 	stw	r3,32(sp)
   2a058:	d9000715 	stw	r4,28(sp)
   2a05c:	003f8406 	br	29e70 <_dtoa_r+0xae0>
   2a060:	d9c00317 	ldw	r7,12(sp)
   2a064:	013efb84 	movi	r4,-1042
   2a068:	2509c83a 	sub	r4,r4,r20
   2a06c:	3908983a 	sll	r4,r7,r4
   2a070:	003d3006 	br	29534 <_dtoa_r+0x1a4>
   2a074:	d8000d15 	stw	zero,52(sp)
   2a078:	003d7306 	br	29648 <_dtoa_r+0x2b8>
   2a07c:	0480050e 	bge	zero,r18,2a094 <_dtoa_r+0xd04>
   2a080:	a80b883a 	mov	r5,r21
   2a084:	8009883a 	mov	r4,r16
   2a088:	900d883a 	mov	r6,r18
   2a08c:	002bc680 	call	2bc68 <__lshift>
   2a090:	102b883a 	mov	r21,r2
   2a094:	8801611e 	bne	r17,zero,2a61c <_dtoa_r+0x128c>
   2a098:	a827883a 	mov	r19,r21
   2a09c:	d8c00317 	ldw	r3,12(sp)
   2a0a0:	d9000917 	ldw	r4,36(sp)
   2a0a4:	b8bfffc4 	addi	r2,r23,-1
   2a0a8:	18c0004c 	andi	r3,r3,1
   2a0ac:	1105883a 	add	r2,r2,r4
   2a0b0:	b825883a 	mov	r18,r23
   2a0b4:	d8800515 	stw	r2,20(sp)
   2a0b8:	a823883a 	mov	r17,r21
   2a0bc:	d8c00315 	stw	r3,12(sp)
   2a0c0:	ddc00715 	stw	r23,28(sp)
   2a0c4:	e009883a 	mov	r4,fp
   2a0c8:	a00b883a 	mov	r5,r20
   2a0cc:	00291540 	call	29154 <quorem>
   2a0d0:	e009883a 	mov	r4,fp
   2a0d4:	880b883a 	mov	r5,r17
   2a0d8:	102d883a 	mov	r22,r2
   2a0dc:	002bdc40 	call	2bdc4 <__mcmp>
   2a0e0:	980d883a 	mov	r6,r19
   2a0e4:	8009883a 	mov	r4,r16
   2a0e8:	a00b883a 	mov	r5,r20
   2a0ec:	102b883a 	mov	r21,r2
   2a0f0:	002be1c0 	call	2be1c <__mdiff>
   2a0f4:	100d883a 	mov	r6,r2
   2a0f8:	10800317 	ldw	r2,12(r2)
   2a0fc:	b5c00c04 	addi	r23,r22,48
   2a100:	10008c26 	beq	r2,zero,2a334 <_dtoa_r+0xfa4>
   2a104:	8009883a 	mov	r4,r16
   2a108:	300b883a 	mov	r5,r6
   2a10c:	002b5200 	call	2b520 <_Bfree>
   2a110:	00800044 	movi	r2,1
   2a114:	a8007116 	blt	r21,zero,2a2dc <_dtoa_r+0xf4c>
   2a118:	a800041e 	bne	r21,zero,2a12c <_dtoa_r+0xd9c>
   2a11c:	d9c00417 	ldw	r7,16(sp)
   2a120:	3800021e 	bne	r7,zero,2a12c <_dtoa_r+0xd9c>
   2a124:	d8c00317 	ldw	r3,12(sp)
   2a128:	18006c26 	beq	r3,zero,2a2dc <_dtoa_r+0xf4c>
   2a12c:	00814c16 	blt	zero,r2,2a660 <_dtoa_r+0x12d0>
   2a130:	d8c00517 	ldw	r3,20(sp)
   2a134:	95400044 	addi	r21,r18,1
   2a138:	95c00005 	stb	r23,0(r18)
   2a13c:	a82d883a 	mov	r22,r21
   2a140:	90c14d26 	beq	r18,r3,2a678 <_dtoa_r+0x12e8>
   2a144:	e00b883a 	mov	r5,fp
   2a148:	8009883a 	mov	r4,r16
   2a14c:	01800284 	movi	r6,10
   2a150:	000f883a 	mov	r7,zero
   2a154:	002b5480 	call	2b548 <__multadd>
   2a158:	1039883a 	mov	fp,r2
   2a15c:	8cc08b26 	beq	r17,r19,2a38c <_dtoa_r+0xffc>
   2a160:	880b883a 	mov	r5,r17
   2a164:	01800284 	movi	r6,10
   2a168:	000f883a 	mov	r7,zero
   2a16c:	8009883a 	mov	r4,r16
   2a170:	002b5480 	call	2b548 <__multadd>
   2a174:	980b883a 	mov	r5,r19
   2a178:	8009883a 	mov	r4,r16
   2a17c:	01800284 	movi	r6,10
   2a180:	000f883a 	mov	r7,zero
   2a184:	1023883a 	mov	r17,r2
   2a188:	002b5480 	call	2b548 <__multadd>
   2a18c:	1027883a 	mov	r19,r2
   2a190:	a825883a 	mov	r18,r21
   2a194:	003fcb06 	br	2a0c4 <_dtoa_r+0xd34>
   2a198:	d9c00417 	ldw	r7,16(sp)
   2a19c:	00800104 	movi	r2,4
   2a1a0:	3880e426 	beq	r7,r2,2a534 <_dtoa_r+0x11a4>
   2a1a4:	00800144 	movi	r2,5
   2a1a8:	38be3c1e 	bne	r7,r2,29a9c <_dtoa_r+0x70c>
   2a1ac:	00c00044 	movi	r3,1
   2a1b0:	d8c00c15 	stw	r3,48(sp)
   2a1b4:	d9c02117 	ldw	r7,132(sp)
   2a1b8:	d8800617 	ldw	r2,24(sp)
   2a1bc:	388f883a 	add	r7,r7,r2
   2a1c0:	3c800044 	addi	r18,r7,1
   2a1c4:	d9c00e15 	stw	r7,56(sp)
   2a1c8:	dc800915 	stw	r18,36(sp)
   2a1cc:	04bd3e16 	blt	zero,r18,296c8 <_dtoa_r+0x338>
   2a1d0:	80001115 	stw	zero,68(r16)
   2a1d4:	000b883a 	mov	r5,zero
   2a1d8:	003d4606 	br	296f4 <_dtoa_r+0x364>
   2a1dc:	d8c00317 	ldw	r3,12(sp)
   2a1e0:	183f0e1e 	bne	r3,zero,29e1c <_dtoa_r+0xa8c>
   2a1e4:	00c00434 	movhi	r3,16
   2a1e8:	18ffffc4 	addi	r3,r3,-1
   2a1ec:	88c6703a 	and	r3,r17,r3
   2a1f0:	183f0a1e 	bne	r3,zero,29e1c <_dtoa_r+0xa8c>
   2a1f4:	8c5ffc2c 	andhi	r17,r17,32752
   2a1f8:	883f0826 	beq	r17,zero,29e1c <_dtoa_r+0xa8c>
   2a1fc:	d9000817 	ldw	r4,32(sp)
   2a200:	d9c00717 	ldw	r7,28(sp)
   2a204:	1023883a 	mov	r17,r2
   2a208:	2089883a 	add	r4,r4,r2
   2a20c:	388f883a 	add	r7,r7,r2
   2a210:	d9000815 	stw	r4,32(sp)
   2a214:	d9c00715 	stw	r7,28(sp)
   2a218:	003f0106 	br	29e20 <_dtoa_r+0xa90>
   2a21c:	9005883a 	mov	r2,r18
   2a220:	003ed306 	br	29d70 <_dtoa_r+0x9e0>
   2a224:	d8800917 	ldw	r2,36(sp)
   2a228:	00be3516 	blt	zero,r2,29b00 <_dtoa_r+0x770>
   2a22c:	1000b61e 	bne	r2,zero,2a508 <_dtoa_r+0x1178>
   2a230:	9009883a 	mov	r4,r18
   2a234:	980b883a 	mov	r5,r19
   2a238:	000d883a 	mov	r6,zero
   2a23c:	01d00534 	movhi	r7,16404
   2a240:	00311940 	call	31194 <__muldf3>
   2a244:	d9800317 	ldw	r6,12(sp)
   2a248:	1009883a 	mov	r4,r2
   2a24c:	180b883a 	mov	r5,r3
   2a250:	880f883a 	mov	r7,r17
   2a254:	00317480 	call	31748 <__gedf2>
   2a258:	0029883a 	mov	r20,zero
   2a25c:	002b883a 	mov	r21,zero
   2a260:	10007e16 	blt	r2,zero,2a45c <_dtoa_r+0x10cc>
   2a264:	d8802117 	ldw	r2,132(sp)
   2a268:	b82d883a 	mov	r22,r23
   2a26c:	0084303a 	nor	r2,zero,r2
   2a270:	d8800615 	stw	r2,24(sp)
   2a274:	8009883a 	mov	r4,r16
   2a278:	a00b883a 	mov	r5,r20
   2a27c:	002b5200 	call	2b520 <_Bfree>
   2a280:	a83f4b1e 	bne	r21,zero,29fb0 <_dtoa_r+0xc20>
   2a284:	003de306 	br	29a14 <_dtoa_r+0x684>
   2a288:	e00b883a 	mov	r5,fp
   2a28c:	8009883a 	mov	r4,r16
   2a290:	002bb3c0 	call	2bb3c <__pow5mult>
   2a294:	1039883a 	mov	fp,r2
   2a298:	003ed206 	br	29de4 <_dtoa_r+0xa54>
   2a29c:	1000021e 	bne	r2,zero,2a2a8 <_dtoa_r+0xf18>
   2a2a0:	18c0004c 	andi	r3,r3,1
   2a2a4:	183f271e 	bne	r3,zero,29f44 <_dtoa_r+0xbb4>
   2a2a8:	01000c04 	movi	r4,48
   2a2ac:	00000106 	br	2a2b4 <_dtoa_r+0xf24>
   2a2b0:	102d883a 	mov	r22,r2
   2a2b4:	b0bfffc4 	addi	r2,r22,-1
   2a2b8:	10c00007 	ldb	r3,0(r2)
   2a2bc:	193ffc26 	beq	r3,r4,2a2b0 <_dtoa_r+0xf20>
   2a2c0:	003f3206 	br	29f8c <_dtoa_r+0xbfc>
   2a2c4:	d8c00f17 	ldw	r3,60(sp)
   2a2c8:	18015026 	beq	r3,zero,2a80c <_dtoa_r+0x147c>
   2a2cc:	10810cc4 	addi	r2,r2,1075
   2a2d0:	dcc00a17 	ldw	r19,40(sp)
   2a2d4:	dc800817 	ldw	r18,32(sp)
   2a2d8:	003e9706 	br	29d38 <_dtoa_r+0x9a8>
   2a2dc:	b807883a 	mov	r3,r23
   2a2e0:	182b883a 	mov	r21,r3
   2a2e4:	ddc00717 	ldw	r23,28(sp)
   2a2e8:	00800e0e 	bge	zero,r2,2a324 <_dtoa_r+0xf94>
   2a2ec:	e00b883a 	mov	r5,fp
   2a2f0:	01800044 	movi	r6,1
   2a2f4:	8009883a 	mov	r4,r16
   2a2f8:	d8c01515 	stw	r3,84(sp)
   2a2fc:	002bc680 	call	2bc68 <__lshift>
   2a300:	1009883a 	mov	r4,r2
   2a304:	a00b883a 	mov	r5,r20
   2a308:	1039883a 	mov	fp,r2
   2a30c:	002bdc40 	call	2bdc4 <__mcmp>
   2a310:	d8c01517 	ldw	r3,84(sp)
   2a314:	0081880e 	bge	zero,r2,2a938 <_dtoa_r+0x15a8>
   2a318:	00800e44 	movi	r2,57
   2a31c:	b0c00c44 	addi	r3,r22,49
   2a320:	a8816326 	beq	r21,r2,2a8b0 <_dtoa_r+0x1520>
   2a324:	90c00005 	stb	r3,0(r18)
   2a328:	95800044 	addi	r22,r18,1
   2a32c:	982b883a 	mov	r21,r19
   2a330:	003f1606 	br	29f8c <_dtoa_r+0xbfc>
   2a334:	300b883a 	mov	r5,r6
   2a338:	e009883a 	mov	r4,fp
   2a33c:	d9801515 	stw	r6,84(sp)
   2a340:	002bdc40 	call	2bdc4 <__mcmp>
   2a344:	d9801517 	ldw	r6,84(sp)
   2a348:	8009883a 	mov	r4,r16
   2a34c:	d8801515 	stw	r2,84(sp)
   2a350:	300b883a 	mov	r5,r6
   2a354:	002b5200 	call	2b520 <_Bfree>
   2a358:	d8801517 	ldw	r2,84(sp)
   2a35c:	103f6d1e 	bne	r2,zero,2a114 <_dtoa_r+0xd84>
   2a360:	d9c00417 	ldw	r7,16(sp)
   2a364:	383f6b1e 	bne	r7,zero,2a114 <_dtoa_r+0xd84>
   2a368:	d8c00317 	ldw	r3,12(sp)
   2a36c:	183f691e 	bne	r3,zero,2a114 <_dtoa_r+0xd84>
   2a370:	b807883a 	mov	r3,r23
   2a374:	00800e44 	movi	r2,57
   2a378:	ddc00717 	ldw	r23,28(sp)
   2a37c:	18814c26 	beq	r3,r2,2a8b0 <_dtoa_r+0x1520>
   2a380:	057fe80e 	bge	zero,r21,2a324 <_dtoa_r+0xf94>
   2a384:	b0c00c44 	addi	r3,r22,49
   2a388:	003fe606 	br	2a324 <_dtoa_r+0xf94>
   2a38c:	880b883a 	mov	r5,r17
   2a390:	8009883a 	mov	r4,r16
   2a394:	01800284 	movi	r6,10
   2a398:	000f883a 	mov	r7,zero
   2a39c:	002b5480 	call	2b548 <__multadd>
   2a3a0:	1023883a 	mov	r17,r2
   2a3a4:	1027883a 	mov	r19,r2
   2a3a8:	a825883a 	mov	r18,r21
   2a3ac:	003f4506 	br	2a0c4 <_dtoa_r+0xd34>
   2a3b0:	e009883a 	mov	r4,fp
   2a3b4:	a00b883a 	mov	r5,r20
   2a3b8:	002bdc40 	call	2bdc4 <__mcmp>
   2a3bc:	103ebc0e 	bge	r2,zero,29eb0 <_dtoa_r+0xb20>
   2a3c0:	e00b883a 	mov	r5,fp
   2a3c4:	8009883a 	mov	r4,r16
   2a3c8:	01800284 	movi	r6,10
   2a3cc:	000f883a 	mov	r7,zero
   2a3d0:	002b5480 	call	2b548 <__multadd>
   2a3d4:	1039883a 	mov	fp,r2
   2a3d8:	d8800617 	ldw	r2,24(sp)
   2a3dc:	d8c00c17 	ldw	r3,48(sp)
   2a3e0:	10bfffc4 	addi	r2,r2,-1
   2a3e4:	d8800615 	stw	r2,24(sp)
   2a3e8:	1801571e 	bne	r3,zero,2a948 <_dtoa_r+0x15b8>
   2a3ec:	d9c00e17 	ldw	r7,56(sp)
   2a3f0:	d9c00915 	stw	r7,36(sp)
   2a3f4:	003eae06 	br	29eb0 <_dtoa_r+0xb20>
   2a3f8:	a0800417 	ldw	r2,16(r20)
   2a3fc:	10800104 	addi	r2,r2,4
   2a400:	1085883a 	add	r2,r2,r2
   2a404:	1085883a 	add	r2,r2,r2
   2a408:	a085883a 	add	r2,r20,r2
   2a40c:	11000017 	ldw	r4,0(r2)
   2a410:	002b7900 	call	2b790 <__hi0bits>
   2a414:	00c00804 	movi	r3,32
   2a418:	1885c83a 	sub	r2,r3,r2
   2a41c:	003e8306 	br	29e2c <_dtoa_r+0xa9c>
   2a420:	d9c00417 	ldw	r7,16(sp)
   2a424:	00800084 	movi	r2,2
   2a428:	11fea30e 	bge	r2,r7,29eb8 <_dtoa_r+0xb28>
   2a42c:	d8800917 	ldw	r2,36(sp)
   2a430:	103f8c1e 	bne	r2,zero,2a264 <_dtoa_r+0xed4>
   2a434:	a00b883a 	mov	r5,r20
   2a438:	8009883a 	mov	r4,r16
   2a43c:	01800144 	movi	r6,5
   2a440:	000f883a 	mov	r7,zero
   2a444:	002b5480 	call	2b548 <__multadd>
   2a448:	e009883a 	mov	r4,fp
   2a44c:	100b883a 	mov	r5,r2
   2a450:	1029883a 	mov	r20,r2
   2a454:	002bdc40 	call	2bdc4 <__mcmp>
   2a458:	00bf820e 	bge	zero,r2,2a264 <_dtoa_r+0xed4>
   2a45c:	00800c44 	movi	r2,49
   2a460:	b8800005 	stb	r2,0(r23)
   2a464:	d8800617 	ldw	r2,24(sp)
   2a468:	bd800044 	addi	r22,r23,1
   2a46c:	10800044 	addi	r2,r2,1
   2a470:	d8800615 	stw	r2,24(sp)
   2a474:	003f7f06 	br	2a274 <_dtoa_r+0xee4>
   2a478:	dc000417 	ldw	r16,16(sp)
   2a47c:	003d6506 	br	29a14 <_dtoa_r+0x684>
   2a480:	9009883a 	mov	r4,r18
   2a484:	00318640 	call	31864 <__floatsidf>
   2a488:	1009883a 	mov	r4,r2
   2a48c:	180b883a 	mov	r5,r3
   2a490:	980d883a 	mov	r6,r19
   2a494:	a00f883a 	mov	r7,r20
   2a498:	00311940 	call	31194 <__muldf3>
   2a49c:	1009883a 	mov	r4,r2
   2a4a0:	180b883a 	mov	r5,r3
   2a4a4:	000d883a 	mov	r6,zero
   2a4a8:	01d00734 	movhi	r7,16412
   2a4ac:	00310e00 	call	310e0 <__adddf3>
   2a4b0:	057f3034 	movhi	r21,64704
   2a4b4:	1025883a 	mov	r18,r2
   2a4b8:	1d6b883a 	add	r21,r3,r21
   2a4bc:	9809883a 	mov	r4,r19
   2a4c0:	a00b883a 	mov	r5,r20
   2a4c4:	000d883a 	mov	r6,zero
   2a4c8:	01d00534 	movhi	r7,16404
   2a4cc:	00311340 	call	31134 <__subdf3>
   2a4d0:	1009883a 	mov	r4,r2
   2a4d4:	180b883a 	mov	r5,r3
   2a4d8:	900d883a 	mov	r6,r18
   2a4dc:	a80f883a 	mov	r7,r21
   2a4e0:	1027883a 	mov	r19,r2
   2a4e4:	1829883a 	mov	r20,r3
   2a4e8:	00316e40 	call	316e4 <__gtdf2>
   2a4ec:	00806616 	blt	zero,r2,2a688 <_dtoa_r+0x12f8>
   2a4f0:	a9e0003c 	xorhi	r7,r21,32768
   2a4f4:	9809883a 	mov	r4,r19
   2a4f8:	a00b883a 	mov	r5,r20
   2a4fc:	900d883a 	mov	r6,r18
   2a500:	00317ac0 	call	317ac <__ltdf2>
   2a504:	103d710e 	bge	r2,zero,29acc <_dtoa_r+0x73c>
   2a508:	0029883a 	mov	r20,zero
   2a50c:	002b883a 	mov	r21,zero
   2a510:	003f5406 	br	2a264 <_dtoa_r+0xed4>
   2a514:	d9800a17 	ldw	r6,40(sp)
   2a518:	e00b883a 	mov	r5,fp
   2a51c:	8009883a 	mov	r4,r16
   2a520:	002bb3c0 	call	2bb3c <__pow5mult>
   2a524:	1039883a 	mov	fp,r2
   2a528:	003e2e06 	br	29de4 <_dtoa_r+0xa54>
   2a52c:	d8000c15 	stw	zero,48(sp)
   2a530:	003f2006 	br	2a1b4 <_dtoa_r+0xe24>
   2a534:	00800044 	movi	r2,1
   2a538:	d8800c15 	stw	r2,48(sp)
   2a53c:	003c5d06 	br	296b4 <_dtoa_r+0x324>
   2a540:	d8c00a17 	ldw	r3,40(sp)
   2a544:	d9000b17 	ldw	r4,44(sp)
   2a548:	dcc00a15 	stw	r19,40(sp)
   2a54c:	98c5c83a 	sub	r2,r19,r3
   2a550:	2089883a 	add	r4,r4,r2
   2a554:	d9000b15 	stw	r4,44(sp)
   2a558:	0027883a 	mov	r19,zero
   2a55c:	003df206 	br	29d28 <_dtoa_r+0x998>
   2a560:	d9000317 	ldw	r4,12(sp)
   2a564:	8829883a 	mov	r20,r17
   2a568:	04800084 	movi	r18,2
   2a56c:	d9001015 	stw	r4,64(sp)
   2a570:	003c8106 	br	29778 <_dtoa_r+0x3e8>
   2a574:	04800044 	movi	r18,1
   2a578:	dc800e15 	stw	r18,56(sp)
   2a57c:	dc800915 	stw	r18,36(sp)
   2a580:	dc802115 	stw	r18,132(sp)
   2a584:	003f1206 	br	2a1d0 <_dtoa_r+0xe40>
   2a588:	d8800617 	ldw	r2,24(sp)
   2a58c:	00abc83a 	sub	r21,zero,r2
   2a590:	a800a426 	beq	r21,zero,2a824 <_dtoa_r+0x1494>
   2a594:	a88003cc 	andi	r2,r21,15
   2a598:	100490fa 	slli	r2,r2,3
   2a59c:	00c000f4 	movhi	r3,3
   2a5a0:	18d3e904 	addi	r3,r3,20388
   2a5a4:	d9000317 	ldw	r4,12(sp)
   2a5a8:	1885883a 	add	r2,r3,r2
   2a5ac:	11800017 	ldw	r6,0(r2)
   2a5b0:	11c00117 	ldw	r7,4(r2)
   2a5b4:	a82bd13a 	srai	r21,r21,4
   2a5b8:	880b883a 	mov	r5,r17
   2a5bc:	00311940 	call	31194 <__muldf3>
   2a5c0:	1027883a 	mov	r19,r2
   2a5c4:	1829883a 	mov	r20,r3
   2a5c8:	a800e826 	beq	r21,zero,2a96c <_dtoa_r+0x15dc>
   2a5cc:	058000f4 	movhi	r22,3
   2a5d0:	b593df04 	addi	r22,r22,20348
   2a5d4:	04800084 	movi	r18,2
   2a5d8:	a980004c 	andi	r6,r21,1
   2a5dc:	1009883a 	mov	r4,r2
   2a5e0:	a82bd07a 	srai	r21,r21,1
   2a5e4:	180b883a 	mov	r5,r3
   2a5e8:	30000426 	beq	r6,zero,2a5fc <_dtoa_r+0x126c>
   2a5ec:	b1800017 	ldw	r6,0(r22)
   2a5f0:	b1c00117 	ldw	r7,4(r22)
   2a5f4:	94800044 	addi	r18,r18,1
   2a5f8:	00311940 	call	31194 <__muldf3>
   2a5fc:	b5800204 	addi	r22,r22,8
   2a600:	a83ff51e 	bne	r21,zero,2a5d8 <_dtoa_r+0x1248>
   2a604:	1027883a 	mov	r19,r2
   2a608:	1829883a 	mov	r20,r3
   2a60c:	003c7306 	br	297dc <_dtoa_r+0x44c>
   2a610:	21000044 	addi	r4,r4,1
   2a614:	11000005 	stb	r4,0(r2)
   2a618:	003e5c06 	br	29f8c <_dtoa_r+0xbfc>
   2a61c:	a9400117 	ldw	r5,4(r21)
   2a620:	8009883a 	mov	r4,r16
   2a624:	002b4780 	call	2b478 <_Balloc>
   2a628:	a9800417 	ldw	r6,16(r21)
   2a62c:	11000304 	addi	r4,r2,12
   2a630:	a9400304 	addi	r5,r21,12
   2a634:	31800084 	addi	r6,r6,2
   2a638:	318d883a 	add	r6,r6,r6
   2a63c:	318d883a 	add	r6,r6,r6
   2a640:	1023883a 	mov	r17,r2
   2a644:	00250a80 	call	250a8 <memcpy>
   2a648:	8009883a 	mov	r4,r16
   2a64c:	880b883a 	mov	r5,r17
   2a650:	01800044 	movi	r6,1
   2a654:	002bc680 	call	2bc68 <__lshift>
   2a658:	1027883a 	mov	r19,r2
   2a65c:	003e8f06 	br	2a09c <_dtoa_r+0xd0c>
   2a660:	b807883a 	mov	r3,r23
   2a664:	00800e44 	movi	r2,57
   2a668:	ddc00717 	ldw	r23,28(sp)
   2a66c:	18809026 	beq	r3,r2,2a8b0 <_dtoa_r+0x1520>
   2a670:	18c00044 	addi	r3,r3,1
   2a674:	003f2b06 	br	2a324 <_dtoa_r+0xf94>
   2a678:	b807883a 	mov	r3,r23
   2a67c:	982b883a 	mov	r21,r19
   2a680:	ddc00717 	ldw	r23,28(sp)
   2a684:	003e2406 	br	29f18 <_dtoa_r+0xb88>
   2a688:	0029883a 	mov	r20,zero
   2a68c:	002b883a 	mov	r21,zero
   2a690:	003f7206 	br	2a45c <_dtoa_r+0x10cc>
   2a694:	593fffc4 	addi	r4,r11,-1
   2a698:	200490fa 	slli	r2,r4,3
   2a69c:	00c000f4 	movhi	r3,3
   2a6a0:	18d3e904 	addi	r3,r3,20388
   2a6a4:	d9001015 	stw	r4,64(sp)
   2a6a8:	1885883a 	add	r2,r3,r2
   2a6ac:	11000017 	ldw	r4,0(r2)
   2a6b0:	11400117 	ldw	r5,4(r2)
   2a6b4:	900d883a 	mov	r6,r18
   2a6b8:	a80f883a 	mov	r7,r21
   2a6bc:	dac01615 	stw	r11,88(sp)
   2a6c0:	00311940 	call	31194 <__muldf3>
   2a6c4:	a00b883a 	mov	r5,r20
   2a6c8:	9809883a 	mov	r4,r19
   2a6cc:	d8c01215 	stw	r3,72(sp)
   2a6d0:	d8801115 	stw	r2,68(sp)
   2a6d4:	00319380 	call	31938 <__fixdfsi>
   2a6d8:	1009883a 	mov	r4,r2
   2a6dc:	1025883a 	mov	r18,r2
   2a6e0:	00318640 	call	31864 <__floatsidf>
   2a6e4:	9809883a 	mov	r4,r19
   2a6e8:	a00b883a 	mov	r5,r20
   2a6ec:	100d883a 	mov	r6,r2
   2a6f0:	180f883a 	mov	r7,r3
   2a6f4:	94800c04 	addi	r18,r18,48
   2a6f8:	00311340 	call	31134 <__subdf3>
   2a6fc:	bc800005 	stb	r18,0(r23)
   2a700:	dac01617 	ldw	r11,88(sp)
   2a704:	102b883a 	mov	r21,r2
   2a708:	00800044 	movi	r2,1
   2a70c:	bd800044 	addi	r22,r23,1
   2a710:	1815883a 	mov	r10,r3
   2a714:	58802226 	beq	r11,r2,2a7a0 <_dtoa_r+0x1410>
   2a718:	bad7883a 	add	r11,r23,r11
   2a71c:	dc001415 	stw	r16,80(sp)
   2a720:	a805883a 	mov	r2,r21
   2a724:	b027883a 	mov	r19,r22
   2a728:	5821883a 	mov	r16,r11
   2a72c:	882b883a 	mov	r21,r17
   2a730:	000d883a 	mov	r6,zero
   2a734:	01d00934 	movhi	r7,16420
   2a738:	1009883a 	mov	r4,r2
   2a73c:	180b883a 	mov	r5,r3
   2a740:	00311940 	call	31194 <__muldf3>
   2a744:	180b883a 	mov	r5,r3
   2a748:	1009883a 	mov	r4,r2
   2a74c:	1829883a 	mov	r20,r3
   2a750:	1023883a 	mov	r17,r2
   2a754:	00319380 	call	31938 <__fixdfsi>
   2a758:	1009883a 	mov	r4,r2
   2a75c:	1025883a 	mov	r18,r2
   2a760:	00318640 	call	31864 <__floatsidf>
   2a764:	8809883a 	mov	r4,r17
   2a768:	a00b883a 	mov	r5,r20
   2a76c:	100d883a 	mov	r6,r2
   2a770:	180f883a 	mov	r7,r3
   2a774:	94800c04 	addi	r18,r18,48
   2a778:	00311340 	call	31134 <__subdf3>
   2a77c:	9cc00044 	addi	r19,r19,1
   2a780:	9cbfffc5 	stb	r18,-1(r19)
   2a784:	9c3fea1e 	bne	r19,r16,2a730 <_dtoa_r+0x13a0>
   2a788:	1815883a 	mov	r10,r3
   2a78c:	d8c01017 	ldw	r3,64(sp)
   2a790:	dc001417 	ldw	r16,80(sp)
   2a794:	a823883a 	mov	r17,r21
   2a798:	b0ed883a 	add	r22,r22,r3
   2a79c:	102b883a 	mov	r21,r2
   2a7a0:	d9001117 	ldw	r4,68(sp)
   2a7a4:	d9401217 	ldw	r5,72(sp)
   2a7a8:	000d883a 	mov	r6,zero
   2a7ac:	01cff834 	movhi	r7,16352
   2a7b0:	da801515 	stw	r10,84(sp)
   2a7b4:	00310e00 	call	310e0 <__adddf3>
   2a7b8:	da801517 	ldw	r10,84(sp)
   2a7bc:	1009883a 	mov	r4,r2
   2a7c0:	180b883a 	mov	r5,r3
   2a7c4:	500f883a 	mov	r7,r10
   2a7c8:	a80d883a 	mov	r6,r21
   2a7cc:	00317ac0 	call	317ac <__ltdf2>
   2a7d0:	da801517 	ldw	r10,84(sp)
   2a7d4:	10003b0e 	bge	r2,zero,2a8c4 <_dtoa_r+0x1534>
   2a7d8:	d9c01317 	ldw	r7,76(sp)
   2a7dc:	b53fffc3 	ldbu	r20,-1(r22)
   2a7e0:	d9c00615 	stw	r7,24(sp)
   2a7e4:	003d3106 	br	29cac <_dtoa_r+0x91c>
   2a7e8:	d8800817 	ldw	r2,32(sp)
   2a7ec:	11e5c83a 	sub	r18,r2,r7
   2a7f0:	0005883a 	mov	r2,zero
   2a7f4:	003d5006 	br	29d38 <_dtoa_r+0x9a8>
   2a7f8:	05800044 	movi	r22,1
   2a7fc:	003dc406 	br	29f10 <_dtoa_r+0xb80>
   2a800:	a5000044 	addi	r20,r20,1
   2a804:	15000005 	stb	r20,0(r2)
   2a808:	003c8206 	br	29a14 <_dtoa_r+0x684>
   2a80c:	d8800217 	ldw	r2,8(sp)
   2a810:	00c00d84 	movi	r3,54
   2a814:	dcc00a17 	ldw	r19,40(sp)
   2a818:	1885c83a 	sub	r2,r3,r2
   2a81c:	dc800817 	ldw	r18,32(sp)
   2a820:	003d4506 	br	29d38 <_dtoa_r+0x9a8>
   2a824:	dcc00317 	ldw	r19,12(sp)
   2a828:	8829883a 	mov	r20,r17
   2a82c:	04800084 	movi	r18,2
   2a830:	003bea06 	br	297dc <_dtoa_r+0x44c>
   2a834:	d9000917 	ldw	r4,36(sp)
   2a838:	203f1126 	beq	r4,zero,2a480 <_dtoa_r+0x10f0>
   2a83c:	d9c00e17 	ldw	r7,56(sp)
   2a840:	01fca20e 	bge	zero,r7,29acc <_dtoa_r+0x73c>
   2a844:	a00b883a 	mov	r5,r20
   2a848:	9809883a 	mov	r4,r19
   2a84c:	000d883a 	mov	r6,zero
   2a850:	01d00934 	movhi	r7,16420
   2a854:	00311940 	call	31194 <__muldf3>
   2a858:	91000044 	addi	r4,r18,1
   2a85c:	1027883a 	mov	r19,r2
   2a860:	1829883a 	mov	r20,r3
   2a864:	00318640 	call	31864 <__floatsidf>
   2a868:	9809883a 	mov	r4,r19
   2a86c:	a00b883a 	mov	r5,r20
   2a870:	100d883a 	mov	r6,r2
   2a874:	180f883a 	mov	r7,r3
   2a878:	00311940 	call	31194 <__muldf3>
   2a87c:	1009883a 	mov	r4,r2
   2a880:	180b883a 	mov	r5,r3
   2a884:	000d883a 	mov	r6,zero
   2a888:	01d00734 	movhi	r7,16412
   2a88c:	00310e00 	call	310e0 <__adddf3>
   2a890:	1025883a 	mov	r18,r2
   2a894:	d8800617 	ldw	r2,24(sp)
   2a898:	057f3034 	movhi	r21,64704
   2a89c:	1d6b883a 	add	r21,r3,r21
   2a8a0:	10bfffc4 	addi	r2,r2,-1
   2a8a4:	d8801315 	stw	r2,76(sp)
   2a8a8:	dac00e17 	ldw	r11,56(sp)
   2a8ac:	003be706 	br	2984c <_dtoa_r+0x4bc>
   2a8b0:	01000e44 	movi	r4,57
   2a8b4:	91000005 	stb	r4,0(r18)
   2a8b8:	95800044 	addi	r22,r18,1
   2a8bc:	982b883a 	mov	r21,r19
   2a8c0:	003da106 	br	29f48 <_dtoa_r+0xbb8>
   2a8c4:	d9801117 	ldw	r6,68(sp)
   2a8c8:	d9c01217 	ldw	r7,72(sp)
   2a8cc:	0009883a 	mov	r4,zero
   2a8d0:	014ff834 	movhi	r5,16352
   2a8d4:	da801515 	stw	r10,84(sp)
   2a8d8:	00311340 	call	31134 <__subdf3>
   2a8dc:	da801517 	ldw	r10,84(sp)
   2a8e0:	1009883a 	mov	r4,r2
   2a8e4:	180b883a 	mov	r5,r3
   2a8e8:	a80d883a 	mov	r6,r21
   2a8ec:	500f883a 	mov	r7,r10
   2a8f0:	00316e40 	call	316e4 <__gtdf2>
   2a8f4:	00bc750e 	bge	zero,r2,29acc <_dtoa_r+0x73c>
   2a8f8:	01000c04 	movi	r4,48
   2a8fc:	00000106 	br	2a904 <_dtoa_r+0x1574>
   2a900:	102d883a 	mov	r22,r2
   2a904:	b0bfffc4 	addi	r2,r22,-1
   2a908:	10c00007 	ldb	r3,0(r2)
   2a90c:	193ffc26 	beq	r3,r4,2a900 <_dtoa_r+0x1570>
   2a910:	d8801317 	ldw	r2,76(sp)
   2a914:	d8800615 	stw	r2,24(sp)
   2a918:	003c3e06 	br	29a14 <_dtoa_r+0x684>
   2a91c:	d9001317 	ldw	r4,76(sp)
   2a920:	df001117 	ldw	fp,68(sp)
   2a924:	d9000615 	stw	r4,24(sp)
   2a928:	003ce006 	br	29cac <_dtoa_r+0x91c>
   2a92c:	df001117 	ldw	fp,68(sp)
   2a930:	dc401217 	ldw	r17,72(sp)
   2a934:	003c6506 	br	29acc <_dtoa_r+0x73c>
   2a938:	103e7a1e 	bne	r2,zero,2a324 <_dtoa_r+0xf94>
   2a93c:	1880004c 	andi	r2,r3,1
   2a940:	103e7826 	beq	r2,zero,2a324 <_dtoa_r+0xf94>
   2a944:	003e7406 	br	2a318 <_dtoa_r+0xf88>
   2a948:	8009883a 	mov	r4,r16
   2a94c:	a80b883a 	mov	r5,r21
   2a950:	01800284 	movi	r6,10
   2a954:	000f883a 	mov	r7,zero
   2a958:	002b5480 	call	2b548 <__multadd>
   2a95c:	d9000e17 	ldw	r4,56(sp)
   2a960:	102b883a 	mov	r21,r2
   2a964:	d9000915 	stw	r4,36(sp)
   2a968:	003d5106 	br	29eb0 <_dtoa_r+0xb20>
   2a96c:	04800084 	movi	r18,2
   2a970:	003b9a06 	br	297dc <_dtoa_r+0x44c>
   2a974:	d8c01317 	ldw	r3,76(sp)
   2a978:	d8c00615 	stw	r3,24(sp)
   2a97c:	003ccb06 	br	29cac <_dtoa_r+0x91c>
   2a980:	d8c01317 	ldw	r3,76(sp)
   2a984:	d8c00615 	stw	r3,24(sp)
   2a988:	003c2206 	br	29a14 <_dtoa_r+0x684>
   2a98c:	20fd3826 	beq	r4,r3,29e70 <_dtoa_r+0xae0>
   2a990:	00c00f04 	movi	r3,60
   2a994:	1885c83a 	sub	r2,r3,r2
   2a998:	003da906 	br	2a040 <_dtoa_r+0xcb0>
   2a99c:	000b883a 	mov	r5,zero
   2a9a0:	003b5406 	br	296f4 <_dtoa_r+0x364>
   2a9a4:	04c00044 	movi	r19,1
   2a9a8:	003b3b06 	br	29698 <_dtoa_r+0x308>

0002a9ac <__sflags>:
   2a9ac:	28800007 	ldb	r2,0(r5)
   2a9b0:	00c01c84 	movi	r3,114
   2a9b4:	10c01826 	beq	r2,r3,2aa18 <__sflags+0x6c>
   2a9b8:	00c01dc4 	movi	r3,119
   2a9bc:	10c01226 	beq	r2,r3,2aa08 <__sflags+0x5c>
   2a9c0:	00c01844 	movi	r3,97
   2a9c4:	10c00426 	beq	r2,r3,2a9d8 <__sflags+0x2c>
   2a9c8:	00800584 	movi	r2,22
   2a9cc:	20800015 	stw	r2,0(r4)
   2a9d0:	0005883a 	mov	r2,zero
   2a9d4:	f800283a 	ret
   2a9d8:	01c08204 	movi	r7,520
   2a9dc:	01000044 	movi	r4,1
   2a9e0:	00804204 	movi	r2,264
   2a9e4:	28c00047 	ldb	r3,1(r5)
   2a9e8:	18000426 	beq	r3,zero,2a9fc <__sflags+0x50>
   2a9ec:	02000ac4 	movi	r8,43
   2a9f0:	1a000d26 	beq	r3,r8,2aa28 <__sflags+0x7c>
   2a9f4:	28c00087 	ldb	r3,2(r5)
   2a9f8:	1a000b26 	beq	r3,r8,2aa28 <__sflags+0x7c>
   2a9fc:	21c8b03a 	or	r4,r4,r7
   2aa00:	31000015 	stw	r4,0(r6)
   2aa04:	f800283a 	ret
   2aa08:	01c18004 	movi	r7,1536
   2aa0c:	01000044 	movi	r4,1
   2aa10:	00800204 	movi	r2,8
   2aa14:	003ff306 	br	2a9e4 <__sflags+0x38>
   2aa18:	000f883a 	mov	r7,zero
   2aa1c:	0009883a 	mov	r4,zero
   2aa20:	00800104 	movi	r2,4
   2aa24:	003fef06 	br	2a9e4 <__sflags+0x38>
   2aa28:	00fff8c4 	movi	r3,-29
   2aa2c:	01000084 	movi	r4,2
   2aa30:	10c4703a 	and	r2,r2,r3
   2aa34:	21c8b03a 	or	r4,r4,r7
   2aa38:	10800414 	ori	r2,r2,16
   2aa3c:	31000015 	stw	r4,0(r6)
   2aa40:	f800283a 	ret

0002aa44 <__sfvwrite_r>:
   2aa44:	30800217 	ldw	r2,8(r6)
   2aa48:	defff504 	addi	sp,sp,-44
   2aa4c:	dd400615 	stw	r21,24(sp)
   2aa50:	dd000515 	stw	r20,20(sp)
   2aa54:	dc000115 	stw	r16,4(sp)
   2aa58:	dfc00a15 	stw	ra,40(sp)
   2aa5c:	df000915 	stw	fp,36(sp)
   2aa60:	ddc00815 	stw	r23,32(sp)
   2aa64:	dd800715 	stw	r22,28(sp)
   2aa68:	dcc00415 	stw	r19,16(sp)
   2aa6c:	dc800315 	stw	r18,12(sp)
   2aa70:	dc400215 	stw	r17,8(sp)
   2aa74:	3029883a 	mov	r20,r6
   2aa78:	202b883a 	mov	r21,r4
   2aa7c:	2821883a 	mov	r16,r5
   2aa80:	10002126 	beq	r2,zero,2ab08 <__sfvwrite_r+0xc4>
   2aa84:	2880030b 	ldhu	r2,12(r5)
   2aa88:	10c0020c 	andi	r3,r2,8
   2aa8c:	18ffffcc 	andi	r3,r3,65535
   2aa90:	18e0001c 	xori	r3,r3,32768
   2aa94:	18e00004 	addi	r3,r3,-32768
   2aa98:	18002826 	beq	r3,zero,2ab3c <__sfvwrite_r+0xf8>
   2aa9c:	28c00417 	ldw	r3,16(r5)
   2aaa0:	18002626 	beq	r3,zero,2ab3c <__sfvwrite_r+0xf8>
   2aaa4:	10c0008c 	andi	r3,r2,2
   2aaa8:	18ffffcc 	andi	r3,r3,65535
   2aaac:	18e0001c 	xori	r3,r3,32768
   2aab0:	18e00004 	addi	r3,r3,-32768
   2aab4:	a4400017 	ldw	r17,0(r20)
   2aab8:	18002b26 	beq	r3,zero,2ab68 <__sfvwrite_r+0x124>
   2aabc:	0027883a 	mov	r19,zero
   2aac0:	0025883a 	mov	r18,zero
   2aac4:	05810004 	movi	r22,1024
   2aac8:	980d883a 	mov	r6,r19
   2aacc:	a809883a 	mov	r4,r21
   2aad0:	90004f26 	beq	r18,zero,2ac10 <__sfvwrite_r+0x1cc>
   2aad4:	900f883a 	mov	r7,r18
   2aad8:	81400717 	ldw	r5,28(r16)
   2aadc:	b480012e 	bgeu	r22,r18,2aae4 <__sfvwrite_r+0xa0>
   2aae0:	01c10004 	movi	r7,1024
   2aae4:	80800917 	ldw	r2,36(r16)
   2aae8:	103ee83a 	callr	r2
   2aaec:	0080540e 	bge	zero,r2,2ac40 <__sfvwrite_r+0x1fc>
   2aaf0:	a0c00217 	ldw	r3,8(r20)
   2aaf4:	98a7883a 	add	r19,r19,r2
   2aaf8:	90a5c83a 	sub	r18,r18,r2
   2aafc:	1885c83a 	sub	r2,r3,r2
   2ab00:	a0800215 	stw	r2,8(r20)
   2ab04:	103ff01e 	bne	r2,zero,2aac8 <__sfvwrite_r+0x84>
   2ab08:	0005883a 	mov	r2,zero
   2ab0c:	dfc00a17 	ldw	ra,40(sp)
   2ab10:	df000917 	ldw	fp,36(sp)
   2ab14:	ddc00817 	ldw	r23,32(sp)
   2ab18:	dd800717 	ldw	r22,28(sp)
   2ab1c:	dd400617 	ldw	r21,24(sp)
   2ab20:	dd000517 	ldw	r20,20(sp)
   2ab24:	dcc00417 	ldw	r19,16(sp)
   2ab28:	dc800317 	ldw	r18,12(sp)
   2ab2c:	dc400217 	ldw	r17,8(sp)
   2ab30:	dc000117 	ldw	r16,4(sp)
   2ab34:	dec00b04 	addi	sp,sp,44
   2ab38:	f800283a 	ret
   2ab3c:	a809883a 	mov	r4,r21
   2ab40:	800b883a 	mov	r5,r16
   2ab44:	0028f7c0 	call	28f7c <__swsetup_r>
   2ab48:	1000f01e 	bne	r2,zero,2af0c <__sfvwrite_r+0x4c8>
   2ab4c:	8080030b 	ldhu	r2,12(r16)
   2ab50:	a4400017 	ldw	r17,0(r20)
   2ab54:	10c0008c 	andi	r3,r2,2
   2ab58:	18ffffcc 	andi	r3,r3,65535
   2ab5c:	18e0001c 	xori	r3,r3,32768
   2ab60:	18e00004 	addi	r3,r3,-32768
   2ab64:	183fd51e 	bne	r3,zero,2aabc <__sfvwrite_r+0x78>
   2ab68:	10c0004c 	andi	r3,r2,1
   2ab6c:	002d883a 	mov	r22,zero
   2ab70:	1800381e 	bne	r3,zero,2ac54 <__sfvwrite_r+0x210>
   2ab74:	0025883a 	mov	r18,zero
   2ab78:	90002126 	beq	r18,zero,2ac00 <__sfvwrite_r+0x1bc>
   2ab7c:	10c0800c 	andi	r3,r2,512
   2ab80:	18ffffcc 	andi	r3,r3,65535
   2ab84:	18e0001c 	xori	r3,r3,32768
   2ab88:	18e00004 	addi	r3,r3,-32768
   2ab8c:	84c00217 	ldw	r19,8(r16)
   2ab90:	18006b26 	beq	r3,zero,2ad40 <__sfvwrite_r+0x2fc>
   2ab94:	980f883a 	mov	r7,r19
   2ab98:	94c08636 	bltu	r18,r19,2adb4 <__sfvwrite_r+0x370>
   2ab9c:	10c1200c 	andi	r3,r2,1152
   2aba0:	18009f1e 	bne	r3,zero,2ae20 <__sfvwrite_r+0x3dc>
   2aba4:	81000017 	ldw	r4,0(r16)
   2aba8:	982f883a 	mov	r23,r19
   2abac:	9039883a 	mov	fp,r18
   2abb0:	9027883a 	mov	r19,r18
   2abb4:	380d883a 	mov	r6,r7
   2abb8:	b00b883a 	mov	r5,r22
   2abbc:	d9c00015 	stw	r7,0(sp)
   2abc0:	002b2ec0 	call	2b2ec <memmove>
   2abc4:	d9c00017 	ldw	r7,0(sp)
   2abc8:	81000217 	ldw	r4,8(r16)
   2abcc:	80800017 	ldw	r2,0(r16)
   2abd0:	25efc83a 	sub	r23,r4,r23
   2abd4:	11cf883a 	add	r7,r2,r7
   2abd8:	85c00215 	stw	r23,8(r16)
   2abdc:	81c00015 	stw	r7,0(r16)
   2abe0:	a0800217 	ldw	r2,8(r20)
   2abe4:	b72d883a 	add	r22,r22,fp
   2abe8:	9725c83a 	sub	r18,r18,fp
   2abec:	14e7c83a 	sub	r19,r2,r19
   2abf0:	a4c00215 	stw	r19,8(r20)
   2abf4:	983fc426 	beq	r19,zero,2ab08 <__sfvwrite_r+0xc4>
   2abf8:	8080030b 	ldhu	r2,12(r16)
   2abfc:	903fdf1e 	bne	r18,zero,2ab7c <__sfvwrite_r+0x138>
   2ac00:	8d800017 	ldw	r22,0(r17)
   2ac04:	8c800117 	ldw	r18,4(r17)
   2ac08:	8c400204 	addi	r17,r17,8
   2ac0c:	003fda06 	br	2ab78 <__sfvwrite_r+0x134>
   2ac10:	8cc00017 	ldw	r19,0(r17)
   2ac14:	8c800117 	ldw	r18,4(r17)
   2ac18:	8c400204 	addi	r17,r17,8
   2ac1c:	003faa06 	br	2aac8 <__sfvwrite_r+0x84>
   2ac20:	002c5340 	call	2c534 <_realloc_r>
   2ac24:	102f883a 	mov	r23,r2
   2ac28:	10009f1e 	bne	r2,zero,2aea8 <__sfvwrite_r+0x464>
   2ac2c:	81400417 	ldw	r5,16(r16)
   2ac30:	a809883a 	mov	r4,r21
   2ac34:	0023d000 	call	23d00 <_free_r>
   2ac38:	00800304 	movi	r2,12
   2ac3c:	a8800015 	stw	r2,0(r21)
   2ac40:	80c0030b 	ldhu	r3,12(r16)
   2ac44:	00bfffc4 	movi	r2,-1
   2ac48:	18c01014 	ori	r3,r3,64
   2ac4c:	80c0030d 	sth	r3,12(r16)
   2ac50:	003fae06 	br	2ab0c <__sfvwrite_r+0xc8>
   2ac54:	0007883a 	mov	r3,zero
   2ac58:	0039883a 	mov	fp,zero
   2ac5c:	0025883a 	mov	r18,zero
   2ac60:	90001e26 	beq	r18,zero,2acdc <__sfvwrite_r+0x298>
   2ac64:	18006526 	beq	r3,zero,2adfc <__sfvwrite_r+0x3b8>
   2ac68:	b02f883a 	mov	r23,r22
   2ac6c:	9580012e 	bgeu	r18,r22,2ac74 <__sfvwrite_r+0x230>
   2ac70:	902f883a 	mov	r23,r18
   2ac74:	81000017 	ldw	r4,0(r16)
   2ac78:	80800417 	ldw	r2,16(r16)
   2ac7c:	84c00217 	ldw	r19,8(r16)
   2ac80:	81c00517 	ldw	r7,20(r16)
   2ac84:	1100022e 	bgeu	r2,r4,2ac90 <__sfvwrite_r+0x24c>
   2ac88:	99e7883a 	add	r19,r19,r7
   2ac8c:	9dc01816 	blt	r19,r23,2acf0 <__sfvwrite_r+0x2ac>
   2ac90:	b9c03b16 	blt	r23,r7,2ad80 <__sfvwrite_r+0x33c>
   2ac94:	80800917 	ldw	r2,36(r16)
   2ac98:	81400717 	ldw	r5,28(r16)
   2ac9c:	a809883a 	mov	r4,r21
   2aca0:	d8c00015 	stw	r3,0(sp)
   2aca4:	e00d883a 	mov	r6,fp
   2aca8:	103ee83a 	callr	r2
   2acac:	1027883a 	mov	r19,r2
   2acb0:	d8c00017 	ldw	r3,0(sp)
   2acb4:	00bfe20e 	bge	zero,r2,2ac40 <__sfvwrite_r+0x1fc>
   2acb8:	b4edc83a 	sub	r22,r22,r19
   2acbc:	b0001a26 	beq	r22,zero,2ad28 <__sfvwrite_r+0x2e4>
   2acc0:	a0800217 	ldw	r2,8(r20)
   2acc4:	e4f9883a 	add	fp,fp,r19
   2acc8:	94e5c83a 	sub	r18,r18,r19
   2accc:	14e7c83a 	sub	r19,r2,r19
   2acd0:	a4c00215 	stw	r19,8(r20)
   2acd4:	983f8c26 	beq	r19,zero,2ab08 <__sfvwrite_r+0xc4>
   2acd8:	903fe21e 	bne	r18,zero,2ac64 <__sfvwrite_r+0x220>
   2acdc:	8f000017 	ldw	fp,0(r17)
   2ace0:	8c800117 	ldw	r18,4(r17)
   2ace4:	0007883a 	mov	r3,zero
   2ace8:	8c400204 	addi	r17,r17,8
   2acec:	003fdc06 	br	2ac60 <__sfvwrite_r+0x21c>
   2acf0:	e00b883a 	mov	r5,fp
   2acf4:	980d883a 	mov	r6,r19
   2acf8:	d8c00015 	stw	r3,0(sp)
   2acfc:	002b2ec0 	call	2b2ec <memmove>
   2ad00:	80800017 	ldw	r2,0(r16)
   2ad04:	a809883a 	mov	r4,r21
   2ad08:	800b883a 	mov	r5,r16
   2ad0c:	14c5883a 	add	r2,r2,r19
   2ad10:	80800015 	stw	r2,0(r16)
   2ad14:	00232f80 	call	232f8 <_fflush_r>
   2ad18:	d8c00017 	ldw	r3,0(sp)
   2ad1c:	103fc81e 	bne	r2,zero,2ac40 <__sfvwrite_r+0x1fc>
   2ad20:	b4edc83a 	sub	r22,r22,r19
   2ad24:	b03fe61e 	bne	r22,zero,2acc0 <__sfvwrite_r+0x27c>
   2ad28:	a809883a 	mov	r4,r21
   2ad2c:	800b883a 	mov	r5,r16
   2ad30:	00232f80 	call	232f8 <_fflush_r>
   2ad34:	103fc21e 	bne	r2,zero,2ac40 <__sfvwrite_r+0x1fc>
   2ad38:	0007883a 	mov	r3,zero
   2ad3c:	003fe006 	br	2acc0 <__sfvwrite_r+0x27c>
   2ad40:	81000017 	ldw	r4,0(r16)
   2ad44:	80800417 	ldw	r2,16(r16)
   2ad48:	1100022e 	bgeu	r2,r4,2ad54 <__sfvwrite_r+0x310>
   2ad4c:	9839883a 	mov	fp,r19
   2ad50:	9c806036 	bltu	r19,r18,2aed4 <__sfvwrite_r+0x490>
   2ad54:	81c00517 	ldw	r7,20(r16)
   2ad58:	91c01c36 	bltu	r18,r7,2adcc <__sfvwrite_r+0x388>
   2ad5c:	80800917 	ldw	r2,36(r16)
   2ad60:	81400717 	ldw	r5,28(r16)
   2ad64:	a809883a 	mov	r4,r21
   2ad68:	b00d883a 	mov	r6,r22
   2ad6c:	103ee83a 	callr	r2
   2ad70:	1027883a 	mov	r19,r2
   2ad74:	00bfb20e 	bge	zero,r2,2ac40 <__sfvwrite_r+0x1fc>
   2ad78:	1039883a 	mov	fp,r2
   2ad7c:	003f9806 	br	2abe0 <__sfvwrite_r+0x19c>
   2ad80:	b80d883a 	mov	r6,r23
   2ad84:	e00b883a 	mov	r5,fp
   2ad88:	d8c00015 	stw	r3,0(sp)
   2ad8c:	002b2ec0 	call	2b2ec <memmove>
   2ad90:	80800217 	ldw	r2,8(r16)
   2ad94:	81000017 	ldw	r4,0(r16)
   2ad98:	b827883a 	mov	r19,r23
   2ad9c:	15c5c83a 	sub	r2,r2,r23
   2ada0:	25ef883a 	add	r23,r4,r23
   2ada4:	80800215 	stw	r2,8(r16)
   2ada8:	85c00015 	stw	r23,0(r16)
   2adac:	d8c00017 	ldw	r3,0(sp)
   2adb0:	003fc106 	br	2acb8 <__sfvwrite_r+0x274>
   2adb4:	81000017 	ldw	r4,0(r16)
   2adb8:	902f883a 	mov	r23,r18
   2adbc:	9039883a 	mov	fp,r18
   2adc0:	9027883a 	mov	r19,r18
   2adc4:	900f883a 	mov	r7,r18
   2adc8:	003f7a06 	br	2abb4 <__sfvwrite_r+0x170>
   2adcc:	b00b883a 	mov	r5,r22
   2add0:	900d883a 	mov	r6,r18
   2add4:	002b2ec0 	call	2b2ec <memmove>
   2add8:	80c00217 	ldw	r3,8(r16)
   2addc:	80800017 	ldw	r2,0(r16)
   2ade0:	9027883a 	mov	r19,r18
   2ade4:	1c87c83a 	sub	r3,r3,r18
   2ade8:	1485883a 	add	r2,r2,r18
   2adec:	80c00215 	stw	r3,8(r16)
   2adf0:	80800015 	stw	r2,0(r16)
   2adf4:	9039883a 	mov	fp,r18
   2adf8:	003f7906 	br	2abe0 <__sfvwrite_r+0x19c>
   2adfc:	e009883a 	mov	r4,fp
   2ae00:	01400284 	movi	r5,10
   2ae04:	900d883a 	mov	r6,r18
   2ae08:	002b1f40 	call	2b1f4 <memchr>
   2ae0c:	10003c26 	beq	r2,zero,2af00 <__sfvwrite_r+0x4bc>
   2ae10:	15800044 	addi	r22,r2,1
   2ae14:	b72dc83a 	sub	r22,r22,fp
   2ae18:	00c00044 	movi	r3,1
   2ae1c:	003f9206 	br	2ac68 <__sfvwrite_r+0x224>
   2ae20:	81000517 	ldw	r4,20(r16)
   2ae24:	81400417 	ldw	r5,16(r16)
   2ae28:	80c00017 	ldw	r3,0(r16)
   2ae2c:	210d883a 	add	r6,r4,r4
   2ae30:	3109883a 	add	r4,r6,r4
   2ae34:	2026d7fa 	srli	r19,r4,31
   2ae38:	1979c83a 	sub	fp,r3,r5
   2ae3c:	e1800044 	addi	r6,fp,1
   2ae40:	9909883a 	add	r4,r19,r4
   2ae44:	2027d07a 	srai	r19,r4,1
   2ae48:	3489883a 	add	r4,r6,r18
   2ae4c:	980d883a 	mov	r6,r19
   2ae50:	9900022e 	bgeu	r19,r4,2ae5c <__sfvwrite_r+0x418>
   2ae54:	2027883a 	mov	r19,r4
   2ae58:	200d883a 	mov	r6,r4
   2ae5c:	1081000c 	andi	r2,r2,1024
   2ae60:	10bfffcc 	andi	r2,r2,65535
   2ae64:	10a0001c 	xori	r2,r2,32768
   2ae68:	10a00004 	addi	r2,r2,-32768
   2ae6c:	a809883a 	mov	r4,r21
   2ae70:	103f6b26 	beq	r2,zero,2ac20 <__sfvwrite_r+0x1dc>
   2ae74:	300b883a 	mov	r5,r6
   2ae78:	00249240 	call	24924 <_malloc_r>
   2ae7c:	102f883a 	mov	r23,r2
   2ae80:	103f6d26 	beq	r2,zero,2ac38 <__sfvwrite_r+0x1f4>
   2ae84:	81400417 	ldw	r5,16(r16)
   2ae88:	1009883a 	mov	r4,r2
   2ae8c:	e00d883a 	mov	r6,fp
   2ae90:	00250a80 	call	250a8 <memcpy>
   2ae94:	8080030b 	ldhu	r2,12(r16)
   2ae98:	00fedfc4 	movi	r3,-1153
   2ae9c:	10c4703a 	and	r2,r2,r3
   2aea0:	10802014 	ori	r2,r2,128
   2aea4:	8080030d 	sth	r2,12(r16)
   2aea8:	bf09883a 	add	r4,r23,fp
   2aeac:	9f07c83a 	sub	r3,r19,fp
   2aeb0:	85c00415 	stw	r23,16(r16)
   2aeb4:	84c00515 	stw	r19,20(r16)
   2aeb8:	81000015 	stw	r4,0(r16)
   2aebc:	902f883a 	mov	r23,r18
   2aec0:	80c00215 	stw	r3,8(r16)
   2aec4:	9039883a 	mov	fp,r18
   2aec8:	9027883a 	mov	r19,r18
   2aecc:	900f883a 	mov	r7,r18
   2aed0:	003f3806 	br	2abb4 <__sfvwrite_r+0x170>
   2aed4:	b00b883a 	mov	r5,r22
   2aed8:	980d883a 	mov	r6,r19
   2aedc:	002b2ec0 	call	2b2ec <memmove>
   2aee0:	80800017 	ldw	r2,0(r16)
   2aee4:	a809883a 	mov	r4,r21
   2aee8:	800b883a 	mov	r5,r16
   2aeec:	14c5883a 	add	r2,r2,r19
   2aef0:	80800015 	stw	r2,0(r16)
   2aef4:	00232f80 	call	232f8 <_fflush_r>
   2aef8:	103f3926 	beq	r2,zero,2abe0 <__sfvwrite_r+0x19c>
   2aefc:	003f5006 	br	2ac40 <__sfvwrite_r+0x1fc>
   2af00:	95800044 	addi	r22,r18,1
   2af04:	00c00044 	movi	r3,1
   2af08:	003f5706 	br	2ac68 <__sfvwrite_r+0x224>
   2af0c:	80c0030b 	ldhu	r3,12(r16)
   2af10:	00bfffc4 	movi	r2,-1
   2af14:	18c01014 	ori	r3,r3,64
   2af18:	80c0030d 	sth	r3,12(r16)
   2af1c:	00c00244 	movi	r3,9
   2af20:	a8c00015 	stw	r3,0(r21)
   2af24:	003ef906 	br	2ab0c <__sfvwrite_r+0xc8>

0002af28 <_isatty_r>:
   2af28:	defffd04 	addi	sp,sp,-12
   2af2c:	dc400115 	stw	r17,4(sp)
   2af30:	dc000015 	stw	r16,0(sp)
   2af34:	2023883a 	mov	r17,r4
   2af38:	040000f4 	movhi	r16,3
   2af3c:	8419d604 	addi	r16,r16,26456
   2af40:	2809883a 	mov	r4,r5
   2af44:	dfc00215 	stw	ra,8(sp)
   2af48:	80000015 	stw	zero,0(r16)
   2af4c:	00322cc0 	call	322cc <isatty>
   2af50:	00ffffc4 	movi	r3,-1
   2af54:	10c00526 	beq	r2,r3,2af6c <_isatty_r+0x44>
   2af58:	dfc00217 	ldw	ra,8(sp)
   2af5c:	dc400117 	ldw	r17,4(sp)
   2af60:	dc000017 	ldw	r16,0(sp)
   2af64:	dec00304 	addi	sp,sp,12
   2af68:	f800283a 	ret
   2af6c:	80c00017 	ldw	r3,0(r16)
   2af70:	183ff926 	beq	r3,zero,2af58 <_isatty_r+0x30>
   2af74:	88c00015 	stw	r3,0(r17)
   2af78:	dfc00217 	ldw	ra,8(sp)
   2af7c:	dc400117 	ldw	r17,4(sp)
   2af80:	dc000017 	ldw	r16,0(sp)
   2af84:	dec00304 	addi	sp,sp,12
   2af88:	f800283a 	ret

0002af8c <iswspace>:
   2af8c:	00803fc4 	movi	r2,255
   2af90:	11000a36 	bltu	r2,r4,2afbc <iswspace+0x30>
   2af94:	008000f4 	movhi	r2,3
   2af98:	1096f204 	addi	r2,r2,23496
   2af9c:	10800017 	ldw	r2,0(r2)
   2afa0:	1109883a 	add	r4,r2,r4
   2afa4:	20800003 	ldbu	r2,0(r4)
   2afa8:	1080020c 	andi	r2,r2,8
   2afac:	10803fcc 	andi	r2,r2,255
   2afb0:	1080201c 	xori	r2,r2,128
   2afb4:	10bfe004 	addi	r2,r2,-128
   2afb8:	f800283a 	ret
   2afbc:	0005883a 	mov	r2,zero
   2afc0:	f800283a 	ret

0002afc4 <_setlocale_r>:
   2afc4:	defffc04 	addi	sp,sp,-16
   2afc8:	dc800215 	stw	r18,8(sp)
   2afcc:	dc400115 	stw	r17,4(sp)
   2afd0:	dc000015 	stw	r16,0(sp)
   2afd4:	dfc00315 	stw	ra,12(sp)
   2afd8:	3021883a 	mov	r16,r6
   2afdc:	2023883a 	mov	r17,r4
   2afe0:	2825883a 	mov	r18,r5
   2afe4:	30001626 	beq	r6,zero,2b040 <_setlocale_r+0x7c>
   2afe8:	3009883a 	mov	r4,r6
   2afec:	014000f4 	movhi	r5,3
   2aff0:	2952fb04 	addi	r5,r5,19436
   2aff4:	002cd240 	call	2cd24 <strcmp>
   2aff8:	10000a1e 	bne	r2,zero,2b024 <_setlocale_r+0x60>
   2affc:	8c800c15 	stw	r18,48(r17)
   2b000:	8c000d15 	stw	r16,52(r17)
   2b004:	008000f4 	movhi	r2,3
   2b008:	1092fb04 	addi	r2,r2,19436
   2b00c:	dfc00317 	ldw	ra,12(sp)
   2b010:	dc800217 	ldw	r18,8(sp)
   2b014:	dc400117 	ldw	r17,4(sp)
   2b018:	dc000017 	ldw	r16,0(sp)
   2b01c:	dec00404 	addi	sp,sp,16
   2b020:	f800283a 	ret
   2b024:	8009883a 	mov	r4,r16
   2b028:	014000f4 	movhi	r5,3
   2b02c:	29530504 	addi	r5,r5,19476
   2b030:	002cd240 	call	2cd24 <strcmp>
   2b034:	103ff126 	beq	r2,zero,2affc <_setlocale_r+0x38>
   2b038:	0005883a 	mov	r2,zero
   2b03c:	003ff306 	br	2b00c <_setlocale_r+0x48>
   2b040:	008000f4 	movhi	r2,3
   2b044:	1092fb04 	addi	r2,r2,19436
   2b048:	dfc00317 	ldw	ra,12(sp)
   2b04c:	dc800217 	ldw	r18,8(sp)
   2b050:	dc400117 	ldw	r17,4(sp)
   2b054:	dc000017 	ldw	r16,0(sp)
   2b058:	dec00404 	addi	sp,sp,16
   2b05c:	f800283a 	ret

0002b060 <__locale_charset>:
   2b060:	008000f4 	movhi	r2,3
   2b064:	1093c504 	addi	r2,r2,20244
   2b068:	f800283a 	ret

0002b06c <_localeconv_r>:
   2b06c:	008000f4 	movhi	r2,3
   2b070:	1093c904 	addi	r2,r2,20260
   2b074:	f800283a 	ret

0002b078 <setlocale>:
   2b078:	00c000f4 	movhi	r3,3
   2b07c:	18d6ef04 	addi	r3,r3,23484
   2b080:	2005883a 	mov	r2,r4
   2b084:	19000017 	ldw	r4,0(r3)
   2b088:	280d883a 	mov	r6,r5
   2b08c:	100b883a 	mov	r5,r2
   2b090:	002afc41 	jmpi	2afc4 <_setlocale_r>

0002b094 <localeconv>:
   2b094:	008000f4 	movhi	r2,3
   2b098:	1093c904 	addi	r2,r2,20260
   2b09c:	f800283a 	ret

0002b0a0 <_lseek_r>:
   2b0a0:	defffd04 	addi	sp,sp,-12
   2b0a4:	dc400115 	stw	r17,4(sp)
   2b0a8:	dc000015 	stw	r16,0(sp)
   2b0ac:	2023883a 	mov	r17,r4
   2b0b0:	040000f4 	movhi	r16,3
   2b0b4:	8419d604 	addi	r16,r16,26456
   2b0b8:	2809883a 	mov	r4,r5
   2b0bc:	300b883a 	mov	r5,r6
   2b0c0:	380d883a 	mov	r6,r7
   2b0c4:	dfc00215 	stw	ra,8(sp)
   2b0c8:	80000015 	stw	zero,0(r16)
   2b0cc:	00324ac0 	call	324ac <lseek>
   2b0d0:	00ffffc4 	movi	r3,-1
   2b0d4:	10c00526 	beq	r2,r3,2b0ec <_lseek_r+0x4c>
   2b0d8:	dfc00217 	ldw	ra,8(sp)
   2b0dc:	dc400117 	ldw	r17,4(sp)
   2b0e0:	dc000017 	ldw	r16,0(sp)
   2b0e4:	dec00304 	addi	sp,sp,12
   2b0e8:	f800283a 	ret
   2b0ec:	80c00017 	ldw	r3,0(r16)
   2b0f0:	183ff926 	beq	r3,zero,2b0d8 <_lseek_r+0x38>
   2b0f4:	88c00015 	stw	r3,0(r17)
   2b0f8:	dfc00217 	ldw	ra,8(sp)
   2b0fc:	dc400117 	ldw	r17,4(sp)
   2b100:	dc000017 	ldw	r16,0(sp)
   2b104:	dec00304 	addi	sp,sp,12
   2b108:	f800283a 	ret

0002b10c <_mbrtowc_r>:
   2b10c:	defffc04 	addi	sp,sp,-16
   2b110:	dc000115 	stw	r16,4(sp)
   2b114:	dc000417 	ldw	r16,16(sp)
   2b118:	dc400215 	stw	r17,8(sp)
   2b11c:	dfc00315 	stw	ra,12(sp)
   2b120:	dc000015 	stw	r16,0(sp)
   2b124:	2023883a 	mov	r17,r4
   2b128:	30000b26 	beq	r6,zero,2b158 <_mbrtowc_r+0x4c>
   2b12c:	002b1b00 	call	2b1b0 <_mbtowc_r>
   2b130:	00ffffc4 	movi	r3,-1
   2b134:	10c0031e 	bne	r2,r3,2b144 <_mbrtowc_r+0x38>
   2b138:	80000015 	stw	zero,0(r16)
   2b13c:	00c02284 	movi	r3,138
   2b140:	88c00015 	stw	r3,0(r17)
   2b144:	dfc00317 	ldw	ra,12(sp)
   2b148:	dc400217 	ldw	r17,8(sp)
   2b14c:	dc000117 	ldw	r16,4(sp)
   2b150:	dec00404 	addi	sp,sp,16
   2b154:	f800283a 	ret
   2b158:	000b883a 	mov	r5,zero
   2b15c:	018000f4 	movhi	r6,3
   2b160:	31930504 	addi	r6,r6,19476
   2b164:	01c00044 	movi	r7,1
   2b168:	002b1b00 	call	2b1b0 <_mbtowc_r>
   2b16c:	003ff006 	br	2b130 <_mbrtowc_r+0x24>

0002b170 <mbrtowc>:
   2b170:	008000f4 	movhi	r2,3
   2b174:	1096ef04 	addi	r2,r2,23484
   2b178:	2011883a 	mov	r8,r4
   2b17c:	11000017 	ldw	r4,0(r2)
   2b180:	defffe04 	addi	sp,sp,-8
   2b184:	2807883a 	mov	r3,r5
   2b188:	3005883a 	mov	r2,r6
   2b18c:	d9c00015 	stw	r7,0(sp)
   2b190:	400b883a 	mov	r5,r8
   2b194:	180d883a 	mov	r6,r3
   2b198:	100f883a 	mov	r7,r2
   2b19c:	dfc00115 	stw	ra,4(sp)
   2b1a0:	002b10c0 	call	2b10c <_mbrtowc_r>
   2b1a4:	dfc00117 	ldw	ra,4(sp)
   2b1a8:	dec00204 	addi	sp,sp,8
   2b1ac:	f800283a 	ret

0002b1b0 <_mbtowc_r>:
   2b1b0:	deffff04 	addi	sp,sp,-4
   2b1b4:	28000826 	beq	r5,zero,2b1d8 <_mbtowc_r+0x28>
   2b1b8:	30000926 	beq	r6,zero,2b1e0 <_mbtowc_r+0x30>
   2b1bc:	38000b26 	beq	r7,zero,2b1ec <_mbtowc_r+0x3c>
   2b1c0:	30800003 	ldbu	r2,0(r6)
   2b1c4:	28800015 	stw	r2,0(r5)
   2b1c8:	30800003 	ldbu	r2,0(r6)
   2b1cc:	1004c03a 	cmpne	r2,r2,zero
   2b1d0:	dec00104 	addi	sp,sp,4
   2b1d4:	f800283a 	ret
   2b1d8:	d80b883a 	mov	r5,sp
   2b1dc:	303ff71e 	bne	r6,zero,2b1bc <_mbtowc_r+0xc>
   2b1e0:	0005883a 	mov	r2,zero
   2b1e4:	dec00104 	addi	sp,sp,4
   2b1e8:	f800283a 	ret
   2b1ec:	00bfff84 	movi	r2,-2
   2b1f0:	003ff706 	br	2b1d0 <_mbtowc_r+0x20>

0002b1f4 <memchr>:
   2b1f4:	008000c4 	movi	r2,3
   2b1f8:	29403fcc 	andi	r5,r5,255
   2b1fc:	1180282e 	bgeu	r2,r6,2b2a0 <memchr+0xac>
   2b200:	2086703a 	and	r3,r4,r2
   2b204:	1800351e 	bne	r3,zero,2b2dc <memchr+0xe8>
   2b208:	2816923a 	slli	r11,r5,8
   2b20c:	2093883a 	add	r9,r4,r2
   2b210:	22000084 	addi	r8,r4,2
   2b214:	5957883a 	add	r11,r11,r5
   2b218:	5816923a 	slli	r11,r11,8
   2b21c:	20c00044 	addi	r3,r4,1
   2b220:	037fbff4 	movhi	r13,65279
   2b224:	6b7fbfc4 	addi	r13,r13,-257
   2b228:	5957883a 	add	r11,r11,r5
   2b22c:	5816923a 	slli	r11,r11,8
   2b230:	03202074 	movhi	r12,32897
   2b234:	63202004 	addi	r12,r12,-32640
   2b238:	101d883a 	mov	r14,r2
   2b23c:	5957883a 	add	r11,r11,r5
   2b240:	21c00017 	ldw	r7,0(r4)
   2b244:	31bfff04 	addi	r6,r6,-4
   2b248:	1805883a 	mov	r2,r3
   2b24c:	3acef03a 	xor	r7,r7,r11
   2b250:	3b55883a 	add	r10,r7,r13
   2b254:	01ce303a 	nor	r7,zero,r7
   2b258:	51ce703a 	and	r7,r10,r7
   2b25c:	3b0e703a 	and	r7,r7,r12
   2b260:	38000a26 	beq	r7,zero,2b28c <memchr+0x98>
   2b264:	21c00003 	ldbu	r7,0(r4)
   2b268:	39401e26 	beq	r7,r5,2b2e4 <memchr+0xf0>
   2b26c:	19c00003 	ldbu	r7,0(r3)
   2b270:	39401926 	beq	r7,r5,2b2d8 <memchr+0xe4>
   2b274:	41c00003 	ldbu	r7,0(r8)
   2b278:	4005883a 	mov	r2,r8
   2b27c:	39401626 	beq	r7,r5,2b2d8 <memchr+0xe4>
   2b280:	49c00003 	ldbu	r7,0(r9)
   2b284:	4805883a 	mov	r2,r9
   2b288:	39401326 	beq	r7,r5,2b2d8 <memchr+0xe4>
   2b28c:	21000104 	addi	r4,r4,4
   2b290:	4a400104 	addi	r9,r9,4
   2b294:	42000104 	addi	r8,r8,4
   2b298:	18c00104 	addi	r3,r3,4
   2b29c:	71bfe836 	bltu	r14,r6,2b240 <memchr+0x4c>
   2b2a0:	2005883a 	mov	r2,r4
   2b2a4:	30000a26 	beq	r6,zero,2b2d0 <memchr+0xdc>
   2b2a8:	10c00003 	ldbu	r3,0(r2)
   2b2ac:	19400a26 	beq	r3,r5,2b2d8 <memchr+0xe4>
   2b2b0:	10c00044 	addi	r3,r2,1
   2b2b4:	118d883a 	add	r6,r2,r6
   2b2b8:	00000306 	br	2b2c8 <memchr+0xd4>
   2b2bc:	11000003 	ldbu	r4,0(r2)
   2b2c0:	18c00044 	addi	r3,r3,1
   2b2c4:	21400426 	beq	r4,r5,2b2d8 <memchr+0xe4>
   2b2c8:	1805883a 	mov	r2,r3
   2b2cc:	19bffb1e 	bne	r3,r6,2b2bc <memchr+0xc8>
   2b2d0:	0005883a 	mov	r2,zero
   2b2d4:	f800283a 	ret
   2b2d8:	f800283a 	ret
   2b2dc:	2005883a 	mov	r2,r4
   2b2e0:	003ff106 	br	2b2a8 <memchr+0xb4>
   2b2e4:	2005883a 	mov	r2,r4
   2b2e8:	f800283a 	ret

0002b2ec <memmove>:
   2b2ec:	defffb04 	addi	sp,sp,-20
   2b2f0:	dc000015 	stw	r16,0(sp)
   2b2f4:	dfc00415 	stw	ra,16(sp)
   2b2f8:	dcc00315 	stw	r19,12(sp)
   2b2fc:	dc800215 	stw	r18,8(sp)
   2b300:	dc400115 	stw	r17,4(sp)
   2b304:	2021883a 	mov	r16,r4
   2b308:	300f883a 	mov	r7,r6
   2b30c:	2900122e 	bgeu	r5,r4,2b358 <memmove+0x6c>
   2b310:	2987883a 	add	r3,r5,r6
   2b314:	20c0102e 	bgeu	r4,r3,2b358 <memmove+0x6c>
   2b318:	218b883a 	add	r5,r4,r6
   2b31c:	1989c83a 	sub	r4,r3,r6
   2b320:	30000526 	beq	r6,zero,2b338 <memmove+0x4c>
   2b324:	18ffffc4 	addi	r3,r3,-1
   2b328:	18800003 	ldbu	r2,0(r3)
   2b32c:	297fffc4 	addi	r5,r5,-1
   2b330:	28800005 	stb	r2,0(r5)
   2b334:	193ffb1e 	bne	r3,r4,2b324 <memmove+0x38>
   2b338:	8005883a 	mov	r2,r16
   2b33c:	dfc00417 	ldw	ra,16(sp)
   2b340:	dcc00317 	ldw	r19,12(sp)
   2b344:	dc800217 	ldw	r18,8(sp)
   2b348:	dc400117 	ldw	r17,4(sp)
   2b34c:	dc000017 	ldw	r16,0(sp)
   2b350:	dec00504 	addi	sp,sp,20
   2b354:	f800283a 	ret
   2b358:	008003c4 	movi	r2,15
   2b35c:	1180422e 	bgeu	r2,r6,2b468 <memmove+0x17c>
   2b360:	2c04b03a 	or	r2,r5,r16
   2b364:	108000cc 	andi	r2,r2,3
   2b368:	10003f1e 	bne	r2,zero,2b468 <memmove+0x17c>
   2b36c:	32bffc04 	addi	r10,r6,-16
   2b370:	5014d13a 	srli	r10,r10,4
   2b374:	81000404 	addi	r4,r16,16
   2b378:	8007883a 	mov	r3,r16
   2b37c:	5004913a 	slli	r2,r10,4
   2b380:	280f883a 	mov	r7,r5
   2b384:	2089883a 	add	r4,r4,r2
   2b388:	38800017 	ldw	r2,0(r7)
   2b38c:	18c00404 	addi	r3,r3,16
   2b390:	39c00404 	addi	r7,r7,16
   2b394:	18bffc15 	stw	r2,-16(r3)
   2b398:	38bffd17 	ldw	r2,-12(r7)
   2b39c:	18bffd15 	stw	r2,-12(r3)
   2b3a0:	38bffe17 	ldw	r2,-8(r7)
   2b3a4:	18bffe15 	stw	r2,-8(r3)
   2b3a8:	38bfff17 	ldw	r2,-4(r7)
   2b3ac:	18bfff15 	stw	r2,-4(r3)
   2b3b0:	193ff51e 	bne	r3,r4,2b388 <memmove+0x9c>
   2b3b4:	52800044 	addi	r10,r10,1
   2b3b8:	5014913a 	slli	r10,r10,4
   2b3bc:	31c003cc 	andi	r7,r6,15
   2b3c0:	008000c4 	movi	r2,3
   2b3c4:	8287883a 	add	r3,r16,r10
   2b3c8:	2a95883a 	add	r10,r5,r10
   2b3cc:	11c0282e 	bgeu	r2,r7,2b470 <memmove+0x184>
   2b3d0:	3c7fff04 	addi	r17,r7,-4
   2b3d4:	8808d0ba 	srli	r4,r17,2
   2b3d8:	1a400104 	addi	r9,r3,4
   2b3dc:	180d883a 	mov	r6,r3
   2b3e0:	2105883a 	add	r2,r4,r4
   2b3e4:	1085883a 	add	r2,r2,r2
   2b3e8:	4893883a 	add	r9,r9,r2
   2b3ec:	5005883a 	mov	r2,r10
   2b3f0:	12000017 	ldw	r8,0(r2)
   2b3f4:	31800104 	addi	r6,r6,4
   2b3f8:	10800104 	addi	r2,r2,4
   2b3fc:	323fff15 	stw	r8,-4(r6)
   2b400:	327ffb1e 	bne	r6,r9,2b3f0 <memmove+0x104>
   2b404:	20800044 	addi	r2,r4,1
   2b408:	1085883a 	add	r2,r2,r2
   2b40c:	1085883a 	add	r2,r2,r2
   2b410:	017fff04 	movi	r5,-4
   2b414:	18a5883a 	add	r18,r3,r2
   2b418:	50a7883a 	add	r19,r10,r2
   2b41c:	0022d140 	call	22d14 <__mulsi3>
   2b420:	144f883a 	add	r7,r2,r17
   2b424:	980b883a 	mov	r5,r19
   2b428:	9007883a 	mov	r3,r18
   2b42c:	383fc226 	beq	r7,zero,2b338 <memmove+0x4c>
   2b430:	19cf883a 	add	r7,r3,r7
   2b434:	29800003 	ldbu	r6,0(r5)
   2b438:	18c00044 	addi	r3,r3,1
   2b43c:	29400044 	addi	r5,r5,1
   2b440:	19bfffc5 	stb	r6,-1(r3)
   2b444:	19fffb1e 	bne	r3,r7,2b434 <memmove+0x148>
   2b448:	8005883a 	mov	r2,r16
   2b44c:	dfc00417 	ldw	ra,16(sp)
   2b450:	dcc00317 	ldw	r19,12(sp)
   2b454:	dc800217 	ldw	r18,8(sp)
   2b458:	dc400117 	ldw	r17,4(sp)
   2b45c:	dc000017 	ldw	r16,0(sp)
   2b460:	dec00504 	addi	sp,sp,20
   2b464:	f800283a 	ret
   2b468:	8007883a 	mov	r3,r16
   2b46c:	003fef06 	br	2b42c <memmove+0x140>
   2b470:	500b883a 	mov	r5,r10
   2b474:	003fed06 	br	2b42c <memmove+0x140>

0002b478 <_Balloc>:
   2b478:	20801317 	ldw	r2,76(r4)
   2b47c:	defffc04 	addi	sp,sp,-16
   2b480:	dc400115 	stw	r17,4(sp)
   2b484:	dc000015 	stw	r16,0(sp)
   2b488:	dfc00315 	stw	ra,12(sp)
   2b48c:	dc800215 	stw	r18,8(sp)
   2b490:	2023883a 	mov	r17,r4
   2b494:	2821883a 	mov	r16,r5
   2b498:	10000f26 	beq	r2,zero,2b4d8 <_Balloc+0x60>
   2b49c:	8407883a 	add	r3,r16,r16
   2b4a0:	18c7883a 	add	r3,r3,r3
   2b4a4:	10c7883a 	add	r3,r2,r3
   2b4a8:	18800017 	ldw	r2,0(r3)
   2b4ac:	10001126 	beq	r2,zero,2b4f4 <_Balloc+0x7c>
   2b4b0:	11000017 	ldw	r4,0(r2)
   2b4b4:	19000015 	stw	r4,0(r3)
   2b4b8:	10000415 	stw	zero,16(r2)
   2b4bc:	10000315 	stw	zero,12(r2)
   2b4c0:	dfc00317 	ldw	ra,12(sp)
   2b4c4:	dc800217 	ldw	r18,8(sp)
   2b4c8:	dc400117 	ldw	r17,4(sp)
   2b4cc:	dc000017 	ldw	r16,0(sp)
   2b4d0:	dec00404 	addi	sp,sp,16
   2b4d4:	f800283a 	ret
   2b4d8:	01400104 	movi	r5,4
   2b4dc:	01800404 	movi	r6,16
   2b4e0:	002f31c0 	call	2f31c <_calloc_r>
   2b4e4:	88801315 	stw	r2,76(r17)
   2b4e8:	103fec1e 	bne	r2,zero,2b49c <_Balloc+0x24>
   2b4ec:	0005883a 	mov	r2,zero
   2b4f0:	003ff306 	br	2b4c0 <_Balloc+0x48>
   2b4f4:	01400044 	movi	r5,1
   2b4f8:	2c24983a 	sll	r18,r5,r16
   2b4fc:	8809883a 	mov	r4,r17
   2b500:	91800144 	addi	r6,r18,5
   2b504:	318d883a 	add	r6,r6,r6
   2b508:	318d883a 	add	r6,r6,r6
   2b50c:	002f31c0 	call	2f31c <_calloc_r>
   2b510:	103ff626 	beq	r2,zero,2b4ec <_Balloc+0x74>
   2b514:	14000115 	stw	r16,4(r2)
   2b518:	14800215 	stw	r18,8(r2)
   2b51c:	003fe606 	br	2b4b8 <_Balloc+0x40>

0002b520 <_Bfree>:
   2b520:	28000826 	beq	r5,zero,2b544 <_Bfree+0x24>
   2b524:	28c00117 	ldw	r3,4(r5)
   2b528:	20801317 	ldw	r2,76(r4)
   2b52c:	18c7883a 	add	r3,r3,r3
   2b530:	18c7883a 	add	r3,r3,r3
   2b534:	10c5883a 	add	r2,r2,r3
   2b538:	10c00017 	ldw	r3,0(r2)
   2b53c:	28c00015 	stw	r3,0(r5)
   2b540:	11400015 	stw	r5,0(r2)
   2b544:	f800283a 	ret

0002b548 <__multadd>:
   2b548:	defff604 	addi	sp,sp,-40
   2b54c:	dd400515 	stw	r21,20(sp)
   2b550:	2d400417 	ldw	r21,16(r5)
   2b554:	df000815 	stw	fp,32(sp)
   2b558:	ddc00715 	stw	r23,28(sp)
   2b55c:	dd800615 	stw	r22,24(sp)
   2b560:	dd000415 	stw	r20,16(sp)
   2b564:	dc400115 	stw	r17,4(sp)
   2b568:	dc000015 	stw	r16,0(sp)
   2b56c:	dfc00915 	stw	ra,36(sp)
   2b570:	dcc00315 	stw	r19,12(sp)
   2b574:	dc800215 	stw	r18,8(sp)
   2b578:	282d883a 	mov	r22,r5
   2b57c:	202f883a 	mov	r23,r4
   2b580:	3029883a 	mov	r20,r6
   2b584:	3839883a 	mov	fp,r7
   2b588:	2c000504 	addi	r16,r5,20
   2b58c:	0023883a 	mov	r17,zero
   2b590:	84c00017 	ldw	r19,0(r16)
   2b594:	a00b883a 	mov	r5,r20
   2b598:	8c400044 	addi	r17,r17,1
   2b59c:	993fffcc 	andi	r4,r19,65535
   2b5a0:	0022d140 	call	22d14 <__mulsi3>
   2b5a4:	1725883a 	add	r18,r2,fp
   2b5a8:	9808d43a 	srli	r4,r19,16
   2b5ac:	9026d43a 	srli	r19,r18,16
   2b5b0:	a00b883a 	mov	r5,r20
   2b5b4:	0022d140 	call	22d14 <__mulsi3>
   2b5b8:	988f883a 	add	r7,r19,r2
   2b5bc:	3804943a 	slli	r2,r7,16
   2b5c0:	94bfffcc 	andi	r18,r18,65535
   2b5c4:	3838d43a 	srli	fp,r7,16
   2b5c8:	14a5883a 	add	r18,r2,r18
   2b5cc:	84800015 	stw	r18,0(r16)
   2b5d0:	84000104 	addi	r16,r16,4
   2b5d4:	8d7fee16 	blt	r17,r21,2b590 <__multadd+0x48>
   2b5d8:	e0000926 	beq	fp,zero,2b600 <__multadd+0xb8>
   2b5dc:	b0800217 	ldw	r2,8(r22)
   2b5e0:	a880140e 	bge	r21,r2,2b634 <__multadd+0xec>
   2b5e4:	a8800144 	addi	r2,r21,5
   2b5e8:	1085883a 	add	r2,r2,r2
   2b5ec:	1085883a 	add	r2,r2,r2
   2b5f0:	b085883a 	add	r2,r22,r2
   2b5f4:	ad400044 	addi	r21,r21,1
   2b5f8:	17000015 	stw	fp,0(r2)
   2b5fc:	b5400415 	stw	r21,16(r22)
   2b600:	b005883a 	mov	r2,r22
   2b604:	dfc00917 	ldw	ra,36(sp)
   2b608:	df000817 	ldw	fp,32(sp)
   2b60c:	ddc00717 	ldw	r23,28(sp)
   2b610:	dd800617 	ldw	r22,24(sp)
   2b614:	dd400517 	ldw	r21,20(sp)
   2b618:	dd000417 	ldw	r20,16(sp)
   2b61c:	dcc00317 	ldw	r19,12(sp)
   2b620:	dc800217 	ldw	r18,8(sp)
   2b624:	dc400117 	ldw	r17,4(sp)
   2b628:	dc000017 	ldw	r16,0(sp)
   2b62c:	dec00a04 	addi	sp,sp,40
   2b630:	f800283a 	ret
   2b634:	b1400117 	ldw	r5,4(r22)
   2b638:	b809883a 	mov	r4,r23
   2b63c:	29400044 	addi	r5,r5,1
   2b640:	002b4780 	call	2b478 <_Balloc>
   2b644:	b1800417 	ldw	r6,16(r22)
   2b648:	b1400304 	addi	r5,r22,12
   2b64c:	11000304 	addi	r4,r2,12
   2b650:	31800084 	addi	r6,r6,2
   2b654:	318d883a 	add	r6,r6,r6
   2b658:	318d883a 	add	r6,r6,r6
   2b65c:	1021883a 	mov	r16,r2
   2b660:	00250a80 	call	250a8 <memcpy>
   2b664:	b0c00117 	ldw	r3,4(r22)
   2b668:	b8801317 	ldw	r2,76(r23)
   2b66c:	18c7883a 	add	r3,r3,r3
   2b670:	18c7883a 	add	r3,r3,r3
   2b674:	10c5883a 	add	r2,r2,r3
   2b678:	10c00017 	ldw	r3,0(r2)
   2b67c:	b0c00015 	stw	r3,0(r22)
   2b680:	15800015 	stw	r22,0(r2)
   2b684:	802d883a 	mov	r22,r16
   2b688:	003fd606 	br	2b5e4 <__multadd+0x9c>

0002b68c <__s2b>:
   2b68c:	defff904 	addi	sp,sp,-28
   2b690:	dd000415 	stw	r20,16(sp)
   2b694:	dc400115 	stw	r17,4(sp)
   2b698:	2829883a 	mov	r20,r5
   2b69c:	2023883a 	mov	r17,r4
   2b6a0:	01400244 	movi	r5,9
   2b6a4:	39000204 	addi	r4,r7,8
   2b6a8:	dcc00315 	stw	r19,12(sp)
   2b6ac:	dc800215 	stw	r18,8(sp)
   2b6b0:	dfc00615 	stw	ra,24(sp)
   2b6b4:	dd400515 	stw	r21,20(sp)
   2b6b8:	dc000015 	stw	r16,0(sp)
   2b6bc:	3825883a 	mov	r18,r7
   2b6c0:	3027883a 	mov	r19,r6
   2b6c4:	0022c580 	call	22c58 <__divsi3>
   2b6c8:	00c00044 	movi	r3,1
   2b6cc:	000b883a 	mov	r5,zero
   2b6d0:	1880030e 	bge	r3,r2,2b6e0 <__s2b+0x54>
   2b6d4:	18c7883a 	add	r3,r3,r3
   2b6d8:	29400044 	addi	r5,r5,1
   2b6dc:	18bffd16 	blt	r3,r2,2b6d4 <__s2b+0x48>
   2b6e0:	8809883a 	mov	r4,r17
   2b6e4:	002b4780 	call	2b478 <_Balloc>
   2b6e8:	d8c00717 	ldw	r3,28(sp)
   2b6ec:	10c00515 	stw	r3,20(r2)
   2b6f0:	00c00044 	movi	r3,1
   2b6f4:	10c00415 	stw	r3,16(r2)
   2b6f8:	00c00244 	movi	r3,9
   2b6fc:	1cc0210e 	bge	r3,r19,2b784 <__s2b+0xf8>
   2b700:	a0eb883a 	add	r21,r20,r3
   2b704:	a821883a 	mov	r16,r21
   2b708:	a4e9883a 	add	r20,r20,r19
   2b70c:	81c00007 	ldb	r7,0(r16)
   2b710:	8809883a 	mov	r4,r17
   2b714:	84000044 	addi	r16,r16,1
   2b718:	100b883a 	mov	r5,r2
   2b71c:	01800284 	movi	r6,10
   2b720:	39fff404 	addi	r7,r7,-48
   2b724:	002b5480 	call	2b548 <__multadd>
   2b728:	853ff81e 	bne	r16,r20,2b70c <__s2b+0x80>
   2b72c:	ace1883a 	add	r16,r21,r19
   2b730:	843ffe04 	addi	r16,r16,-8
   2b734:	9c800a0e 	bge	r19,r18,2b760 <__s2b+0xd4>
   2b738:	94e5c83a 	sub	r18,r18,r19
   2b73c:	84a5883a 	add	r18,r16,r18
   2b740:	81c00007 	ldb	r7,0(r16)
   2b744:	8809883a 	mov	r4,r17
   2b748:	84000044 	addi	r16,r16,1
   2b74c:	100b883a 	mov	r5,r2
   2b750:	01800284 	movi	r6,10
   2b754:	39fff404 	addi	r7,r7,-48
   2b758:	002b5480 	call	2b548 <__multadd>
   2b75c:	84bff81e 	bne	r16,r18,2b740 <__s2b+0xb4>
   2b760:	dfc00617 	ldw	ra,24(sp)
   2b764:	dd400517 	ldw	r21,20(sp)
   2b768:	dd000417 	ldw	r20,16(sp)
   2b76c:	dcc00317 	ldw	r19,12(sp)
   2b770:	dc800217 	ldw	r18,8(sp)
   2b774:	dc400117 	ldw	r17,4(sp)
   2b778:	dc000017 	ldw	r16,0(sp)
   2b77c:	dec00704 	addi	sp,sp,28
   2b780:	f800283a 	ret
   2b784:	a4000284 	addi	r16,r20,10
   2b788:	1827883a 	mov	r19,r3
   2b78c:	003fe906 	br	2b734 <__s2b+0xa8>

0002b790 <__hi0bits>:
   2b790:	20bfffec 	andhi	r2,r4,65535
   2b794:	1000141e 	bne	r2,zero,2b7e8 <__hi0bits+0x58>
   2b798:	2008943a 	slli	r4,r4,16
   2b79c:	00800404 	movi	r2,16
   2b7a0:	20ffc02c 	andhi	r3,r4,65280
   2b7a4:	1800021e 	bne	r3,zero,2b7b0 <__hi0bits+0x20>
   2b7a8:	2008923a 	slli	r4,r4,8
   2b7ac:	10800204 	addi	r2,r2,8
   2b7b0:	20fc002c 	andhi	r3,r4,61440
   2b7b4:	1800021e 	bne	r3,zero,2b7c0 <__hi0bits+0x30>
   2b7b8:	2008913a 	slli	r4,r4,4
   2b7bc:	10800104 	addi	r2,r2,4
   2b7c0:	20f0002c 	andhi	r3,r4,49152
   2b7c4:	1800031e 	bne	r3,zero,2b7d4 <__hi0bits+0x44>
   2b7c8:	2109883a 	add	r4,r4,r4
   2b7cc:	10800084 	addi	r2,r2,2
   2b7d0:	2109883a 	add	r4,r4,r4
   2b7d4:	20000316 	blt	r4,zero,2b7e4 <__hi0bits+0x54>
   2b7d8:	2110002c 	andhi	r4,r4,16384
   2b7dc:	2000041e 	bne	r4,zero,2b7f0 <__hi0bits+0x60>
   2b7e0:	00800804 	movi	r2,32
   2b7e4:	f800283a 	ret
   2b7e8:	0005883a 	mov	r2,zero
   2b7ec:	003fec06 	br	2b7a0 <__hi0bits+0x10>
   2b7f0:	10800044 	addi	r2,r2,1
   2b7f4:	f800283a 	ret

0002b7f8 <__lo0bits>:
   2b7f8:	20c00017 	ldw	r3,0(r4)
   2b7fc:	188001cc 	andi	r2,r3,7
   2b800:	10000826 	beq	r2,zero,2b824 <__lo0bits+0x2c>
   2b804:	1880004c 	andi	r2,r3,1
   2b808:	1000211e 	bne	r2,zero,2b890 <__lo0bits+0x98>
   2b80c:	1880008c 	andi	r2,r3,2
   2b810:	1000211e 	bne	r2,zero,2b898 <__lo0bits+0xa0>
   2b814:	1806d0ba 	srli	r3,r3,2
   2b818:	00800084 	movi	r2,2
   2b81c:	20c00015 	stw	r3,0(r4)
   2b820:	f800283a 	ret
   2b824:	18bfffcc 	andi	r2,r3,65535
   2b828:	10001326 	beq	r2,zero,2b878 <__lo0bits+0x80>
   2b82c:	0005883a 	mov	r2,zero
   2b830:	19403fcc 	andi	r5,r3,255
   2b834:	2800021e 	bne	r5,zero,2b840 <__lo0bits+0x48>
   2b838:	1806d23a 	srli	r3,r3,8
   2b83c:	10800204 	addi	r2,r2,8
   2b840:	194003cc 	andi	r5,r3,15
   2b844:	2800021e 	bne	r5,zero,2b850 <__lo0bits+0x58>
   2b848:	1806d13a 	srli	r3,r3,4
   2b84c:	10800104 	addi	r2,r2,4
   2b850:	194000cc 	andi	r5,r3,3
   2b854:	2800021e 	bne	r5,zero,2b860 <__lo0bits+0x68>
   2b858:	1806d0ba 	srli	r3,r3,2
   2b85c:	10800084 	addi	r2,r2,2
   2b860:	1940004c 	andi	r5,r3,1
   2b864:	2800081e 	bne	r5,zero,2b888 <__lo0bits+0x90>
   2b868:	1806d07a 	srli	r3,r3,1
   2b86c:	1800051e 	bne	r3,zero,2b884 <__lo0bits+0x8c>
   2b870:	00800804 	movi	r2,32
   2b874:	f800283a 	ret
   2b878:	1806d43a 	srli	r3,r3,16
   2b87c:	00800404 	movi	r2,16
   2b880:	003feb06 	br	2b830 <__lo0bits+0x38>
   2b884:	10800044 	addi	r2,r2,1
   2b888:	20c00015 	stw	r3,0(r4)
   2b88c:	f800283a 	ret
   2b890:	0005883a 	mov	r2,zero
   2b894:	f800283a 	ret
   2b898:	1806d07a 	srli	r3,r3,1
   2b89c:	00800044 	movi	r2,1
   2b8a0:	20c00015 	stw	r3,0(r4)
   2b8a4:	f800283a 	ret

0002b8a8 <__i2b>:
   2b8a8:	defffd04 	addi	sp,sp,-12
   2b8ac:	dc000015 	stw	r16,0(sp)
   2b8b0:	04000044 	movi	r16,1
   2b8b4:	dc400115 	stw	r17,4(sp)
   2b8b8:	2823883a 	mov	r17,r5
   2b8bc:	800b883a 	mov	r5,r16
   2b8c0:	dfc00215 	stw	ra,8(sp)
   2b8c4:	002b4780 	call	2b478 <_Balloc>
   2b8c8:	14400515 	stw	r17,20(r2)
   2b8cc:	14000415 	stw	r16,16(r2)
   2b8d0:	dfc00217 	ldw	ra,8(sp)
   2b8d4:	dc400117 	ldw	r17,4(sp)
   2b8d8:	dc000017 	ldw	r16,0(sp)
   2b8dc:	dec00304 	addi	sp,sp,12
   2b8e0:	f800283a 	ret

0002b8e4 <__multiply>:
   2b8e4:	defff004 	addi	sp,sp,-64
   2b8e8:	dc800815 	stw	r18,32(sp)
   2b8ec:	dc400715 	stw	r17,28(sp)
   2b8f0:	34800417 	ldw	r18,16(r6)
   2b8f4:	2c400417 	ldw	r17,16(r5)
   2b8f8:	ddc00d15 	stw	r23,52(sp)
   2b8fc:	dc000615 	stw	r16,24(sp)
   2b900:	dfc00f15 	stw	ra,60(sp)
   2b904:	df000e15 	stw	fp,56(sp)
   2b908:	dd800c15 	stw	r22,48(sp)
   2b90c:	dd400b15 	stw	r21,44(sp)
   2b910:	dd000a15 	stw	r20,40(sp)
   2b914:	dcc00915 	stw	r19,36(sp)
   2b918:	2821883a 	mov	r16,r5
   2b91c:	302f883a 	mov	r23,r6
   2b920:	8c80050e 	bge	r17,r18,2b938 <__multiply+0x54>
   2b924:	8807883a 	mov	r3,r17
   2b928:	3021883a 	mov	r16,r6
   2b92c:	9023883a 	mov	r17,r18
   2b930:	282f883a 	mov	r23,r5
   2b934:	1825883a 	mov	r18,r3
   2b938:	80800217 	ldw	r2,8(r16)
   2b93c:	8c87883a 	add	r3,r17,r18
   2b940:	d8c00115 	stw	r3,4(sp)
   2b944:	81400117 	ldw	r5,4(r16)
   2b948:	10c0010e 	bge	r2,r3,2b950 <__multiply+0x6c>
   2b94c:	29400044 	addi	r5,r5,1
   2b950:	002b4780 	call	2b478 <_Balloc>
   2b954:	d8c00117 	ldw	r3,4(sp)
   2b958:	d8800515 	stw	r2,20(sp)
   2b95c:	14c00504 	addi	r19,r2,20
   2b960:	1d400144 	addi	r21,r3,5
   2b964:	ad6b883a 	add	r21,r21,r21
   2b968:	ad6b883a 	add	r21,r21,r21
   2b96c:	156b883a 	add	r21,r2,r21
   2b970:	dd400215 	stw	r21,8(sp)
   2b974:	9805883a 	mov	r2,r19
   2b978:	9d40042e 	bgeu	r19,r21,2b98c <__multiply+0xa8>
   2b97c:	d8c00217 	ldw	r3,8(sp)
   2b980:	10000015 	stw	zero,0(r2)
   2b984:	10800104 	addi	r2,r2,4
   2b988:	10fffc36 	bltu	r2,r3,2b97c <__multiply+0x98>
   2b98c:	94800144 	addi	r18,r18,5
   2b990:	94a5883a 	add	r18,r18,r18
   2b994:	94ad883a 	add	r22,r18,r18
   2b998:	8c400144 	addi	r17,r17,5
   2b99c:	8c63883a 	add	r17,r17,r17
   2b9a0:	bdad883a 	add	r22,r23,r22
   2b9a4:	80c00504 	addi	r3,r16,20
   2b9a8:	8c63883a 	add	r17,r17,r17
   2b9ac:	bc800504 	addi	r18,r23,20
   2b9b0:	dd800315 	stw	r22,12(sp)
   2b9b4:	d8c00415 	stw	r3,16(sp)
   2b9b8:	dcc00015 	stw	r19,0(sp)
   2b9bc:	8463883a 	add	r17,r16,r17
   2b9c0:	9580412e 	bgeu	r18,r22,2bac8 <__multiply+0x1e4>
   2b9c4:	90800017 	ldw	r2,0(r18)
   2b9c8:	173fffcc 	andi	fp,r2,65535
   2b9cc:	e0001a26 	beq	fp,zero,2ba38 <__multiply+0x154>
   2b9d0:	dd000017 	ldw	r20,0(sp)
   2b9d4:	dd800417 	ldw	r22,16(sp)
   2b9d8:	002b883a 	mov	r21,zero
   2b9dc:	b4c00017 	ldw	r19,0(r22)
   2b9e0:	a4000017 	ldw	r16,0(r20)
   2b9e4:	e00b883a 	mov	r5,fp
   2b9e8:	993fffcc 	andi	r4,r19,65535
   2b9ec:	0022d140 	call	22d14 <__mulsi3>
   2b9f0:	9808d43a 	srli	r4,r19,16
   2b9f4:	817fffcc 	andi	r5,r16,65535
   2b9f8:	1145883a 	add	r2,r2,r5
   2b9fc:	e00b883a 	mov	r5,fp
   2ba00:	1567883a 	add	r19,r2,r21
   2ba04:	8020d43a 	srli	r16,r16,16
   2ba08:	0022d140 	call	22d14 <__mulsi3>
   2ba0c:	9808d43a 	srli	r4,r19,16
   2ba10:	1405883a 	add	r2,r2,r16
   2ba14:	a4c0000d 	sth	r19,0(r20)
   2ba18:	110f883a 	add	r7,r2,r4
   2ba1c:	a1c0008d 	sth	r7,2(r20)
   2ba20:	b5800104 	addi	r22,r22,4
   2ba24:	382ad43a 	srli	r21,r7,16
   2ba28:	a5000104 	addi	r20,r20,4
   2ba2c:	b47feb36 	bltu	r22,r17,2b9dc <__multiply+0xf8>
   2ba30:	a5400015 	stw	r21,0(r20)
   2ba34:	90800017 	ldw	r2,0(r18)
   2ba38:	1038d43a 	srli	fp,r2,16
   2ba3c:	e0001c26 	beq	fp,zero,2bab0 <__multiply+0x1cc>
   2ba40:	d8c00017 	ldw	r3,0(sp)
   2ba44:	dd000417 	ldw	r20,16(sp)
   2ba48:	002b883a 	mov	r21,zero
   2ba4c:	1d800017 	ldw	r22,0(r3)
   2ba50:	182f883a 	mov	r23,r3
   2ba54:	b021883a 	mov	r16,r22
   2ba58:	a4c00017 	ldw	r19,0(r20)
   2ba5c:	8020d43a 	srli	r16,r16,16
   2ba60:	e00b883a 	mov	r5,fp
   2ba64:	993fffcc 	andi	r4,r19,65535
   2ba68:	0022d140 	call	22d14 <__mulsi3>
   2ba6c:	1405883a 	add	r2,r2,r16
   2ba70:	9808d43a 	srli	r4,r19,16
   2ba74:	156b883a 	add	r21,r2,r21
   2ba78:	bdc00104 	addi	r23,r23,4
   2ba7c:	bdbfff0d 	sth	r22,-4(r23)
   2ba80:	bd7fff8d 	sth	r21,-2(r23)
   2ba84:	bc000017 	ldw	r16,0(r23)
   2ba88:	e00b883a 	mov	r5,fp
   2ba8c:	0022d140 	call	22d14 <__mulsi3>
   2ba90:	a80ed43a 	srli	r7,r21,16
   2ba94:	813fffcc 	andi	r4,r16,65535
   2ba98:	2085883a 	add	r2,r4,r2
   2ba9c:	11ed883a 	add	r22,r2,r7
   2baa0:	a5000104 	addi	r20,r20,4
   2baa4:	b02ad43a 	srli	r21,r22,16
   2baa8:	a47feb36 	bltu	r20,r17,2ba58 <__multiply+0x174>
   2baac:	bd800015 	stw	r22,0(r23)
   2bab0:	d8c00017 	ldw	r3,0(sp)
   2bab4:	94800104 	addi	r18,r18,4
   2bab8:	18c00104 	addi	r3,r3,4
   2babc:	d8c00015 	stw	r3,0(sp)
   2bac0:	d8c00317 	ldw	r3,12(sp)
   2bac4:	90ffbf36 	bltu	r18,r3,2b9c4 <__multiply+0xe0>
   2bac8:	d8c00117 	ldw	r3,4(sp)
   2bacc:	00c00c0e 	bge	zero,r3,2bb00 <__multiply+0x21c>
   2bad0:	d8c00217 	ldw	r3,8(sp)
   2bad4:	18bfff17 	ldw	r2,-4(r3)
   2bad8:	1d7fff04 	addi	r21,r3,-4
   2badc:	10000326 	beq	r2,zero,2baec <__multiply+0x208>
   2bae0:	00000706 	br	2bb00 <__multiply+0x21c>
   2bae4:	a8800017 	ldw	r2,0(r21)
   2bae8:	1000051e 	bne	r2,zero,2bb00 <__multiply+0x21c>
   2baec:	d8c00117 	ldw	r3,4(sp)
   2baf0:	ad7fff04 	addi	r21,r21,-4
   2baf4:	18ffffc4 	addi	r3,r3,-1
   2baf8:	d8c00115 	stw	r3,4(sp)
   2bafc:	183ff91e 	bne	r3,zero,2bae4 <__multiply+0x200>
   2bb00:	d8800517 	ldw	r2,20(sp)
   2bb04:	d8c00117 	ldw	r3,4(sp)
   2bb08:	10c00415 	stw	r3,16(r2)
   2bb0c:	dfc00f17 	ldw	ra,60(sp)
   2bb10:	df000e17 	ldw	fp,56(sp)
   2bb14:	ddc00d17 	ldw	r23,52(sp)
   2bb18:	dd800c17 	ldw	r22,48(sp)
   2bb1c:	dd400b17 	ldw	r21,44(sp)
   2bb20:	dd000a17 	ldw	r20,40(sp)
   2bb24:	dcc00917 	ldw	r19,36(sp)
   2bb28:	dc800817 	ldw	r18,32(sp)
   2bb2c:	dc400717 	ldw	r17,28(sp)
   2bb30:	dc000617 	ldw	r16,24(sp)
   2bb34:	dec01004 	addi	sp,sp,64
   2bb38:	f800283a 	ret

0002bb3c <__pow5mult>:
   2bb3c:	defffb04 	addi	sp,sp,-20
   2bb40:	dcc00315 	stw	r19,12(sp)
   2bb44:	dc800215 	stw	r18,8(sp)
   2bb48:	dc000015 	stw	r16,0(sp)
   2bb4c:	dfc00415 	stw	ra,16(sp)
   2bb50:	dc400115 	stw	r17,4(sp)
   2bb54:	308000cc 	andi	r2,r6,3
   2bb58:	3021883a 	mov	r16,r6
   2bb5c:	2027883a 	mov	r19,r4
   2bb60:	2825883a 	mov	r18,r5
   2bb64:	10002e1e 	bne	r2,zero,2bc20 <__pow5mult+0xe4>
   2bb68:	8021d0ba 	srai	r16,r16,2
   2bb6c:	80001a26 	beq	r16,zero,2bbd8 <__pow5mult+0x9c>
   2bb70:	9c401217 	ldw	r17,72(r19)
   2bb74:	8800061e 	bne	r17,zero,2bb90 <__pow5mult+0x54>
   2bb78:	00003406 	br	2bc4c <__pow5mult+0x110>
   2bb7c:	8021d07a 	srai	r16,r16,1
   2bb80:	80001526 	beq	r16,zero,2bbd8 <__pow5mult+0x9c>
   2bb84:	88c00017 	ldw	r3,0(r17)
   2bb88:	18001b26 	beq	r3,zero,2bbf8 <__pow5mult+0xbc>
   2bb8c:	1823883a 	mov	r17,r3
   2bb90:	80c0004c 	andi	r3,r16,1
   2bb94:	183ff926 	beq	r3,zero,2bb7c <__pow5mult+0x40>
   2bb98:	900b883a 	mov	r5,r18
   2bb9c:	880d883a 	mov	r6,r17
   2bba0:	9809883a 	mov	r4,r19
   2bba4:	002b8e40 	call	2b8e4 <__multiply>
   2bba8:	90001b26 	beq	r18,zero,2bc18 <__pow5mult+0xdc>
   2bbac:	91000117 	ldw	r4,4(r18)
   2bbb0:	98c01317 	ldw	r3,76(r19)
   2bbb4:	8021d07a 	srai	r16,r16,1
   2bbb8:	2109883a 	add	r4,r4,r4
   2bbbc:	2109883a 	add	r4,r4,r4
   2bbc0:	1907883a 	add	r3,r3,r4
   2bbc4:	19000017 	ldw	r4,0(r3)
   2bbc8:	91000015 	stw	r4,0(r18)
   2bbcc:	1c800015 	stw	r18,0(r3)
   2bbd0:	1025883a 	mov	r18,r2
   2bbd4:	803feb1e 	bne	r16,zero,2bb84 <__pow5mult+0x48>
   2bbd8:	9005883a 	mov	r2,r18
   2bbdc:	dfc00417 	ldw	ra,16(sp)
   2bbe0:	dcc00317 	ldw	r19,12(sp)
   2bbe4:	dc800217 	ldw	r18,8(sp)
   2bbe8:	dc400117 	ldw	r17,4(sp)
   2bbec:	dc000017 	ldw	r16,0(sp)
   2bbf0:	dec00504 	addi	sp,sp,20
   2bbf4:	f800283a 	ret
   2bbf8:	880b883a 	mov	r5,r17
   2bbfc:	880d883a 	mov	r6,r17
   2bc00:	9809883a 	mov	r4,r19
   2bc04:	002b8e40 	call	2b8e4 <__multiply>
   2bc08:	88800015 	stw	r2,0(r17)
   2bc0c:	10000015 	stw	zero,0(r2)
   2bc10:	1023883a 	mov	r17,r2
   2bc14:	003fde06 	br	2bb90 <__pow5mult+0x54>
   2bc18:	1025883a 	mov	r18,r2
   2bc1c:	003fd706 	br	2bb7c <__pow5mult+0x40>
   2bc20:	10bfffc4 	addi	r2,r2,-1
   2bc24:	1085883a 	add	r2,r2,r2
   2bc28:	00c000f4 	movhi	r3,3
   2bc2c:	18d41b04 	addi	r3,r3,20588
   2bc30:	1085883a 	add	r2,r2,r2
   2bc34:	1885883a 	add	r2,r3,r2
   2bc38:	11800017 	ldw	r6,0(r2)
   2bc3c:	000f883a 	mov	r7,zero
   2bc40:	002b5480 	call	2b548 <__multadd>
   2bc44:	1025883a 	mov	r18,r2
   2bc48:	003fc706 	br	2bb68 <__pow5mult+0x2c>
   2bc4c:	9809883a 	mov	r4,r19
   2bc50:	01409c44 	movi	r5,625
   2bc54:	002b8a80 	call	2b8a8 <__i2b>
   2bc58:	98801215 	stw	r2,72(r19)
   2bc5c:	1023883a 	mov	r17,r2
   2bc60:	10000015 	stw	zero,0(r2)
   2bc64:	003fca06 	br	2bb90 <__pow5mult+0x54>

0002bc68 <__lshift>:
   2bc68:	defff904 	addi	sp,sp,-28
   2bc6c:	dd400515 	stw	r21,20(sp)
   2bc70:	dc400115 	stw	r17,4(sp)
   2bc74:	2d400417 	ldw	r21,16(r5)
   2bc78:	3023d17a 	srai	r17,r6,5
   2bc7c:	28800217 	ldw	r2,8(r5)
   2bc80:	dd000415 	stw	r20,16(sp)
   2bc84:	8d6b883a 	add	r21,r17,r21
   2bc88:	dcc00315 	stw	r19,12(sp)
   2bc8c:	dc800215 	stw	r18,8(sp)
   2bc90:	dc000015 	stw	r16,0(sp)
   2bc94:	dfc00615 	stw	ra,24(sp)
   2bc98:	ac000044 	addi	r16,r21,1
   2bc9c:	2825883a 	mov	r18,r5
   2bca0:	3029883a 	mov	r20,r6
   2bca4:	2027883a 	mov	r19,r4
   2bca8:	29400117 	ldw	r5,4(r5)
   2bcac:	1400030e 	bge	r2,r16,2bcbc <__lshift+0x54>
   2bcb0:	1085883a 	add	r2,r2,r2
   2bcb4:	29400044 	addi	r5,r5,1
   2bcb8:	143ffd16 	blt	r2,r16,2bcb0 <__lshift+0x48>
   2bcbc:	9809883a 	mov	r4,r19
   2bcc0:	002b4780 	call	2b478 <_Balloc>
   2bcc4:	10c00504 	addi	r3,r2,20
   2bcc8:	0440090e 	bge	zero,r17,2bcf0 <__lshift+0x88>
   2bccc:	000f883a 	mov	r7,zero
   2bcd0:	18000015 	stw	zero,0(r3)
   2bcd4:	39c00044 	addi	r7,r7,1
   2bcd8:	18c00104 	addi	r3,r3,4
   2bcdc:	3c7ffc1e 	bne	r7,r17,2bcd0 <__lshift+0x68>
   2bce0:	38c00144 	addi	r3,r7,5
   2bce4:	18c7883a 	add	r3,r3,r3
   2bce8:	18c7883a 	add	r3,r3,r3
   2bcec:	10c7883a 	add	r3,r2,r3
   2bcf0:	92000417 	ldw	r8,16(r18)
   2bcf4:	a18007cc 	andi	r6,r20,31
   2bcf8:	91c00504 	addi	r7,r18,20
   2bcfc:	42000144 	addi	r8,r8,5
   2bd00:	4211883a 	add	r8,r8,r8
   2bd04:	4211883a 	add	r8,r8,r8
   2bd08:	9211883a 	add	r8,r18,r8
   2bd0c:	30002226 	beq	r6,zero,2bd98 <__lshift+0x130>
   2bd10:	02800804 	movi	r10,32
   2bd14:	5195c83a 	sub	r10,r10,r6
   2bd18:	000b883a 	mov	r5,zero
   2bd1c:	3a400017 	ldw	r9,0(r7)
   2bd20:	18c00104 	addi	r3,r3,4
   2bd24:	39c00104 	addi	r7,r7,4
   2bd28:	4992983a 	sll	r9,r9,r6
   2bd2c:	2a4ab03a 	or	r5,r5,r9
   2bd30:	197fff15 	stw	r5,-4(r3)
   2bd34:	397fff17 	ldw	r5,-4(r7)
   2bd38:	2a8ad83a 	srl	r5,r5,r10
   2bd3c:	3a3ff736 	bltu	r7,r8,2bd1c <__lshift+0xb4>
   2bd40:	19400015 	stw	r5,0(r3)
   2bd44:	28000126 	beq	r5,zero,2bd4c <__lshift+0xe4>
   2bd48:	ac000084 	addi	r16,r21,2
   2bd4c:	91000117 	ldw	r4,4(r18)
   2bd50:	98c01317 	ldw	r3,76(r19)
   2bd54:	843fffc4 	addi	r16,r16,-1
   2bd58:	2109883a 	add	r4,r4,r4
   2bd5c:	2109883a 	add	r4,r4,r4
   2bd60:	1907883a 	add	r3,r3,r4
   2bd64:	19000017 	ldw	r4,0(r3)
   2bd68:	14000415 	stw	r16,16(r2)
   2bd6c:	91000015 	stw	r4,0(r18)
   2bd70:	1c800015 	stw	r18,0(r3)
   2bd74:	dfc00617 	ldw	ra,24(sp)
   2bd78:	dd400517 	ldw	r21,20(sp)
   2bd7c:	dd000417 	ldw	r20,16(sp)
   2bd80:	dcc00317 	ldw	r19,12(sp)
   2bd84:	dc800217 	ldw	r18,8(sp)
   2bd88:	dc400117 	ldw	r17,4(sp)
   2bd8c:	dc000017 	ldw	r16,0(sp)
   2bd90:	dec00704 	addi	sp,sp,28
   2bd94:	f800283a 	ret
   2bd98:	39400017 	ldw	r5,0(r7)
   2bd9c:	18c00104 	addi	r3,r3,4
   2bda0:	39c00104 	addi	r7,r7,4
   2bda4:	197fff15 	stw	r5,-4(r3)
   2bda8:	3a3fe82e 	bgeu	r7,r8,2bd4c <__lshift+0xe4>
   2bdac:	39400017 	ldw	r5,0(r7)
   2bdb0:	18c00104 	addi	r3,r3,4
   2bdb4:	39c00104 	addi	r7,r7,4
   2bdb8:	197fff15 	stw	r5,-4(r3)
   2bdbc:	3a3ff636 	bltu	r7,r8,2bd98 <__lshift+0x130>
   2bdc0:	003fe206 	br	2bd4c <__lshift+0xe4>

0002bdc4 <__mcmp>:
   2bdc4:	20800417 	ldw	r2,16(r4)
   2bdc8:	28c00417 	ldw	r3,16(r5)
   2bdcc:	10c5c83a 	sub	r2,r2,r3
   2bdd0:	10000f1e 	bne	r2,zero,2be10 <__mcmp+0x4c>
   2bdd4:	18c00144 	addi	r3,r3,5
   2bdd8:	18c7883a 	add	r3,r3,r3
   2bddc:	18c7883a 	add	r3,r3,r3
   2bde0:	21c00504 	addi	r7,r4,20
   2bde4:	28cb883a 	add	r5,r5,r3
   2bde8:	20c9883a 	add	r4,r4,r3
   2bdec:	213fff04 	addi	r4,r4,-4
   2bdf0:	297fff04 	addi	r5,r5,-4
   2bdf4:	21800017 	ldw	r6,0(r4)
   2bdf8:	28c00017 	ldw	r3,0(r5)
   2bdfc:	30c0021e 	bne	r6,r3,2be08 <__mcmp+0x44>
   2be00:	393ffa36 	bltu	r7,r4,2bdec <__mcmp+0x28>
   2be04:	f800283a 	ret
   2be08:	30c00236 	bltu	r6,r3,2be14 <__mcmp+0x50>
   2be0c:	00800044 	movi	r2,1
   2be10:	f800283a 	ret
   2be14:	00bfffc4 	movi	r2,-1
   2be18:	f800283a 	ret

0002be1c <__mdiff>:
   2be1c:	defffb04 	addi	sp,sp,-20
   2be20:	dc000015 	stw	r16,0(sp)
   2be24:	2821883a 	mov	r16,r5
   2be28:	dc800215 	stw	r18,8(sp)
   2be2c:	300b883a 	mov	r5,r6
   2be30:	2025883a 	mov	r18,r4
   2be34:	8009883a 	mov	r4,r16
   2be38:	dc400115 	stw	r17,4(sp)
   2be3c:	dfc00415 	stw	ra,16(sp)
   2be40:	dcc00315 	stw	r19,12(sp)
   2be44:	3023883a 	mov	r17,r6
   2be48:	002bdc40 	call	2bdc4 <__mcmp>
   2be4c:	10005026 	beq	r2,zero,2bf90 <__mdiff+0x174>
   2be50:	10004a16 	blt	r2,zero,2bf7c <__mdiff+0x160>
   2be54:	0027883a 	mov	r19,zero
   2be58:	81400117 	ldw	r5,4(r16)
   2be5c:	9009883a 	mov	r4,r18
   2be60:	002b4780 	call	2b478 <_Balloc>
   2be64:	82400417 	ldw	r9,16(r16)
   2be68:	89800417 	ldw	r6,16(r17)
   2be6c:	14c00315 	stw	r19,12(r2)
   2be70:	4b800144 	addi	r14,r9,5
   2be74:	31800144 	addi	r6,r6,5
   2be78:	739d883a 	add	r14,r14,r14
   2be7c:	318d883a 	add	r6,r6,r6
   2be80:	739d883a 	add	r14,r14,r14
   2be84:	318d883a 	add	r6,r6,r6
   2be88:	81c00504 	addi	r7,r16,20
   2be8c:	839d883a 	add	r14,r16,r14
   2be90:	8a000504 	addi	r8,r17,20
   2be94:	898d883a 	add	r6,r17,r6
   2be98:	10c00504 	addi	r3,r2,20
   2be9c:	0009883a 	mov	r4,zero
   2bea0:	3b000017 	ldw	r12,0(r7)
   2bea4:	42c00017 	ldw	r11,0(r8)
   2bea8:	42000104 	addi	r8,r8,4
   2beac:	62bfffcc 	andi	r10,r12,65535
   2beb0:	5b7fffcc 	andi	r13,r11,65535
   2beb4:	5109883a 	add	r4,r10,r4
   2beb8:	2355c83a 	sub	r10,r4,r13
   2bebc:	5816d43a 	srli	r11,r11,16
   2bec0:	6008d43a 	srli	r4,r12,16
   2bec4:	501bd43a 	srai	r13,r10,16
   2bec8:	1a80000d 	sth	r10,0(r3)
   2becc:	22c9c83a 	sub	r4,r4,r11
   2bed0:	2349883a 	add	r4,r4,r13
   2bed4:	1900008d 	sth	r4,2(r3)
   2bed8:	39c00104 	addi	r7,r7,4
   2bedc:	2009d43a 	srai	r4,r4,16
   2bee0:	18c00104 	addi	r3,r3,4
   2bee4:	41bfee36 	bltu	r8,r6,2bea0 <__mdiff+0x84>
   2bee8:	180b883a 	mov	r5,r3
   2beec:	3815883a 	mov	r10,r7
   2bef0:	3b80132e 	bgeu	r7,r14,2bf40 <__mdiff+0x124>
   2bef4:	3a000017 	ldw	r8,0(r7)
   2bef8:	18c00104 	addi	r3,r3,4
   2befc:	39c00104 	addi	r7,r7,4
   2bf00:	41bfffcc 	andi	r6,r8,65535
   2bf04:	310d883a 	add	r6,r6,r4
   2bf08:	3009d43a 	srai	r4,r6,16
   2bf0c:	4010d43a 	srli	r8,r8,16
   2bf10:	19bfff0d 	sth	r6,-4(r3)
   2bf14:	2209883a 	add	r4,r4,r8
   2bf18:	193fff8d 	sth	r4,-2(r3)
   2bf1c:	2009d43a 	srai	r4,r4,16
   2bf20:	3bbff436 	bltu	r7,r14,2bef4 <__mdiff+0xd8>
   2bf24:	0286303a 	nor	r3,zero,r10
   2bf28:	1b87883a 	add	r3,r3,r14
   2bf2c:	1806d0ba 	srli	r3,r3,2
   2bf30:	18c00044 	addi	r3,r3,1
   2bf34:	18c7883a 	add	r3,r3,r3
   2bf38:	18c7883a 	add	r3,r3,r3
   2bf3c:	28c7883a 	add	r3,r5,r3
   2bf40:	193fff17 	ldw	r4,-4(r3)
   2bf44:	18ffff04 	addi	r3,r3,-4
   2bf48:	2000041e 	bne	r4,zero,2bf5c <__mdiff+0x140>
   2bf4c:	18ffff04 	addi	r3,r3,-4
   2bf50:	19000017 	ldw	r4,0(r3)
   2bf54:	4a7fffc4 	addi	r9,r9,-1
   2bf58:	203ffc26 	beq	r4,zero,2bf4c <__mdiff+0x130>
   2bf5c:	12400415 	stw	r9,16(r2)
   2bf60:	dfc00417 	ldw	ra,16(sp)
   2bf64:	dcc00317 	ldw	r19,12(sp)
   2bf68:	dc800217 	ldw	r18,8(sp)
   2bf6c:	dc400117 	ldw	r17,4(sp)
   2bf70:	dc000017 	ldw	r16,0(sp)
   2bf74:	dec00504 	addi	sp,sp,20
   2bf78:	f800283a 	ret
   2bf7c:	8005883a 	mov	r2,r16
   2bf80:	04c00044 	movi	r19,1
   2bf84:	8821883a 	mov	r16,r17
   2bf88:	1023883a 	mov	r17,r2
   2bf8c:	003fb206 	br	2be58 <__mdiff+0x3c>
   2bf90:	9009883a 	mov	r4,r18
   2bf94:	000b883a 	mov	r5,zero
   2bf98:	002b4780 	call	2b478 <_Balloc>
   2bf9c:	00c00044 	movi	r3,1
   2bfa0:	10c00415 	stw	r3,16(r2)
   2bfa4:	10000515 	stw	zero,20(r2)
   2bfa8:	dfc00417 	ldw	ra,16(sp)
   2bfac:	dcc00317 	ldw	r19,12(sp)
   2bfb0:	dc800217 	ldw	r18,8(sp)
   2bfb4:	dc400117 	ldw	r17,4(sp)
   2bfb8:	dc000017 	ldw	r16,0(sp)
   2bfbc:	dec00504 	addi	sp,sp,20
   2bfc0:	f800283a 	ret

0002bfc4 <__ulp>:
   2bfc4:	295ffc2c 	andhi	r5,r5,32752
   2bfc8:	00bf3034 	movhi	r2,64704
   2bfcc:	2887883a 	add	r3,r5,r2
   2bfd0:	00c0020e 	bge	zero,r3,2bfdc <__ulp+0x18>
   2bfd4:	0005883a 	mov	r2,zero
   2bfd8:	f800283a 	ret
   2bfdc:	00c7c83a 	sub	r3,zero,r3
   2bfe0:	1805d53a 	srai	r2,r3,20
   2bfe4:	00c004c4 	movi	r3,19
   2bfe8:	18800a0e 	bge	r3,r2,2c014 <__ulp+0x50>
   2bfec:	01000c84 	movi	r4,50
   2bff0:	0007883a 	mov	r3,zero
   2bff4:	20800516 	blt	r4,r2,2c00c <__ulp+0x48>
   2bff8:	01000cc4 	movi	r4,51
   2bffc:	2085c83a 	sub	r2,r4,r2
   2c000:	01000044 	movi	r4,1
   2c004:	2084983a 	sll	r2,r4,r2
   2c008:	f800283a 	ret
   2c00c:	00800044 	movi	r2,1
   2c010:	f800283a 	ret
   2c014:	00c00234 	movhi	r3,8
   2c018:	1887d83a 	sra	r3,r3,r2
   2c01c:	0005883a 	mov	r2,zero
   2c020:	f800283a 	ret

0002c024 <__b2d>:
   2c024:	defffa04 	addi	sp,sp,-24
   2c028:	dc000015 	stw	r16,0(sp)
   2c02c:	24000417 	ldw	r16,16(r4)
   2c030:	dc400115 	stw	r17,4(sp)
   2c034:	dcc00315 	stw	r19,12(sp)
   2c038:	84000144 	addi	r16,r16,5
   2c03c:	8421883a 	add	r16,r16,r16
   2c040:	8421883a 	add	r16,r16,r16
   2c044:	2421883a 	add	r16,r4,r16
   2c048:	847fff17 	ldw	r17,-4(r16)
   2c04c:	24c00504 	addi	r19,r4,20
   2c050:	dd000415 	stw	r20,16(sp)
   2c054:	8809883a 	mov	r4,r17
   2c058:	dc800215 	stw	r18,8(sp)
   2c05c:	2829883a 	mov	r20,r5
   2c060:	dfc00515 	stw	ra,20(sp)
   2c064:	002b7900 	call	2b790 <__hi0bits>
   2c068:	00c00804 	movi	r3,32
   2c06c:	1887c83a 	sub	r3,r3,r2
   2c070:	a0c00015 	stw	r3,0(r20)
   2c074:	00c00284 	movi	r3,10
   2c078:	84bfff04 	addi	r18,r16,-4
   2c07c:	18801216 	blt	r3,r2,2c0c8 <__b2d+0xa4>
   2c080:	010002c4 	movi	r4,11
   2c084:	2089c83a 	sub	r4,r4,r2
   2c088:	8906d83a 	srl	r3,r17,r4
   2c08c:	18cffc34 	orhi	r3,r3,16368
   2c090:	9c80322e 	bgeu	r19,r18,2c15c <__b2d+0x138>
   2c094:	817ffe17 	ldw	r5,-8(r16)
   2c098:	2908d83a 	srl	r4,r5,r4
   2c09c:	10800544 	addi	r2,r2,21
   2c0a0:	88a2983a 	sll	r17,r17,r2
   2c0a4:	2444b03a 	or	r2,r4,r17
   2c0a8:	dfc00517 	ldw	ra,20(sp)
   2c0ac:	dd000417 	ldw	r20,16(sp)
   2c0b0:	dcc00317 	ldw	r19,12(sp)
   2c0b4:	dc800217 	ldw	r18,8(sp)
   2c0b8:	dc400117 	ldw	r17,4(sp)
   2c0bc:	dc000017 	ldw	r16,0(sp)
   2c0c0:	dec00604 	addi	sp,sp,24
   2c0c4:	f800283a 	ret
   2c0c8:	9c801636 	bltu	r19,r18,2c124 <__b2d+0x100>
   2c0cc:	113ffd44 	addi	r4,r2,-11
   2c0d0:	000b883a 	mov	r5,zero
   2c0d4:	20001726 	beq	r4,zero,2c134 <__b2d+0x110>
   2c0d8:	00c00ac4 	movi	r3,43
   2c0dc:	1885c83a 	sub	r2,r3,r2
   2c0e0:	8906983a 	sll	r3,r17,r4
   2c0e4:	288cd83a 	srl	r6,r5,r2
   2c0e8:	18cffc34 	orhi	r3,r3,16368
   2c0ec:	1986b03a 	or	r3,r3,r6
   2c0f0:	9c801c2e 	bgeu	r19,r18,2c164 <__b2d+0x140>
   2c0f4:	91bfff17 	ldw	r6,-4(r18)
   2c0f8:	3084d83a 	srl	r2,r6,r2
   2c0fc:	2908983a 	sll	r4,r5,r4
   2c100:	1104b03a 	or	r2,r2,r4
   2c104:	dfc00517 	ldw	ra,20(sp)
   2c108:	dd000417 	ldw	r20,16(sp)
   2c10c:	dcc00317 	ldw	r19,12(sp)
   2c110:	dc800217 	ldw	r18,8(sp)
   2c114:	dc400117 	ldw	r17,4(sp)
   2c118:	dc000017 	ldw	r16,0(sp)
   2c11c:	dec00604 	addi	sp,sp,24
   2c120:	f800283a 	ret
   2c124:	113ffd44 	addi	r4,r2,-11
   2c128:	84bffe04 	addi	r18,r16,-8
   2c12c:	817ffe17 	ldw	r5,-8(r16)
   2c130:	203fe91e 	bne	r4,zero,2c0d8 <__b2d+0xb4>
   2c134:	88cffc34 	orhi	r3,r17,16368
   2c138:	2805883a 	mov	r2,r5
   2c13c:	dfc00517 	ldw	ra,20(sp)
   2c140:	dd000417 	ldw	r20,16(sp)
   2c144:	dcc00317 	ldw	r19,12(sp)
   2c148:	dc800217 	ldw	r18,8(sp)
   2c14c:	dc400117 	ldw	r17,4(sp)
   2c150:	dc000017 	ldw	r16,0(sp)
   2c154:	dec00604 	addi	sp,sp,24
   2c158:	f800283a 	ret
   2c15c:	0009883a 	mov	r4,zero
   2c160:	003fce06 	br	2c09c <__b2d+0x78>
   2c164:	0005883a 	mov	r2,zero
   2c168:	003fe406 	br	2c0fc <__b2d+0xd8>

0002c16c <__d2b>:
   2c16c:	defff804 	addi	sp,sp,-32
   2c170:	dc400315 	stw	r17,12(sp)
   2c174:	3023883a 	mov	r17,r6
   2c178:	dc800415 	stw	r18,16(sp)
   2c17c:	8824907a 	slli	r18,r17,1
   2c180:	dcc00515 	stw	r19,20(sp)
   2c184:	2827883a 	mov	r19,r5
   2c188:	9024d57a 	srli	r18,r18,21
   2c18c:	01400044 	movi	r5,1
   2c190:	dd000615 	stw	r20,24(sp)
   2c194:	dc000215 	stw	r16,8(sp)
   2c198:	dfc00715 	stw	ra,28(sp)
   2c19c:	3829883a 	mov	r20,r7
   2c1a0:	002b4780 	call	2b478 <_Balloc>
   2c1a4:	1021883a 	mov	r16,r2
   2c1a8:	00800434 	movhi	r2,16
   2c1ac:	10bfffc4 	addi	r2,r2,-1
   2c1b0:	88a2703a 	and	r17,r17,r2
   2c1b4:	90000126 	beq	r18,zero,2c1bc <__d2b+0x50>
   2c1b8:	8c400434 	orhi	r17,r17,16
   2c1bc:	dc400015 	stw	r17,0(sp)
   2c1c0:	98002226 	beq	r19,zero,2c24c <__d2b+0xe0>
   2c1c4:	d9000104 	addi	r4,sp,4
   2c1c8:	dcc00115 	stw	r19,4(sp)
   2c1cc:	002b7f80 	call	2b7f8 <__lo0bits>
   2c1d0:	d8c00017 	ldw	r3,0(sp)
   2c1d4:	10002d1e 	bne	r2,zero,2c28c <__d2b+0x120>
   2c1d8:	d9000117 	ldw	r4,4(sp)
   2c1dc:	81000515 	stw	r4,20(r16)
   2c1e0:	1823003a 	cmpeq	r17,r3,zero
   2c1e4:	01000084 	movi	r4,2
   2c1e8:	2463c83a 	sub	r17,r4,r17
   2c1ec:	80c00615 	stw	r3,24(r16)
   2c1f0:	84400415 	stw	r17,16(r16)
   2c1f4:	90001d1e 	bne	r18,zero,2c26c <__d2b+0x100>
   2c1f8:	88c00104 	addi	r3,r17,4
   2c1fc:	18c7883a 	add	r3,r3,r3
   2c200:	18c7883a 	add	r3,r3,r3
   2c204:	80c7883a 	add	r3,r16,r3
   2c208:	19000017 	ldw	r4,0(r3)
   2c20c:	10bef384 	addi	r2,r2,-1074
   2c210:	a0800015 	stw	r2,0(r20)
   2c214:	002b7900 	call	2b790 <__hi0bits>
   2c218:	8822917a 	slli	r17,r17,5
   2c21c:	d8c00817 	ldw	r3,32(sp)
   2c220:	8885c83a 	sub	r2,r17,r2
   2c224:	18800015 	stw	r2,0(r3)
   2c228:	8005883a 	mov	r2,r16
   2c22c:	dfc00717 	ldw	ra,28(sp)
   2c230:	dd000617 	ldw	r20,24(sp)
   2c234:	dcc00517 	ldw	r19,20(sp)
   2c238:	dc800417 	ldw	r18,16(sp)
   2c23c:	dc400317 	ldw	r17,12(sp)
   2c240:	dc000217 	ldw	r16,8(sp)
   2c244:	dec00804 	addi	sp,sp,32
   2c248:	f800283a 	ret
   2c24c:	d809883a 	mov	r4,sp
   2c250:	002b7f80 	call	2b7f8 <__lo0bits>
   2c254:	d8c00017 	ldw	r3,0(sp)
   2c258:	04400044 	movi	r17,1
   2c25c:	84400415 	stw	r17,16(r16)
   2c260:	80c00515 	stw	r3,20(r16)
   2c264:	10800804 	addi	r2,r2,32
   2c268:	903fe326 	beq	r18,zero,2c1f8 <__d2b+0x8c>
   2c26c:	00c00d44 	movi	r3,53
   2c270:	94bef344 	addi	r18,r18,-1075
   2c274:	90a5883a 	add	r18,r18,r2
   2c278:	1885c83a 	sub	r2,r3,r2
   2c27c:	d8c00817 	ldw	r3,32(sp)
   2c280:	a4800015 	stw	r18,0(r20)
   2c284:	18800015 	stw	r2,0(r3)
   2c288:	003fe706 	br	2c228 <__d2b+0xbc>
   2c28c:	01000804 	movi	r4,32
   2c290:	2089c83a 	sub	r4,r4,r2
   2c294:	1908983a 	sll	r4,r3,r4
   2c298:	d9400117 	ldw	r5,4(sp)
   2c29c:	1886d83a 	srl	r3,r3,r2
   2c2a0:	2148b03a 	or	r4,r4,r5
   2c2a4:	81000515 	stw	r4,20(r16)
   2c2a8:	d8c00015 	stw	r3,0(sp)
   2c2ac:	003fcc06 	br	2c1e0 <__d2b+0x74>

0002c2b0 <__ratio>:
   2c2b0:	defff904 	addi	sp,sp,-28
   2c2b4:	dc400315 	stw	r17,12(sp)
   2c2b8:	2823883a 	mov	r17,r5
   2c2bc:	d9400104 	addi	r5,sp,4
   2c2c0:	dfc00615 	stw	ra,24(sp)
   2c2c4:	dcc00515 	stw	r19,20(sp)
   2c2c8:	dc800415 	stw	r18,16(sp)
   2c2cc:	2027883a 	mov	r19,r4
   2c2d0:	dc000215 	stw	r16,8(sp)
   2c2d4:	002c0240 	call	2c024 <__b2d>
   2c2d8:	8809883a 	mov	r4,r17
   2c2dc:	d80b883a 	mov	r5,sp
   2c2e0:	1025883a 	mov	r18,r2
   2c2e4:	1821883a 	mov	r16,r3
   2c2e8:	002c0240 	call	2c024 <__b2d>
   2c2ec:	99400417 	ldw	r5,16(r19)
   2c2f0:	89000417 	ldw	r4,16(r17)
   2c2f4:	d9800117 	ldw	r6,4(sp)
   2c2f8:	2909c83a 	sub	r4,r5,r4
   2c2fc:	d9400017 	ldw	r5,0(sp)
   2c300:	2008917a 	slli	r4,r4,5
   2c304:	314bc83a 	sub	r5,r6,r5
   2c308:	290b883a 	add	r5,r5,r4
   2c30c:	01400e0e 	bge	zero,r5,2c348 <__ratio+0x98>
   2c310:	280a953a 	slli	r5,r5,20
   2c314:	2c21883a 	add	r16,r5,r16
   2c318:	9009883a 	mov	r4,r18
   2c31c:	800b883a 	mov	r5,r16
   2c320:	100d883a 	mov	r6,r2
   2c324:	180f883a 	mov	r7,r3
   2c328:	00314780 	call	31478 <__divdf3>
   2c32c:	dfc00617 	ldw	ra,24(sp)
   2c330:	dcc00517 	ldw	r19,20(sp)
   2c334:	dc800417 	ldw	r18,16(sp)
   2c338:	dc400317 	ldw	r17,12(sp)
   2c33c:	dc000217 	ldw	r16,8(sp)
   2c340:	dec00704 	addi	sp,sp,28
   2c344:	f800283a 	ret
   2c348:	280a953a 	slli	r5,r5,20
   2c34c:	1947c83a 	sub	r3,r3,r5
   2c350:	003ff106 	br	2c318 <__ratio+0x68>

0002c354 <_mprec_log10>:
   2c354:	defffe04 	addi	sp,sp,-8
   2c358:	dc000015 	stw	r16,0(sp)
   2c35c:	dfc00115 	stw	ra,4(sp)
   2c360:	008005c4 	movi	r2,23
   2c364:	2021883a 	mov	r16,r4
   2c368:	11000d0e 	bge	r2,r4,2c3a0 <_mprec_log10+0x4c>
   2c36c:	0005883a 	mov	r2,zero
   2c370:	00cffc34 	movhi	r3,16368
   2c374:	843fffc4 	addi	r16,r16,-1
   2c378:	1009883a 	mov	r4,r2
   2c37c:	180b883a 	mov	r5,r3
   2c380:	000d883a 	mov	r6,zero
   2c384:	01d00934 	movhi	r7,16420
   2c388:	00311940 	call	31194 <__muldf3>
   2c38c:	803ff91e 	bne	r16,zero,2c374 <_mprec_log10+0x20>
   2c390:	dfc00117 	ldw	ra,4(sp)
   2c394:	dc000017 	ldw	r16,0(sp)
   2c398:	dec00204 	addi	sp,sp,8
   2c39c:	f800283a 	ret
   2c3a0:	202090fa 	slli	r16,r4,3
   2c3a4:	008000f4 	movhi	r2,3
   2c3a8:	1093e904 	addi	r2,r2,20388
   2c3ac:	1421883a 	add	r16,r2,r16
   2c3b0:	80800017 	ldw	r2,0(r16)
   2c3b4:	80c00117 	ldw	r3,4(r16)
   2c3b8:	dfc00117 	ldw	ra,4(sp)
   2c3bc:	dc000017 	ldw	r16,0(sp)
   2c3c0:	dec00204 	addi	sp,sp,8
   2c3c4:	f800283a 	ret

0002c3c8 <__copybits>:
   2c3c8:	297fffc4 	addi	r5,r5,-1
   2c3cc:	31c00417 	ldw	r7,16(r6)
   2c3d0:	2811d17a 	srai	r8,r5,5
   2c3d4:	30800504 	addi	r2,r6,20
   2c3d8:	39c00144 	addi	r7,r7,5
   2c3dc:	42000044 	addi	r8,r8,1
   2c3e0:	39cf883a 	add	r7,r7,r7
   2c3e4:	4211883a 	add	r8,r8,r8
   2c3e8:	39cf883a 	add	r7,r7,r7
   2c3ec:	4211883a 	add	r8,r8,r8
   2c3f0:	31cf883a 	add	r7,r6,r7
   2c3f4:	2211883a 	add	r8,r4,r8
   2c3f8:	11c00d2e 	bgeu	r2,r7,2c430 <__copybits+0x68>
   2c3fc:	2007883a 	mov	r3,r4
   2c400:	11400017 	ldw	r5,0(r2)
   2c404:	18c00104 	addi	r3,r3,4
   2c408:	10800104 	addi	r2,r2,4
   2c40c:	197fff15 	stw	r5,-4(r3)
   2c410:	11fffb36 	bltu	r2,r7,2c400 <__copybits+0x38>
   2c414:	3985c83a 	sub	r2,r7,r6
   2c418:	10bffac4 	addi	r2,r2,-21
   2c41c:	1004d0ba 	srli	r2,r2,2
   2c420:	10800044 	addi	r2,r2,1
   2c424:	1085883a 	add	r2,r2,r2
   2c428:	1085883a 	add	r2,r2,r2
   2c42c:	2089883a 	add	r4,r4,r2
   2c430:	2200032e 	bgeu	r4,r8,2c440 <__copybits+0x78>
   2c434:	20000015 	stw	zero,0(r4)
   2c438:	21000104 	addi	r4,r4,4
   2c43c:	223ffd36 	bltu	r4,r8,2c434 <__copybits+0x6c>
   2c440:	f800283a 	ret

0002c444 <__any_on>:
   2c444:	21800417 	ldw	r6,16(r4)
   2c448:	2805d17a 	srai	r2,r5,5
   2c44c:	20c00504 	addi	r3,r4,20
   2c450:	30800f0e 	bge	r6,r2,2c490 <__any_on+0x4c>
   2c454:	3005883a 	mov	r2,r6
   2c458:	10800144 	addi	r2,r2,5
   2c45c:	1085883a 	add	r2,r2,r2
   2c460:	1085883a 	add	r2,r2,r2
   2c464:	2089883a 	add	r4,r4,r2
   2c468:	1900152e 	bgeu	r3,r4,2c4c0 <__any_on+0x7c>
   2c46c:	20bfff17 	ldw	r2,-4(r4)
   2c470:	213fff04 	addi	r4,r4,-4
   2c474:	1000041e 	bne	r2,zero,2c488 <__any_on+0x44>
   2c478:	1900112e 	bgeu	r3,r4,2c4c0 <__any_on+0x7c>
   2c47c:	213fff04 	addi	r4,r4,-4
   2c480:	20800017 	ldw	r2,0(r4)
   2c484:	103ffc26 	beq	r2,zero,2c478 <__any_on+0x34>
   2c488:	00800044 	movi	r2,1
   2c48c:	f800283a 	ret
   2c490:	11bff10e 	bge	r2,r6,2c458 <__any_on+0x14>
   2c494:	294007cc 	andi	r5,r5,31
   2c498:	283fef26 	beq	r5,zero,2c458 <__any_on+0x14>
   2c49c:	11800144 	addi	r6,r2,5
   2c4a0:	318d883a 	add	r6,r6,r6
   2c4a4:	318d883a 	add	r6,r6,r6
   2c4a8:	218d883a 	add	r6,r4,r6
   2c4ac:	31800017 	ldw	r6,0(r6)
   2c4b0:	314ed83a 	srl	r7,r6,r5
   2c4b4:	394a983a 	sll	r5,r7,r5
   2c4b8:	29bff31e 	bne	r5,r6,2c488 <__any_on+0x44>
   2c4bc:	003fe606 	br	2c458 <__any_on+0x14>
   2c4c0:	0005883a 	mov	r2,zero
   2c4c4:	f800283a 	ret

0002c4c8 <_read_r>:
   2c4c8:	defffd04 	addi	sp,sp,-12
   2c4cc:	dc400115 	stw	r17,4(sp)
   2c4d0:	dc000015 	stw	r16,0(sp)
   2c4d4:	2023883a 	mov	r17,r4
   2c4d8:	040000f4 	movhi	r16,3
   2c4dc:	8419d604 	addi	r16,r16,26456
   2c4e0:	2809883a 	mov	r4,r5
   2c4e4:	300b883a 	mov	r5,r6
   2c4e8:	380d883a 	mov	r6,r7
   2c4ec:	dfc00215 	stw	ra,8(sp)
   2c4f0:	80000015 	stw	zero,0(r16)
   2c4f4:	00329200 	call	32920 <read>
   2c4f8:	00ffffc4 	movi	r3,-1
   2c4fc:	10c00526 	beq	r2,r3,2c514 <_read_r+0x4c>
   2c500:	dfc00217 	ldw	ra,8(sp)
   2c504:	dc400117 	ldw	r17,4(sp)
   2c508:	dc000017 	ldw	r16,0(sp)
   2c50c:	dec00304 	addi	sp,sp,12
   2c510:	f800283a 	ret
   2c514:	80c00017 	ldw	r3,0(r16)
   2c518:	183ff926 	beq	r3,zero,2c500 <_read_r+0x38>
   2c51c:	88c00015 	stw	r3,0(r17)
   2c520:	dfc00217 	ldw	ra,8(sp)
   2c524:	dc400117 	ldw	r17,4(sp)
   2c528:	dc000017 	ldw	r16,0(sp)
   2c52c:	dec00304 	addi	sp,sp,12
   2c530:	f800283a 	ret

0002c534 <_realloc_r>:
   2c534:	defff504 	addi	sp,sp,-44
   2c538:	dd400615 	stw	r21,24(sp)
   2c53c:	dc800315 	stw	r18,12(sp)
   2c540:	dc000115 	stw	r16,4(sp)
   2c544:	dfc00a15 	stw	ra,40(sp)
   2c548:	df000915 	stw	fp,36(sp)
   2c54c:	ddc00815 	stw	r23,32(sp)
   2c550:	dd800715 	stw	r22,28(sp)
   2c554:	dd000515 	stw	r20,20(sp)
   2c558:	dcc00415 	stw	r19,16(sp)
   2c55c:	dc400215 	stw	r17,8(sp)
   2c560:	2821883a 	mov	r16,r5
   2c564:	202b883a 	mov	r21,r4
   2c568:	3025883a 	mov	r18,r6
   2c56c:	28009626 	beq	r5,zero,2c7c8 <_realloc_r+0x294>
   2c570:	00325f80 	call	325f8 <__malloc_lock>
   2c574:	80bfff17 	ldw	r2,-4(r16)
   2c578:	04ffff04 	movi	r19,-4
   2c57c:	90c002c4 	addi	r3,r18,11
   2c580:	01000584 	movi	r4,22
   2c584:	85bffe04 	addi	r22,r16,-8
   2c588:	14e6703a 	and	r19,r2,r19
   2c58c:	20c0372e 	bgeu	r4,r3,2c66c <_realloc_r+0x138>
   2c590:	047ffe04 	movi	r17,-8
   2c594:	1c62703a 	and	r17,r3,r17
   2c598:	8807883a 	mov	r3,r17
   2c59c:	88005a16 	blt	r17,zero,2c708 <_realloc_r+0x1d4>
   2c5a0:	8c805936 	bltu	r17,r18,2c708 <_realloc_r+0x1d4>
   2c5a4:	98c0340e 	bge	r19,r3,2c678 <_realloc_r+0x144>
   2c5a8:	070000f4 	movhi	fp,3
   2c5ac:	e7156004 	addi	fp,fp,21888
   2c5b0:	e1400217 	ldw	r5,8(fp)
   2c5b4:	b4c9883a 	add	r4,r22,r19
   2c5b8:	29009026 	beq	r5,r4,2c7fc <_realloc_r+0x2c8>
   2c5bc:	21800117 	ldw	r6,4(r4)
   2c5c0:	01ffff84 	movi	r7,-2
   2c5c4:	31ce703a 	and	r7,r6,r7
   2c5c8:	21cf883a 	add	r7,r4,r7
   2c5cc:	39c00117 	ldw	r7,4(r7)
   2c5d0:	39c0004c 	andi	r7,r7,1
   2c5d4:	38004326 	beq	r7,zero,2c6e4 <_realloc_r+0x1b0>
   2c5d8:	000d883a 	mov	r6,zero
   2c5dc:	0009883a 	mov	r4,zero
   2c5e0:	1080004c 	andi	r2,r2,1
   2c5e4:	10005a1e 	bne	r2,zero,2c750 <_realloc_r+0x21c>
   2c5e8:	85fffe17 	ldw	r23,-8(r16)
   2c5ec:	00bfff04 	movi	r2,-4
   2c5f0:	b5efc83a 	sub	r23,r22,r23
   2c5f4:	b9c00117 	ldw	r7,4(r23)
   2c5f8:	388e703a 	and	r7,r7,r2
   2c5fc:	3ccf883a 	add	r7,r7,r19
   2c600:	20005226 	beq	r4,zero,2c74c <_realloc_r+0x218>
   2c604:	31e9883a 	add	r20,r6,r7
   2c608:	2140c726 	beq	r4,r5,2c928 <_realloc_r+0x3f4>
   2c60c:	a0c04f16 	blt	r20,r3,2c74c <_realloc_r+0x218>
   2c610:	20800317 	ldw	r2,12(r4)
   2c614:	20c00217 	ldw	r3,8(r4)
   2c618:	99bfff04 	addi	r6,r19,-4
   2c61c:	01000904 	movi	r4,36
   2c620:	18800315 	stw	r2,12(r3)
   2c624:	10c00215 	stw	r3,8(r2)
   2c628:	b8c00217 	ldw	r3,8(r23)
   2c62c:	b8800317 	ldw	r2,12(r23)
   2c630:	bc800204 	addi	r18,r23,8
   2c634:	18800315 	stw	r2,12(r3)
   2c638:	10c00215 	stw	r3,8(r2)
   2c63c:	2180ed36 	bltu	r4,r6,2c9f4 <_realloc_r+0x4c0>
   2c640:	008004c4 	movi	r2,19
   2c644:	11809b2e 	bgeu	r2,r6,2c8b4 <_realloc_r+0x380>
   2c648:	80800017 	ldw	r2,0(r16)
   2c64c:	b8800215 	stw	r2,8(r23)
   2c650:	80800117 	ldw	r2,4(r16)
   2c654:	b8800315 	stw	r2,12(r23)
   2c658:	008006c4 	movi	r2,27
   2c65c:	1180f936 	bltu	r2,r6,2ca44 <_realloc_r+0x510>
   2c660:	b8800404 	addi	r2,r23,16
   2c664:	80c00204 	addi	r3,r16,8
   2c668:	00009406 	br	2c8bc <_realloc_r+0x388>
   2c66c:	00c00404 	movi	r3,16
   2c670:	1823883a 	mov	r17,r3
   2c674:	003fca06 	br	2c5a0 <_realloc_r+0x6c>
   2c678:	9829883a 	mov	r20,r19
   2c67c:	a447c83a 	sub	r3,r20,r17
   2c680:	010003c4 	movi	r4,15
   2c684:	1080004c 	andi	r2,r2,1
   2c688:	20c02336 	bltu	r4,r3,2c718 <_realloc_r+0x1e4>
   2c68c:	1504b03a 	or	r2,r2,r20
   2c690:	b0800115 	stw	r2,4(r22)
   2c694:	b52d883a 	add	r22,r22,r20
   2c698:	b0800117 	ldw	r2,4(r22)
   2c69c:	10800054 	ori	r2,r2,1
   2c6a0:	b0800115 	stw	r2,4(r22)
   2c6a4:	a809883a 	mov	r4,r21
   2c6a8:	00326180 	call	32618 <__malloc_unlock>
   2c6ac:	8025883a 	mov	r18,r16
   2c6b0:	9005883a 	mov	r2,r18
   2c6b4:	dfc00a17 	ldw	ra,40(sp)
   2c6b8:	df000917 	ldw	fp,36(sp)
   2c6bc:	ddc00817 	ldw	r23,32(sp)
   2c6c0:	dd800717 	ldw	r22,28(sp)
   2c6c4:	dd400617 	ldw	r21,24(sp)
   2c6c8:	dd000517 	ldw	r20,20(sp)
   2c6cc:	dcc00417 	ldw	r19,16(sp)
   2c6d0:	dc800317 	ldw	r18,12(sp)
   2c6d4:	dc400217 	ldw	r17,8(sp)
   2c6d8:	dc000117 	ldw	r16,4(sp)
   2c6dc:	dec00b04 	addi	sp,sp,44
   2c6e0:	f800283a 	ret
   2c6e4:	01ffff04 	movi	r7,-4
   2c6e8:	31cc703a 	and	r6,r6,r7
   2c6ec:	34e9883a 	add	r20,r6,r19
   2c6f0:	a0ffbb16 	blt	r20,r3,2c5e0 <_realloc_r+0xac>
   2c6f4:	20c00317 	ldw	r3,12(r4)
   2c6f8:	21000217 	ldw	r4,8(r4)
   2c6fc:	20c00315 	stw	r3,12(r4)
   2c700:	19000215 	stw	r4,8(r3)
   2c704:	003fdd06 	br	2c67c <_realloc_r+0x148>
   2c708:	00800304 	movi	r2,12
   2c70c:	a8800015 	stw	r2,0(r21)
   2c710:	0025883a 	mov	r18,zero
   2c714:	003fe606 	br	2c6b0 <_realloc_r+0x17c>
   2c718:	1444b03a 	or	r2,r2,r17
   2c71c:	b0800115 	stw	r2,4(r22)
   2c720:	b44b883a 	add	r5,r22,r17
   2c724:	18800054 	ori	r2,r3,1
   2c728:	28800115 	stw	r2,4(r5)
   2c72c:	28c7883a 	add	r3,r5,r3
   2c730:	18800117 	ldw	r2,4(r3)
   2c734:	a809883a 	mov	r4,r21
   2c738:	29400204 	addi	r5,r5,8
   2c73c:	10800054 	ori	r2,r2,1
   2c740:	18800115 	stw	r2,4(r3)
   2c744:	0023d000 	call	23d00 <_free_r>
   2c748:	003fd606 	br	2c6a4 <_realloc_r+0x170>
   2c74c:	38c0330e 	bge	r7,r3,2c81c <_realloc_r+0x2e8>
   2c750:	900b883a 	mov	r5,r18
   2c754:	a809883a 	mov	r4,r21
   2c758:	00249240 	call	24924 <_malloc_r>
   2c75c:	1025883a 	mov	r18,r2
   2c760:	10001626 	beq	r2,zero,2c7bc <_realloc_r+0x288>
   2c764:	80bfff17 	ldw	r2,-4(r16)
   2c768:	00ffff84 	movi	r3,-2
   2c76c:	913ffe04 	addi	r4,r18,-8
   2c770:	10c6703a 	and	r3,r2,r3
   2c774:	b0c7883a 	add	r3,r22,r3
   2c778:	20c09926 	beq	r4,r3,2c9e0 <_realloc_r+0x4ac>
   2c77c:	99bfff04 	addi	r6,r19,-4
   2c780:	00800904 	movi	r2,36
   2c784:	11806436 	bltu	r2,r6,2c918 <_realloc_r+0x3e4>
   2c788:	00c004c4 	movi	r3,19
   2c78c:	19804036 	bltu	r3,r6,2c890 <_realloc_r+0x35c>
   2c790:	9005883a 	mov	r2,r18
   2c794:	8007883a 	mov	r3,r16
   2c798:	19000017 	ldw	r4,0(r3)
   2c79c:	11000015 	stw	r4,0(r2)
   2c7a0:	19000117 	ldw	r4,4(r3)
   2c7a4:	11000115 	stw	r4,4(r2)
   2c7a8:	18c00217 	ldw	r3,8(r3)
   2c7ac:	10c00215 	stw	r3,8(r2)
   2c7b0:	a809883a 	mov	r4,r21
   2c7b4:	800b883a 	mov	r5,r16
   2c7b8:	0023d000 	call	23d00 <_free_r>
   2c7bc:	a809883a 	mov	r4,r21
   2c7c0:	00326180 	call	32618 <__malloc_unlock>
   2c7c4:	003fba06 	br	2c6b0 <_realloc_r+0x17c>
   2c7c8:	300b883a 	mov	r5,r6
   2c7cc:	dfc00a17 	ldw	ra,40(sp)
   2c7d0:	df000917 	ldw	fp,36(sp)
   2c7d4:	ddc00817 	ldw	r23,32(sp)
   2c7d8:	dd800717 	ldw	r22,28(sp)
   2c7dc:	dd400617 	ldw	r21,24(sp)
   2c7e0:	dd000517 	ldw	r20,20(sp)
   2c7e4:	dcc00417 	ldw	r19,16(sp)
   2c7e8:	dc800317 	ldw	r18,12(sp)
   2c7ec:	dc400217 	ldw	r17,8(sp)
   2c7f0:	dc000117 	ldw	r16,4(sp)
   2c7f4:	dec00b04 	addi	sp,sp,44
   2c7f8:	00249241 	jmpi	24924 <_malloc_r>
   2c7fc:	29800117 	ldw	r6,4(r5)
   2c800:	013fff04 	movi	r4,-4
   2c804:	89c00404 	addi	r7,r17,16
   2c808:	310c703a 	and	r6,r6,r4
   2c80c:	34c9883a 	add	r4,r6,r19
   2c810:	21c0340e 	bge	r4,r7,2c8e4 <_realloc_r+0x3b0>
   2c814:	2809883a 	mov	r4,r5
   2c818:	003f7106 	br	2c5e0 <_realloc_r+0xac>
   2c81c:	b8800317 	ldw	r2,12(r23)
   2c820:	b8c00217 	ldw	r3,8(r23)
   2c824:	99bfff04 	addi	r6,r19,-4
   2c828:	01000904 	movi	r4,36
   2c82c:	18800315 	stw	r2,12(r3)
   2c830:	10c00215 	stw	r3,8(r2)
   2c834:	bc800204 	addi	r18,r23,8
   2c838:	21807836 	bltu	r4,r6,2ca1c <_realloc_r+0x4e8>
   2c83c:	008004c4 	movi	r2,19
   2c840:	1180732e 	bgeu	r2,r6,2ca10 <_realloc_r+0x4dc>
   2c844:	80800017 	ldw	r2,0(r16)
   2c848:	b8800215 	stw	r2,8(r23)
   2c84c:	80800117 	ldw	r2,4(r16)
   2c850:	b8800315 	stw	r2,12(r23)
   2c854:	008006c4 	movi	r2,27
   2c858:	11808936 	bltu	r2,r6,2ca80 <_realloc_r+0x54c>
   2c85c:	b8800404 	addi	r2,r23,16
   2c860:	80c00204 	addi	r3,r16,8
   2c864:	19000017 	ldw	r4,0(r3)
   2c868:	9021883a 	mov	r16,r18
   2c86c:	3829883a 	mov	r20,r7
   2c870:	11000015 	stw	r4,0(r2)
   2c874:	19000117 	ldw	r4,4(r3)
   2c878:	b82d883a 	mov	r22,r23
   2c87c:	11000115 	stw	r4,4(r2)
   2c880:	18c00217 	ldw	r3,8(r3)
   2c884:	10c00215 	stw	r3,8(r2)
   2c888:	b8800117 	ldw	r2,4(r23)
   2c88c:	003f7b06 	br	2c67c <_realloc_r+0x148>
   2c890:	80c00017 	ldw	r3,0(r16)
   2c894:	90c00015 	stw	r3,0(r18)
   2c898:	80c00117 	ldw	r3,4(r16)
   2c89c:	90c00115 	stw	r3,4(r18)
   2c8a0:	00c006c4 	movi	r3,27
   2c8a4:	19804636 	bltu	r3,r6,2c9c0 <_realloc_r+0x48c>
   2c8a8:	90800204 	addi	r2,r18,8
   2c8ac:	80c00204 	addi	r3,r16,8
   2c8b0:	003fb906 	br	2c798 <_realloc_r+0x264>
   2c8b4:	9005883a 	mov	r2,r18
   2c8b8:	8007883a 	mov	r3,r16
   2c8bc:	19000017 	ldw	r4,0(r3)
   2c8c0:	9021883a 	mov	r16,r18
   2c8c4:	b82d883a 	mov	r22,r23
   2c8c8:	11000015 	stw	r4,0(r2)
   2c8cc:	19000117 	ldw	r4,4(r3)
   2c8d0:	11000115 	stw	r4,4(r2)
   2c8d4:	18c00217 	ldw	r3,8(r3)
   2c8d8:	10c00215 	stw	r3,8(r2)
   2c8dc:	b8800117 	ldw	r2,4(r23)
   2c8e0:	003f6606 	br	2c67c <_realloc_r+0x148>
   2c8e4:	2445c83a 	sub	r2,r4,r17
   2c8e8:	b46d883a 	add	r22,r22,r17
   2c8ec:	10800054 	ori	r2,r2,1
   2c8f0:	b0800115 	stw	r2,4(r22)
   2c8f4:	80bfff17 	ldw	r2,-4(r16)
   2c8f8:	a809883a 	mov	r4,r21
   2c8fc:	e5800215 	stw	r22,8(fp)
   2c900:	1080004c 	andi	r2,r2,1
   2c904:	88a2b03a 	or	r17,r17,r2
   2c908:	847fff15 	stw	r17,-4(r16)
   2c90c:	00326180 	call	32618 <__malloc_unlock>
   2c910:	8025883a 	mov	r18,r16
   2c914:	003f6606 	br	2c6b0 <_realloc_r+0x17c>
   2c918:	9009883a 	mov	r4,r18
   2c91c:	800b883a 	mov	r5,r16
   2c920:	002b2ec0 	call	2b2ec <memmove>
   2c924:	003fa206 	br	2c7b0 <_realloc_r+0x27c>
   2c928:	88800404 	addi	r2,r17,16
   2c92c:	a0bf8716 	blt	r20,r2,2c74c <_realloc_r+0x218>
   2c930:	b8800317 	ldw	r2,12(r23)
   2c934:	b8c00217 	ldw	r3,8(r23)
   2c938:	99bfff04 	addi	r6,r19,-4
   2c93c:	01000904 	movi	r4,36
   2c940:	18800315 	stw	r2,12(r3)
   2c944:	10c00215 	stw	r3,8(r2)
   2c948:	bc800204 	addi	r18,r23,8
   2c94c:	21806536 	bltu	r4,r6,2cae4 <_realloc_r+0x5b0>
   2c950:	008004c4 	movi	r2,19
   2c954:	1180592e 	bgeu	r2,r6,2cabc <_realloc_r+0x588>
   2c958:	80800017 	ldw	r2,0(r16)
   2c95c:	b8800215 	stw	r2,8(r23)
   2c960:	80800117 	ldw	r2,4(r16)
   2c964:	b8800315 	stw	r2,12(r23)
   2c968:	008006c4 	movi	r2,27
   2c96c:	11806136 	bltu	r2,r6,2caf4 <_realloc_r+0x5c0>
   2c970:	b8800404 	addi	r2,r23,16
   2c974:	80c00204 	addi	r3,r16,8
   2c978:	19000017 	ldw	r4,0(r3)
   2c97c:	11000015 	stw	r4,0(r2)
   2c980:	19000117 	ldw	r4,4(r3)
   2c984:	11000115 	stw	r4,4(r2)
   2c988:	18c00217 	ldw	r3,8(r3)
   2c98c:	10c00215 	stw	r3,8(r2)
   2c990:	a447c83a 	sub	r3,r20,r17
   2c994:	bc45883a 	add	r2,r23,r17
   2c998:	18c00054 	ori	r3,r3,1
   2c99c:	10c00115 	stw	r3,4(r2)
   2c9a0:	b8c00117 	ldw	r3,4(r23)
   2c9a4:	e0800215 	stw	r2,8(fp)
   2c9a8:	a809883a 	mov	r4,r21
   2c9ac:	1880004c 	andi	r2,r3,1
   2c9b0:	88a2b03a 	or	r17,r17,r2
   2c9b4:	bc400115 	stw	r17,4(r23)
   2c9b8:	00326180 	call	32618 <__malloc_unlock>
   2c9bc:	003f3c06 	br	2c6b0 <_realloc_r+0x17c>
   2c9c0:	80c00217 	ldw	r3,8(r16)
   2c9c4:	90c00215 	stw	r3,8(r18)
   2c9c8:	80c00317 	ldw	r3,12(r16)
   2c9cc:	90c00315 	stw	r3,12(r18)
   2c9d0:	30802426 	beq	r6,r2,2ca64 <_realloc_r+0x530>
   2c9d4:	90800404 	addi	r2,r18,16
   2c9d8:	80c00404 	addi	r3,r16,16
   2c9dc:	003f6e06 	br	2c798 <_realloc_r+0x264>
   2c9e0:	953fff17 	ldw	r20,-4(r18)
   2c9e4:	00ffff04 	movi	r3,-4
   2c9e8:	a0e8703a 	and	r20,r20,r3
   2c9ec:	a4e9883a 	add	r20,r20,r19
   2c9f0:	003f2206 	br	2c67c <_realloc_r+0x148>
   2c9f4:	800b883a 	mov	r5,r16
   2c9f8:	9009883a 	mov	r4,r18
   2c9fc:	002b2ec0 	call	2b2ec <memmove>
   2ca00:	9021883a 	mov	r16,r18
   2ca04:	b8800117 	ldw	r2,4(r23)
   2ca08:	b82d883a 	mov	r22,r23
   2ca0c:	003f1b06 	br	2c67c <_realloc_r+0x148>
   2ca10:	9005883a 	mov	r2,r18
   2ca14:	8007883a 	mov	r3,r16
   2ca18:	003f9206 	br	2c864 <_realloc_r+0x330>
   2ca1c:	800b883a 	mov	r5,r16
   2ca20:	9009883a 	mov	r4,r18
   2ca24:	d9c00015 	stw	r7,0(sp)
   2ca28:	002b2ec0 	call	2b2ec <memmove>
   2ca2c:	d9c00017 	ldw	r7,0(sp)
   2ca30:	9021883a 	mov	r16,r18
   2ca34:	b8800117 	ldw	r2,4(r23)
   2ca38:	3829883a 	mov	r20,r7
   2ca3c:	b82d883a 	mov	r22,r23
   2ca40:	003f0e06 	br	2c67c <_realloc_r+0x148>
   2ca44:	80800217 	ldw	r2,8(r16)
   2ca48:	b8800415 	stw	r2,16(r23)
   2ca4c:	80800317 	ldw	r2,12(r16)
   2ca50:	b8800515 	stw	r2,20(r23)
   2ca54:	31001226 	beq	r6,r4,2caa0 <_realloc_r+0x56c>
   2ca58:	b8800604 	addi	r2,r23,24
   2ca5c:	80c00404 	addi	r3,r16,16
   2ca60:	003f9606 	br	2c8bc <_realloc_r+0x388>
   2ca64:	81000417 	ldw	r4,16(r16)
   2ca68:	90800604 	addi	r2,r18,24
   2ca6c:	80c00604 	addi	r3,r16,24
   2ca70:	91000415 	stw	r4,16(r18)
   2ca74:	81000517 	ldw	r4,20(r16)
   2ca78:	91000515 	stw	r4,20(r18)
   2ca7c:	003f4606 	br	2c798 <_realloc_r+0x264>
   2ca80:	80800217 	ldw	r2,8(r16)
   2ca84:	b8800415 	stw	r2,16(r23)
   2ca88:	80800317 	ldw	r2,12(r16)
   2ca8c:	b8800515 	stw	r2,20(r23)
   2ca90:	31000d26 	beq	r6,r4,2cac8 <_realloc_r+0x594>
   2ca94:	b8800604 	addi	r2,r23,24
   2ca98:	80c00404 	addi	r3,r16,16
   2ca9c:	003f7106 	br	2c864 <_realloc_r+0x330>
   2caa0:	81000417 	ldw	r4,16(r16)
   2caa4:	b8800804 	addi	r2,r23,32
   2caa8:	80c00604 	addi	r3,r16,24
   2caac:	b9000615 	stw	r4,24(r23)
   2cab0:	81000517 	ldw	r4,20(r16)
   2cab4:	b9000715 	stw	r4,28(r23)
   2cab8:	003f8006 	br	2c8bc <_realloc_r+0x388>
   2cabc:	9005883a 	mov	r2,r18
   2cac0:	8007883a 	mov	r3,r16
   2cac4:	003fac06 	br	2c978 <_realloc_r+0x444>
   2cac8:	81000417 	ldw	r4,16(r16)
   2cacc:	b8800804 	addi	r2,r23,32
   2cad0:	80c00604 	addi	r3,r16,24
   2cad4:	b9000615 	stw	r4,24(r23)
   2cad8:	81000517 	ldw	r4,20(r16)
   2cadc:	b9000715 	stw	r4,28(r23)
   2cae0:	003f6006 	br	2c864 <_realloc_r+0x330>
   2cae4:	9009883a 	mov	r4,r18
   2cae8:	800b883a 	mov	r5,r16
   2caec:	002b2ec0 	call	2b2ec <memmove>
   2caf0:	003fa706 	br	2c990 <_realloc_r+0x45c>
   2caf4:	80800217 	ldw	r2,8(r16)
   2caf8:	b8800415 	stw	r2,16(r23)
   2cafc:	80800317 	ldw	r2,12(r16)
   2cb00:	b8800515 	stw	r2,20(r23)
   2cb04:	31000326 	beq	r6,r4,2cb14 <_realloc_r+0x5e0>
   2cb08:	b8800604 	addi	r2,r23,24
   2cb0c:	80c00404 	addi	r3,r16,16
   2cb10:	003f9906 	br	2c978 <_realloc_r+0x444>
   2cb14:	81000417 	ldw	r4,16(r16)
   2cb18:	b8800804 	addi	r2,r23,32
   2cb1c:	80c00604 	addi	r3,r16,24
   2cb20:	b9000615 	stw	r4,24(r23)
   2cb24:	81000517 	ldw	r4,20(r16)
   2cb28:	b9000715 	stw	r4,28(r23)
   2cb2c:	003f9206 	br	2c978 <_realloc_r+0x444>

0002cb30 <__isinfd>:
   2cb30:	0105c83a 	sub	r2,zero,r4
   2cb34:	1108b03a 	or	r4,r2,r4
   2cb38:	2004d7fa 	srli	r2,r4,31
   2cb3c:	00e00034 	movhi	r3,32768
   2cb40:	18ffffc4 	addi	r3,r3,-1
   2cb44:	28ca703a 	and	r5,r5,r3
   2cb48:	1144b03a 	or	r2,r2,r5
   2cb4c:	00dffc34 	movhi	r3,32752
   2cb50:	1885c83a 	sub	r2,r3,r2
   2cb54:	0087c83a 	sub	r3,zero,r2
   2cb58:	1884b03a 	or	r2,r3,r2
   2cb5c:	1005d7fa 	srai	r2,r2,31
   2cb60:	10800044 	addi	r2,r2,1
   2cb64:	f800283a 	ret

0002cb68 <__isnand>:
   2cb68:	0105c83a 	sub	r2,zero,r4
   2cb6c:	1108b03a 	or	r4,r2,r4
   2cb70:	2004d7fa 	srli	r2,r4,31
   2cb74:	00e00034 	movhi	r3,32768
   2cb78:	18ffffc4 	addi	r3,r3,-1
   2cb7c:	28ca703a 	and	r5,r5,r3
   2cb80:	1144b03a 	or	r2,r2,r5
   2cb84:	00dffc34 	movhi	r3,32752
   2cb88:	1885c83a 	sub	r2,r3,r2
   2cb8c:	1004d7fa 	srli	r2,r2,31
   2cb90:	f800283a 	ret

0002cb94 <__sccl>:
   2cb94:	2a400003 	ldbu	r9,0(r5)
   2cb98:	00801784 	movi	r2,94
   2cb9c:	48802626 	beq	r9,r2,2cc38 <__sccl+0xa4>
   2cba0:	28800044 	addi	r2,r5,1
   2cba4:	0011883a 	mov	r8,zero
   2cba8:	000b883a 	mov	r5,zero
   2cbac:	0007883a 	mov	r3,zero
   2cbb0:	01c04004 	movi	r7,256
   2cbb4:	20cd883a 	add	r6,r4,r3
   2cbb8:	32000005 	stb	r8,0(r6)
   2cbbc:	18c00044 	addi	r3,r3,1
   2cbc0:	19fffc1e 	bne	r3,r7,2cbb4 <__sccl+0x20>
   2cbc4:	48000f26 	beq	r9,zero,2cc04 <__sccl+0x70>
   2cbc8:	01800044 	movi	r6,1
   2cbcc:	314dc83a 	sub	r6,r6,r5
   2cbd0:	02001744 	movi	r8,93
   2cbd4:	01400b44 	movi	r5,45
   2cbd8:	2247883a 	add	r3,r4,r9
   2cbdc:	19800005 	stb	r6,0(r3)
   2cbe0:	10c00003 	ldbu	r3,0(r2)
   2cbe4:	11c00044 	addi	r7,r2,1
   2cbe8:	19400a26 	beq	r3,r5,2cc14 <__sccl+0x80>
   2cbec:	1a000726 	beq	r3,r8,2cc0c <__sccl+0x78>
   2cbf0:	1800011e 	bne	r3,zero,2cbf8 <__sccl+0x64>
   2cbf4:	f800283a 	ret
   2cbf8:	1813883a 	mov	r9,r3
   2cbfc:	3805883a 	mov	r2,r7
   2cc00:	003ff506 	br	2cbd8 <__sccl+0x44>
   2cc04:	10bfffc4 	addi	r2,r2,-1
   2cc08:	f800283a 	ret
   2cc0c:	3805883a 	mov	r2,r7
   2cc10:	f800283a 	ret
   2cc14:	10c00043 	ldbu	r3,1(r2)
   2cc18:	1a000c26 	beq	r3,r8,2cc4c <__sccl+0xb8>
   2cc1c:	1a400b16 	blt	r3,r9,2cc4c <__sccl+0xb8>
   2cc20:	10800084 	addi	r2,r2,2
   2cc24:	4a400044 	addi	r9,r9,1
   2cc28:	224f883a 	add	r7,r4,r9
   2cc2c:	39800005 	stb	r6,0(r7)
   2cc30:	48fffc16 	blt	r9,r3,2cc24 <__sccl+0x90>
   2cc34:	003fea06 	br	2cbe0 <__sccl+0x4c>
   2cc38:	2a400043 	ldbu	r9,1(r5)
   2cc3c:	28800084 	addi	r2,r5,2
   2cc40:	02000044 	movi	r8,1
   2cc44:	01400044 	movi	r5,1
   2cc48:	003fd806 	br	2cbac <__sccl+0x18>
   2cc4c:	2813883a 	mov	r9,r5
   2cc50:	3805883a 	mov	r2,r7
   2cc54:	003fe006 	br	2cbd8 <__sccl+0x44>

0002cc58 <nanf>:
   2cc58:	009ff034 	movhi	r2,32704
   2cc5c:	f800283a 	ret

0002cc60 <_sprintf_r>:
   2cc60:	deffe704 	addi	sp,sp,-100
   2cc64:	2807883a 	mov	r3,r5
   2cc68:	dfc01715 	stw	ra,92(sp)
   2cc6c:	d9c01815 	stw	r7,96(sp)
   2cc70:	00a00034 	movhi	r2,32768
   2cc74:	10bfffc4 	addi	r2,r2,-1
   2cc78:	02008204 	movi	r8,520
   2cc7c:	d8800215 	stw	r2,8(sp)
   2cc80:	d8800515 	stw	r2,20(sp)
   2cc84:	d80b883a 	mov	r5,sp
   2cc88:	d9c01804 	addi	r7,sp,96
   2cc8c:	00bfffc4 	movi	r2,-1
   2cc90:	d8c00015 	stw	r3,0(sp)
   2cc94:	d8c00415 	stw	r3,16(sp)
   2cc98:	da00030d 	sth	r8,12(sp)
   2cc9c:	d880038d 	sth	r2,14(sp)
   2cca0:	00258e80 	call	258e8 <___vfprintf_internal_r>
   2cca4:	d8c00017 	ldw	r3,0(sp)
   2cca8:	18000005 	stb	zero,0(r3)
   2ccac:	dfc01717 	ldw	ra,92(sp)
   2ccb0:	dec01904 	addi	sp,sp,100
   2ccb4:	f800283a 	ret

0002ccb8 <sprintf>:
   2ccb8:	deffe604 	addi	sp,sp,-104
   2ccbc:	2007883a 	mov	r3,r4
   2ccc0:	dfc01715 	stw	ra,92(sp)
   2ccc4:	d9801815 	stw	r6,96(sp)
   2ccc8:	d9c01915 	stw	r7,100(sp)
   2cccc:	008000f4 	movhi	r2,3
   2ccd0:	1096ef04 	addi	r2,r2,23484
   2ccd4:	11000017 	ldw	r4,0(r2)
   2ccd8:	00a00034 	movhi	r2,32768
   2ccdc:	10bfffc4 	addi	r2,r2,-1
   2cce0:	280d883a 	mov	r6,r5
   2cce4:	02008204 	movi	r8,520
   2cce8:	d8800215 	stw	r2,8(sp)
   2ccec:	d8800515 	stw	r2,20(sp)
   2ccf0:	d80b883a 	mov	r5,sp
   2ccf4:	d9c01804 	addi	r7,sp,96
   2ccf8:	00bfffc4 	movi	r2,-1
   2ccfc:	d8c00015 	stw	r3,0(sp)
   2cd00:	d8c00415 	stw	r3,16(sp)
   2cd04:	da00030d 	sth	r8,12(sp)
   2cd08:	d880038d 	sth	r2,14(sp)
   2cd0c:	00258e80 	call	258e8 <___vfprintf_internal_r>
   2cd10:	d8c00017 	ldw	r3,0(sp)
   2cd14:	18000005 	stb	zero,0(r3)
   2cd18:	dfc01717 	ldw	ra,92(sp)
   2cd1c:	dec01a04 	addi	sp,sp,104
   2cd20:	f800283a 	ret

0002cd24 <strcmp>:
   2cd24:	2904b03a 	or	r2,r5,r4
   2cd28:	108000cc 	andi	r2,r2,3
   2cd2c:	1000171e 	bne	r2,zero,2cd8c <strcmp+0x68>
   2cd30:	20800017 	ldw	r2,0(r4)
   2cd34:	28c00017 	ldw	r3,0(r5)
   2cd38:	10c0141e 	bne	r2,r3,2cd8c <strcmp+0x68>
   2cd3c:	027fbff4 	movhi	r9,65279
   2cd40:	4a7fbfc4 	addi	r9,r9,-257
   2cd44:	1247883a 	add	r3,r2,r9
   2cd48:	0084303a 	nor	r2,zero,r2
   2cd4c:	1884703a 	and	r2,r3,r2
   2cd50:	02202074 	movhi	r8,32897
   2cd54:	42202004 	addi	r8,r8,-32640
   2cd58:	1204703a 	and	r2,r2,r8
   2cd5c:	10000226 	beq	r2,zero,2cd68 <strcmp+0x44>
   2cd60:	00001706 	br	2cdc0 <strcmp+0x9c>
   2cd64:	3000161e 	bne	r6,zero,2cdc0 <strcmp+0x9c>
   2cd68:	21000104 	addi	r4,r4,4
   2cd6c:	20800017 	ldw	r2,0(r4)
   2cd70:	29400104 	addi	r5,r5,4
   2cd74:	28c00017 	ldw	r3,0(r5)
   2cd78:	124f883a 	add	r7,r2,r9
   2cd7c:	008c303a 	nor	r6,zero,r2
   2cd80:	398c703a 	and	r6,r7,r6
   2cd84:	320c703a 	and	r6,r6,r8
   2cd88:	10fff626 	beq	r2,r3,2cd64 <strcmp+0x40>
   2cd8c:	20800007 	ldb	r2,0(r4)
   2cd90:	1000051e 	bne	r2,zero,2cda8 <strcmp+0x84>
   2cd94:	00000606 	br	2cdb0 <strcmp+0x8c>
   2cd98:	21000044 	addi	r4,r4,1
   2cd9c:	20800007 	ldb	r2,0(r4)
   2cda0:	29400044 	addi	r5,r5,1
   2cda4:	10000226 	beq	r2,zero,2cdb0 <strcmp+0x8c>
   2cda8:	28c00007 	ldb	r3,0(r5)
   2cdac:	10fffa26 	beq	r2,r3,2cd98 <strcmp+0x74>
   2cdb0:	20c00003 	ldbu	r3,0(r4)
   2cdb4:	28800003 	ldbu	r2,0(r5)
   2cdb8:	1885c83a 	sub	r2,r3,r2
   2cdbc:	f800283a 	ret
   2cdc0:	0005883a 	mov	r2,zero
   2cdc4:	f800283a 	ret

0002cdc8 <_strtod_r>:
   2cdc8:	deffdc04 	addi	sp,sp,-144
   2cdcc:	dc001a15 	stw	r16,104(sp)
   2cdd0:	d9400e15 	stw	r5,56(sp)
   2cdd4:	d9801115 	stw	r6,68(sp)
   2cdd8:	d9400c15 	stw	r5,48(sp)
   2cddc:	2805883a 	mov	r2,r5
   2cde0:	dfc02315 	stw	ra,140(sp)
   2cde4:	df002215 	stw	fp,136(sp)
   2cde8:	ddc02115 	stw	r23,132(sp)
   2cdec:	dd802015 	stw	r22,128(sp)
   2cdf0:	dd401f15 	stw	r21,124(sp)
   2cdf4:	dd001e15 	stw	r20,120(sp)
   2cdf8:	dcc01d15 	stw	r19,116(sp)
   2cdfc:	dc801c15 	stw	r18,112(sp)
   2ce00:	dc401b15 	stw	r17,108(sp)
   2ce04:	2021883a 	mov	r16,r4
   2ce08:	d8000615 	stw	zero,24(sp)
   2ce0c:	d8000715 	stw	zero,28(sp)
   2ce10:	01400b44 	movi	r5,45
   2ce14:	018000f4 	movhi	r6,3
   2ce18:	31b3db04 	addi	r6,r6,-12436
   2ce1c:	10c00003 	ldbu	r3,0(r2)
   2ce20:	19003fcc 	andi	r4,r3,255
   2ce24:	29004c2e 	bgeu	r5,r4,2cf58 <_strtod_r+0x190>
   2ce28:	1c803fcc 	andi	r18,r3,255
   2ce2c:	9480201c 	xori	r18,r18,128
   2ce30:	102d883a 	mov	r22,r2
   2ce34:	d8001215 	stw	zero,72(sp)
   2ce38:	94bfe004 	addi	r18,r18,-128
   2ce3c:	00800c04 	movi	r2,48
   2ce40:	9080f526 	beq	r18,r2,2d218 <_strtod_r+0x450>
   2ce44:	d8001315 	stw	zero,76(sp)
   2ce48:	04c00bc4 	movi	r19,47
   2ce4c:	900f883a 	mov	r7,r18
   2ce50:	9c84770e 	bge	r19,r18,2e030 <_strtod_r+0x1268>
   2ce54:	05c00e44 	movi	r23,57
   2ce58:	bc847a16 	blt	r23,r18,2e044 <_strtod_r+0x127c>
   2ce5c:	0039883a 	mov	fp,zero
   2ce60:	b4400044 	addi	r17,r22,1
   2ce64:	dd801015 	stw	r22,64(sp)
   2ce68:	d8000f15 	stw	zero,60(sp)
   2ce6c:	e02d883a 	mov	r22,fp
   2ce70:	002b883a 	mov	r21,zero
   2ce74:	8039883a 	mov	fp,r16
   2ce78:	05000204 	movi	r20,8
   2ce7c:	0021883a 	mov	r16,zero
   2ce80:	a5408c16 	blt	r20,r21,2d0b4 <_strtod_r+0x2ec>
   2ce84:	b009883a 	mov	r4,r22
   2ce88:	01400284 	movi	r5,10
   2ce8c:	0022d140 	call	22d14 <__mulsi3>
   2ce90:	1485883a 	add	r2,r2,r18
   2ce94:	15bff404 	addi	r22,r2,-48
   2ce98:	dc400c15 	stw	r17,48(sp)
   2ce9c:	8c800007 	ldb	r18,0(r17)
   2cea0:	ad400044 	addi	r21,r21,1
   2cea4:	880b883a 	mov	r5,r17
   2cea8:	900f883a 	mov	r7,r18
   2ceac:	9c808e0e 	bge	r19,r18,2d0e8 <_strtod_r+0x320>
   2ceb0:	8c400044 	addi	r17,r17,1
   2ceb4:	bcbff20e 	bge	r23,r18,2ce80 <_strtod_r+0xb8>
   2ceb8:	dc000f15 	stw	r16,60(sp)
   2cebc:	e021883a 	mov	r16,fp
   2cec0:	b039883a 	mov	fp,r22
   2cec4:	dd801017 	ldw	r22,64(sp)
   2cec8:	a827883a 	mov	r19,r21
   2cecc:	dd801415 	stw	r22,80(sp)
   2ced0:	000d883a 	mov	r6,zero
   2ced4:	0029883a 	mov	r20,zero
   2ced8:	d8001015 	stw	zero,64(sp)
   2cedc:	00801944 	movi	r2,101
   2cee0:	3880dd26 	beq	r7,r2,2d258 <_strtod_r+0x490>
   2cee4:	00801144 	movi	r2,69
   2cee8:	3880db26 	beq	r7,r2,2d258 <_strtod_r+0x490>
   2ceec:	0009883a 	mov	r4,zero
   2cef0:	a8011d1e 	bne	r21,zero,2d368 <_strtod_r+0x5a0>
   2cef4:	3001591e 	bne	r6,zero,2d45c <_strtod_r+0x694>
   2cef8:	d8c01317 	ldw	r3,76(sp)
   2cefc:	1801571e 	bne	r3,zero,2d45c <_strtod_r+0x694>
   2cf00:	d8c01017 	ldw	r3,64(sp)
   2cf04:	1803081e 	bne	r3,zero,2db28 <_strtod_r+0xd60>
   2cf08:	00801384 	movi	r2,78
   2cf0c:	38847e26 	beq	r7,r2,2e108 <_strtod_r+0x1340>
   2cf10:	11c47916 	blt	r2,r7,2e0f8 <_strtod_r+0x1330>
   2cf14:	00801244 	movi	r2,73
   2cf18:	3883031e 	bne	r7,r2,2db28 <_strtod_r+0xd60>
   2cf1c:	d8800c17 	ldw	r2,48(sp)
   2cf20:	010000f4 	movhi	r4,3
   2cf24:	21141e04 	addi	r4,r4,20600
   2cf28:	01801004 	movi	r6,64
   2cf2c:	01c01684 	movi	r7,90
   2cf30:	21400007 	ldb	r5,0(r4)
   2cf34:	21000044 	addi	r4,r4,1
   2cf38:	2804b426 	beq	r5,zero,2e20c <_strtod_r+0x1444>
   2cf3c:	10800044 	addi	r2,r2,1
   2cf40:	10c00007 	ldb	r3,0(r2)
   2cf44:	30c0020e 	bge	r6,r3,2cf50 <_strtod_r+0x188>
   2cf48:	38c00116 	blt	r7,r3,2cf50 <_strtod_r+0x188>
   2cf4c:	18c00804 	addi	r3,r3,32
   2cf50:	197ff726 	beq	r3,r5,2cf30 <_strtod_r+0x168>
   2cf54:	0002f406 	br	2db28 <_strtod_r+0xd60>
   2cf58:	2109883a 	add	r4,r4,r4
   2cf5c:	2109883a 	add	r4,r4,r4
   2cf60:	2189883a 	add	r4,r4,r6
   2cf64:	21000017 	ldw	r4,0(r4)
   2cf68:	2000683a 	jmp	r4
   2cf6c:	0002d038 	rdprs	zero,zero,2880
   2cf70:	0002ce28 	cmpgeui	zero,zero,2872
   2cf74:	0002ce28 	cmpgeui	zero,zero,2872
   2cf78:	0002ce28 	cmpgeui	zero,zero,2872
   2cf7c:	0002ce28 	cmpgeui	zero,zero,2872
   2cf80:	0002ce28 	cmpgeui	zero,zero,2872
   2cf84:	0002ce28 	cmpgeui	zero,zero,2872
   2cf88:	0002ce28 	cmpgeui	zero,zero,2872
   2cf8c:	0002ce28 	cmpgeui	zero,zero,2872
   2cf90:	0002d09c 	xori	zero,zero,2882
   2cf94:	0002d09c 	xori	zero,zero,2882
   2cf98:	0002d09c 	xori	zero,zero,2882
   2cf9c:	0002d09c 	xori	zero,zero,2882
   2cfa0:	0002d09c 	xori	zero,zero,2882
   2cfa4:	0002ce28 	cmpgeui	zero,zero,2872
   2cfa8:	0002ce28 	cmpgeui	zero,zero,2872
   2cfac:	0002ce28 	cmpgeui	zero,zero,2872
   2cfb0:	0002ce28 	cmpgeui	zero,zero,2872
   2cfb4:	0002ce28 	cmpgeui	zero,zero,2872
   2cfb8:	0002ce28 	cmpgeui	zero,zero,2872
   2cfbc:	0002ce28 	cmpgeui	zero,zero,2872
   2cfc0:	0002ce28 	cmpgeui	zero,zero,2872
   2cfc4:	0002ce28 	cmpgeui	zero,zero,2872
   2cfc8:	0002ce28 	cmpgeui	zero,zero,2872
   2cfcc:	0002ce28 	cmpgeui	zero,zero,2872
   2cfd0:	0002ce28 	cmpgeui	zero,zero,2872
   2cfd4:	0002ce28 	cmpgeui	zero,zero,2872
   2cfd8:	0002ce28 	cmpgeui	zero,zero,2872
   2cfdc:	0002ce28 	cmpgeui	zero,zero,2872
   2cfe0:	0002ce28 	cmpgeui	zero,zero,2872
   2cfe4:	0002ce28 	cmpgeui	zero,zero,2872
   2cfe8:	0002ce28 	cmpgeui	zero,zero,2872
   2cfec:	0002d09c 	xori	zero,zero,2882
   2cff0:	0002ce28 	cmpgeui	zero,zero,2872
   2cff4:	0002ce28 	cmpgeui	zero,zero,2872
   2cff8:	0002ce28 	cmpgeui	zero,zero,2872
   2cffc:	0002ce28 	cmpgeui	zero,zero,2872
   2d000:	0002ce28 	cmpgeui	zero,zero,2872
   2d004:	0002ce28 	cmpgeui	zero,zero,2872
   2d008:	0002ce28 	cmpgeui	zero,zero,2872
   2d00c:	0002ce28 	cmpgeui	zero,zero,2872
   2d010:	0002ce28 	cmpgeui	zero,zero,2872
   2d014:	0002ce28 	cmpgeui	zero,zero,2872
   2d018:	0002d024 	muli	zero,zero,2880
   2d01c:	0002ce28 	cmpgeui	zero,zero,2872
   2d020:	0002d0a8 	cmpgeui	zero,zero,2882
   2d024:	d8001215 	stw	zero,72(sp)
   2d028:	15800044 	addi	r22,r2,1
   2d02c:	dd800c15 	stw	r22,48(sp)
   2d030:	14800047 	ldb	r18,1(r2)
   2d034:	903f811e 	bne	r18,zero,2ce3c <_strtod_r+0x74>
   2d038:	0005883a 	mov	r2,zero
   2d03c:	0007883a 	mov	r3,zero
   2d040:	d9400e17 	ldw	r5,56(sp)
   2d044:	d8001215 	stw	zero,72(sp)
   2d048:	d9400c15 	stw	r5,48(sp)
   2d04c:	d9001117 	ldw	r4,68(sp)
   2d050:	20000326 	beq	r4,zero,2d060 <_strtod_r+0x298>
   2d054:	d9000c17 	ldw	r4,48(sp)
   2d058:	d9401117 	ldw	r5,68(sp)
   2d05c:	29000015 	stw	r4,0(r5)
   2d060:	d9001217 	ldw	r4,72(sp)
   2d064:	20000126 	beq	r4,zero,2d06c <_strtod_r+0x2a4>
   2d068:	18e0003c 	xorhi	r3,r3,32768
   2d06c:	dfc02317 	ldw	ra,140(sp)
   2d070:	df002217 	ldw	fp,136(sp)
   2d074:	ddc02117 	ldw	r23,132(sp)
   2d078:	dd802017 	ldw	r22,128(sp)
   2d07c:	dd401f17 	ldw	r21,124(sp)
   2d080:	dd001e17 	ldw	r20,120(sp)
   2d084:	dcc01d17 	ldw	r19,116(sp)
   2d088:	dc801c17 	ldw	r18,112(sp)
   2d08c:	dc401b17 	ldw	r17,108(sp)
   2d090:	dc001a17 	ldw	r16,104(sp)
   2d094:	dec02404 	addi	sp,sp,144
   2d098:	f800283a 	ret
   2d09c:	10800044 	addi	r2,r2,1
   2d0a0:	d8800c15 	stw	r2,48(sp)
   2d0a4:	003f5d06 	br	2ce1c <_strtod_r+0x54>
   2d0a8:	00c00044 	movi	r3,1
   2d0ac:	d8c01215 	stw	r3,72(sp)
   2d0b0:	003fdd06 	br	2d028 <_strtod_r+0x260>
   2d0b4:	010003c4 	movi	r4,15
   2d0b8:	257f7716 	blt	r4,r21,2ce98 <_strtod_r+0xd0>
   2d0bc:	8009883a 	mov	r4,r16
   2d0c0:	01400284 	movi	r5,10
   2d0c4:	0022d140 	call	22d14 <__mulsi3>
   2d0c8:	dc400c15 	stw	r17,48(sp)
   2d0cc:	1485883a 	add	r2,r2,r18
   2d0d0:	8c800007 	ldb	r18,0(r17)
   2d0d4:	143ff404 	addi	r16,r2,-48
   2d0d8:	ad400044 	addi	r21,r21,1
   2d0dc:	880b883a 	mov	r5,r17
   2d0e0:	900f883a 	mov	r7,r18
   2d0e4:	9cbf7216 	blt	r19,r18,2ceb0 <_strtod_r+0xe8>
   2d0e8:	dc000f15 	stw	r16,60(sp)
   2d0ec:	e021883a 	mov	r16,fp
   2d0f0:	b039883a 	mov	fp,r22
   2d0f4:	dd801017 	ldw	r22,64(sp)
   2d0f8:	00800b84 	movi	r2,46
   2d0fc:	9082561e 	bne	r18,r2,2da58 <_strtod_r+0xc90>
   2d100:	28800044 	addi	r2,r5,1
   2d104:	d8800c15 	stw	r2,48(sp)
   2d108:	29c00047 	ldb	r7,1(r5)
   2d10c:	a802611e 	bne	r21,zero,2da94 <_strtod_r+0xccc>
   2d110:	00800c04 	movi	r2,48
   2d114:	3884161e 	bne	r7,r2,2e170 <_strtod_r+0x13a8>
   2d118:	00800044 	movi	r2,1
   2d11c:	3809883a 	mov	r4,r7
   2d120:	100d883a 	mov	r6,r2
   2d124:	10800044 	addi	r2,r2,1
   2d128:	2887883a 	add	r3,r5,r2
   2d12c:	d8c00c15 	stw	r3,48(sp)
   2d130:	2987883a 	add	r3,r5,r6
   2d134:	19c00047 	ldb	r7,1(r3)
   2d138:	393ff926 	beq	r7,r4,2d120 <_strtod_r+0x358>
   2d13c:	38bff3c4 	addi	r2,r7,-49
   2d140:	00c00204 	movi	r3,8
   2d144:	1882ad36 	bltu	r3,r2,2dbfc <_strtod_r+0xe34>
   2d148:	d9400c17 	ldw	r5,48(sp)
   2d14c:	3029883a 	mov	r20,r6
   2d150:	002f883a 	mov	r23,zero
   2d154:	d9401415 	stw	r5,80(sp)
   2d158:	2823883a 	mov	r17,r5
   2d15c:	01800044 	movi	r6,1
   2d160:	3dbff404 	addi	r22,r7,-48
   2d164:	b0002826 	beq	r22,zero,2d208 <_strtod_r+0x440>
   2d168:	00800044 	movi	r2,1
   2d16c:	a1a9883a 	add	r20,r20,r6
   2d170:	30844826 	beq	r6,r2,2e294 <_strtod_r+0x14cc>
   2d174:	b9a7883a 	add	r19,r23,r6
   2d178:	dc401015 	stw	r17,64(sp)
   2d17c:	e023883a 	mov	r17,fp
   2d180:	b039883a 	mov	fp,r22
   2d184:	802d883a 	mov	r22,r16
   2d188:	dc000f17 	ldw	r16,60(sp)
   2d18c:	98ffffc4 	addi	r3,r19,-1
   2d190:	dd001615 	stw	r20,88(sp)
   2d194:	04800204 	movi	r18,8
   2d198:	d9801515 	stw	r6,84(sp)
   2d19c:	b829883a 	mov	r20,r23
   2d1a0:	1827883a 	mov	r19,r3
   2d1a4:	a5000044 	addi	r20,r20,1
   2d1a8:	a17fffc4 	addi	r5,r20,-1
   2d1ac:	9142b916 	blt	r18,r5,2dc94 <_strtod_r+0xecc>
   2d1b0:	8809883a 	mov	r4,r17
   2d1b4:	01400284 	movi	r5,10
   2d1b8:	0022d140 	call	22d14 <__mulsi3>
   2d1bc:	1023883a 	mov	r17,r2
   2d1c0:	a4fff81e 	bne	r20,r19,2d1a4 <_strtod_r+0x3dc>
   2d1c4:	d9801517 	ldw	r6,84(sp)
   2d1c8:	dc000f15 	stw	r16,60(sp)
   2d1cc:	dd001617 	ldw	r20,88(sp)
   2d1d0:	b021883a 	mov	r16,r22
   2d1d4:	e02d883a 	mov	r22,fp
   2d1d8:	8839883a 	mov	fp,r17
   2d1dc:	dc401017 	ldw	r17,64(sp)
   2d1e0:	b985883a 	add	r2,r23,r6
   2d1e4:	10bfffc4 	addi	r2,r2,-1
   2d1e8:	00c00204 	movi	r3,8
   2d1ec:	15c00044 	addi	r23,r2,1
   2d1f0:	1883d616 	blt	r3,r2,2e14c <_strtod_r+0x1384>
   2d1f4:	e009883a 	mov	r4,fp
   2d1f8:	01400284 	movi	r5,10
   2d1fc:	0022d140 	call	22d14 <__mulsi3>
   2d200:	15b9883a 	add	fp,r2,r22
   2d204:	000d883a 	mov	r6,zero
   2d208:	88800044 	addi	r2,r17,1
   2d20c:	d8800c15 	stw	r2,48(sp)
   2d210:	89c00047 	ldb	r7,1(r17)
   2d214:	00022306 	br	2daa4 <_strtod_r+0xcdc>
   2d218:	b0800047 	ldb	r2,1(r22)
   2d21c:	01001604 	movi	r4,88
   2d220:	1102a326 	beq	r2,r4,2dcb0 <_strtod_r+0xee8>
   2d224:	01001e04 	movi	r4,120
   2d228:	1102a126 	beq	r2,r4,2dcb0 <_strtod_r+0xee8>
   2d22c:	b0800044 	addi	r2,r22,1
   2d230:	9009883a 	mov	r4,r18
   2d234:	d8800c15 	stw	r2,48(sp)
   2d238:	14800007 	ldb	r18,0(r2)
   2d23c:	102d883a 	mov	r22,r2
   2d240:	10800044 	addi	r2,r2,1
   2d244:	913ffb26 	beq	r18,r4,2d234 <_strtod_r+0x46c>
   2d248:	90022526 	beq	r18,zero,2dae0 <_strtod_r+0xd18>
   2d24c:	00c00044 	movi	r3,1
   2d250:	d8c01315 	stw	r3,76(sp)
   2d254:	003efc06 	br	2ce48 <_strtod_r+0x80>
   2d258:	a800011e 	bne	r21,zero,2d260 <_strtod_r+0x498>
   2d25c:	30023026 	beq	r6,zero,2db20 <_strtod_r+0xd58>
   2d260:	d9400c17 	ldw	r5,48(sp)
   2d264:	28800044 	addi	r2,r5,1
   2d268:	d8800c15 	stw	r2,48(sp)
   2d26c:	29c00047 	ldb	r7,1(r5)
   2d270:	d9400e15 	stw	r5,56(sp)
   2d274:	00800ac4 	movi	r2,43
   2d278:	38821026 	beq	r7,r2,2dabc <_strtod_r+0xcf4>
   2d27c:	00800b44 	movi	r2,45
   2d280:	38821426 	beq	r7,r2,2dad4 <_strtod_r+0xd0c>
   2d284:	d8001515 	stw	zero,84(sp)
   2d288:	38bff404 	addi	r2,r7,-48
   2d28c:	00c00244 	movi	r3,9
   2d290:	1881fc36 	bltu	r3,r2,2da84 <_strtod_r+0xcbc>
   2d294:	00800c04 	movi	r2,48
   2d298:	3880071e 	bne	r7,r2,2d2b8 <_strtod_r+0x4f0>
   2d29c:	d8800c17 	ldw	r2,48(sp)
   2d2a0:	3807883a 	mov	r3,r7
   2d2a4:	10800044 	addi	r2,r2,1
   2d2a8:	d8800c15 	stw	r2,48(sp)
   2d2ac:	11c00007 	ldb	r7,0(r2)
   2d2b0:	10800044 	addi	r2,r2,1
   2d2b4:	38fffc26 	beq	r7,r3,2d2a8 <_strtod_r+0x4e0>
   2d2b8:	38bff3c4 	addi	r2,r7,-49
   2d2bc:	00c00204 	movi	r3,8
   2d2c0:	18bf0a36 	bltu	r3,r2,2ceec <_strtod_r+0x124>
   2d2c4:	d8c00c17 	ldw	r3,48(sp)
   2d2c8:	393ff404 	addi	r4,r7,-48
   2d2cc:	05c00bc4 	movi	r23,47
   2d2d0:	18800044 	addi	r2,r3,1
   2d2d4:	d8800c15 	stw	r2,48(sp)
   2d2d8:	19c00047 	ldb	r7,1(r3)
   2d2dc:	d8c01615 	stw	r3,88(sp)
   2d2e0:	b9c0160e 	bge	r23,r7,2d33c <_strtod_r+0x574>
   2d2e4:	00c00e44 	movi	r3,57
   2d2e8:	19c01416 	blt	r3,r7,2d33c <_strtod_r+0x574>
   2d2ec:	d9401617 	ldw	r5,88(sp)
   2d2f0:	dc001715 	stw	r16,92(sp)
   2d2f4:	1823883a 	mov	r17,r3
   2d2f8:	2d800084 	addi	r22,r5,2
   2d2fc:	3025883a 	mov	r18,r6
   2d300:	3821883a 	mov	r16,r7
   2d304:	00000206 	br	2d310 <_strtod_r+0x548>
   2d308:	b5800044 	addi	r22,r22,1
   2d30c:	8c000816 	blt	r17,r16,2d330 <_strtod_r+0x568>
   2d310:	01400284 	movi	r5,10
   2d314:	0022d140 	call	22d14 <__mulsi3>
   2d318:	dd800c15 	stw	r22,48(sp)
   2d31c:	1405883a 	add	r2,r2,r16
   2d320:	b4000007 	ldb	r16,0(r22)
   2d324:	113ff404 	addi	r4,r2,-48
   2d328:	b005883a 	mov	r2,r22
   2d32c:	bc3ff616 	blt	r23,r16,2d308 <_strtod_r+0x540>
   2d330:	800f883a 	mov	r7,r16
   2d334:	dc001717 	ldw	r16,92(sp)
   2d338:	900d883a 	mov	r6,r18
   2d33c:	d8c01617 	ldw	r3,88(sp)
   2d340:	10c5c83a 	sub	r2,r2,r3
   2d344:	00c00204 	movi	r3,8
   2d348:	18833716 	blt	r3,r2,2e028 <_strtod_r+0x1260>
   2d34c:	009387c4 	movi	r2,19999
   2d350:	1100010e 	bge	r2,r4,2d358 <_strtod_r+0x590>
   2d354:	1009883a 	mov	r4,r2
   2d358:	d8c01517 	ldw	r3,84(sp)
   2d35c:	183ee426 	beq	r3,zero,2cef0 <_strtod_r+0x128>
   2d360:	0109c83a 	sub	r4,zero,r4
   2d364:	a83ee326 	beq	r21,zero,2cef4 <_strtod_r+0x12c>
   2d368:	2529c83a 	sub	r20,r4,r20
   2d36c:	dd001015 	stw	r20,64(sp)
   2d370:	9800011e 	bne	r19,zero,2d378 <_strtod_r+0x5b0>
   2d374:	a827883a 	mov	r19,r21
   2d378:	00800404 	movi	r2,16
   2d37c:	a823883a 	mov	r17,r21
   2d380:	1540010e 	bge	r2,r21,2d388 <_strtod_r+0x5c0>
   2d384:	1023883a 	mov	r17,r2
   2d388:	e009883a 	mov	r4,fp
   2d38c:	0031a6c0 	call	31a6c <__floatunsidf>
   2d390:	d8800615 	stw	r2,24(sp)
   2d394:	d8c00715 	stw	r3,28(sp)
   2d398:	01000244 	movi	r4,9
   2d39c:	2440150e 	bge	r4,r17,2d3f4 <_strtod_r+0x62c>
   2d3a0:	893ffdc4 	addi	r4,r17,-9
   2d3a4:	200890fa 	slli	r4,r4,3
   2d3a8:	180b883a 	mov	r5,r3
   2d3ac:	00c000f4 	movhi	r3,3
   2d3b0:	18d3e904 	addi	r3,r3,20388
   2d3b4:	1907883a 	add	r3,r3,r4
   2d3b8:	19800017 	ldw	r6,0(r3)
   2d3bc:	19c00117 	ldw	r7,4(r3)
   2d3c0:	1009883a 	mov	r4,r2
   2d3c4:	00311940 	call	31194 <__muldf3>
   2d3c8:	d9000f17 	ldw	r4,60(sp)
   2d3cc:	1025883a 	mov	r18,r2
   2d3d0:	1829883a 	mov	r20,r3
   2d3d4:	0031a6c0 	call	31a6c <__floatunsidf>
   2d3d8:	9009883a 	mov	r4,r18
   2d3dc:	a00b883a 	mov	r5,r20
   2d3e0:	100d883a 	mov	r6,r2
   2d3e4:	180f883a 	mov	r7,r3
   2d3e8:	00310e00 	call	310e0 <__adddf3>
   2d3ec:	d8800615 	stw	r2,24(sp)
   2d3f0:	d8c00715 	stw	r3,28(sp)
   2d3f4:	008003c4 	movi	r2,15
   2d3f8:	15401b16 	blt	r2,r21,2d468 <_strtod_r+0x6a0>
   2d3fc:	d8c01017 	ldw	r3,64(sp)
   2d400:	18001626 	beq	r3,zero,2d45c <_strtod_r+0x694>
   2d404:	d9001017 	ldw	r4,64(sp)
   2d408:	01032e0e 	bge	zero,r4,2e0c4 <_strtod_r+0x12fc>
   2d40c:	00c00584 	movi	r3,22
   2d410:	19031016 	blt	r3,r4,2e054 <_strtod_r+0x128c>
   2d414:	200490fa 	slli	r2,r4,3
   2d418:	00c000f4 	movhi	r3,3
   2d41c:	18d3e904 	addi	r3,r3,20388
   2d420:	d9000617 	ldw	r4,24(sp)
   2d424:	1885883a 	add	r2,r3,r2
   2d428:	d9400717 	ldw	r5,28(sp)
   2d42c:	11800017 	ldw	r6,0(r2)
   2d430:	11c00117 	ldw	r7,4(r2)
   2d434:	00311940 	call	31194 <__muldf3>
   2d438:	003f0406 	br	2d04c <_strtod_r+0x284>
   2d43c:	00dffc34 	movhi	r3,32752
   2d440:	d8c00715 	stw	r3,28(sp)
   2d444:	d8000615 	stw	zero,24(sp)
   2d448:	1080020c 	andi	r2,r2,8
   2d44c:	10000326 	beq	r2,zero,2d45c <_strtod_r+0x694>
   2d450:	d8800717 	ldw	r2,28(sp)
   2d454:	10a00034 	orhi	r2,r2,32768
   2d458:	d8800715 	stw	r2,28(sp)
   2d45c:	d8800617 	ldw	r2,24(sp)
   2d460:	d8c00717 	ldw	r3,28(sp)
   2d464:	003ef906 	br	2d04c <_strtod_r+0x284>
   2d468:	d8801017 	ldw	r2,64(sp)
   2d46c:	ac63c83a 	sub	r17,r21,r17
   2d470:	1463883a 	add	r17,r2,r17
   2d474:	0442a70e 	bge	zero,r17,2df14 <_strtod_r+0x114c>
   2d478:	888003cc 	andi	r2,r17,15
   2d47c:	10000b26 	beq	r2,zero,2d4ac <_strtod_r+0x6e4>
   2d480:	100490fa 	slli	r2,r2,3
   2d484:	00c000f4 	movhi	r3,3
   2d488:	18d3e904 	addi	r3,r3,20388
   2d48c:	d9000617 	ldw	r4,24(sp)
   2d490:	1885883a 	add	r2,r3,r2
   2d494:	d9400717 	ldw	r5,28(sp)
   2d498:	11800017 	ldw	r6,0(r2)
   2d49c:	11c00117 	ldw	r7,4(r2)
   2d4a0:	00311940 	call	31194 <__muldf3>
   2d4a4:	d8800615 	stw	r2,24(sp)
   2d4a8:	d8c00715 	stw	r3,28(sp)
   2d4ac:	00bffc04 	movi	r2,-16
   2d4b0:	88a2703a 	and	r17,r17,r2
   2d4b4:	8801a41e 	bne	r17,zero,2db48 <_strtod_r+0xd80>
   2d4b8:	0029883a 	mov	r20,zero
   2d4bc:	d9401417 	ldw	r5,80(sp)
   2d4c0:	df000015 	stw	fp,0(sp)
   2d4c4:	8009883a 	mov	r4,r16
   2d4c8:	980d883a 	mov	r6,r19
   2d4cc:	a80f883a 	mov	r7,r21
   2d4d0:	002b68c0 	call	2b68c <__s2b>
   2d4d4:	d8c01017 	ldw	r3,64(sp)
   2d4d8:	102d883a 	mov	r22,r2
   2d4dc:	b1000304 	addi	r4,r22,12
   2d4e0:	1805d7fa 	srai	r2,r3,31
   2d4e4:	00f9c83a 	sub	fp,zero,r3
   2d4e8:	d9001315 	stw	r4,76(sp)
   2d4ec:	e0b8703a 	and	fp,fp,r2
   2d4f0:	df000e15 	stw	fp,56(sp)
   2d4f4:	b1400117 	ldw	r5,4(r22)
   2d4f8:	8009883a 	mov	r4,r16
   2d4fc:	0027883a 	mov	r19,zero
   2d500:	002b4780 	call	2b478 <_Balloc>
   2d504:	b1800417 	ldw	r6,16(r22)
   2d508:	d9401317 	ldw	r5,76(sp)
   2d50c:	11000304 	addi	r4,r2,12
   2d510:	31800084 	addi	r6,r6,2
   2d514:	318d883a 	add	r6,r6,r6
   2d518:	318d883a 	add	r6,r6,r6
   2d51c:	1025883a 	mov	r18,r2
   2d520:	00250a80 	call	250a8 <memcpy>
   2d524:	d9400617 	ldw	r5,24(sp)
   2d528:	d9800717 	ldw	r6,28(sp)
   2d52c:	d8800a04 	addi	r2,sp,40
   2d530:	8009883a 	mov	r4,r16
   2d534:	d9c00d04 	addi	r7,sp,52
   2d538:	d8800015 	stw	r2,0(sp)
   2d53c:	002c16c0 	call	2c16c <__d2b>
   2d540:	8009883a 	mov	r4,r16
   2d544:	01400044 	movi	r5,1
   2d548:	d8800b15 	stw	r2,44(sp)
   2d54c:	002b8a80 	call	2b8a8 <__i2b>
   2d550:	d8c01017 	ldw	r3,64(sp)
   2d554:	1023883a 	mov	r17,r2
   2d558:	00c0010e 	bge	zero,r3,2d560 <_strtod_r+0x798>
   2d55c:	1827883a 	mov	r19,r3
   2d560:	d8800d17 	ldw	r2,52(sp)
   2d564:	1000de16 	blt	r2,zero,2d8e0 <_strtod_r+0xb18>
   2d568:	d9000e17 	ldw	r4,56(sp)
   2d56c:	9807883a 	mov	r3,r19
   2d570:	20af883a 	add	r23,r4,r2
   2d574:	d9000a17 	ldw	r4,40(sp)
   2d578:	1505c83a 	sub	r2,r2,r20
   2d57c:	017f00c4 	movi	r5,-1021
   2d580:	110d883a 	add	r6,r2,r4
   2d584:	31409a0e 	bge	r6,r5,2d7f0 <_strtod_r+0xa28>
   2d588:	10810cc4 	addi	r2,r2,1075
   2d58c:	b8b9883a 	add	fp,r23,r2
   2d590:	1885883a 	add	r2,r3,r2
   2d594:	152b883a 	add	r21,r2,r20
   2d598:	e005883a 	mov	r2,fp
   2d59c:	bf00010e 	bge	r23,fp,2d5a4 <_strtod_r+0x7dc>
   2d5a0:	b805883a 	mov	r2,r23
   2d5a4:	a880010e 	bge	r21,r2,2d5ac <_strtod_r+0x7e4>
   2d5a8:	a805883a 	mov	r2,r21
   2d5ac:	0080030e 	bge	zero,r2,2d5bc <_strtod_r+0x7f4>
   2d5b0:	e0b9c83a 	sub	fp,fp,r2
   2d5b4:	a8abc83a 	sub	r21,r21,r2
   2d5b8:	b8afc83a 	sub	r23,r23,r2
   2d5bc:	d9400e17 	ldw	r5,56(sp)
   2d5c0:	28000f26 	beq	r5,zero,2d600 <_strtod_r+0x838>
   2d5c4:	280d883a 	mov	r6,r5
   2d5c8:	8009883a 	mov	r4,r16
   2d5cc:	880b883a 	mov	r5,r17
   2d5d0:	002bb3c0 	call	2bb3c <__pow5mult>
   2d5d4:	d9800b17 	ldw	r6,44(sp)
   2d5d8:	8009883a 	mov	r4,r16
   2d5dc:	100b883a 	mov	r5,r2
   2d5e0:	1023883a 	mov	r17,r2
   2d5e4:	002b8e40 	call	2b8e4 <__multiply>
   2d5e8:	d9400b17 	ldw	r5,44(sp)
   2d5ec:	8009883a 	mov	r4,r16
   2d5f0:	d8801815 	stw	r2,96(sp)
   2d5f4:	002b5200 	call	2b520 <_Bfree>
   2d5f8:	d8801817 	ldw	r2,96(sp)
   2d5fc:	d8800b15 	stw	r2,44(sp)
   2d600:	0700050e 	bge	zero,fp,2d618 <_strtod_r+0x850>
   2d604:	d9400b17 	ldw	r5,44(sp)
   2d608:	8009883a 	mov	r4,r16
   2d60c:	e00d883a 	mov	r6,fp
   2d610:	002bc680 	call	2bc68 <__lshift>
   2d614:	d8800b15 	stw	r2,44(sp)
   2d618:	98000526 	beq	r19,zero,2d630 <_strtod_r+0x868>
   2d61c:	900b883a 	mov	r5,r18
   2d620:	8009883a 	mov	r4,r16
   2d624:	980d883a 	mov	r6,r19
   2d628:	002bb3c0 	call	2bb3c <__pow5mult>
   2d62c:	1025883a 	mov	r18,r2
   2d630:	0540050e 	bge	zero,r21,2d648 <_strtod_r+0x880>
   2d634:	900b883a 	mov	r5,r18
   2d638:	8009883a 	mov	r4,r16
   2d63c:	a80d883a 	mov	r6,r21
   2d640:	002bc680 	call	2bc68 <__lshift>
   2d644:	1025883a 	mov	r18,r2
   2d648:	05c0050e 	bge	zero,r23,2d660 <_strtod_r+0x898>
   2d64c:	880b883a 	mov	r5,r17
   2d650:	8009883a 	mov	r4,r16
   2d654:	b80d883a 	mov	r6,r23
   2d658:	002bc680 	call	2bc68 <__lshift>
   2d65c:	1023883a 	mov	r17,r2
   2d660:	d9400b17 	ldw	r5,44(sp)
   2d664:	8009883a 	mov	r4,r16
   2d668:	900d883a 	mov	r6,r18
   2d66c:	002be1c0 	call	2be1c <__mdiff>
   2d670:	1027883a 	mov	r19,r2
   2d674:	10800317 	ldw	r2,12(r2)
   2d678:	9809883a 	mov	r4,r19
   2d67c:	98000315 	stw	zero,12(r19)
   2d680:	880b883a 	mov	r5,r17
   2d684:	d8800f15 	stw	r2,60(sp)
   2d688:	002bdc40 	call	2bdc4 <__mcmp>
   2d68c:	1001cb16 	blt	r2,zero,2ddbc <_strtod_r+0xff4>
   2d690:	1001fa26 	beq	r2,zero,2de7c <_strtod_r+0x10b4>
   2d694:	9809883a 	mov	r4,r19
   2d698:	880b883a 	mov	r5,r17
   2d69c:	002c2b00 	call	2c2b0 <__ratio>
   2d6a0:	1009883a 	mov	r4,r2
   2d6a4:	180b883a 	mov	r5,r3
   2d6a8:	000d883a 	mov	r6,zero
   2d6ac:	01d00034 	movhi	r7,16384
   2d6b0:	102f883a 	mov	r23,r2
   2d6b4:	1839883a 	mov	fp,r3
   2d6b8:	00318080 	call	31808 <__ledf2>
   2d6bc:	00804f16 	blt	zero,r2,2d7fc <_strtod_r+0xa34>
   2d6c0:	d9400f17 	ldw	r5,60(sp)
   2d6c4:	28008926 	beq	r5,zero,2d8ec <_strtod_r+0xb24>
   2d6c8:	da400717 	ldw	r9,28(sp)
   2d6cc:	05cffc34 	movhi	r23,16368
   2d6d0:	d8000815 	stw	zero,32(sp)
   2d6d4:	ddc00915 	stw	r23,36(sp)
   2d6d8:	002b883a 	mov	r21,zero
   2d6dc:	4f1ffc2c 	andhi	fp,r9,32752
   2d6e0:	009ff834 	movhi	r2,32736
   2d6e4:	e0805526 	beq	fp,r2,2d83c <_strtod_r+0xa74>
   2d6e8:	a0001b26 	beq	r20,zero,2d758 <_strtod_r+0x990>
   2d6ec:	0081a834 	movhi	r2,1696
   2d6f0:	17001936 	bltu	r2,fp,2d758 <_strtod_r+0x990>
   2d6f4:	a809883a 	mov	r4,r21
   2d6f8:	b80b883a 	mov	r5,r23
   2d6fc:	01bff034 	movhi	r6,65472
   2d700:	01d07834 	movhi	r7,16864
   2d704:	39ffffc4 	addi	r7,r7,-1
   2d708:	00318080 	call	31808 <__ledf2>
   2d70c:	00800d16 	blt	zero,r2,2d744 <_strtod_r+0x97c>
   2d710:	a809883a 	mov	r4,r21
   2d714:	b80b883a 	mov	r5,r23
   2d718:	002ff8c0 	call	2ff8c <__fixunsdfsi>
   2d71c:	1000d626 	beq	r2,zero,2da78 <_strtod_r+0xcb0>
   2d720:	1009883a 	mov	r4,r2
   2d724:	0031a6c0 	call	31a6c <__floatunsidf>
   2d728:	102b883a 	mov	r21,r2
   2d72c:	182f883a 	mov	r23,r3
   2d730:	d9400f17 	ldw	r5,60(sp)
   2d734:	2800ce1e 	bne	r5,zero,2da70 <_strtod_r+0xca8>
   2d738:	b8a0003c 	xorhi	r2,r23,32768
   2d73c:	dd400815 	stw	r21,32(sp)
   2d740:	d8800915 	stw	r2,36(sp)
   2d744:	d8c00917 	ldw	r3,36(sp)
   2d748:	0081ac34 	movhi	r2,1712
   2d74c:	1885883a 	add	r2,r3,r2
   2d750:	1705c83a 	sub	r2,r2,fp
   2d754:	d8800915 	stw	r2,36(sp)
   2d758:	d9000617 	ldw	r4,24(sp)
   2d75c:	d9400717 	ldw	r5,28(sp)
   2d760:	002bfc40 	call	2bfc4 <__ulp>
   2d764:	da800617 	ldw	r10,24(sp)
   2d768:	da400717 	ldw	r9,28(sp)
   2d76c:	d9800817 	ldw	r6,32(sp)
   2d770:	d9c00917 	ldw	r7,36(sp)
   2d774:	1009883a 	mov	r4,r2
   2d778:	180b883a 	mov	r5,r3
   2d77c:	da401915 	stw	r9,100(sp)
   2d780:	da801815 	stw	r10,96(sp)
   2d784:	00311940 	call	31194 <__muldf3>
   2d788:	da401917 	ldw	r9,100(sp)
   2d78c:	da801817 	ldw	r10,96(sp)
   2d790:	100d883a 	mov	r6,r2
   2d794:	480b883a 	mov	r5,r9
   2d798:	5009883a 	mov	r4,r10
   2d79c:	180f883a 	mov	r7,r3
   2d7a0:	00310e00 	call	310e0 <__adddf3>
   2d7a4:	d8800615 	stw	r2,24(sp)
   2d7a8:	d8c00715 	stw	r3,28(sp)
   2d7ac:	1813883a 	mov	r9,r3
   2d7b0:	a000021e 	bne	r20,zero,2d7bc <_strtod_r+0x9f4>
   2d7b4:	489ffc2c 	andhi	r2,r9,32752
   2d7b8:	e0807226 	beq	fp,r2,2d984 <_strtod_r+0xbbc>
   2d7bc:	d9400b17 	ldw	r5,44(sp)
   2d7c0:	8009883a 	mov	r4,r16
   2d7c4:	002b5200 	call	2b520 <_Bfree>
   2d7c8:	8009883a 	mov	r4,r16
   2d7cc:	900b883a 	mov	r5,r18
   2d7d0:	002b5200 	call	2b520 <_Bfree>
   2d7d4:	8009883a 	mov	r4,r16
   2d7d8:	880b883a 	mov	r5,r17
   2d7dc:	002b5200 	call	2b520 <_Bfree>
   2d7e0:	8009883a 	mov	r4,r16
   2d7e4:	980b883a 	mov	r5,r19
   2d7e8:	002b5200 	call	2b520 <_Bfree>
   2d7ec:	003f4106 	br	2d4f4 <_strtod_r+0x72c>
   2d7f0:	00800d84 	movi	r2,54
   2d7f4:	1105c83a 	sub	r2,r2,r4
   2d7f8:	003f6406 	br	2d58c <_strtod_r+0x7c4>
   2d7fc:	b809883a 	mov	r4,r23
   2d800:	e00b883a 	mov	r5,fp
   2d804:	000d883a 	mov	r6,zero
   2d808:	01cff834 	movhi	r7,16352
   2d80c:	00311940 	call	31194 <__muldf3>
   2d810:	d9000f17 	ldw	r4,60(sp)
   2d814:	102b883a 	mov	r21,r2
   2d818:	182f883a 	mov	r23,r3
   2d81c:	2000011e 	bne	r4,zero,2d824 <_strtod_r+0xa5c>
   2d820:	18e0003c 	xorhi	r3,r3,32768
   2d824:	da400717 	ldw	r9,28(sp)
   2d828:	d8800815 	stw	r2,32(sp)
   2d82c:	d8c00915 	stw	r3,36(sp)
   2d830:	4f1ffc2c 	andhi	fp,r9,32752
   2d834:	009ff834 	movhi	r2,32736
   2d838:	e0bfab1e 	bne	fp,r2,2d6e8 <_strtod_r+0x920>
   2d83c:	d8800617 	ldw	r2,24(sp)
   2d840:	00ff2c34 	movhi	r3,64688
   2d844:	48d3883a 	add	r9,r9,r3
   2d848:	1009883a 	mov	r4,r2
   2d84c:	d8800415 	stw	r2,16(sp)
   2d850:	d8800717 	ldw	r2,28(sp)
   2d854:	480b883a 	mov	r5,r9
   2d858:	da400715 	stw	r9,28(sp)
   2d85c:	d8800515 	stw	r2,20(sp)
   2d860:	002bfc40 	call	2bfc4 <__ulp>
   2d864:	da800617 	ldw	r10,24(sp)
   2d868:	da400717 	ldw	r9,28(sp)
   2d86c:	d9800817 	ldw	r6,32(sp)
   2d870:	d9c00917 	ldw	r7,36(sp)
   2d874:	1009883a 	mov	r4,r2
   2d878:	180b883a 	mov	r5,r3
   2d87c:	da401915 	stw	r9,100(sp)
   2d880:	da801815 	stw	r10,96(sp)
   2d884:	00311940 	call	31194 <__muldf3>
   2d888:	da801817 	ldw	r10,96(sp)
   2d88c:	da401917 	ldw	r9,100(sp)
   2d890:	100d883a 	mov	r6,r2
   2d894:	5009883a 	mov	r4,r10
   2d898:	480b883a 	mov	r5,r9
   2d89c:	180f883a 	mov	r7,r3
   2d8a0:	00310e00 	call	310e0 <__adddf3>
   2d8a4:	d8800615 	stw	r2,24(sp)
   2d8a8:	015f2834 	movhi	r5,31904
   2d8ac:	297fffc4 	addi	r5,r5,-1
   2d8b0:	189ffc2c 	andhi	r2,r3,32752
   2d8b4:	2880642e 	bgeu	r5,r2,2da48 <_strtod_r+0xc80>
   2d8b8:	d8800517 	ldw	r2,20(sp)
   2d8bc:	00dffc34 	movhi	r3,32752
   2d8c0:	18ffffc4 	addi	r3,r3,-1
   2d8c4:	10c18526 	beq	r2,r3,2dedc <_strtod_r+0x1114>
   2d8c8:	011ffc34 	movhi	r4,32752
   2d8cc:	213fffc4 	addi	r4,r4,-1
   2d8d0:	00bfffc4 	movi	r2,-1
   2d8d4:	d9000715 	stw	r4,28(sp)
   2d8d8:	d8800615 	stw	r2,24(sp)
   2d8dc:	003fb706 	br	2d7bc <_strtod_r+0x9f4>
   2d8e0:	9887c83a 	sub	r3,r19,r2
   2d8e4:	ddc00e17 	ldw	r23,56(sp)
   2d8e8:	003f2206 	br	2d574 <_strtod_r+0x7ac>
   2d8ec:	d8800617 	ldw	r2,24(sp)
   2d8f0:	10001a1e 	bne	r2,zero,2d95c <_strtod_r+0xb94>
   2d8f4:	da400717 	ldw	r9,28(sp)
   2d8f8:	00c00434 	movhi	r3,16
   2d8fc:	18ffffc4 	addi	r3,r3,-1
   2d900:	48c4703a 	and	r2,r9,r3
   2d904:	1000191e 	bne	r2,zero,2d96c <_strtod_r+0xba4>
   2d908:	b809883a 	mov	r4,r23
   2d90c:	e00b883a 	mov	r5,fp
   2d910:	000d883a 	mov	r6,zero
   2d914:	01cffc34 	movhi	r7,16368
   2d918:	da401915 	stw	r9,100(sp)
   2d91c:	00317ac0 	call	317ac <__ltdf2>
   2d920:	da401917 	ldw	r9,100(sp)
   2d924:	1001bb16 	blt	r2,zero,2e014 <_strtod_r+0x124c>
   2d928:	b809883a 	mov	r4,r23
   2d92c:	e00b883a 	mov	r5,fp
   2d930:	000d883a 	mov	r6,zero
   2d934:	01cff834 	movhi	r7,16352
   2d938:	00311940 	call	31194 <__muldf3>
   2d93c:	da401917 	ldw	r9,100(sp)
   2d940:	182f883a 	mov	r23,r3
   2d944:	102b883a 	mov	r21,r2
   2d948:	1007883a 	mov	r3,r2
   2d94c:	b8a0003c 	xorhi	r2,r23,32768
   2d950:	d8c00815 	stw	r3,32(sp)
   2d954:	d8800915 	stw	r2,36(sp)
   2d958:	003f6006 	br	2d6dc <_strtod_r+0x914>
   2d95c:	00c00044 	movi	r3,1
   2d960:	da400717 	ldw	r9,28(sp)
   2d964:	10c0011e 	bne	r2,r3,2d96c <_strtod_r+0xba4>
   2d968:	4800c526 	beq	r9,zero,2dc80 <_strtod_r+0xeb8>
   2d96c:	00affc34 	movhi	r2,49136
   2d970:	d8000815 	stw	zero,32(sp)
   2d974:	d8800915 	stw	r2,36(sp)
   2d978:	002b883a 	mov	r21,zero
   2d97c:	05cffc34 	movhi	r23,16368
   2d980:	003f5606 	br	2d6dc <_strtod_r+0x914>
   2d984:	b80b883a 	mov	r5,r23
   2d988:	a809883a 	mov	r4,r21
   2d98c:	da401915 	stw	r9,100(sp)
   2d990:	00319380 	call	31938 <__fixdfsi>
   2d994:	1009883a 	mov	r4,r2
   2d998:	00318640 	call	31864 <__floatsidf>
   2d99c:	b80b883a 	mov	r5,r23
   2d9a0:	a809883a 	mov	r4,r21
   2d9a4:	100d883a 	mov	r6,r2
   2d9a8:	180f883a 	mov	r7,r3
   2d9ac:	00311340 	call	31134 <__subdf3>
   2d9b0:	102f883a 	mov	r23,r2
   2d9b4:	d8800f17 	ldw	r2,60(sp)
   2d9b8:	1839883a 	mov	fp,r3
   2d9bc:	da401917 	ldw	r9,100(sp)
   2d9c0:	1000021e 	bne	r2,zero,2d9cc <_strtod_r+0xc04>
   2d9c4:	d8800617 	ldw	r2,24(sp)
   2d9c8:	10004826 	beq	r2,zero,2daec <_strtod_r+0xd24>
   2d9cc:	b809883a 	mov	r4,r23
   2d9d0:	e00b883a 	mov	r5,fp
   2d9d4:	01a52834 	movhi	r6,38048
   2d9d8:	318d6544 	addi	r6,r6,13717
   2d9dc:	01cff834 	movhi	r7,16352
   2d9e0:	39ffffc4 	addi	r7,r7,-1
   2d9e4:	00317ac0 	call	317ac <__ltdf2>
   2d9e8:	10000716 	blt	r2,zero,2da08 <_strtod_r+0xc40>
   2d9ec:	b809883a 	mov	r4,r23
   2d9f0:	e00b883a 	mov	r5,fp
   2d9f4:	018d6c34 	movhi	r6,13744
   2d9f8:	31b94d44 	addi	r6,r6,-6859
   2d9fc:	01cff834 	movhi	r7,16352
   2da00:	00316e40 	call	316e4 <__gtdf2>
   2da04:	00bf6d0e 	bge	zero,r2,2d7bc <_strtod_r+0x9f4>
   2da08:	d9400b17 	ldw	r5,44(sp)
   2da0c:	8009883a 	mov	r4,r16
   2da10:	002b5200 	call	2b520 <_Bfree>
   2da14:	8009883a 	mov	r4,r16
   2da18:	900b883a 	mov	r5,r18
   2da1c:	002b5200 	call	2b520 <_Bfree>
   2da20:	8009883a 	mov	r4,r16
   2da24:	880b883a 	mov	r5,r17
   2da28:	002b5200 	call	2b520 <_Bfree>
   2da2c:	8009883a 	mov	r4,r16
   2da30:	b00b883a 	mov	r5,r22
   2da34:	002b5200 	call	2b520 <_Bfree>
   2da38:	8009883a 	mov	r4,r16
   2da3c:	980b883a 	mov	r5,r19
   2da40:	002b5200 	call	2b520 <_Bfree>
   2da44:	003e8506 	br	2d45c <_strtod_r+0x694>
   2da48:	0240d434 	movhi	r9,848
   2da4c:	1a53883a 	add	r9,r3,r9
   2da50:	da400715 	stw	r9,28(sp)
   2da54:	003f5606 	br	2d7b0 <_strtod_r+0x9e8>
   2da58:	a827883a 	mov	r19,r21
   2da5c:	dd801415 	stw	r22,80(sp)
   2da60:	000d883a 	mov	r6,zero
   2da64:	0029883a 	mov	r20,zero
   2da68:	d8001015 	stw	zero,64(sp)
   2da6c:	003d1d06 	br	2cee4 <_strtod_r+0x11c>
   2da70:	b805883a 	mov	r2,r23
   2da74:	003f3106 	br	2d73c <_strtod_r+0x974>
   2da78:	002b883a 	mov	r21,zero
   2da7c:	05cffc34 	movhi	r23,16368
   2da80:	003f2b06 	br	2d730 <_strtod_r+0x968>
   2da84:	d9400e17 	ldw	r5,56(sp)
   2da88:	0009883a 	mov	r4,zero
   2da8c:	d9400c15 	stw	r5,48(sp)
   2da90:	003d1706 	br	2cef0 <_strtod_r+0x128>
   2da94:	dd801415 	stw	r22,80(sp)
   2da98:	a82f883a 	mov	r23,r21
   2da9c:	000d883a 	mov	r6,zero
   2daa0:	0029883a 	mov	r20,zero
   2daa4:	3dbff404 	addi	r22,r7,-48
   2daa8:	00800244 	movi	r2,9
   2daac:	15802136 	bltu	r2,r22,2db34 <_strtod_r+0xd6c>
   2dab0:	31800044 	addi	r6,r6,1
   2dab4:	dc400c17 	ldw	r17,48(sp)
   2dab8:	003daa06 	br	2d164 <_strtod_r+0x39c>
   2dabc:	d8001515 	stw	zero,84(sp)
   2dac0:	d9400e17 	ldw	r5,56(sp)
   2dac4:	28800084 	addi	r2,r5,2
   2dac8:	d8800c15 	stw	r2,48(sp)
   2dacc:	29c00087 	ldb	r7,2(r5)
   2dad0:	003ded06 	br	2d288 <_strtod_r+0x4c0>
   2dad4:	00c00044 	movi	r3,1
   2dad8:	d8c01515 	stw	r3,84(sp)
   2dadc:	003ff806 	br	2dac0 <_strtod_r+0xcf8>
   2dae0:	0005883a 	mov	r2,zero
   2dae4:	0007883a 	mov	r3,zero
   2dae8:	003d5806 	br	2d04c <_strtod_r+0x284>
   2daec:	00c00434 	movhi	r3,16
   2daf0:	18ffffc4 	addi	r3,r3,-1
   2daf4:	48d2703a 	and	r9,r9,r3
   2daf8:	483fb41e 	bne	r9,zero,2d9cc <_strtod_r+0xc04>
   2dafc:	b809883a 	mov	r4,r23
   2db00:	e00b883a 	mov	r5,fp
   2db04:	01a52834 	movhi	r6,38048
   2db08:	318d6544 	addi	r6,r6,13717
   2db0c:	01cff434 	movhi	r7,16336
   2db10:	39ffffc4 	addi	r7,r7,-1
   2db14:	00317ac0 	call	317ac <__ltdf2>
   2db18:	103f280e 	bge	r2,zero,2d7bc <_strtod_r+0x9f4>
   2db1c:	003fba06 	br	2da08 <_strtod_r+0xc40>
   2db20:	d8c01317 	ldw	r3,76(sp)
   2db24:	183dce1e 	bne	r3,zero,2d260 <_strtod_r+0x498>
   2db28:	d8800617 	ldw	r2,24(sp)
   2db2c:	d8c00717 	ldw	r3,28(sp)
   2db30:	003d4306 	br	2d040 <_strtod_r+0x278>
   2db34:	00c00044 	movi	r3,1
   2db38:	a827883a 	mov	r19,r21
   2db3c:	d8c01015 	stw	r3,64(sp)
   2db40:	b82b883a 	mov	r21,r23
   2db44:	003ce506 	br	2cedc <_strtod_r+0x114>
   2db48:	00804d04 	movi	r2,308
   2db4c:	1440ec16 	blt	r2,r17,2df00 <_strtod_r+0x1138>
   2db50:	8825d13a 	srai	r18,r17,4
   2db54:	05c00044 	movi	r23,1
   2db58:	bc81ca0e 	bge	r23,r18,2e284 <_strtod_r+0x14bc>
   2db5c:	d8800617 	ldw	r2,24(sp)
   2db60:	d8c00717 	ldw	r3,28(sp)
   2db64:	058000f4 	movhi	r22,3
   2db68:	b593df04 	addi	r22,r22,20348
   2db6c:	b029883a 	mov	r20,r22
   2db70:	0023883a 	mov	r17,zero
   2db74:	9180004c 	andi	r6,r18,1
   2db78:	30000526 	beq	r6,zero,2db90 <_strtod_r+0xdc8>
   2db7c:	a1800017 	ldw	r6,0(r20)
   2db80:	a1c00117 	ldw	r7,4(r20)
   2db84:	1009883a 	mov	r4,r2
   2db88:	180b883a 	mov	r5,r3
   2db8c:	00311940 	call	31194 <__muldf3>
   2db90:	9025d07a 	srai	r18,r18,1
   2db94:	8c400044 	addi	r17,r17,1
   2db98:	a5000204 	addi	r20,r20,8
   2db9c:	bcbff516 	blt	r23,r18,2db74 <_strtod_r+0xdac>
   2dba0:	d8800615 	stw	r2,24(sp)
   2dba4:	d8c00715 	stw	r3,28(sp)
   2dba8:	880490fa 	slli	r2,r17,3
   2dbac:	d9400717 	ldw	r5,28(sp)
   2dbb0:	d9000617 	ldw	r4,24(sp)
   2dbb4:	b0a3883a 	add	r17,r22,r2
   2dbb8:	89800017 	ldw	r6,0(r17)
   2dbbc:	89c00117 	ldw	r7,4(r17)
   2dbc0:	00bf2c34 	movhi	r2,64688
   2dbc4:	288b883a 	add	r5,r5,r2
   2dbc8:	00311940 	call	31194 <__muldf3>
   2dbcc:	d8800615 	stw	r2,24(sp)
   2dbd0:	011f2834 	movhi	r4,31904
   2dbd4:	189ffc2c 	andhi	r2,r3,32752
   2dbd8:	2080c936 	bltu	r4,r2,2df00 <_strtod_r+0x1138>
   2dbdc:	011f2434 	movhi	r4,31888
   2dbe0:	2081652e 	bgeu	r4,r2,2e178 <_strtod_r+0x13b0>
   2dbe4:	009ffc34 	movhi	r2,32752
   2dbe8:	10bfffc4 	addi	r2,r2,-1
   2dbec:	d8800715 	stw	r2,28(sp)
   2dbf0:	00bfffc4 	movi	r2,-1
   2dbf4:	d8800615 	stw	r2,24(sp)
   2dbf8:	003e2f06 	br	2d4b8 <_strtod_r+0x6f0>
   2dbfc:	00c00044 	movi	r3,1
   2dc00:	0027883a 	mov	r19,zero
   2dc04:	dd801415 	stw	r22,80(sp)
   2dc08:	0029883a 	mov	r20,zero
   2dc0c:	d8c01015 	stw	r3,64(sp)
   2dc10:	003cb206 	br	2cedc <_strtod_r+0x114>
   2dc14:	d8800717 	ldw	r2,28(sp)
   2dc18:	00c00434 	movhi	r3,16
   2dc1c:	18ffffc4 	addi	r3,r3,-1
   2dc20:	10c6703a 	and	r3,r2,r3
   2dc24:	1801471e 	bne	r3,zero,2e144 <_strtod_r+0x137c>
   2dc28:	d8c00617 	ldw	r3,24(sp)
   2dc2c:	18007e26 	beq	r3,zero,2de28 <_strtod_r+0x1060>
   2dc30:	18c0004c 	andi	r3,r3,1
   2dc34:	1800a726 	beq	r3,zero,2ded4 <_strtod_r+0x110c>
   2dc38:	ddc00617 	ldw	r23,24(sp)
   2dc3c:	dd400717 	ldw	r21,28(sp)
   2dc40:	b809883a 	mov	r4,r23
   2dc44:	a80b883a 	mov	r5,r21
   2dc48:	002bfc40 	call	2bfc4 <__ulp>
   2dc4c:	b809883a 	mov	r4,r23
   2dc50:	a80b883a 	mov	r5,r21
   2dc54:	100d883a 	mov	r6,r2
   2dc58:	180f883a 	mov	r7,r3
   2dc5c:	00311340 	call	31134 <__subdf3>
   2dc60:	1009883a 	mov	r4,r2
   2dc64:	180b883a 	mov	r5,r3
   2dc68:	000d883a 	mov	r6,zero
   2dc6c:	000f883a 	mov	r7,zero
   2dc70:	d8800615 	stw	r2,24(sp)
   2dc74:	d8c00715 	stw	r3,28(sp)
   2dc78:	003162c0 	call	3162c <__eqdf2>
   2dc7c:	1000951e 	bne	r2,zero,2ded4 <_strtod_r+0x110c>
   2dc80:	d8000615 	stw	zero,24(sp)
   2dc84:	d8000715 	stw	zero,28(sp)
   2dc88:	00800884 	movi	r2,34
   2dc8c:	80800015 	stw	r2,0(r16)
   2dc90:	003f5d06 	br	2da08 <_strtod_r+0xc40>
   2dc94:	00800404 	movi	r2,16
   2dc98:	153d4916 	blt	r2,r20,2d1c0 <_strtod_r+0x3f8>
   2dc9c:	8009883a 	mov	r4,r16
   2dca0:	01400284 	movi	r5,10
   2dca4:	0022d140 	call	22d14 <__mulsi3>
   2dca8:	1021883a 	mov	r16,r2
   2dcac:	003d4406 	br	2d1c0 <_strtod_r+0x3f8>
   2dcb0:	d9001217 	ldw	r4,72(sp)
   2dcb4:	d8800b04 	addi	r2,sp,44
   2dcb8:	04c000f4 	movhi	r19,3
   2dcbc:	9cd66504 	addi	r19,r19,22932
   2dcc0:	d9000115 	stw	r4,4(sp)
   2dcc4:	d8800015 	stw	r2,0(sp)
   2dcc8:	8009883a 	mov	r4,r16
   2dccc:	d9400c04 	addi	r5,sp,48
   2dcd0:	980d883a 	mov	r6,r19
   2dcd4:	d9c00a04 	addi	r7,sp,40
   2dcd8:	002f5880 	call	2f588 <__gethex>
   2dcdc:	148001cc 	andi	r18,r2,7
   2dce0:	903dde26 	beq	r18,zero,2d45c <_strtod_r+0x694>
   2dce4:	00c00184 	movi	r3,6
   2dce8:	90c0f226 	beq	r18,r3,2e0b4 <_strtod_r+0x12ec>
   2dcec:	d9800b17 	ldw	r6,44(sp)
   2dcf0:	30000826 	beq	r6,zero,2dd14 <_strtod_r+0xf4c>
   2dcf4:	99400017 	ldw	r5,0(r19)
   2dcf8:	d9000204 	addi	r4,sp,8
   2dcfc:	d8801815 	stw	r2,96(sp)
   2dd00:	002c3c80 	call	2c3c8 <__copybits>
   2dd04:	d9400b17 	ldw	r5,44(sp)
   2dd08:	8009883a 	mov	r4,r16
   2dd0c:	002b5200 	call	2b520 <_Bfree>
   2dd10:	d8801817 	ldw	r2,96(sp)
   2dd14:	00c00184 	movi	r3,6
   2dd18:	d9000a17 	ldw	r4,40(sp)
   2dd1c:	1cbdca36 	bltu	r3,r18,2d448 <_strtod_r+0x680>
   2dd20:	94a5883a 	add	r18,r18,r18
   2dd24:	94a5883a 	add	r18,r18,r18
   2dd28:	00c000f4 	movhi	r3,3
   2dd2c:	18f74f04 	addi	r3,r3,-8900
   2dd30:	90c7883a 	add	r3,r18,r3
   2dd34:	18c00017 	ldw	r3,0(r3)
   2dd38:	1800683a 	jmp	r3
   2dd3c:	0002ddb0 	cmpltui	zero,zero,2934
   2dd40:	0002dd6c 	andhi	zero,zero,2933
   2dd44:	0002dd58 	cmpnei	zero,zero,2933
   2dd48:	0002d43c 	xorhi	zero,zero,2896
   2dd4c:	0002dd98 	cmpnei	zero,zero,2934
   2dd50:	0002dd6c 	andhi	zero,zero,2933
   2dd54:	0002ddb0 	cmpltui	zero,zero,2934
   2dd58:	d8c00217 	ldw	r3,8(sp)
   2dd5c:	d8c00615 	stw	r3,24(sp)
   2dd60:	d8c00317 	ldw	r3,12(sp)
   2dd64:	d8c00715 	stw	r3,28(sp)
   2dd68:	003db706 	br	2d448 <_strtod_r+0x680>
   2dd6c:	21010cc4 	addi	r4,r4,1075
   2dd70:	d9400317 	ldw	r5,12(sp)
   2dd74:	2008953a 	slli	r4,r4,20
   2dd78:	00fffc34 	movhi	r3,65520
   2dd7c:	18ffffc4 	addi	r3,r3,-1
   2dd80:	28c6703a 	and	r3,r5,r3
   2dd84:	20c6b03a 	or	r3,r4,r3
   2dd88:	d9000217 	ldw	r4,8(sp)
   2dd8c:	d8c00715 	stw	r3,28(sp)
   2dd90:	d9000615 	stw	r4,24(sp)
   2dd94:	003dac06 	br	2d448 <_strtod_r+0x680>
   2dd98:	00e00034 	movhi	r3,32768
   2dd9c:	18ffffc4 	addi	r3,r3,-1
   2dda0:	d8c00715 	stw	r3,28(sp)
   2dda4:	00ffffc4 	movi	r3,-1
   2dda8:	d8c00615 	stw	r3,24(sp)
   2ddac:	003da606 	br	2d448 <_strtod_r+0x680>
   2ddb0:	d8000715 	stw	zero,28(sp)
   2ddb4:	d8000615 	stw	zero,24(sp)
   2ddb8:	003da306 	br	2d448 <_strtod_r+0x680>
   2ddbc:	d8c00f17 	ldw	r3,60(sp)
   2ddc0:	1800441e 	bne	r3,zero,2ded4 <_strtod_r+0x110c>
   2ddc4:	d8800617 	ldw	r2,24(sp)
   2ddc8:	1000421e 	bne	r2,zero,2ded4 <_strtod_r+0x110c>
   2ddcc:	d8800717 	ldw	r2,28(sp)
   2ddd0:	00c00434 	movhi	r3,16
   2ddd4:	18ffffc4 	addi	r3,r3,-1
   2ddd8:	10c6703a 	and	r3,r2,r3
   2dddc:	18003d1e 	bne	r3,zero,2ded4 <_strtod_r+0x110c>
   2dde0:	109ffc2c 	andhi	r2,r2,32752
   2dde4:	00c1ac34 	movhi	r3,1712
   2dde8:	18803a2e 	bgeu	r3,r2,2ded4 <_strtod_r+0x110c>
   2ddec:	98800517 	ldw	r2,20(r19)
   2ddf0:	1000031e 	bne	r2,zero,2de00 <_strtod_r+0x1038>
   2ddf4:	98800417 	ldw	r2,16(r19)
   2ddf8:	00c00044 	movi	r3,1
   2ddfc:	1880350e 	bge	r3,r2,2ded4 <_strtod_r+0x110c>
   2de00:	980b883a 	mov	r5,r19
   2de04:	8009883a 	mov	r4,r16
   2de08:	01800044 	movi	r6,1
   2de0c:	002bc680 	call	2bc68 <__lshift>
   2de10:	1009883a 	mov	r4,r2
   2de14:	880b883a 	mov	r5,r17
   2de18:	1027883a 	mov	r19,r2
   2de1c:	002bdc40 	call	2bdc4 <__mcmp>
   2de20:	00802c0e 	bge	zero,r2,2ded4 <_strtod_r+0x110c>
   2de24:	d8800717 	ldw	r2,28(sp)
   2de28:	109ffc2c 	andhi	r2,r2,32752
   2de2c:	a000ed26 	beq	r20,zero,2e1e4 <_strtod_r+0x141c>
   2de30:	00c1ac34 	movhi	r3,1712
   2de34:	1880eb36 	bltu	r3,r2,2e1e4 <_strtod_r+0x141c>
   2de38:	00c0dc34 	movhi	r3,880
   2de3c:	18bf902e 	bgeu	r3,r2,2dc80 <_strtod_r+0xeb8>
   2de40:	d9000617 	ldw	r4,24(sp)
   2de44:	d9400717 	ldw	r5,28(sp)
   2de48:	008e5434 	movhi	r2,14672
   2de4c:	000d883a 	mov	r6,zero
   2de50:	100f883a 	mov	r7,r2
   2de54:	d8800515 	stw	r2,20(sp)
   2de58:	d8000415 	stw	zero,16(sp)
   2de5c:	00311940 	call	31194 <__muldf3>
   2de60:	d8800615 	stw	r2,24(sp)
   2de64:	d8c00715 	stw	r3,28(sp)
   2de68:	183ee71e 	bne	r3,zero,2da08 <_strtod_r+0xc40>
   2de6c:	103ee61e 	bne	r2,zero,2da08 <_strtod_r+0xc40>
   2de70:	00800884 	movi	r2,34
   2de74:	80800015 	stw	r2,0(r16)
   2de78:	003ee306 	br	2da08 <_strtod_r+0xc40>
   2de7c:	d9000f17 	ldw	r4,60(sp)
   2de80:	203f6426 	beq	r4,zero,2dc14 <_strtod_r+0xe4c>
   2de84:	d8c00717 	ldw	r3,28(sp)
   2de88:	00800434 	movhi	r2,16
   2de8c:	10bfffc4 	addi	r2,r2,-1
   2de90:	1888703a 	and	r4,r3,r2
   2de94:	2080bd26 	beq	r4,r2,2e18c <_strtod_r+0x13c4>
   2de98:	d8800617 	ldw	r2,24(sp)
   2de9c:	1080004c 	andi	r2,r2,1
   2dea0:	10000c26 	beq	r2,zero,2ded4 <_strtod_r+0x110c>
   2dea4:	ddc00617 	ldw	r23,24(sp)
   2dea8:	dd400717 	ldw	r21,28(sp)
   2deac:	b809883a 	mov	r4,r23
   2deb0:	a80b883a 	mov	r5,r21
   2deb4:	002bfc40 	call	2bfc4 <__ulp>
   2deb8:	b809883a 	mov	r4,r23
   2debc:	a80b883a 	mov	r5,r21
   2dec0:	100d883a 	mov	r6,r2
   2dec4:	180f883a 	mov	r7,r3
   2dec8:	00310e00 	call	310e0 <__adddf3>
   2decc:	d8800615 	stw	r2,24(sp)
   2ded0:	d8c00715 	stw	r3,28(sp)
   2ded4:	a03fda1e 	bne	r20,zero,2de40 <_strtod_r+0x1078>
   2ded8:	003ecb06 	br	2da08 <_strtod_r+0xc40>
   2dedc:	d8c00417 	ldw	r3,16(sp)
   2dee0:	00bfffc4 	movi	r2,-1
   2dee4:	18be781e 	bne	r3,r2,2d8c8 <_strtod_r+0xb00>
   2dee8:	00800884 	movi	r2,34
   2deec:	80800015 	stw	r2,0(r16)
   2def0:	009ffc34 	movhi	r2,32752
   2def4:	d8800715 	stw	r2,28(sp)
   2def8:	d8000615 	stw	zero,24(sp)
   2defc:	003ec206 	br	2da08 <_strtod_r+0xc40>
   2df00:	00800884 	movi	r2,34
   2df04:	80800015 	stw	r2,0(r16)
   2df08:	00dffc34 	movhi	r3,32752
   2df0c:	0005883a 	mov	r2,zero
   2df10:	003c4e06 	br	2d04c <_strtod_r+0x284>
   2df14:	883d6826 	beq	r17,zero,2d4b8 <_strtod_r+0x6f0>
   2df18:	0463c83a 	sub	r17,zero,r17
   2df1c:	888003cc 	andi	r2,r17,15
   2df20:	10000b26 	beq	r2,zero,2df50 <_strtod_r+0x1188>
   2df24:	100490fa 	slli	r2,r2,3
   2df28:	00c000f4 	movhi	r3,3
   2df2c:	18d3e904 	addi	r3,r3,20388
   2df30:	d9000617 	ldw	r4,24(sp)
   2df34:	1885883a 	add	r2,r3,r2
   2df38:	d9400717 	ldw	r5,28(sp)
   2df3c:	11800017 	ldw	r6,0(r2)
   2df40:	11c00117 	ldw	r7,4(r2)
   2df44:	00314780 	call	31478 <__divdf3>
   2df48:	d8800615 	stw	r2,24(sp)
   2df4c:	d8c00715 	stw	r3,28(sp)
   2df50:	8823d13a 	srai	r17,r17,4
   2df54:	883d5826 	beq	r17,zero,2d4b8 <_strtod_r+0x6f0>
   2df58:	008007c4 	movi	r2,31
   2df5c:	14402816 	blt	r2,r17,2e000 <_strtod_r+0x1238>
   2df60:	8880040c 	andi	r2,r17,16
   2df64:	1000cf1e 	bne	r2,zero,2e2a4 <_strtod_r+0x14dc>
   2df68:	0029883a 	mov	r20,zero
   2df6c:	0440100e 	bge	zero,r17,2dfb0 <_strtod_r+0x11e8>
   2df70:	d8800617 	ldw	r2,24(sp)
   2df74:	d8c00717 	ldw	r3,28(sp)
   2df78:	048000f4 	movhi	r18,3
   2df7c:	94942204 	addi	r18,r18,20616
   2df80:	8980004c 	andi	r6,r17,1
   2df84:	30000526 	beq	r6,zero,2df9c <_strtod_r+0x11d4>
   2df88:	91800017 	ldw	r6,0(r18)
   2df8c:	91c00117 	ldw	r7,4(r18)
   2df90:	1009883a 	mov	r4,r2
   2df94:	180b883a 	mov	r5,r3
   2df98:	00311940 	call	31194 <__muldf3>
   2df9c:	8823d07a 	srai	r17,r17,1
   2dfa0:	94800204 	addi	r18,r18,8
   2dfa4:	883ff61e 	bne	r17,zero,2df80 <_strtod_r+0x11b8>
   2dfa8:	d8800615 	stw	r2,24(sp)
   2dfac:	d8c00715 	stw	r3,28(sp)
   2dfb0:	a0000d26 	beq	r20,zero,2dfe8 <_strtod_r+0x1220>
   2dfb4:	d8c00717 	ldw	r3,28(sp)
   2dfb8:	01001ac4 	movi	r4,107
   2dfbc:	189ffc2c 	andhi	r2,r3,32752
   2dfc0:	1004d53a 	srli	r2,r2,20
   2dfc4:	2085c83a 	sub	r2,r4,r2
   2dfc8:	0080070e 	bge	zero,r2,2dfe8 <_strtod_r+0x1220>
   2dfcc:	010007c4 	movi	r4,31
   2dfd0:	2080c30e 	bge	r4,r2,2e2e0 <_strtod_r+0x1518>
   2dfd4:	d8000615 	stw	zero,24(sp)
   2dfd8:	01000d04 	movi	r4,52
   2dfdc:	2080c60e 	bge	r4,r2,2e2f8 <_strtod_r+0x1530>
   2dfe0:	0080dc34 	movhi	r2,880
   2dfe4:	d8800715 	stw	r2,28(sp)
   2dfe8:	d9000617 	ldw	r4,24(sp)
   2dfec:	d9400717 	ldw	r5,28(sp)
   2dff0:	000d883a 	mov	r6,zero
   2dff4:	000f883a 	mov	r7,zero
   2dff8:	003162c0 	call	3162c <__eqdf2>
   2dffc:	103d2f1e 	bne	r2,zero,2d4bc <_strtod_r+0x6f4>
   2e000:	00800884 	movi	r2,34
   2e004:	80800015 	stw	r2,0(r16)
   2e008:	0007883a 	mov	r3,zero
   2e00c:	0005883a 	mov	r2,zero
   2e010:	003c0e06 	br	2d04c <_strtod_r+0x284>
   2e014:	0007883a 	mov	r3,zero
   2e018:	00aff834 	movhi	r2,49120
   2e01c:	002b883a 	mov	r21,zero
   2e020:	05cff834 	movhi	r23,16352
   2e024:	003e4a06 	br	2d950 <_strtod_r+0xb88>
   2e028:	011387c4 	movi	r4,19999
   2e02c:	003cca06 	br	2d358 <_strtod_r+0x590>
   2e030:	b00b883a 	mov	r5,r22
   2e034:	d8000f15 	stw	zero,60(sp)
   2e038:	0039883a 	mov	fp,zero
   2e03c:	002b883a 	mov	r21,zero
   2e040:	003c2d06 	br	2d0f8 <_strtod_r+0x330>
   2e044:	d8000f15 	stw	zero,60(sp)
   2e048:	0039883a 	mov	fp,zero
   2e04c:	002b883a 	mov	r21,zero
   2e050:	003b9d06 	br	2cec8 <_strtod_r+0x100>
   2e054:	d9401017 	ldw	r5,64(sp)
   2e058:	00c00944 	movi	r3,37
   2e05c:	1d47c83a 	sub	r3,r3,r21
   2e060:	197d0116 	blt	r3,r5,2d468 <_strtod_r+0x6a0>
   2e064:	1563c83a 	sub	r17,r2,r21
   2e068:	880490fa 	slli	r2,r17,3
   2e06c:	040000f4 	movhi	r16,3
   2e070:	8413e904 	addi	r16,r16,20388
   2e074:	d9000617 	ldw	r4,24(sp)
   2e078:	8085883a 	add	r2,r16,r2
   2e07c:	d9400717 	ldw	r5,28(sp)
   2e080:	11800017 	ldw	r6,0(r2)
   2e084:	11c00117 	ldw	r7,4(r2)
   2e088:	00311940 	call	31194 <__muldf3>
   2e08c:	d9001017 	ldw	r4,64(sp)
   2e090:	180b883a 	mov	r5,r3
   2e094:	244dc83a 	sub	r6,r4,r17
   2e098:	300c90fa 	slli	r6,r6,3
   2e09c:	1009883a 	mov	r4,r2
   2e0a0:	81a1883a 	add	r16,r16,r6
   2e0a4:	81800017 	ldw	r6,0(r16)
   2e0a8:	81c00117 	ldw	r7,4(r16)
   2e0ac:	00311940 	call	31194 <__muldf3>
   2e0b0:	003be606 	br	2d04c <_strtod_r+0x284>
   2e0b4:	d9400e17 	ldw	r5,56(sp)
   2e0b8:	d8001215 	stw	zero,72(sp)
   2e0bc:	d9400c15 	stw	r5,48(sp)
   2e0c0:	003ce606 	br	2d45c <_strtod_r+0x694>
   2e0c4:	d9401017 	ldw	r5,64(sp)
   2e0c8:	00bffa84 	movi	r2,-22
   2e0cc:	28bce616 	blt	r5,r2,2d468 <_strtod_r+0x6a0>
   2e0d0:	280490fa 	slli	r2,r5,3
   2e0d4:	00c000f4 	movhi	r3,3
   2e0d8:	18d3e904 	addi	r3,r3,20388
   2e0dc:	d9000617 	ldw	r4,24(sp)
   2e0e0:	1885c83a 	sub	r2,r3,r2
   2e0e4:	d9400717 	ldw	r5,28(sp)
   2e0e8:	11800017 	ldw	r6,0(r2)
   2e0ec:	11c00117 	ldw	r7,4(r2)
   2e0f0:	00314780 	call	31478 <__divdf3>
   2e0f4:	003bd506 	br	2d04c <_strtod_r+0x284>
   2e0f8:	00801a44 	movi	r2,105
   2e0fc:	38bb8726 	beq	r7,r2,2cf1c <_strtod_r+0x154>
   2e100:	00801b84 	movi	r2,110
   2e104:	38be881e 	bne	r7,r2,2db28 <_strtod_r+0xd60>
   2e108:	d8c00c17 	ldw	r3,48(sp)
   2e10c:	010000f4 	movhi	r4,3
   2e110:	21142104 	addi	r4,r4,20612
   2e114:	01801004 	movi	r6,64
   2e118:	01c01684 	movi	r7,90
   2e11c:	21400007 	ldb	r5,0(r4)
   2e120:	21000044 	addi	r4,r4,1
   2e124:	28004e26 	beq	r5,zero,2e260 <_strtod_r+0x1498>
   2e128:	18c00044 	addi	r3,r3,1
   2e12c:	18800007 	ldb	r2,0(r3)
   2e130:	3080020e 	bge	r6,r2,2e13c <_strtod_r+0x1374>
   2e134:	38800116 	blt	r7,r2,2e13c <_strtod_r+0x1374>
   2e138:	10800804 	addi	r2,r2,32
   2e13c:	117ff726 	beq	r2,r5,2e11c <_strtod_r+0x1354>
   2e140:	003e7906 	br	2db28 <_strtod_r+0xd60>
   2e144:	d8c00617 	ldw	r3,24(sp)
   2e148:	003eb906 	br	2dc30 <_strtod_r+0xe68>
   2e14c:	00800404 	movi	r2,16
   2e150:	15c02216 	blt	r2,r23,2e1dc <_strtod_r+0x1414>
   2e154:	d9000f17 	ldw	r4,60(sp)
   2e158:	01400284 	movi	r5,10
   2e15c:	0022d140 	call	22d14 <__mulsi3>
   2e160:	15ad883a 	add	r22,r2,r22
   2e164:	dd800f15 	stw	r22,60(sp)
   2e168:	000d883a 	mov	r6,zero
   2e16c:	003c2606 	br	2d208 <_strtod_r+0x440>
   2e170:	000d883a 	mov	r6,zero
   2e174:	003bf106 	br	2d13c <_strtod_r+0x374>
   2e178:	0080d434 	movhi	r2,848
   2e17c:	1887883a 	add	r3,r3,r2
   2e180:	d8c00715 	stw	r3,28(sp)
   2e184:	0029883a 	mov	r20,zero
   2e188:	003ccc06 	br	2d4bc <_strtod_r+0x6f4>
   2e18c:	d8800617 	ldw	r2,24(sp)
   2e190:	a0001026 	beq	r20,zero,2e1d4 <_strtod_r+0x140c>
   2e194:	191ffc2c 	andhi	r4,r3,32752
   2e198:	0141a834 	movhi	r5,1696
   2e19c:	29000d36 	bltu	r5,r4,2e1d4 <_strtod_r+0x140c>
   2e1a0:	2008d53a 	srli	r4,r4,20
   2e1a4:	01401ac4 	movi	r5,107
   2e1a8:	2909c83a 	sub	r4,r5,r4
   2e1ac:	017fffc4 	movi	r5,-1
   2e1b0:	2908983a 	sll	r4,r5,r4
   2e1b4:	113f391e 	bne	r2,r4,2de9c <_strtod_r+0x10d4>
   2e1b8:	18dffc2c 	andhi	r3,r3,32752
   2e1bc:	00800434 	movhi	r2,16
   2e1c0:	1885883a 	add	r2,r3,r2
   2e1c4:	d8800715 	stw	r2,28(sp)
   2e1c8:	d8000615 	stw	zero,24(sp)
   2e1cc:	a03f1c1e 	bne	r20,zero,2de40 <_strtod_r+0x1078>
   2e1d0:	003e0d06 	br	2da08 <_strtod_r+0xc40>
   2e1d4:	013fffc4 	movi	r4,-1
   2e1d8:	003ff606 	br	2e1b4 <_strtod_r+0x13ec>
   2e1dc:	000d883a 	mov	r6,zero
   2e1e0:	003c0906 	br	2d208 <_strtod_r+0x440>
   2e1e4:	00fffc34 	movhi	r3,65520
   2e1e8:	10c5883a 	add	r2,r2,r3
   2e1ec:	00c00434 	movhi	r3,16
   2e1f0:	18ffffc4 	addi	r3,r3,-1
   2e1f4:	10c4b03a 	or	r2,r2,r3
   2e1f8:	d8800715 	stw	r2,28(sp)
   2e1fc:	00bfffc4 	movi	r2,-1
   2e200:	d8800615 	stw	r2,24(sp)
   2e204:	a03f0e1e 	bne	r20,zero,2de40 <_strtod_r+0x1078>
   2e208:	003dff06 	br	2da08 <_strtod_r+0xc40>
   2e20c:	1011883a 	mov	r8,r2
   2e210:	d8800c15 	stw	r2,48(sp)
   2e214:	010000f4 	movhi	r4,3
   2e218:	21141f04 	addi	r4,r4,20604
   2e21c:	01801004 	movi	r6,64
   2e220:	01c01684 	movi	r7,90
   2e224:	21400007 	ldb	r5,0(r4)
   2e228:	10800044 	addi	r2,r2,1
   2e22c:	21000044 	addi	r4,r4,1
   2e230:	28001a26 	beq	r5,zero,2e29c <_strtod_r+0x14d4>
   2e234:	10c00007 	ldb	r3,0(r2)
   2e238:	30c0020e 	bge	r6,r3,2e244 <_strtod_r+0x147c>
   2e23c:	38c00116 	blt	r7,r3,2e244 <_strtod_r+0x147c>
   2e240:	18c00804 	addi	r3,r3,32
   2e244:	197ff726 	beq	r3,r5,2e224 <_strtod_r+0x145c>
   2e248:	40800044 	addi	r2,r8,1
   2e24c:	d8800c15 	stw	r2,48(sp)
   2e250:	009ffc34 	movhi	r2,32752
   2e254:	d8800715 	stw	r2,28(sp)
   2e258:	d8000615 	stw	zero,24(sp)
   2e25c:	003c7f06 	br	2d45c <_strtod_r+0x694>
   2e260:	18800044 	addi	r2,r3,1
   2e264:	d8800c15 	stw	r2,48(sp)
   2e268:	18c00047 	ldb	r3,1(r3)
   2e26c:	00800a04 	movi	r2,40
   2e270:	18800e26 	beq	r3,r2,2e2ac <_strtod_r+0x14e4>
   2e274:	00bffe34 	movhi	r2,65528
   2e278:	d8800715 	stw	r2,28(sp)
   2e27c:	d8000615 	stw	zero,24(sp)
   2e280:	003c7606 	br	2d45c <_strtod_r+0x694>
   2e284:	0023883a 	mov	r17,zero
   2e288:	058000f4 	movhi	r22,3
   2e28c:	b593df04 	addi	r22,r22,20348
   2e290:	003e4506 	br	2dba8 <_strtod_r+0xde0>
   2e294:	b805883a 	mov	r2,r23
   2e298:	003bd306 	br	2d1e8 <_strtod_r+0x420>
   2e29c:	d8800c15 	stw	r2,48(sp)
   2e2a0:	003feb06 	br	2e250 <_strtod_r+0x1488>
   2e2a4:	05001a84 	movi	r20,106
   2e2a8:	003f3006 	br	2df6c <_strtod_r+0x11a4>
   2e2ac:	d9000c04 	addi	r4,sp,48
   2e2b0:	014000f4 	movhi	r5,3
   2e2b4:	29566a04 	addi	r5,r5,22952
   2e2b8:	d9800204 	addi	r6,sp,8
   2e2bc:	002fd000 	call	2fd00 <__hexnan>
   2e2c0:	00c00144 	movi	r3,5
   2e2c4:	10ffeb1e 	bne	r2,r3,2e274 <_strtod_r+0x14ac>
   2e2c8:	d8800317 	ldw	r2,12(sp)
   2e2cc:	109ffc34 	orhi	r2,r2,32752
   2e2d0:	d8800715 	stw	r2,28(sp)
   2e2d4:	d8800217 	ldw	r2,8(sp)
   2e2d8:	d8800615 	stw	r2,24(sp)
   2e2dc:	003c5f06 	br	2d45c <_strtod_r+0x694>
   2e2e0:	00ffffc4 	movi	r3,-1
   2e2e4:	1884983a 	sll	r2,r3,r2
   2e2e8:	d8c00617 	ldw	r3,24(sp)
   2e2ec:	1884703a 	and	r2,r3,r2
   2e2f0:	d8800615 	stw	r2,24(sp)
   2e2f4:	003f3c06 	br	2dfe8 <_strtod_r+0x1220>
   2e2f8:	10bff804 	addi	r2,r2,-32
   2e2fc:	013fffc4 	movi	r4,-1
   2e300:	2084983a 	sll	r2,r4,r2
   2e304:	10c6703a 	and	r3,r2,r3
   2e308:	d8c00715 	stw	r3,28(sp)
   2e30c:	003f3606 	br	2dfe8 <_strtod_r+0x1220>

0002e310 <strtod>:
   2e310:	00c000f4 	movhi	r3,3
   2e314:	18d6ef04 	addi	r3,r3,23484
   2e318:	2005883a 	mov	r2,r4
   2e31c:	19000017 	ldw	r4,0(r3)
   2e320:	280d883a 	mov	r6,r5
   2e324:	100b883a 	mov	r5,r2
   2e328:	002cdc81 	jmpi	2cdc8 <_strtod_r>

0002e32c <strtof>:
   2e32c:	defffb04 	addi	sp,sp,-20
   2e330:	dcc00315 	stw	r19,12(sp)
   2e334:	04c000f4 	movhi	r19,3
   2e338:	9cd6ef04 	addi	r19,r19,23484
   2e33c:	2005883a 	mov	r2,r4
   2e340:	99000017 	ldw	r4,0(r19)
   2e344:	280d883a 	mov	r6,r5
   2e348:	100b883a 	mov	r5,r2
   2e34c:	dfc00415 	stw	ra,16(sp)
   2e350:	dc800215 	stw	r18,8(sp)
   2e354:	dc400115 	stw	r17,4(sp)
   2e358:	dc000015 	stw	r16,0(sp)
   2e35c:	002cdc80 	call	2cdc8 <_strtod_r>
   2e360:	1009883a 	mov	r4,r2
   2e364:	180b883a 	mov	r5,r3
   2e368:	1025883a 	mov	r18,r2
   2e36c:	1823883a 	mov	r17,r3
   2e370:	0031a0c0 	call	31a0c <__truncdfsf2>
   2e374:	1009883a 	mov	r4,r2
   2e378:	000b883a 	mov	r5,zero
   2e37c:	1021883a 	mov	r16,r2
   2e380:	0030c880 	call	30c88 <__eqsf2>
   2e384:	1000111e 	bne	r2,zero,2e3cc <strtof+0xa0>
   2e388:	9009883a 	mov	r4,r18
   2e38c:	880b883a 	mov	r5,r17
   2e390:	000d883a 	mov	r6,zero
   2e394:	000f883a 	mov	r7,zero
   2e398:	00316880 	call	31688 <__nedf2>
   2e39c:	10000b26 	beq	r2,zero,2e3cc <strtof+0xa0>
   2e3a0:	98800017 	ldw	r2,0(r19)
   2e3a4:	00c00884 	movi	r3,34
   2e3a8:	10c00015 	stw	r3,0(r2)
   2e3ac:	8005883a 	mov	r2,r16
   2e3b0:	dfc00417 	ldw	ra,16(sp)
   2e3b4:	dcc00317 	ldw	r19,12(sp)
   2e3b8:	dc800217 	ldw	r18,8(sp)
   2e3bc:	dc400117 	ldw	r17,4(sp)
   2e3c0:	dc000017 	ldw	r16,0(sp)
   2e3c4:	dec00504 	addi	sp,sp,20
   2e3c8:	f800283a 	ret
   2e3cc:	8009883a 	mov	r4,r16
   2e3d0:	015fe034 	movhi	r5,32640
   2e3d4:	297fffc4 	addi	r5,r5,-1
   2e3d8:	0030cdc0 	call	30cdc <__gtsf2>
   2e3dc:	0080070e 	bge	zero,r2,2e3fc <strtof+0xd0>
   2e3e0:	9009883a 	mov	r4,r18
   2e3e4:	880b883a 	mov	r5,r17
   2e3e8:	01bfffc4 	movi	r6,-1
   2e3ec:	01dffc34 	movhi	r7,32752
   2e3f0:	39ffffc4 	addi	r7,r7,-1
   2e3f4:	00316e40 	call	316e4 <__gtdf2>
   2e3f8:	00bfe90e 	bge	zero,r2,2e3a0 <strtof+0x74>
   2e3fc:	8009883a 	mov	r4,r16
   2e400:	017fe034 	movhi	r5,65408
   2e404:	297fffc4 	addi	r5,r5,-1
   2e408:	0030d380 	call	30d38 <__ltsf2>
   2e40c:	103fe70e 	bge	r2,zero,2e3ac <strtof+0x80>
   2e410:	9009883a 	mov	r4,r18
   2e414:	880b883a 	mov	r5,r17
   2e418:	01bfffc4 	movi	r6,-1
   2e41c:	01fffc34 	movhi	r7,65520
   2e420:	39ffffc4 	addi	r7,r7,-1
   2e424:	00317ac0 	call	317ac <__ltdf2>
   2e428:	103fdd0e 	bge	r2,zero,2e3a0 <strtof+0x74>
   2e42c:	8005883a 	mov	r2,r16
   2e430:	dfc00417 	ldw	ra,16(sp)
   2e434:	dcc00317 	ldw	r19,12(sp)
   2e438:	dc800217 	ldw	r18,8(sp)
   2e43c:	dc400117 	ldw	r17,4(sp)
   2e440:	dc000017 	ldw	r16,0(sp)
   2e444:	dec00504 	addi	sp,sp,20
   2e448:	f800283a 	ret

0002e44c <_strtol_r>:
   2e44c:	defff304 	addi	sp,sp,-52
   2e450:	008000f4 	movhi	r2,3
   2e454:	1096f204 	addi	r2,r2,23496
   2e458:	df000b15 	stw	fp,44(sp)
   2e45c:	17000017 	ldw	fp,0(r2)
   2e460:	ddc00a15 	stw	r23,40(sp)
   2e464:	dd000715 	stw	r20,28(sp)
   2e468:	dcc00615 	stw	r19,24(sp)
   2e46c:	dc000315 	stw	r16,12(sp)
   2e470:	dfc00c15 	stw	ra,48(sp)
   2e474:	dd800915 	stw	r22,36(sp)
   2e478:	dd400815 	stw	r21,32(sp)
   2e47c:	dc800515 	stw	r18,20(sp)
   2e480:	dc400415 	stw	r17,16(sp)
   2e484:	2827883a 	mov	r19,r5
   2e488:	d9000215 	stw	r4,8(sp)
   2e48c:	3029883a 	mov	r20,r6
   2e490:	382f883a 	mov	r23,r7
   2e494:	2821883a 	mov	r16,r5
   2e498:	84400007 	ldb	r17,0(r16)
   2e49c:	84000044 	addi	r16,r16,1
   2e4a0:	e445883a 	add	r2,fp,r17
   2e4a4:	10800003 	ldbu	r2,0(r2)
   2e4a8:	1080020c 	andi	r2,r2,8
   2e4ac:	10803fcc 	andi	r2,r2,255
   2e4b0:	1080201c 	xori	r2,r2,128
   2e4b4:	10bfe004 	addi	r2,r2,-128
   2e4b8:	103ff71e 	bne	r2,zero,2e498 <_strtol_r+0x4c>
   2e4bc:	00800b44 	movi	r2,45
   2e4c0:	88806d26 	beq	r17,r2,2e678 <_strtol_r+0x22c>
   2e4c4:	00800ac4 	movi	r2,43
   2e4c8:	88807026 	beq	r17,r2,2e68c <_strtol_r+0x240>
   2e4cc:	d8000015 	stw	zero,0(sp)
   2e4d0:	b800471e 	bne	r23,zero,2e5f0 <_strtol_r+0x1a4>
   2e4d4:	00800c04 	movi	r2,48
   2e4d8:	88804926 	beq	r17,r2,2e600 <_strtol_r+0x1b4>
   2e4dc:	05c00284 	movi	r23,10
   2e4e0:	b825883a 	mov	r18,r23
   2e4e4:	d9000017 	ldw	r4,0(sp)
   2e4e8:	20006026 	beq	r4,zero,2e66c <_strtol_r+0x220>
   2e4ec:	05600034 	movhi	r21,32768
   2e4f0:	a809883a 	mov	r4,r21
   2e4f4:	900b883a 	mov	r5,r18
   2e4f8:	0022d0c0 	call	22d0c <__umodsi3>
   2e4fc:	a809883a 	mov	r4,r21
   2e500:	900b883a 	mov	r5,r18
   2e504:	d8800115 	stw	r2,4(sp)
   2e508:	0022d040 	call	22d04 <__udivsi3>
   2e50c:	e447883a 	add	r3,fp,r17
   2e510:	18c00003 	ldbu	r3,0(r3)
   2e514:	102b883a 	mov	r21,r2
   2e518:	000d883a 	mov	r6,zero
   2e51c:	1940010c 	andi	r5,r3,4
   2e520:	29403fcc 	andi	r5,r5,255
   2e524:	2940201c 	xori	r5,r5,128
   2e528:	297fe004 	addi	r5,r5,-128
   2e52c:	0009883a 	mov	r4,zero
   2e530:	05bfffc4 	movi	r22,-1
   2e534:	28001226 	beq	r5,zero,2e580 <_strtol_r+0x134>
   2e538:	8c7ff404 	addi	r17,r17,-48
   2e53c:	8dc0170e 	bge	r17,r23,2e59c <_strtol_r+0x150>
   2e540:	35800626 	beq	r6,r22,2e55c <_strtol_r+0x110>
   2e544:	a9003a36 	bltu	r21,r4,2e630 <_strtol_r+0x1e4>
   2e548:	25403726 	beq	r4,r21,2e628 <_strtol_r+0x1dc>
   2e54c:	900b883a 	mov	r5,r18
   2e550:	0022d140 	call	22d14 <__mulsi3>
   2e554:	8889883a 	add	r4,r17,r2
   2e558:	01800044 	movi	r6,1
   2e55c:	84400007 	ldb	r17,0(r16)
   2e560:	84000044 	addi	r16,r16,1
   2e564:	e447883a 	add	r3,fp,r17
   2e568:	18c00003 	ldbu	r3,0(r3)
   2e56c:	1940010c 	andi	r5,r3,4
   2e570:	29403fcc 	andi	r5,r5,255
   2e574:	2940201c 	xori	r5,r5,128
   2e578:	297fe004 	addi	r5,r5,-128
   2e57c:	283fee1e 	bne	r5,zero,2e538 <_strtol_r+0xec>
   2e580:	188000cc 	andi	r2,r3,3
   2e584:	10000526 	beq	r2,zero,2e59c <_strtol_r+0x150>
   2e588:	18c0004c 	andi	r3,r3,1
   2e58c:	18002a26 	beq	r3,zero,2e638 <_strtol_r+0x1ec>
   2e590:	00800dc4 	movi	r2,55
   2e594:	88a3c83a 	sub	r17,r17,r2
   2e598:	8dffe916 	blt	r17,r23,2e540 <_strtol_r+0xf4>
   2e59c:	00bfffc4 	movi	r2,-1
   2e5a0:	30802826 	beq	r6,r2,2e644 <_strtol_r+0x1f8>
   2e5a4:	d8800017 	ldw	r2,0(sp)
   2e5a8:	10000126 	beq	r2,zero,2e5b0 <_strtol_r+0x164>
   2e5ac:	0109c83a 	sub	r4,zero,r4
   2e5b0:	2005883a 	mov	r2,r4
   2e5b4:	a0000226 	beq	r20,zero,2e5c0 <_strtol_r+0x174>
   2e5b8:	30002a1e 	bne	r6,zero,2e664 <_strtol_r+0x218>
   2e5bc:	a4c00015 	stw	r19,0(r20)
   2e5c0:	dfc00c17 	ldw	ra,48(sp)
   2e5c4:	df000b17 	ldw	fp,44(sp)
   2e5c8:	ddc00a17 	ldw	r23,40(sp)
   2e5cc:	dd800917 	ldw	r22,36(sp)
   2e5d0:	dd400817 	ldw	r21,32(sp)
   2e5d4:	dd000717 	ldw	r20,28(sp)
   2e5d8:	dcc00617 	ldw	r19,24(sp)
   2e5dc:	dc800517 	ldw	r18,20(sp)
   2e5e0:	dc400417 	ldw	r17,16(sp)
   2e5e4:	dc000317 	ldw	r16,12(sp)
   2e5e8:	dec00d04 	addi	sp,sp,52
   2e5ec:	f800283a 	ret
   2e5f0:	00800404 	movi	r2,16
   2e5f4:	b8bfba1e 	bne	r23,r2,2e4e0 <_strtol_r+0x94>
   2e5f8:	00800c04 	movi	r2,48
   2e5fc:	88bfb81e 	bne	r17,r2,2e4e0 <_strtol_r+0x94>
   2e600:	80800007 	ldb	r2,0(r16)
   2e604:	00c01e04 	movi	r3,120
   2e608:	10c02626 	beq	r2,r3,2e6a4 <_strtol_r+0x258>
   2e60c:	00c01604 	movi	r3,88
   2e610:	10c02426 	beq	r2,r3,2e6a4 <_strtol_r+0x258>
   2e614:	b800281e 	bne	r23,zero,2e6b8 <_strtol_r+0x26c>
   2e618:	04800204 	movi	r18,8
   2e61c:	04400c04 	movi	r17,48
   2e620:	902f883a 	mov	r23,r18
   2e624:	003faf06 	br	2e4e4 <_strtol_r+0x98>
   2e628:	d8800117 	ldw	r2,4(sp)
   2e62c:	147fc70e 	bge	r2,r17,2e54c <_strtol_r+0x100>
   2e630:	01bfffc4 	movi	r6,-1
   2e634:	003fc906 	br	2e55c <_strtol_r+0x110>
   2e638:	008015c4 	movi	r2,87
   2e63c:	88a3c83a 	sub	r17,r17,r2
   2e640:	003fd506 	br	2e598 <_strtol_r+0x14c>
   2e644:	d9000017 	ldw	r4,0(sp)
   2e648:	2000141e 	bne	r4,zero,2e69c <_strtol_r+0x250>
   2e64c:	00a00034 	movhi	r2,32768
   2e650:	10bfffc4 	addi	r2,r2,-1
   2e654:	d9000217 	ldw	r4,8(sp)
   2e658:	00c00884 	movi	r3,34
   2e65c:	20c00015 	stw	r3,0(r4)
   2e660:	a03fd726 	beq	r20,zero,2e5c0 <_strtol_r+0x174>
   2e664:	84ffffc4 	addi	r19,r16,-1
   2e668:	003fd406 	br	2e5bc <_strtol_r+0x170>
   2e66c:	05600034 	movhi	r21,32768
   2e670:	ad7fffc4 	addi	r21,r21,-1
   2e674:	003f9e06 	br	2e4f0 <_strtol_r+0xa4>
   2e678:	00800044 	movi	r2,1
   2e67c:	84400007 	ldb	r17,0(r16)
   2e680:	d8800015 	stw	r2,0(sp)
   2e684:	80a1883a 	add	r16,r16,r2
   2e688:	003f9106 	br	2e4d0 <_strtol_r+0x84>
   2e68c:	84400007 	ldb	r17,0(r16)
   2e690:	d8000015 	stw	zero,0(sp)
   2e694:	84000044 	addi	r16,r16,1
   2e698:	003f8d06 	br	2e4d0 <_strtol_r+0x84>
   2e69c:	00a00034 	movhi	r2,32768
   2e6a0:	003fec06 	br	2e654 <_strtol_r+0x208>
   2e6a4:	04800404 	movi	r18,16
   2e6a8:	84400047 	ldb	r17,1(r16)
   2e6ac:	902f883a 	mov	r23,r18
   2e6b0:	84000084 	addi	r16,r16,2
   2e6b4:	003f8b06 	br	2e4e4 <_strtol_r+0x98>
   2e6b8:	b825883a 	mov	r18,r23
   2e6bc:	04400c04 	movi	r17,48
   2e6c0:	003f8806 	br	2e4e4 <_strtol_r+0x98>

0002e6c4 <strtol>:
   2e6c4:	008000f4 	movhi	r2,3
   2e6c8:	1096ef04 	addi	r2,r2,23484
   2e6cc:	2007883a 	mov	r3,r4
   2e6d0:	11000017 	ldw	r4,0(r2)
   2e6d4:	2805883a 	mov	r2,r5
   2e6d8:	300f883a 	mov	r7,r6
   2e6dc:	180b883a 	mov	r5,r3
   2e6e0:	100d883a 	mov	r6,r2
   2e6e4:	002e44c1 	jmpi	2e44c <_strtol_r>

0002e6e8 <_strtoll_r>:
   2e6e8:	defff004 	addi	sp,sp,-64
   2e6ec:	008000f4 	movhi	r2,3
   2e6f0:	1096f204 	addi	r2,r2,23496
   2e6f4:	ddc00d15 	stw	r23,52(sp)
   2e6f8:	15c00017 	ldw	r23,0(r2)
   2e6fc:	df000e15 	stw	fp,56(sp)
   2e700:	dc000615 	stw	r16,24(sp)
   2e704:	dfc00f15 	stw	ra,60(sp)
   2e708:	dd800c15 	stw	r22,48(sp)
   2e70c:	dd400b15 	stw	r21,44(sp)
   2e710:	dd000a15 	stw	r20,40(sp)
   2e714:	dcc00915 	stw	r19,36(sp)
   2e718:	dc800815 	stw	r18,32(sp)
   2e71c:	dc400715 	stw	r17,28(sp)
   2e720:	d9400015 	stw	r5,0(sp)
   2e724:	d9000415 	stw	r4,16(sp)
   2e728:	d9800115 	stw	r6,4(sp)
   2e72c:	3839883a 	mov	fp,r7
   2e730:	2821883a 	mov	r16,r5
   2e734:	82000007 	ldb	r8,0(r16)
   2e738:	84000044 	addi	r16,r16,1
   2e73c:	ba05883a 	add	r2,r23,r8
   2e740:	10800003 	ldbu	r2,0(r2)
   2e744:	1080020c 	andi	r2,r2,8
   2e748:	10803fcc 	andi	r2,r2,255
   2e74c:	1080201c 	xori	r2,r2,128
   2e750:	10bfe004 	addi	r2,r2,-128
   2e754:	103ff71e 	bne	r2,zero,2e734 <_strtoll_r+0x4c>
   2e758:	00800b44 	movi	r2,45
   2e75c:	40807a26 	beq	r8,r2,2e948 <_strtoll_r+0x260>
   2e760:	00800ac4 	movi	r2,43
   2e764:	40808826 	beq	r8,r2,2e988 <_strtoll_r+0x2a0>
   2e768:	d8000215 	stw	zero,8(sp)
   2e76c:	e000061e 	bne	fp,zero,2e788 <_strtoll_r+0xa0>
   2e770:	00800c04 	movi	r2,48
   2e774:	40808b26 	beq	r8,r2,2e9a4 <_strtoll_r+0x2bc>
   2e778:	04800284 	movi	r18,10
   2e77c:	0027883a 	mov	r19,zero
   2e780:	9039883a 	mov	fp,r18
   2e784:	00000406 	br	2e798 <_strtoll_r+0xb0>
   2e788:	00800404 	movi	r2,16
   2e78c:	e0809926 	beq	fp,r2,2e9f4 <_strtoll_r+0x30c>
   2e790:	e027d7fa 	srai	r19,fp,31
   2e794:	e025883a 	mov	r18,fp
   2e798:	d9000217 	ldw	r4,8(sp)
   2e79c:	20006226 	beq	r4,zero,2e928 <_strtoll_r+0x240>
   2e7a0:	002b883a 	mov	r21,zero
   2e7a4:	04600034 	movhi	r17,32768
   2e7a8:	a809883a 	mov	r4,r21
   2e7ac:	880b883a 	mov	r5,r17
   2e7b0:	900d883a 	mov	r6,r18
   2e7b4:	980f883a 	mov	r7,r19
   2e7b8:	da000515 	stw	r8,20(sp)
   2e7bc:	00306600 	call	30660 <__umoddi3>
   2e7c0:	a809883a 	mov	r4,r21
   2e7c4:	880b883a 	mov	r5,r17
   2e7c8:	900d883a 	mov	r6,r18
   2e7cc:	980f883a 	mov	r7,r19
   2e7d0:	d8800315 	stw	r2,12(sp)
   2e7d4:	00300100 	call	30010 <__udivdi3>
   2e7d8:	da000517 	ldw	r8,20(sp)
   2e7dc:	182b883a 	mov	r21,r3
   2e7e0:	1023883a 	mov	r17,r2
   2e7e4:	ba0d883a 	add	r6,r23,r8
   2e7e8:	31800003 	ldbu	r6,0(r6)
   2e7ec:	0007883a 	mov	r3,zero
   2e7f0:	0009883a 	mov	r4,zero
   2e7f4:	3240010c 	andi	r9,r6,4
   2e7f8:	4a403fcc 	andi	r9,r9,255
   2e7fc:	4a40201c 	xori	r9,r9,128
   2e800:	4a7fe004 	addi	r9,r9,-128
   2e804:	000b883a 	mov	r5,zero
   2e808:	05bfffc4 	movi	r22,-1
   2e80c:	48001026 	beq	r9,zero,2e850 <_strtoll_r+0x168>
   2e810:	453ff404 	addi	r20,r8,-48
   2e814:	a700150e 	bge	r20,fp,2e86c <_strtoll_r+0x184>
   2e818:	1d800426 	beq	r3,r22,2e82c <_strtoll_r+0x144>
   2e81c:	a9400236 	bltu	r21,r5,2e828 <_strtoll_r+0x140>
   2e820:	2d402e1e 	bne	r5,r21,2e8dc <_strtoll_r+0x1f4>
   2e824:	89002d2e 	bgeu	r17,r4,2e8dc <_strtoll_r+0x1f4>
   2e828:	00ffffc4 	movi	r3,-1
   2e82c:	82000007 	ldb	r8,0(r16)
   2e830:	84000044 	addi	r16,r16,1
   2e834:	ba0d883a 	add	r6,r23,r8
   2e838:	31800003 	ldbu	r6,0(r6)
   2e83c:	3240010c 	andi	r9,r6,4
   2e840:	4a403fcc 	andi	r9,r9,255
   2e844:	4a40201c 	xori	r9,r9,128
   2e848:	4a7fe004 	addi	r9,r9,-128
   2e84c:	483ff01e 	bne	r9,zero,2e810 <_strtoll_r+0x128>
   2e850:	308000cc 	andi	r2,r6,3
   2e854:	10000526 	beq	r2,zero,2e86c <_strtoll_r+0x184>
   2e858:	3180004c 	andi	r6,r6,1
   2e85c:	30002b26 	beq	r6,zero,2e90c <_strtoll_r+0x224>
   2e860:	00800dc4 	movi	r2,55
   2e864:	40a9c83a 	sub	r20,r8,r2
   2e868:	a73feb16 	blt	r20,fp,2e818 <_strtoll_r+0x130>
   2e86c:	00bfffc4 	movi	r2,-1
   2e870:	18803a26 	beq	r3,r2,2e95c <_strtoll_r+0x274>
   2e874:	d8800217 	ldw	r2,8(sp)
   2e878:	10000426 	beq	r2,zero,2e88c <_strtoll_r+0x1a4>
   2e87c:	0109c83a 	sub	r4,zero,r4
   2e880:	2004c03a 	cmpne	r2,r4,zero
   2e884:	014bc83a 	sub	r5,zero,r5
   2e888:	288bc83a 	sub	r5,r5,r2
   2e88c:	d8800117 	ldw	r2,4(sp)
   2e890:	10004f26 	beq	r2,zero,2e9d0 <_strtoll_r+0x2e8>
   2e894:	2005883a 	mov	r2,r4
   2e898:	1800271e 	bne	r3,zero,2e938 <_strtoll_r+0x250>
   2e89c:	2807883a 	mov	r3,r5
   2e8a0:	d9400017 	ldw	r5,0(sp)
   2e8a4:	d9000117 	ldw	r4,4(sp)
   2e8a8:	21400015 	stw	r5,0(r4)
   2e8ac:	dfc00f17 	ldw	ra,60(sp)
   2e8b0:	df000e17 	ldw	fp,56(sp)
   2e8b4:	ddc00d17 	ldw	r23,52(sp)
   2e8b8:	dd800c17 	ldw	r22,48(sp)
   2e8bc:	dd400b17 	ldw	r21,44(sp)
   2e8c0:	dd000a17 	ldw	r20,40(sp)
   2e8c4:	dcc00917 	ldw	r19,36(sp)
   2e8c8:	dc800817 	ldw	r18,32(sp)
   2e8cc:	dc400717 	ldw	r17,28(sp)
   2e8d0:	dc000617 	ldw	r16,24(sp)
   2e8d4:	dec01004 	addi	sp,sp,64
   2e8d8:	f800283a 	ret
   2e8dc:	24400e26 	beq	r4,r17,2e918 <_strtoll_r+0x230>
   2e8e0:	900d883a 	mov	r6,r18
   2e8e4:	980f883a 	mov	r7,r19
   2e8e8:	0022d3c0 	call	22d3c <__muldi3>
   2e8ec:	a00dd7fa 	srai	r6,r20,31
   2e8f0:	a085883a 	add	r2,r20,r2
   2e8f4:	1511803a 	cmpltu	r8,r2,r20
   2e8f8:	30c7883a 	add	r3,r6,r3
   2e8fc:	40cb883a 	add	r5,r8,r3
   2e900:	1009883a 	mov	r4,r2
   2e904:	00c00044 	movi	r3,1
   2e908:	003fc806 	br	2e82c <_strtoll_r+0x144>
   2e90c:	008015c4 	movi	r2,87
   2e910:	40a9c83a 	sub	r20,r8,r2
   2e914:	003fd406 	br	2e868 <_strtoll_r+0x180>
   2e918:	2d7ff11e 	bne	r5,r21,2e8e0 <_strtoll_r+0x1f8>
   2e91c:	d8800317 	ldw	r2,12(sp)
   2e920:	153fc116 	blt	r2,r20,2e828 <_strtoll_r+0x140>
   2e924:	003fee06 	br	2e8e0 <_strtoll_r+0x1f8>
   2e928:	057fffc4 	movi	r21,-1
   2e92c:	04600034 	movhi	r17,32768
   2e930:	8c7fffc4 	addi	r17,r17,-1
   2e934:	003f9c06 	br	2e7a8 <_strtoll_r+0xc0>
   2e938:	2807883a 	mov	r3,r5
   2e93c:	843fffc4 	addi	r16,r16,-1
   2e940:	dc000015 	stw	r16,0(sp)
   2e944:	003fd606 	br	2e8a0 <_strtoll_r+0x1b8>
   2e948:	00800044 	movi	r2,1
   2e94c:	82000007 	ldb	r8,0(r16)
   2e950:	d8800215 	stw	r2,8(sp)
   2e954:	80a1883a 	add	r16,r16,r2
   2e958:	003f8406 	br	2e76c <_strtoll_r+0x84>
   2e95c:	d9000217 	ldw	r4,8(sp)
   2e960:	20000d1e 	bne	r4,zero,2e998 <_strtoll_r+0x2b0>
   2e964:	1805883a 	mov	r2,r3
   2e968:	00e00034 	movhi	r3,32768
   2e96c:	18ffffc4 	addi	r3,r3,-1
   2e970:	d9400417 	ldw	r5,16(sp)
   2e974:	01000884 	movi	r4,34
   2e978:	29000015 	stw	r4,0(r5)
   2e97c:	d9000117 	ldw	r4,4(sp)
   2e980:	203fee1e 	bne	r4,zero,2e93c <_strtoll_r+0x254>
   2e984:	003fc906 	br	2e8ac <_strtoll_r+0x1c4>
   2e988:	82000007 	ldb	r8,0(r16)
   2e98c:	d8000215 	stw	zero,8(sp)
   2e990:	84000044 	addi	r16,r16,1
   2e994:	003f7506 	br	2e76c <_strtoll_r+0x84>
   2e998:	0005883a 	mov	r2,zero
   2e99c:	00e00034 	movhi	r3,32768
   2e9a0:	003ff306 	br	2e970 <_strtoll_r+0x288>
   2e9a4:	80800007 	ldb	r2,0(r16)
   2e9a8:	00c01e04 	movi	r3,120
   2e9ac:	10c00b26 	beq	r2,r3,2e9dc <_strtoll_r+0x2f4>
   2e9b0:	00c01604 	movi	r3,88
   2e9b4:	10c00926 	beq	r2,r3,2e9dc <_strtoll_r+0x2f4>
   2e9b8:	e000131e 	bne	fp,zero,2ea08 <_strtoll_r+0x320>
   2e9bc:	04800204 	movi	r18,8
   2e9c0:	0027883a 	mov	r19,zero
   2e9c4:	02000c04 	movi	r8,48
   2e9c8:	9039883a 	mov	fp,r18
   2e9cc:	003f7206 	br	2e798 <_strtoll_r+0xb0>
   2e9d0:	2005883a 	mov	r2,r4
   2e9d4:	2807883a 	mov	r3,r5
   2e9d8:	003fb406 	br	2e8ac <_strtoll_r+0x1c4>
   2e9dc:	04800404 	movi	r18,16
   2e9e0:	82000047 	ldb	r8,1(r16)
   2e9e4:	0027883a 	mov	r19,zero
   2e9e8:	84000084 	addi	r16,r16,2
   2e9ec:	9039883a 	mov	fp,r18
   2e9f0:	003f6906 	br	2e798 <_strtoll_r+0xb0>
   2e9f4:	00800c04 	movi	r2,48
   2e9f8:	40bfea26 	beq	r8,r2,2e9a4 <_strtoll_r+0x2bc>
   2e9fc:	e025883a 	mov	r18,fp
   2ea00:	0027883a 	mov	r19,zero
   2ea04:	003f6406 	br	2e798 <_strtoll_r+0xb0>
   2ea08:	e025883a 	mov	r18,fp
   2ea0c:	e027d7fa 	srai	r19,fp,31
   2ea10:	02000c04 	movi	r8,48
   2ea14:	003f6006 	br	2e798 <_strtoll_r+0xb0>

0002ea18 <_strtoul_r>:
   2ea18:	defff304 	addi	sp,sp,-52
   2ea1c:	008000f4 	movhi	r2,3
   2ea20:	1096f204 	addi	r2,r2,23496
   2ea24:	df000b15 	stw	fp,44(sp)
   2ea28:	17000017 	ldw	fp,0(r2)
   2ea2c:	ddc00a15 	stw	r23,40(sp)
   2ea30:	dd000715 	stw	r20,28(sp)
   2ea34:	dcc00615 	stw	r19,24(sp)
   2ea38:	dc000315 	stw	r16,12(sp)
   2ea3c:	dfc00c15 	stw	ra,48(sp)
   2ea40:	dd800915 	stw	r22,36(sp)
   2ea44:	dd400815 	stw	r21,32(sp)
   2ea48:	dc800515 	stw	r18,20(sp)
   2ea4c:	dc400415 	stw	r17,16(sp)
   2ea50:	2827883a 	mov	r19,r5
   2ea54:	d9000215 	stw	r4,8(sp)
   2ea58:	3029883a 	mov	r20,r6
   2ea5c:	382f883a 	mov	r23,r7
   2ea60:	2821883a 	mov	r16,r5
   2ea64:	84400007 	ldb	r17,0(r16)
   2ea68:	84000044 	addi	r16,r16,1
   2ea6c:	e445883a 	add	r2,fp,r17
   2ea70:	10800003 	ldbu	r2,0(r2)
   2ea74:	1080020c 	andi	r2,r2,8
   2ea78:	10803fcc 	andi	r2,r2,255
   2ea7c:	1080201c 	xori	r2,r2,128
   2ea80:	10bfe004 	addi	r2,r2,-128
   2ea84:	103ff71e 	bne	r2,zero,2ea64 <_strtoul_r+0x4c>
   2ea88:	00800b44 	movi	r2,45
   2ea8c:	88805e26 	beq	r17,r2,2ec08 <_strtoul_r+0x1f0>
   2ea90:	00800ac4 	movi	r2,43
   2ea94:	88806126 	beq	r17,r2,2ec1c <_strtoul_r+0x204>
   2ea98:	d8000115 	stw	zero,4(sp)
   2ea9c:	b800091e 	bne	r23,zero,2eac4 <_strtoul_r+0xac>
   2eaa0:	00800c04 	movi	r2,48
   2eaa4:	88806326 	beq	r17,r2,2ec34 <_strtoul_r+0x21c>
   2eaa8:	05c00284 	movi	r23,10
   2eaac:	00800144 	movi	r2,5
   2eab0:	d8800015 	stw	r2,0(sp)
   2eab4:	058666b4 	movhi	r22,6554
   2eab8:	b5a66644 	addi	r22,r22,-26215
   2eabc:	b825883a 	mov	r18,r23
   2eac0:	00000b06 	br	2eaf0 <_strtoul_r+0xd8>
   2eac4:	00800404 	movi	r2,16
   2eac8:	b8805826 	beq	r23,r2,2ec2c <_strtoul_r+0x214>
   2eacc:	013fffc4 	movi	r4,-1
   2ead0:	b80b883a 	mov	r5,r23
   2ead4:	0022d040 	call	22d04 <__udivsi3>
   2ead8:	013fffc4 	movi	r4,-1
   2eadc:	b80b883a 	mov	r5,r23
   2eae0:	102d883a 	mov	r22,r2
   2eae4:	0022d0c0 	call	22d0c <__umodsi3>
   2eae8:	d8800015 	stw	r2,0(sp)
   2eaec:	b825883a 	mov	r18,r23
   2eaf0:	e447883a 	add	r3,fp,r17
   2eaf4:	18c00003 	ldbu	r3,0(r3)
   2eaf8:	0011883a 	mov	r8,zero
   2eafc:	0009883a 	mov	r4,zero
   2eb00:	1980010c 	andi	r6,r3,4
   2eb04:	31803fcc 	andi	r6,r6,255
   2eb08:	3180201c 	xori	r6,r6,128
   2eb0c:	31bfe004 	addi	r6,r6,-128
   2eb10:	057fffc4 	movi	r21,-1
   2eb14:	30001226 	beq	r6,zero,2eb60 <_strtoul_r+0x148>
   2eb18:	8c7ff404 	addi	r17,r17,-48
   2eb1c:	8dc0170e 	bge	r17,r23,2eb7c <_strtoul_r+0x164>
   2eb20:	45400626 	beq	r8,r21,2eb3c <_strtoul_r+0x124>
   2eb24:	b1002c36 	bltu	r22,r4,2ebd8 <_strtoul_r+0x1c0>
   2eb28:	25802926 	beq	r4,r22,2ebd0 <_strtoul_r+0x1b8>
   2eb2c:	900b883a 	mov	r5,r18
   2eb30:	0022d140 	call	22d14 <__mulsi3>
   2eb34:	8889883a 	add	r4,r17,r2
   2eb38:	02000044 	movi	r8,1
   2eb3c:	84400007 	ldb	r17,0(r16)
   2eb40:	84000044 	addi	r16,r16,1
   2eb44:	e447883a 	add	r3,fp,r17
   2eb48:	18c00003 	ldbu	r3,0(r3)
   2eb4c:	1980010c 	andi	r6,r3,4
   2eb50:	31803fcc 	andi	r6,r6,255
   2eb54:	3180201c 	xori	r6,r6,128
   2eb58:	31bfe004 	addi	r6,r6,-128
   2eb5c:	303fee1e 	bne	r6,zero,2eb18 <_strtoul_r+0x100>
   2eb60:	188000cc 	andi	r2,r3,3
   2eb64:	10000526 	beq	r2,zero,2eb7c <_strtoul_r+0x164>
   2eb68:	18c0004c 	andi	r3,r3,1
   2eb6c:	18001c26 	beq	r3,zero,2ebe0 <_strtoul_r+0x1c8>
   2eb70:	00800dc4 	movi	r2,55
   2eb74:	88a3c83a 	sub	r17,r17,r2
   2eb78:	8dffe916 	blt	r17,r23,2eb20 <_strtoul_r+0x108>
   2eb7c:	00bfffc4 	movi	r2,-1
   2eb80:	40801a26 	beq	r8,r2,2ebec <_strtoul_r+0x1d4>
   2eb84:	d8c00117 	ldw	r3,4(sp)
   2eb88:	18000126 	beq	r3,zero,2eb90 <_strtoul_r+0x178>
   2eb8c:	0109c83a 	sub	r4,zero,r4
   2eb90:	a0000226 	beq	r20,zero,2eb9c <_strtoul_r+0x184>
   2eb94:	40001a1e 	bne	r8,zero,2ec00 <_strtoul_r+0x1e8>
   2eb98:	a4c00015 	stw	r19,0(r20)
   2eb9c:	2005883a 	mov	r2,r4
   2eba0:	dfc00c17 	ldw	ra,48(sp)
   2eba4:	df000b17 	ldw	fp,44(sp)
   2eba8:	ddc00a17 	ldw	r23,40(sp)
   2ebac:	dd800917 	ldw	r22,36(sp)
   2ebb0:	dd400817 	ldw	r21,32(sp)
   2ebb4:	dd000717 	ldw	r20,28(sp)
   2ebb8:	dcc00617 	ldw	r19,24(sp)
   2ebbc:	dc800517 	ldw	r18,20(sp)
   2ebc0:	dc400417 	ldw	r17,16(sp)
   2ebc4:	dc000317 	ldw	r16,12(sp)
   2ebc8:	dec00d04 	addi	sp,sp,52
   2ebcc:	f800283a 	ret
   2ebd0:	d8800017 	ldw	r2,0(sp)
   2ebd4:	147fd50e 	bge	r2,r17,2eb2c <_strtoul_r+0x114>
   2ebd8:	023fffc4 	movi	r8,-1
   2ebdc:	003fd706 	br	2eb3c <_strtoul_r+0x124>
   2ebe0:	008015c4 	movi	r2,87
   2ebe4:	88a3c83a 	sub	r17,r17,r2
   2ebe8:	003fe306 	br	2eb78 <_strtoul_r+0x160>
   2ebec:	d8c00217 	ldw	r3,8(sp)
   2ebf0:	00800884 	movi	r2,34
   2ebf4:	4009883a 	mov	r4,r8
   2ebf8:	18800015 	stw	r2,0(r3)
   2ebfc:	a03fe726 	beq	r20,zero,2eb9c <_strtoul_r+0x184>
   2ec00:	84ffffc4 	addi	r19,r16,-1
   2ec04:	003fe406 	br	2eb98 <_strtoul_r+0x180>
   2ec08:	00c00044 	movi	r3,1
   2ec0c:	84400007 	ldb	r17,0(r16)
   2ec10:	d8c00115 	stw	r3,4(sp)
   2ec14:	80e1883a 	add	r16,r16,r3
   2ec18:	003fa006 	br	2ea9c <_strtoul_r+0x84>
   2ec1c:	84400007 	ldb	r17,0(r16)
   2ec20:	d8000115 	stw	zero,4(sp)
   2ec24:	84000044 	addi	r16,r16,1
   2ec28:	003f9c06 	br	2ea9c <_strtoul_r+0x84>
   2ec2c:	00800c04 	movi	r2,48
   2ec30:	88bfa61e 	bne	r17,r2,2eacc <_strtoul_r+0xb4>
   2ec34:	80800007 	ldb	r2,0(r16)
   2ec38:	00c01e04 	movi	r3,120
   2ec3c:	10c00b26 	beq	r2,r3,2ec6c <_strtoul_r+0x254>
   2ec40:	00c01604 	movi	r3,88
   2ec44:	10c00926 	beq	r2,r3,2ec6c <_strtoul_r+0x254>
   2ec48:	b800111e 	bne	r23,zero,2ec90 <_strtoul_r+0x278>
   2ec4c:	04800204 	movi	r18,8
   2ec50:	008001c4 	movi	r2,7
   2ec54:	d8800015 	stw	r2,0(sp)
   2ec58:	05880034 	movhi	r22,8192
   2ec5c:	b5bfffc4 	addi	r22,r22,-1
   2ec60:	04400c04 	movi	r17,48
   2ec64:	902f883a 	mov	r23,r18
   2ec68:	003fa106 	br	2eaf0 <_strtoul_r+0xd8>
   2ec6c:	04800404 	movi	r18,16
   2ec70:	008003c4 	movi	r2,15
   2ec74:	84400047 	ldb	r17,1(r16)
   2ec78:	d8800015 	stw	r2,0(sp)
   2ec7c:	84000084 	addi	r16,r16,2
   2ec80:	05840034 	movhi	r22,4096
   2ec84:	b5bfffc4 	addi	r22,r22,-1
   2ec88:	902f883a 	mov	r23,r18
   2ec8c:	003f9806 	br	2eaf0 <_strtoul_r+0xd8>
   2ec90:	013fffc4 	movi	r4,-1
   2ec94:	b80b883a 	mov	r5,r23
   2ec98:	0022d040 	call	22d04 <__udivsi3>
   2ec9c:	013fffc4 	movi	r4,-1
   2eca0:	b80b883a 	mov	r5,r23
   2eca4:	102d883a 	mov	r22,r2
   2eca8:	0022d0c0 	call	22d0c <__umodsi3>
   2ecac:	d8800015 	stw	r2,0(sp)
   2ecb0:	b825883a 	mov	r18,r23
   2ecb4:	04400c04 	movi	r17,48
   2ecb8:	003f8d06 	br	2eaf0 <_strtoul_r+0xd8>

0002ecbc <strtoul>:
   2ecbc:	008000f4 	movhi	r2,3
   2ecc0:	1096ef04 	addi	r2,r2,23484
   2ecc4:	2007883a 	mov	r3,r4
   2ecc8:	11000017 	ldw	r4,0(r2)
   2eccc:	2805883a 	mov	r2,r5
   2ecd0:	300f883a 	mov	r7,r6
   2ecd4:	180b883a 	mov	r5,r3
   2ecd8:	100d883a 	mov	r6,r2
   2ecdc:	002ea181 	jmpi	2ea18 <_strtoul_r>

0002ece0 <_strtoull_r>:
   2ece0:	defff004 	addi	sp,sp,-64
   2ece4:	008000f4 	movhi	r2,3
   2ece8:	1096f204 	addi	r2,r2,23496
   2ecec:	dd800c15 	stw	r22,48(sp)
   2ecf0:	15800017 	ldw	r22,0(r2)
   2ecf4:	df000e15 	stw	fp,56(sp)
   2ecf8:	dc000615 	stw	r16,24(sp)
   2ecfc:	dfc00f15 	stw	ra,60(sp)
   2ed00:	ddc00d15 	stw	r23,52(sp)
   2ed04:	dd400b15 	stw	r21,44(sp)
   2ed08:	dd000a15 	stw	r20,40(sp)
   2ed0c:	dcc00915 	stw	r19,36(sp)
   2ed10:	dc800815 	stw	r18,32(sp)
   2ed14:	dc400715 	stw	r17,28(sp)
   2ed18:	d9400015 	stw	r5,0(sp)
   2ed1c:	d9000415 	stw	r4,16(sp)
   2ed20:	d9800115 	stw	r6,4(sp)
   2ed24:	3839883a 	mov	fp,r7
   2ed28:	2821883a 	mov	r16,r5
   2ed2c:	82000007 	ldb	r8,0(r16)
   2ed30:	84000044 	addi	r16,r16,1
   2ed34:	b205883a 	add	r2,r22,r8
   2ed38:	10800003 	ldbu	r2,0(r2)
   2ed3c:	1080020c 	andi	r2,r2,8
   2ed40:	10803fcc 	andi	r2,r2,255
   2ed44:	1080201c 	xori	r2,r2,128
   2ed48:	10bfe004 	addi	r2,r2,-128
   2ed4c:	103ff71e 	bne	r2,zero,2ed2c <_strtoull_r+0x4c>
   2ed50:	00800b44 	movi	r2,45
   2ed54:	40807e26 	beq	r8,r2,2ef50 <_strtoull_r+0x270>
   2ed58:	00800ac4 	movi	r2,43
   2ed5c:	40808126 	beq	r8,r2,2ef64 <_strtoull_r+0x284>
   2ed60:	d8000315 	stw	zero,12(sp)
   2ed64:	e0000c1e 	bne	fp,zero,2ed98 <_strtoull_r+0xb8>
   2ed68:	00800c04 	movi	r2,48
   2ed6c:	40808126 	beq	r8,r2,2ef74 <_strtoull_r+0x294>
   2ed70:	04c00284 	movi	r19,10
   2ed74:	00800144 	movi	r2,5
   2ed78:	d8800215 	stw	r2,8(sp)
   2ed7c:	046666b4 	movhi	r17,39322
   2ed80:	8c666644 	addi	r17,r17,-26215
   2ed84:	05c666b4 	movhi	r23,6554
   2ed88:	bde66644 	addi	r23,r23,-26215
   2ed8c:	0025883a 	mov	r18,zero
   2ed90:	9839883a 	mov	fp,r19
   2ed94:	00001306 	br	2ede4 <_strtoull_r+0x104>
   2ed98:	00800404 	movi	r2,16
   2ed9c:	e0809026 	beq	fp,r2,2efe0 <_strtoull_r+0x300>
   2eda0:	e025d7fa 	srai	r18,fp,31
   2eda4:	013fffc4 	movi	r4,-1
   2eda8:	200b883a 	mov	r5,r4
   2edac:	e00d883a 	mov	r6,fp
   2edb0:	900f883a 	mov	r7,r18
   2edb4:	da000515 	stw	r8,20(sp)
   2edb8:	00300100 	call	30010 <__udivdi3>
   2edbc:	013fffc4 	movi	r4,-1
   2edc0:	200b883a 	mov	r5,r4
   2edc4:	e00d883a 	mov	r6,fp
   2edc8:	900f883a 	mov	r7,r18
   2edcc:	1023883a 	mov	r17,r2
   2edd0:	182f883a 	mov	r23,r3
   2edd4:	00306600 	call	30660 <__umoddi3>
   2edd8:	da000517 	ldw	r8,20(sp)
   2eddc:	d8800215 	stw	r2,8(sp)
   2ede0:	e027883a 	mov	r19,fp
   2ede4:	b20d883a 	add	r6,r22,r8
   2ede8:	32400003 	ldbu	r9,0(r6)
   2edec:	0007883a 	mov	r3,zero
   2edf0:	0009883a 	mov	r4,zero
   2edf4:	4a80010c 	andi	r10,r9,4
   2edf8:	52803fcc 	andi	r10,r10,255
   2edfc:	5280201c 	xori	r10,r10,128
   2ee00:	52bfe004 	addi	r10,r10,-128
   2ee04:	000b883a 	mov	r5,zero
   2ee08:	057fffc4 	movi	r21,-1
   2ee0c:	50001026 	beq	r10,zero,2ee50 <_strtoull_r+0x170>
   2ee10:	453ff404 	addi	r20,r8,-48
   2ee14:	a700150e 	bge	r20,fp,2ee6c <_strtoull_r+0x18c>
   2ee18:	1d400426 	beq	r3,r21,2ee2c <_strtoull_r+0x14c>
   2ee1c:	b9400236 	bltu	r23,r5,2ee28 <_strtoull_r+0x148>
   2ee20:	2dc0301e 	bne	r5,r23,2eee4 <_strtoull_r+0x204>
   2ee24:	89002f2e 	bgeu	r17,r4,2eee4 <_strtoull_r+0x204>
   2ee28:	00ffffc4 	movi	r3,-1
   2ee2c:	82000007 	ldb	r8,0(r16)
   2ee30:	84000044 	addi	r16,r16,1
   2ee34:	b20d883a 	add	r6,r22,r8
   2ee38:	32400003 	ldbu	r9,0(r6)
   2ee3c:	4a80010c 	andi	r10,r9,4
   2ee40:	52803fcc 	andi	r10,r10,255
   2ee44:	5280201c 	xori	r10,r10,128
   2ee48:	52bfe004 	addi	r10,r10,-128
   2ee4c:	503ff01e 	bne	r10,zero,2ee10 <_strtoull_r+0x130>
   2ee50:	488000cc 	andi	r2,r9,3
   2ee54:	10000526 	beq	r2,zero,2ee6c <_strtoull_r+0x18c>
   2ee58:	4a40004c 	andi	r9,r9,1
   2ee5c:	48002d26 	beq	r9,zero,2ef14 <_strtoull_r+0x234>
   2ee60:	00800dc4 	movi	r2,55
   2ee64:	40a9c83a 	sub	r20,r8,r2
   2ee68:	a73feb16 	blt	r20,fp,2ee18 <_strtoull_r+0x138>
   2ee6c:	00bfffc4 	movi	r2,-1
   2ee70:	18802f26 	beq	r3,r2,2ef30 <_strtoull_r+0x250>
   2ee74:	d8800317 	ldw	r2,12(sp)
   2ee78:	10000426 	beq	r2,zero,2ee8c <_strtoull_r+0x1ac>
   2ee7c:	0109c83a 	sub	r4,zero,r4
   2ee80:	2004c03a 	cmpne	r2,r4,zero
   2ee84:	014bc83a 	sub	r5,zero,r5
   2ee88:	288bc83a 	sub	r5,r5,r2
   2ee8c:	d8800117 	ldw	r2,4(sp)
   2ee90:	10000626 	beq	r2,zero,2eeac <_strtoull_r+0x1cc>
   2ee94:	18000226 	beq	r3,zero,2eea0 <_strtoull_r+0x1c0>
   2ee98:	843fffc4 	addi	r16,r16,-1
   2ee9c:	dc000015 	stw	r16,0(sp)
   2eea0:	d8800017 	ldw	r2,0(sp)
   2eea4:	d8c00117 	ldw	r3,4(sp)
   2eea8:	18800015 	stw	r2,0(r3)
   2eeac:	2005883a 	mov	r2,r4
   2eeb0:	2807883a 	mov	r3,r5
   2eeb4:	dfc00f17 	ldw	ra,60(sp)
   2eeb8:	df000e17 	ldw	fp,56(sp)
   2eebc:	ddc00d17 	ldw	r23,52(sp)
   2eec0:	dd800c17 	ldw	r22,48(sp)
   2eec4:	dd400b17 	ldw	r21,44(sp)
   2eec8:	dd000a17 	ldw	r20,40(sp)
   2eecc:	dcc00917 	ldw	r19,36(sp)
   2eed0:	dc800817 	ldw	r18,32(sp)
   2eed4:	dc400717 	ldw	r17,28(sp)
   2eed8:	dc000617 	ldw	r16,24(sp)
   2eedc:	dec01004 	addi	sp,sp,64
   2eee0:	f800283a 	ret
   2eee4:	24400e26 	beq	r4,r17,2ef20 <_strtoull_r+0x240>
   2eee8:	980d883a 	mov	r6,r19
   2eeec:	900f883a 	mov	r7,r18
   2eef0:	0022d3c0 	call	22d3c <__muldi3>
   2eef4:	a00dd7fa 	srai	r6,r20,31
   2eef8:	a085883a 	add	r2,r20,r2
   2eefc:	1511803a 	cmpltu	r8,r2,r20
   2ef00:	30c7883a 	add	r3,r6,r3
   2ef04:	40cb883a 	add	r5,r8,r3
   2ef08:	1009883a 	mov	r4,r2
   2ef0c:	00c00044 	movi	r3,1
   2ef10:	003fc606 	br	2ee2c <_strtoull_r+0x14c>
   2ef14:	008015c4 	movi	r2,87
   2ef18:	40a9c83a 	sub	r20,r8,r2
   2ef1c:	003fd206 	br	2ee68 <_strtoull_r+0x188>
   2ef20:	2dfff11e 	bne	r5,r23,2eee8 <_strtoull_r+0x208>
   2ef24:	d8800217 	ldw	r2,8(sp)
   2ef28:	153fbf16 	blt	r2,r20,2ee28 <_strtoull_r+0x148>
   2ef2c:	003fee06 	br	2eee8 <_strtoull_r+0x208>
   2ef30:	d9000417 	ldw	r4,16(sp)
   2ef34:	00800884 	movi	r2,34
   2ef38:	180b883a 	mov	r5,r3
   2ef3c:	20800015 	stw	r2,0(r4)
   2ef40:	d8800117 	ldw	r2,4(sp)
   2ef44:	1809883a 	mov	r4,r3
   2ef48:	103fd31e 	bne	r2,zero,2ee98 <_strtoull_r+0x1b8>
   2ef4c:	003fd706 	br	2eeac <_strtoull_r+0x1cc>
   2ef50:	00800044 	movi	r2,1
   2ef54:	82000007 	ldb	r8,0(r16)
   2ef58:	d8800315 	stw	r2,12(sp)
   2ef5c:	80a1883a 	add	r16,r16,r2
   2ef60:	003f8006 	br	2ed64 <_strtoull_r+0x84>
   2ef64:	82000007 	ldb	r8,0(r16)
   2ef68:	d8000315 	stw	zero,12(sp)
   2ef6c:	84000044 	addi	r16,r16,1
   2ef70:	003f7c06 	br	2ed64 <_strtoull_r+0x84>
   2ef74:	80800007 	ldb	r2,0(r16)
   2ef78:	00c01e04 	movi	r3,120
   2ef7c:	10c00d26 	beq	r2,r3,2efb4 <_strtoull_r+0x2d4>
   2ef80:	00c01604 	movi	r3,88
   2ef84:	10c00b26 	beq	r2,r3,2efb4 <_strtoull_r+0x2d4>
   2ef88:	e000291e 	bne	fp,zero,2f030 <_strtoull_r+0x350>
   2ef8c:	04c00204 	movi	r19,8
   2ef90:	008001c4 	movi	r2,7
   2ef94:	d8800215 	stw	r2,8(sp)
   2ef98:	047fffc4 	movi	r17,-1
   2ef9c:	05c80034 	movhi	r23,8192
   2efa0:	bdffffc4 	addi	r23,r23,-1
   2efa4:	0025883a 	mov	r18,zero
   2efa8:	02000c04 	movi	r8,48
   2efac:	9839883a 	mov	fp,r19
   2efb0:	003f8c06 	br	2ede4 <_strtoull_r+0x104>
   2efb4:	04c00404 	movi	r19,16
   2efb8:	008003c4 	movi	r2,15
   2efbc:	82000047 	ldb	r8,1(r16)
   2efc0:	d8800215 	stw	r2,8(sp)
   2efc4:	84000084 	addi	r16,r16,2
   2efc8:	047fffc4 	movi	r17,-1
   2efcc:	05c40034 	movhi	r23,4096
   2efd0:	bdffffc4 	addi	r23,r23,-1
   2efd4:	0025883a 	mov	r18,zero
   2efd8:	9839883a 	mov	fp,r19
   2efdc:	003f8106 	br	2ede4 <_strtoull_r+0x104>
   2efe0:	00800c04 	movi	r2,48
   2efe4:	40bfe326 	beq	r8,r2,2ef74 <_strtoull_r+0x294>
   2efe8:	013fffc4 	movi	r4,-1
   2efec:	200b883a 	mov	r5,r4
   2eff0:	e00d883a 	mov	r6,fp
   2eff4:	000f883a 	mov	r7,zero
   2eff8:	da000515 	stw	r8,20(sp)
   2effc:	00300100 	call	30010 <__udivdi3>
   2f000:	013fffc4 	movi	r4,-1
   2f004:	200b883a 	mov	r5,r4
   2f008:	e00d883a 	mov	r6,fp
   2f00c:	000f883a 	mov	r7,zero
   2f010:	1023883a 	mov	r17,r2
   2f014:	182f883a 	mov	r23,r3
   2f018:	00306600 	call	30660 <__umoddi3>
   2f01c:	d8800215 	stw	r2,8(sp)
   2f020:	e027883a 	mov	r19,fp
   2f024:	0025883a 	mov	r18,zero
   2f028:	da000517 	ldw	r8,20(sp)
   2f02c:	003f6d06 	br	2ede4 <_strtoull_r+0x104>
   2f030:	e025d7fa 	srai	r18,fp,31
   2f034:	013fffc4 	movi	r4,-1
   2f038:	200b883a 	mov	r5,r4
   2f03c:	e00d883a 	mov	r6,fp
   2f040:	900f883a 	mov	r7,r18
   2f044:	00300100 	call	30010 <__udivdi3>
   2f048:	013fffc4 	movi	r4,-1
   2f04c:	200b883a 	mov	r5,r4
   2f050:	e00d883a 	mov	r6,fp
   2f054:	900f883a 	mov	r7,r18
   2f058:	1023883a 	mov	r17,r2
   2f05c:	182f883a 	mov	r23,r3
   2f060:	00306600 	call	30660 <__umoddi3>
   2f064:	d8800215 	stw	r2,8(sp)
   2f068:	e027883a 	mov	r19,fp
   2f06c:	02000c04 	movi	r8,48
   2f070:	003f5c06 	br	2ede4 <_strtoull_r+0x104>

0002f074 <__submore>:
   2f074:	defffa04 	addi	sp,sp,-24
   2f078:	dc000015 	stw	r16,0(sp)
   2f07c:	2821883a 	mov	r16,r5
   2f080:	29400c17 	ldw	r5,48(r5)
   2f084:	dfc00515 	stw	ra,20(sp)
   2f088:	dd000415 	stw	r20,16(sp)
   2f08c:	dcc00315 	stw	r19,12(sp)
   2f090:	dc800215 	stw	r18,8(sp)
   2f094:	dc400115 	stw	r17,4(sp)
   2f098:	80801004 	addi	r2,r16,64
   2f09c:	28801726 	beq	r5,r2,2f0fc <__submore+0x88>
   2f0a0:	84400d17 	ldw	r17,52(r16)
   2f0a4:	8c67883a 	add	r19,r17,r17
   2f0a8:	980d883a 	mov	r6,r19
   2f0ac:	002c5340 	call	2c534 <_realloc_r>
   2f0b0:	1025883a 	mov	r18,r2
   2f0b4:	10002926 	beq	r2,zero,2f15c <__submore+0xe8>
   2f0b8:	1469883a 	add	r20,r2,r17
   2f0bc:	a009883a 	mov	r4,r20
   2f0c0:	100b883a 	mov	r5,r2
   2f0c4:	880d883a 	mov	r6,r17
   2f0c8:	00250a80 	call	250a8 <memcpy>
   2f0cc:	0005883a 	mov	r2,zero
   2f0d0:	85000015 	stw	r20,0(r16)
   2f0d4:	84800c15 	stw	r18,48(r16)
   2f0d8:	84c00d15 	stw	r19,52(r16)
   2f0dc:	dfc00517 	ldw	ra,20(sp)
   2f0e0:	dd000417 	ldw	r20,16(sp)
   2f0e4:	dcc00317 	ldw	r19,12(sp)
   2f0e8:	dc800217 	ldw	r18,8(sp)
   2f0ec:	dc400117 	ldw	r17,4(sp)
   2f0f0:	dc000017 	ldw	r16,0(sp)
   2f0f4:	dec00604 	addi	sp,sp,24
   2f0f8:	f800283a 	ret
   2f0fc:	04410004 	movi	r17,1024
   2f100:	880b883a 	mov	r5,r17
   2f104:	00249240 	call	24924 <_malloc_r>
   2f108:	1007883a 	mov	r3,r2
   2f10c:	10001326 	beq	r2,zero,2f15c <__submore+0xe8>
   2f110:	80801083 	ldbu	r2,66(r16)
   2f114:	80c00c15 	stw	r3,48(r16)
   2f118:	84400d15 	stw	r17,52(r16)
   2f11c:	1880ffc5 	stb	r2,1023(r3)
   2f120:	81401043 	ldbu	r5,65(r16)
   2f124:	1900ff44 	addi	r4,r3,1021
   2f128:	0005883a 	mov	r2,zero
   2f12c:	1940ff85 	stb	r5,1022(r3)
   2f130:	81401003 	ldbu	r5,64(r16)
   2f134:	1940ff45 	stb	r5,1021(r3)
   2f138:	81000015 	stw	r4,0(r16)
   2f13c:	dfc00517 	ldw	ra,20(sp)
   2f140:	dd000417 	ldw	r20,16(sp)
   2f144:	dcc00317 	ldw	r19,12(sp)
   2f148:	dc800217 	ldw	r18,8(sp)
   2f14c:	dc400117 	ldw	r17,4(sp)
   2f150:	dc000017 	ldw	r16,0(sp)
   2f154:	dec00604 	addi	sp,sp,24
   2f158:	f800283a 	ret
   2f15c:	00bfffc4 	movi	r2,-1
   2f160:	003fde06 	br	2f0dc <__submore+0x68>

0002f164 <_ungetc_r>:
   2f164:	defffc04 	addi	sp,sp,-16
   2f168:	dc800215 	stw	r18,8(sp)
   2f16c:	dc400115 	stw	r17,4(sp)
   2f170:	dc000015 	stw	r16,0(sp)
   2f174:	dfc00315 	stw	ra,12(sp)
   2f178:	00bfffc4 	movi	r2,-1
   2f17c:	2825883a 	mov	r18,r5
   2f180:	2023883a 	mov	r17,r4
   2f184:	3021883a 	mov	r16,r6
   2f188:	28803026 	beq	r5,r2,2f24c <_ungetc_r+0xe8>
   2f18c:	20000226 	beq	r4,zero,2f198 <_ungetc_r+0x34>
   2f190:	20800e17 	ldw	r2,56(r4)
   2f194:	10002f26 	beq	r2,zero,2f254 <_ungetc_r+0xf0>
   2f198:	80c0030b 	ldhu	r3,12(r16)
   2f19c:	00bff7c4 	movi	r2,-33
   2f1a0:	1900010c 	andi	r4,r3,4
   2f1a4:	213fffcc 	andi	r4,r4,65535
   2f1a8:	1884703a 	and	r2,r3,r2
   2f1ac:	2120001c 	xori	r4,r4,32768
   2f1b0:	8080030d 	sth	r2,12(r16)
   2f1b4:	21200004 	addi	r4,r4,-32768
   2f1b8:	20000c1e 	bne	r4,zero,2f1ec <_ungetc_r+0x88>
   2f1bc:	1900040c 	andi	r4,r3,16
   2f1c0:	213fffcc 	andi	r4,r4,65535
   2f1c4:	2120001c 	xori	r4,r4,32768
   2f1c8:	21200004 	addi	r4,r4,-32768
   2f1cc:	20001f26 	beq	r4,zero,2f24c <_ungetc_r+0xe8>
   2f1d0:	18c0020c 	andi	r3,r3,8
   2f1d4:	18ffffcc 	andi	r3,r3,65535
   2f1d8:	18e0001c 	xori	r3,r3,32768
   2f1dc:	18e00004 	addi	r3,r3,-32768
   2f1e0:	1800371e 	bne	r3,zero,2f2c0 <_ungetc_r+0x15c>
   2f1e4:	10800114 	ori	r2,r2,4
   2f1e8:	8080030d 	sth	r2,12(r16)
   2f1ec:	80800c17 	ldw	r2,48(r16)
   2f1f0:	94803fcc 	andi	r18,r18,255
   2f1f4:	10001926 	beq	r2,zero,2f25c <_ungetc_r+0xf8>
   2f1f8:	80c00117 	ldw	r3,4(r16)
   2f1fc:	80800d17 	ldw	r2,52(r16)
   2f200:	18800e0e 	bge	r3,r2,2f23c <_ungetc_r+0xd8>
   2f204:	80800017 	ldw	r2,0(r16)
   2f208:	10ffffc4 	addi	r3,r2,-1
   2f20c:	80c00015 	stw	r3,0(r16)
   2f210:	14bfffc5 	stb	r18,-1(r2)
   2f214:	80800117 	ldw	r2,4(r16)
   2f218:	10800044 	addi	r2,r2,1
   2f21c:	80800115 	stw	r2,4(r16)
   2f220:	9005883a 	mov	r2,r18
   2f224:	dfc00317 	ldw	ra,12(sp)
   2f228:	dc800217 	ldw	r18,8(sp)
   2f22c:	dc400117 	ldw	r17,4(sp)
   2f230:	dc000017 	ldw	r16,0(sp)
   2f234:	dec00404 	addi	sp,sp,16
   2f238:	f800283a 	ret
   2f23c:	8809883a 	mov	r4,r17
   2f240:	800b883a 	mov	r5,r16
   2f244:	002f0740 	call	2f074 <__submore>
   2f248:	103fee26 	beq	r2,zero,2f204 <_ungetc_r+0xa0>
   2f24c:	04bfffc4 	movi	r18,-1
   2f250:	003ff306 	br	2f220 <_ungetc_r+0xbc>
   2f254:	00235b40 	call	235b4 <__sinit>
   2f258:	003fcf06 	br	2f198 <_ungetc_r+0x34>
   2f25c:	80c00417 	ldw	r3,16(r16)
   2f260:	80800017 	ldw	r2,0(r16)
   2f264:	18000326 	beq	r3,zero,2f274 <_ungetc_r+0x110>
   2f268:	1880022e 	bgeu	r3,r2,2f274 <_ungetc_r+0x110>
   2f26c:	10ffffc3 	ldbu	r3,-1(r2)
   2f270:	1c801d26 	beq	r3,r18,2f2e8 <_ungetc_r+0x184>
   2f274:	81400117 	ldw	r5,4(r16)
   2f278:	80800e15 	stw	r2,56(r16)
   2f27c:	008000c4 	movi	r2,3
   2f280:	80800d15 	stw	r2,52(r16)
   2f284:	00800044 	movi	r2,1
   2f288:	81001004 	addi	r4,r16,64
   2f28c:	80c01084 	addi	r3,r16,66
   2f290:	80800115 	stw	r2,4(r16)
   2f294:	9005883a 	mov	r2,r18
   2f298:	81400f15 	stw	r5,60(r16)
   2f29c:	81000c15 	stw	r4,48(r16)
   2f2a0:	84801085 	stb	r18,66(r16)
   2f2a4:	80c00015 	stw	r3,0(r16)
   2f2a8:	dfc00317 	ldw	ra,12(sp)
   2f2ac:	dc800217 	ldw	r18,8(sp)
   2f2b0:	dc400117 	ldw	r17,4(sp)
   2f2b4:	dc000017 	ldw	r16,0(sp)
   2f2b8:	dec00404 	addi	sp,sp,16
   2f2bc:	f800283a 	ret
   2f2c0:	8809883a 	mov	r4,r17
   2f2c4:	800b883a 	mov	r5,r16
   2f2c8:	00232f80 	call	232f8 <_fflush_r>
   2f2cc:	103fdf1e 	bne	r2,zero,2f24c <_ungetc_r+0xe8>
   2f2d0:	8080030b 	ldhu	r2,12(r16)
   2f2d4:	00fffdc4 	movi	r3,-9
   2f2d8:	80000215 	stw	zero,8(r16)
   2f2dc:	1884703a 	and	r2,r3,r2
   2f2e0:	80000615 	stw	zero,24(r16)
   2f2e4:	003fbf06 	br	2f1e4 <_ungetc_r+0x80>
   2f2e8:	80c00117 	ldw	r3,4(r16)
   2f2ec:	10bfffc4 	addi	r2,r2,-1
   2f2f0:	80800015 	stw	r2,0(r16)
   2f2f4:	18800044 	addi	r2,r3,1
   2f2f8:	80800115 	stw	r2,4(r16)
   2f2fc:	003fc806 	br	2f220 <_ungetc_r+0xbc>

0002f300 <ungetc>:
   2f300:	00c000f4 	movhi	r3,3
   2f304:	18d6ef04 	addi	r3,r3,23484
   2f308:	2005883a 	mov	r2,r4
   2f30c:	19000017 	ldw	r4,0(r3)
   2f310:	280d883a 	mov	r6,r5
   2f314:	100b883a 	mov	r5,r2
   2f318:	002f1641 	jmpi	2f164 <_ungetc_r>

0002f31c <_calloc_r>:
   2f31c:	defffe04 	addi	sp,sp,-8
   2f320:	dc000015 	stw	r16,0(sp)
   2f324:	2021883a 	mov	r16,r4
   2f328:	3009883a 	mov	r4,r6
   2f32c:	dfc00115 	stw	ra,4(sp)
   2f330:	0022d140 	call	22d14 <__mulsi3>
   2f334:	8009883a 	mov	r4,r16
   2f338:	100b883a 	mov	r5,r2
   2f33c:	00249240 	call	24924 <_malloc_r>
   2f340:	1021883a 	mov	r16,r2
   2f344:	10000c26 	beq	r2,zero,2f378 <_calloc_r+0x5c>
   2f348:	11bfff17 	ldw	r6,-4(r2)
   2f34c:	00ffff04 	movi	r3,-4
   2f350:	00800904 	movi	r2,36
   2f354:	30cc703a 	and	r6,r6,r3
   2f358:	30cd883a 	add	r6,r6,r3
   2f35c:	11801436 	bltu	r2,r6,2f3b0 <_calloc_r+0x94>
   2f360:	00c004c4 	movi	r3,19
   2f364:	19800936 	bltu	r3,r6,2f38c <_calloc_r+0x70>
   2f368:	8005883a 	mov	r2,r16
   2f36c:	10000015 	stw	zero,0(r2)
   2f370:	10000115 	stw	zero,4(r2)
   2f374:	10000215 	stw	zero,8(r2)
   2f378:	8005883a 	mov	r2,r16
   2f37c:	dfc00117 	ldw	ra,4(sp)
   2f380:	dc000017 	ldw	r16,0(sp)
   2f384:	dec00204 	addi	sp,sp,8
   2f388:	f800283a 	ret
   2f38c:	80000015 	stw	zero,0(r16)
   2f390:	80000115 	stw	zero,4(r16)
   2f394:	00c006c4 	movi	r3,27
   2f398:	19800d2e 	bgeu	r3,r6,2f3d0 <_calloc_r+0xb4>
   2f39c:	80000215 	stw	zero,8(r16)
   2f3a0:	80000315 	stw	zero,12(r16)
   2f3a4:	30800c26 	beq	r6,r2,2f3d8 <_calloc_r+0xbc>
   2f3a8:	80800404 	addi	r2,r16,16
   2f3ac:	003fef06 	br	2f36c <_calloc_r+0x50>
   2f3b0:	8009883a 	mov	r4,r16
   2f3b4:	000b883a 	mov	r5,zero
   2f3b8:	00251e80 	call	251e8 <memset>
   2f3bc:	8005883a 	mov	r2,r16
   2f3c0:	dfc00117 	ldw	ra,4(sp)
   2f3c4:	dc000017 	ldw	r16,0(sp)
   2f3c8:	dec00204 	addi	sp,sp,8
   2f3cc:	f800283a 	ret
   2f3d0:	80800204 	addi	r2,r16,8
   2f3d4:	003fe506 	br	2f36c <_calloc_r+0x50>
   2f3d8:	80000415 	stw	zero,16(r16)
   2f3dc:	80000515 	stw	zero,20(r16)
   2f3e0:	80800604 	addi	r2,r16,24
   2f3e4:	003fe106 	br	2f36c <_calloc_r+0x50>

0002f3e8 <rshift>:
   2f3e8:	2805d17a 	srai	r2,r5,5
   2f3ec:	20c00417 	ldw	r3,16(r4)
   2f3f0:	22800504 	addi	r10,r4,20
   2f3f4:	10c0270e 	bge	r2,r3,2f494 <rshift+0xac>
   2f3f8:	19800144 	addi	r6,r3,5
   2f3fc:	12c00144 	addi	r11,r2,5
   2f400:	318d883a 	add	r6,r6,r6
   2f404:	5ad7883a 	add	r11,r11,r11
   2f408:	318d883a 	add	r6,r6,r6
   2f40c:	5ad7883a 	add	r11,r11,r11
   2f410:	294007cc 	andi	r5,r5,31
   2f414:	218d883a 	add	r6,r4,r6
   2f418:	22d7883a 	add	r11,r4,r11
   2f41c:	28002026 	beq	r5,zero,2f4a0 <rshift+0xb8>
   2f420:	59c00017 	ldw	r7,0(r11)
   2f424:	02400804 	movi	r9,32
   2f428:	58800104 	addi	r2,r11,4
   2f42c:	4953c83a 	sub	r9,r9,r5
   2f430:	394ed83a 	srl	r7,r7,r5
   2f434:	11802e2e 	bgeu	r2,r6,2f4f0 <rshift+0x108>
   2f438:	5007883a 	mov	r3,r10
   2f43c:	12000017 	ldw	r8,0(r2)
   2f440:	18c00104 	addi	r3,r3,4
   2f444:	10800104 	addi	r2,r2,4
   2f448:	4250983a 	sll	r8,r8,r9
   2f44c:	3a0eb03a 	or	r7,r7,r8
   2f450:	19ffff15 	stw	r7,-4(r3)
   2f454:	11ffff17 	ldw	r7,-4(r2)
   2f458:	394ed83a 	srl	r7,r7,r5
   2f45c:	11bff736 	bltu	r2,r6,2f43c <rshift+0x54>
   2f460:	32c5c83a 	sub	r2,r6,r11
   2f464:	10bffec4 	addi	r2,r2,-5
   2f468:	1004d0ba 	srli	r2,r2,2
   2f46c:	10800184 	addi	r2,r2,6
   2f470:	1085883a 	add	r2,r2,r2
   2f474:	1085883a 	add	r2,r2,r2
   2f478:	2085883a 	add	r2,r4,r2
   2f47c:	11c00015 	stw	r7,0(r2)
   2f480:	38001626 	beq	r7,zero,2f4dc <rshift+0xf4>
   2f484:	10800104 	addi	r2,r2,4
   2f488:	1295c83a 	sub	r10,r2,r10
   2f48c:	5015d0ba 	srai	r10,r10,2
   2f490:	00001406 	br	2f4e4 <rshift+0xfc>
   2f494:	20000415 	stw	zero,16(r4)
   2f498:	20000515 	stw	zero,20(r4)
   2f49c:	f800283a 	ret
   2f4a0:	59bffc2e 	bgeu	r11,r6,2f494 <rshift+0xac>
   2f4a4:	5007883a 	mov	r3,r10
   2f4a8:	5805883a 	mov	r2,r11
   2f4ac:	11400017 	ldw	r5,0(r2)
   2f4b0:	18c00104 	addi	r3,r3,4
   2f4b4:	10800104 	addi	r2,r2,4
   2f4b8:	197fff15 	stw	r5,-4(r3)
   2f4bc:	11bffb36 	bltu	r2,r6,2f4ac <rshift+0xc4>
   2f4c0:	02c4303a 	nor	r2,zero,r11
   2f4c4:	1185883a 	add	r2,r2,r6
   2f4c8:	1004d0ba 	srli	r2,r2,2
   2f4cc:	10800184 	addi	r2,r2,6
   2f4d0:	1085883a 	add	r2,r2,r2
   2f4d4:	1085883a 	add	r2,r2,r2
   2f4d8:	2085883a 	add	r2,r4,r2
   2f4dc:	1295c83a 	sub	r10,r2,r10
   2f4e0:	5015d0ba 	srai	r10,r10,2
   2f4e4:	22800415 	stw	r10,16(r4)
   2f4e8:	503feb26 	beq	r10,zero,2f498 <rshift+0xb0>
   2f4ec:	f800283a 	ret
   2f4f0:	5005883a 	mov	r2,r10
   2f4f4:	003fe106 	br	2f47c <rshift+0x94>

0002f4f8 <__hexdig_init>:
   2f4f8:	014000f4 	movhi	r5,3
   2f4fc:	29543044 	addi	r5,r5,20673
   2f500:	01000404 	movi	r4,16
   2f504:	00c00c04 	movi	r3,48
   2f508:	00800134 	movhi	r2,4
   2f50c:	10a147c4 	addi	r2,r2,-31457
   2f510:	29800003 	ldbu	r6,0(r5)
   2f514:	10c7883a 	add	r3,r2,r3
   2f518:	19000005 	stb	r4,0(r3)
   2f51c:	29400044 	addi	r5,r5,1
   2f520:	3007883a 	mov	r3,r6
   2f524:	21000044 	addi	r4,r4,1
   2f528:	303ff91e 	bne	r6,zero,2f510 <__hexdig_init+0x18>
   2f52c:	014000f4 	movhi	r5,3
   2f530:	29542e44 	addi	r5,r5,20665
   2f534:	01000684 	movi	r4,26
   2f538:	00c01844 	movi	r3,97
   2f53c:	29800003 	ldbu	r6,0(r5)
   2f540:	10c7883a 	add	r3,r2,r3
   2f544:	19000005 	stb	r4,0(r3)
   2f548:	29400044 	addi	r5,r5,1
   2f54c:	3007883a 	mov	r3,r6
   2f550:	21000044 	addi	r4,r4,1
   2f554:	303ff91e 	bne	r6,zero,2f53c <__hexdig_init+0x44>
   2f558:	014000f4 	movhi	r5,3
   2f55c:	29542c44 	addi	r5,r5,20657
   2f560:	01000684 	movi	r4,26
   2f564:	00c01044 	movi	r3,65
   2f568:	29800003 	ldbu	r6,0(r5)
   2f56c:	10c7883a 	add	r3,r2,r3
   2f570:	19000005 	stb	r4,0(r3)
   2f574:	29400044 	addi	r5,r5,1
   2f578:	3007883a 	mov	r3,r6
   2f57c:	21000044 	addi	r4,r4,1
   2f580:	303ff91e 	bne	r6,zero,2f568 <__hexdig_init+0x70>
   2f584:	f800283a 	ret

0002f588 <__gethex>:
   2f588:	defff204 	addi	sp,sp,-56
   2f58c:	dc800615 	stw	r18,24(sp)
   2f590:	04800134 	movhi	r18,4
   2f594:	94a147c4 	addi	r18,r18,-31457
   2f598:	90800c03 	ldbu	r2,48(r18)
   2f59c:	dd400915 	stw	r21,36(sp)
   2f5a0:	dc400515 	stw	r17,20(sp)
   2f5a4:	dfc00d15 	stw	ra,52(sp)
   2f5a8:	df000c15 	stw	fp,48(sp)
   2f5ac:	ddc00b15 	stw	r23,44(sp)
   2f5b0:	dd800a15 	stw	r22,40(sp)
   2f5b4:	dd000815 	stw	r20,32(sp)
   2f5b8:	dcc00715 	stw	r19,28(sp)
   2f5bc:	dc000415 	stw	r16,16(sp)
   2f5c0:	d9000115 	stw	r4,4(sp)
   2f5c4:	d9c00215 	stw	r7,8(sp)
   2f5c8:	282b883a 	mov	r21,r5
   2f5cc:	3023883a 	mov	r17,r6
   2f5d0:	1000b926 	beq	r2,zero,2f8b8 <__gethex+0x330>
   2f5d4:	a9000017 	ldw	r4,0(r21)
   2f5d8:	00800c04 	movi	r2,48
   2f5dc:	20c00083 	ldbu	r3,2(r4)
   2f5e0:	24c00084 	addi	r19,r4,2
   2f5e4:	1881601e 	bne	r3,r2,2fb68 <__gethex+0x5e0>
   2f5e8:	017fff84 	movi	r5,-2
   2f5ec:	208000c4 	addi	r2,r4,3
   2f5f0:	290bc83a 	sub	r5,r5,r4
   2f5f4:	1809883a 	mov	r4,r3
   2f5f8:	28b9883a 	add	fp,r5,r2
   2f5fc:	1027883a 	mov	r19,r2
   2f600:	10800044 	addi	r2,r2,1
   2f604:	10ffffc3 	ldbu	r3,-1(r2)
   2f608:	193ffb26 	beq	r3,r4,2f5f8 <__gethex+0x70>
   2f60c:	90c5883a 	add	r2,r18,r3
   2f610:	10800003 	ldbu	r2,0(r2)
   2f614:	01400134 	movhi	r5,4
   2f618:	296147c4 	addi	r5,r5,-31457
   2f61c:	10002b26 	beq	r2,zero,2f6cc <__gethex+0x144>
   2f620:	98800003 	ldbu	r2,0(r19)
   2f624:	0009883a 	mov	r4,zero
   2f628:	288b883a 	add	r5,r5,r2
   2f62c:	28c00003 	ldbu	r3,0(r5)
   2f630:	18016826 	beq	r3,zero,2fbd4 <__gethex+0x64c>
   2f634:	9821883a 	mov	r16,r19
   2f638:	84000044 	addi	r16,r16,1
   2f63c:	80800003 	ldbu	r2,0(r16)
   2f640:	9087883a 	add	r3,r18,r2
   2f644:	18c00003 	ldbu	r3,0(r3)
   2f648:	183ffb1e 	bne	r3,zero,2f638 <__gethex+0xb0>
   2f64c:	d8000015 	stw	zero,0(sp)
   2f650:	00c00b84 	movi	r3,46
   2f654:	10c0f226 	beq	r2,r3,2fa20 <__gethex+0x498>
   2f658:	80800003 	ldbu	r2,0(r16)
   2f65c:	20014426 	beq	r4,zero,2fb70 <__gethex+0x5e8>
   2f660:	8109c83a 	sub	r4,r16,r4
   2f664:	2109883a 	add	r4,r4,r4
   2f668:	2109883a 	add	r4,r4,r4
   2f66c:	0129c83a 	sub	r20,zero,r4
   2f670:	00c01404 	movi	r3,80
   2f674:	10c01e26 	beq	r2,r3,2f6f0 <__gethex+0x168>
   2f678:	00c01c04 	movi	r3,112
   2f67c:	10c01c26 	beq	r2,r3,2f6f0 <__gethex+0x168>
   2f680:	d8c00017 	ldw	r3,0(sp)
   2f684:	802d883a 	mov	r22,r16
   2f688:	ad800015 	stw	r22,0(r21)
   2f68c:	18004026 	beq	r3,zero,2f790 <__gethex+0x208>
   2f690:	e001061e 	bne	fp,zero,2faac <__gethex+0x524>
   2f694:	04000184 	movi	r16,6
   2f698:	8005883a 	mov	r2,r16
   2f69c:	dfc00d17 	ldw	ra,52(sp)
   2f6a0:	df000c17 	ldw	fp,48(sp)
   2f6a4:	ddc00b17 	ldw	r23,44(sp)
   2f6a8:	dd800a17 	ldw	r22,40(sp)
   2f6ac:	dd400917 	ldw	r21,36(sp)
   2f6b0:	dd000817 	ldw	r20,32(sp)
   2f6b4:	dcc00717 	ldw	r19,28(sp)
   2f6b8:	dc800617 	ldw	r18,24(sp)
   2f6bc:	dc400517 	ldw	r17,20(sp)
   2f6c0:	dc000417 	ldw	r16,16(sp)
   2f6c4:	dec00e04 	addi	sp,sp,56
   2f6c8:	f800283a 	ret
   2f6cc:	00800b84 	movi	r2,46
   2f6d0:	1880d626 	beq	r3,r2,2fa2c <__gethex+0x4a4>
   2f6d4:	98800003 	ldbu	r2,0(r19)
   2f6d8:	00c00044 	movi	r3,1
   2f6dc:	d8c00015 	stw	r3,0(sp)
   2f6e0:	00c01404 	movi	r3,80
   2f6e4:	9821883a 	mov	r16,r19
   2f6e8:	0029883a 	mov	r20,zero
   2f6ec:	10ffe21e 	bne	r2,r3,2f678 <__gethex+0xf0>
   2f6f0:	80800043 	ldbu	r2,1(r16)
   2f6f4:	00c00ac4 	movi	r3,43
   2f6f8:	10c0f326 	beq	r2,r3,2fac8 <__gethex+0x540>
   2f6fc:	00c00b44 	movi	r3,45
   2f700:	10c0ec26 	beq	r2,r3,2fab4 <__gethex+0x52c>
   2f704:	80c00044 	addi	r3,r16,1
   2f708:	d8000315 	stw	zero,12(sp)
   2f70c:	9085883a 	add	r2,r18,r2
   2f710:	11000003 	ldbu	r4,0(r2)
   2f714:	203fda26 	beq	r4,zero,2f680 <__gethex+0xf8>
   2f718:	01800644 	movi	r6,25
   2f71c:	313fd816 	blt	r6,r4,2f680 <__gethex+0xf8>
   2f720:	18800043 	ldbu	r2,1(r3)
   2f724:	01400134 	movhi	r5,4
   2f728:	296147c4 	addi	r5,r5,-31457
   2f72c:	213ffc04 	addi	r4,r4,-16
   2f730:	2885883a 	add	r2,r5,r2
   2f734:	15c00003 	ldbu	r23,0(r2)
   2f738:	1d800044 	addi	r22,r3,1
   2f73c:	b8000d26 	beq	r23,zero,2f774 <__gethex+0x1ec>
   2f740:	35c0030e 	bge	r6,r23,2f750 <__gethex+0x1c8>
   2f744:	00000b06 	br	2f774 <__gethex+0x1ec>
   2f748:	00800644 	movi	r2,25
   2f74c:	15c00916 	blt	r2,r23,2f774 <__gethex+0x1ec>
   2f750:	01400284 	movi	r5,10
   2f754:	0022d140 	call	22d14 <__mulsi3>
   2f758:	b5800044 	addi	r22,r22,1
   2f75c:	b1400003 	ldbu	r5,0(r22)
   2f760:	15c5883a 	add	r2,r2,r23
   2f764:	113ffc04 	addi	r4,r2,-16
   2f768:	914b883a 	add	r5,r18,r5
   2f76c:	2dc00003 	ldbu	r23,0(r5)
   2f770:	b83ff51e 	bne	r23,zero,2f748 <__gethex+0x1c0>
   2f774:	d8c00317 	ldw	r3,12(sp)
   2f778:	18000126 	beq	r3,zero,2f780 <__gethex+0x1f8>
   2f77c:	0109c83a 	sub	r4,zero,r4
   2f780:	d8c00017 	ldw	r3,0(sp)
   2f784:	ad800015 	stw	r22,0(r21)
   2f788:	a129883a 	add	r20,r20,r4
   2f78c:	183fc01e 	bne	r3,zero,2f690 <__gethex+0x108>
   2f790:	84c5c83a 	sub	r2,r16,r19
   2f794:	10bfffc4 	addi	r2,r2,-1
   2f798:	00c001c4 	movi	r3,7
   2f79c:	000b883a 	mov	r5,zero
   2f7a0:	1880030e 	bge	r3,r2,2f7b0 <__gethex+0x228>
   2f7a4:	1005d07a 	srai	r2,r2,1
   2f7a8:	29400044 	addi	r5,r5,1
   2f7ac:	18bffd16 	blt	r3,r2,2f7a4 <__gethex+0x21c>
   2f7b0:	d9000117 	ldw	r4,4(sp)
   2f7b4:	002b4780 	call	2b478 <_Balloc>
   2f7b8:	102d883a 	mov	r22,r2
   2f7bc:	15400504 	addi	r21,r2,20
   2f7c0:	9c001b2e 	bgeu	r19,r16,2f830 <__gethex+0x2a8>
   2f7c4:	843fffc4 	addi	r16,r16,-1
   2f7c8:	98bfffc4 	addi	r2,r19,-1
   2f7cc:	a80b883a 	mov	r5,r21
   2f7d0:	0009883a 	mov	r4,zero
   2f7d4:	0007883a 	mov	r3,zero
   2f7d8:	02800b84 	movi	r10,46
   2f7dc:	02c00804 	movi	r11,32
   2f7e0:	00000806 	br	2f804 <__gethex+0x27c>
   2f7e4:	18c00104 	addi	r3,r3,4
   2f7e8:	918d883a 	add	r6,r18,r6
   2f7ec:	32400003 	ldbu	r9,0(r6)
   2f7f0:	4a4003cc 	andi	r9,r9,15
   2f7f4:	49ce983a 	sll	r7,r9,r7
   2f7f8:	21c8b03a 	or	r4,r4,r7
   2f7fc:	843fffc4 	addi	r16,r16,-1
   2f800:	80800d26 	beq	r16,r2,2f838 <__gethex+0x2b0>
   2f804:	81800003 	ldbu	r6,0(r16)
   2f808:	180f883a 	mov	r7,r3
   2f80c:	32bffb26 	beq	r6,r10,2f7fc <__gethex+0x274>
   2f810:	1afff41e 	bne	r3,r11,2f7e4 <__gethex+0x25c>
   2f814:	29000015 	stw	r4,0(r5)
   2f818:	81800003 	ldbu	r6,0(r16)
   2f81c:	0009883a 	mov	r4,zero
   2f820:	000f883a 	mov	r7,zero
   2f824:	29400104 	addi	r5,r5,4
   2f828:	00c00104 	movi	r3,4
   2f82c:	003fee06 	br	2f7e8 <__gethex+0x260>
   2f830:	a80b883a 	mov	r5,r21
   2f834:	0009883a 	mov	r4,zero
   2f838:	28c00104 	addi	r3,r5,4
   2f83c:	1d47c83a 	sub	r3,r3,r21
   2f840:	1807d0ba 	srai	r3,r3,2
   2f844:	29000015 	stw	r4,0(r5)
   2f848:	1820917a 	slli	r16,r3,5
   2f84c:	b0c00415 	stw	r3,16(r22)
   2f850:	002b7900 	call	2b790 <__hi0bits>
   2f854:	8dc00017 	ldw	r23,0(r17)
   2f858:	8085c83a 	sub	r2,r16,r2
   2f85c:	b8809c16 	blt	r23,r2,2fad0 <__gethex+0x548>
   2f860:	15c0b716 	blt	r2,r23,2fb40 <__gethex+0x5b8>
   2f864:	0039883a 	mov	fp,zero
   2f868:	88c00217 	ldw	r3,8(r17)
   2f86c:	1d006516 	blt	r3,r20,2fa04 <__gethex+0x47c>
   2f870:	88800117 	ldw	r2,4(r17)
   2f874:	a080830e 	bge	r20,r2,2fa84 <__gethex+0x4fc>
   2f878:	1529c83a 	sub	r20,r2,r20
   2f87c:	a5c01016 	blt	r20,r23,2f8c0 <__gethex+0x338>
   2f880:	88c00317 	ldw	r3,12(r17)
   2f884:	01000084 	movi	r4,2
   2f888:	1900c726 	beq	r3,r4,2fba8 <__gethex+0x620>
   2f88c:	010000c4 	movi	r4,3
   2f890:	1900f026 	beq	r3,r4,2fc54 <__gethex+0x6cc>
   2f894:	01000044 	movi	r4,1
   2f898:	1900e626 	beq	r3,r4,2fc34 <__gethex+0x6ac>
   2f89c:	d9000117 	ldw	r4,4(sp)
   2f8a0:	b00b883a 	mov	r5,r22
   2f8a4:	04001404 	movi	r16,80
   2f8a8:	002b5200 	call	2b520 <_Bfree>
   2f8ac:	d8c00e17 	ldw	r3,56(sp)
   2f8b0:	18000015 	stw	zero,0(r3)
   2f8b4:	003f7806 	br	2f698 <__gethex+0x110>
   2f8b8:	002f4f80 	call	2f4f8 <__hexdig_init>
   2f8bc:	003f4506 	br	2f5d4 <__gethex+0x4c>
   2f8c0:	a43fffc4 	addi	r16,r20,-1
   2f8c4:	e000b21e 	bne	fp,zero,2fb90 <__gethex+0x608>
   2f8c8:	0400040e 	bge	zero,r16,2f8dc <__gethex+0x354>
   2f8cc:	b009883a 	mov	r4,r22
   2f8d0:	800b883a 	mov	r5,r16
   2f8d4:	002c4440 	call	2c444 <__any_on>
   2f8d8:	1039883a 	mov	fp,r2
   2f8dc:	8005d17a 	srai	r2,r16,5
   2f8e0:	00c00044 	movi	r3,1
   2f8e4:	840007cc 	andi	r16,r16,31
   2f8e8:	1085883a 	add	r2,r2,r2
   2f8ec:	1085883a 	add	r2,r2,r2
   2f8f0:	a885883a 	add	r2,r21,r2
   2f8f4:	1c06983a 	sll	r3,r3,r16
   2f8f8:	10800017 	ldw	r2,0(r2)
   2f8fc:	1884703a 	and	r2,r3,r2
   2f900:	10000126 	beq	r2,zero,2f908 <__gethex+0x380>
   2f904:	e7000094 	ori	fp,fp,2
   2f908:	a00b883a 	mov	r5,r20
   2f90c:	b009883a 	mov	r4,r22
   2f910:	002f3e80 	call	2f3e8 <rshift>
   2f914:	bd2fc83a 	sub	r23,r23,r20
   2f918:	8d000117 	ldw	r20,4(r17)
   2f91c:	04000084 	movi	r16,2
   2f920:	e0005d26 	beq	fp,zero,2fa98 <__gethex+0x510>
   2f924:	88800317 	ldw	r2,12(r17)
   2f928:	00c00084 	movi	r3,2
   2f92c:	10c0b026 	beq	r2,r3,2fbf0 <__gethex+0x668>
   2f930:	00c000c4 	movi	r3,3
   2f934:	10c05526 	beq	r2,r3,2fa8c <__gethex+0x504>
   2f938:	00c00044 	movi	r3,1
   2f93c:	10c0551e 	bne	r2,r3,2fa94 <__gethex+0x50c>
   2f940:	e080008c 	andi	r2,fp,2
   2f944:	10005326 	beq	r2,zero,2fa94 <__gethex+0x50c>
   2f948:	a8800017 	ldw	r2,0(r21)
   2f94c:	e084b03a 	or	r2,fp,r2
   2f950:	10c4703a 	and	r2,r2,r3
   2f954:	10004f26 	beq	r2,zero,2fa94 <__gethex+0x50c>
   2f958:	b7000417 	ldw	fp,16(r22)
   2f95c:	00ffffc4 	movi	r3,-1
   2f960:	e1000144 	addi	r4,fp,5
   2f964:	2109883a 	add	r4,r4,r4
   2f968:	2109883a 	add	r4,r4,r4
   2f96c:	b109883a 	add	r4,r22,r4
   2f970:	a8800017 	ldw	r2,0(r21)
   2f974:	10c0ba1e 	bne	r2,r3,2fc60 <__gethex+0x6d8>
   2f978:	a8000015 	stw	zero,0(r21)
   2f97c:	ad400104 	addi	r21,r21,4
   2f980:	a93ffb36 	bltu	r21,r4,2f970 <__gethex+0x3e8>
   2f984:	b0800217 	ldw	r2,8(r22)
   2f988:	e080bd0e 	bge	fp,r2,2fc80 <__gethex+0x6f8>
   2f98c:	e005883a 	mov	r2,fp
   2f990:	10c00144 	addi	r3,r2,5
   2f994:	18c7883a 	add	r3,r3,r3
   2f998:	18c7883a 	add	r3,r3,r3
   2f99c:	b0c7883a 	add	r3,r22,r3
   2f9a0:	10800044 	addi	r2,r2,1
   2f9a4:	01000044 	movi	r4,1
   2f9a8:	19000015 	stw	r4,0(r3)
   2f9ac:	b0800415 	stw	r2,16(r22)
   2f9b0:	00800084 	movi	r2,2
   2f9b4:	8080ad26 	beq	r16,r2,2fc6c <__gethex+0x6e4>
   2f9b8:	b0800417 	ldw	r2,16(r22)
   2f9bc:	e0800b16 	blt	fp,r2,2f9ec <__gethex+0x464>
   2f9c0:	bdc007cc 	andi	r23,r23,31
   2f9c4:	b8008626 	beq	r23,zero,2fbe0 <__gethex+0x658>
   2f9c8:	e7000104 	addi	fp,fp,4
   2f9cc:	e739883a 	add	fp,fp,fp
   2f9d0:	e739883a 	add	fp,fp,fp
   2f9d4:	b705883a 	add	r2,r22,fp
   2f9d8:	11000017 	ldw	r4,0(r2)
   2f9dc:	002b7900 	call	2b790 <__hi0bits>
   2f9e0:	00c00804 	movi	r3,32
   2f9e4:	1defc83a 	sub	r23,r3,r23
   2f9e8:	15c07d0e 	bge	r2,r23,2fbe0 <__gethex+0x658>
   2f9ec:	b009883a 	mov	r4,r22
   2f9f0:	01400044 	movi	r5,1
   2f9f4:	002f3e80 	call	2f3e8 <rshift>
   2f9f8:	88800217 	ldw	r2,8(r17)
   2f9fc:	a5000044 	addi	r20,r20,1
   2fa00:	1500770e 	bge	r2,r20,2fbe0 <__gethex+0x658>
   2fa04:	d9000117 	ldw	r4,4(sp)
   2fa08:	b00b883a 	mov	r5,r22
   2fa0c:	040028c4 	movi	r16,163
   2fa10:	002b5200 	call	2b520 <_Bfree>
   2fa14:	d8800e17 	ldw	r2,56(sp)
   2fa18:	10000015 	stw	zero,0(r2)
   2fa1c:	003f1e06 	br	2f698 <__gethex+0x110>
   2fa20:	20007826 	beq	r4,zero,2fc04 <__gethex+0x67c>
   2fa24:	80800003 	ldbu	r2,0(r16)
   2fa28:	003f0d06 	br	2f660 <__gethex+0xd8>
   2fa2c:	98800043 	ldbu	r2,1(r19)
   2fa30:	9c000044 	addi	r16,r19,1
   2fa34:	288b883a 	add	r5,r5,r2
   2fa38:	28c00003 	ldbu	r3,0(r5)
   2fa3c:	18005026 	beq	r3,zero,2fb80 <__gethex+0x5f8>
   2fa40:	00c00c04 	movi	r3,48
   2fa44:	10c0541e 	bne	r2,r3,2fb98 <__gethex+0x610>
   2fa48:	800d883a 	mov	r6,r16
   2fa4c:	1007883a 	mov	r3,r2
   2fa50:	31800044 	addi	r6,r6,1
   2fa54:	30800003 	ldbu	r2,0(r6)
   2fa58:	10fffd26 	beq	r2,r3,2fa50 <__gethex+0x4c8>
   2fa5c:	9087883a 	add	r3,r18,r2
   2fa60:	18c00003 	ldbu	r3,0(r3)
   2fa64:	3027883a 	mov	r19,r6
   2fa68:	18004c1e 	bne	r3,zero,2fb9c <__gethex+0x614>
   2fa6c:	00c00044 	movi	r3,1
   2fa70:	8009883a 	mov	r4,r16
   2fa74:	d8c00015 	stw	r3,0(sp)
   2fa78:	1839883a 	mov	fp,r3
   2fa7c:	3021883a 	mov	r16,r6
   2fa80:	003ef306 	br	2f650 <__gethex+0xc8>
   2fa84:	04000044 	movi	r16,1
   2fa88:	003fa506 	br	2f920 <__gethex+0x398>
   2fa8c:	d8800f17 	ldw	r2,60(sp)
   2fa90:	103fb11e 	bne	r2,zero,2f958 <__gethex+0x3d0>
   2fa94:	84000414 	ori	r16,r16,16
   2fa98:	d8800e17 	ldw	r2,56(sp)
   2fa9c:	d8c00217 	ldw	r3,8(sp)
   2faa0:	15800015 	stw	r22,0(r2)
   2faa4:	1d000015 	stw	r20,0(r3)
   2faa8:	003efb06 	br	2f698 <__gethex+0x110>
   2faac:	0021883a 	mov	r16,zero
   2fab0:	003ef906 	br	2f698 <__gethex+0x110>
   2fab4:	00c00044 	movi	r3,1
   2fab8:	d8c00315 	stw	r3,12(sp)
   2fabc:	80800083 	ldbu	r2,2(r16)
   2fac0:	80c00084 	addi	r3,r16,2
   2fac4:	003f1106 	br	2f70c <__gethex+0x184>
   2fac8:	d8000315 	stw	zero,12(sp)
   2facc:	003ffb06 	br	2fabc <__gethex+0x534>
   2fad0:	15e1c83a 	sub	r16,r2,r23
   2fad4:	b009883a 	mov	r4,r22
   2fad8:	800b883a 	mov	r5,r16
   2fadc:	002c4440 	call	2c444 <__any_on>
   2fae0:	10002526 	beq	r2,zero,2fb78 <__gethex+0x5f0>
   2fae4:	80bfffc4 	addi	r2,r16,-1
   2fae8:	1007d17a 	srai	r3,r2,5
   2faec:	110007cc 	andi	r4,r2,31
   2faf0:	07000044 	movi	fp,1
   2faf4:	18c00144 	addi	r3,r3,5
   2faf8:	18c7883a 	add	r3,r3,r3
   2fafc:	18c7883a 	add	r3,r3,r3
   2fb00:	b0c7883a 	add	r3,r22,r3
   2fb04:	e108983a 	sll	r4,fp,r4
   2fb08:	18c00017 	ldw	r3,0(r3)
   2fb0c:	20c6703a 	and	r3,r4,r3
   2fb10:	18000626 	beq	r3,zero,2fb2c <__gethex+0x5a4>
   2fb14:	e080340e 	bge	fp,r2,2fbe8 <__gethex+0x660>
   2fb18:	b009883a 	mov	r4,r22
   2fb1c:	817fff84 	addi	r5,r16,-2
   2fb20:	002c4440 	call	2c444 <__any_on>
   2fb24:	10003026 	beq	r2,zero,2fbe8 <__gethex+0x660>
   2fb28:	070000c4 	movi	fp,3
   2fb2c:	b009883a 	mov	r4,r22
   2fb30:	800b883a 	mov	r5,r16
   2fb34:	002f3e80 	call	2f3e8 <rshift>
   2fb38:	a429883a 	add	r20,r20,r16
   2fb3c:	003f4a06 	br	2f868 <__gethex+0x2e0>
   2fb40:	d9000117 	ldw	r4,4(sp)
   2fb44:	b8a1c83a 	sub	r16,r23,r2
   2fb48:	b00b883a 	mov	r5,r22
   2fb4c:	800d883a 	mov	r6,r16
   2fb50:	002bc680 	call	2bc68 <__lshift>
   2fb54:	102d883a 	mov	r22,r2
   2fb58:	a429c83a 	sub	r20,r20,r16
   2fb5c:	15400504 	addi	r21,r2,20
   2fb60:	0039883a 	mov	fp,zero
   2fb64:	003f4006 	br	2f868 <__gethex+0x2e0>
   2fb68:	0039883a 	mov	fp,zero
   2fb6c:	003ea706 	br	2f60c <__gethex+0x84>
   2fb70:	0029883a 	mov	r20,zero
   2fb74:	003ebe06 	br	2f670 <__gethex+0xe8>
   2fb78:	0039883a 	mov	fp,zero
   2fb7c:	003feb06 	br	2fb2c <__gethex+0x5a4>
   2fb80:	00c00044 	movi	r3,1
   2fb84:	0029883a 	mov	r20,zero
   2fb88:	d8c00015 	stw	r3,0(sp)
   2fb8c:	003eb806 	br	2f670 <__gethex+0xe8>
   2fb90:	07000044 	movi	fp,1
   2fb94:	003f5106 	br	2f8dc <__gethex+0x354>
   2fb98:	8027883a 	mov	r19,r16
   2fb9c:	8009883a 	mov	r4,r16
   2fba0:	07000044 	movi	fp,1
   2fba4:	003ea306 	br	2f634 <__gethex+0xac>
   2fba8:	d8c00f17 	ldw	r3,60(sp)
   2fbac:	183f3b1e 	bne	r3,zero,2f89c <__gethex+0x314>
   2fbb0:	d8c00217 	ldw	r3,8(sp)
   2fbb4:	04001884 	movi	r16,98
   2fbb8:	18800015 	stw	r2,0(r3)
   2fbbc:	00800044 	movi	r2,1
   2fbc0:	b0800415 	stw	r2,16(r22)
   2fbc4:	a8800015 	stw	r2,0(r21)
   2fbc8:	d8800e17 	ldw	r2,56(sp)
   2fbcc:	15800015 	stw	r22,0(r2)
   2fbd0:	003eb106 	br	2f698 <__gethex+0x110>
   2fbd4:	9821883a 	mov	r16,r19
   2fbd8:	d8000015 	stw	zero,0(sp)
   2fbdc:	003e9c06 	br	2f650 <__gethex+0xc8>
   2fbe0:	04000844 	movi	r16,33
   2fbe4:	003fac06 	br	2fa98 <__gethex+0x510>
   2fbe8:	07000084 	movi	fp,2
   2fbec:	003fcf06 	br	2fb2c <__gethex+0x5a4>
   2fbf0:	d8c00f17 	ldw	r3,60(sp)
   2fbf4:	00800044 	movi	r2,1
   2fbf8:	10c5c83a 	sub	r2,r2,r3
   2fbfc:	103fa526 	beq	r2,zero,2fa94 <__gethex+0x50c>
   2fc00:	003f5506 	br	2f958 <__gethex+0x3d0>
   2fc04:	80800043 	ldbu	r2,1(r16)
   2fc08:	81000044 	addi	r4,r16,1
   2fc0c:	2021883a 	mov	r16,r4
   2fc10:	9087883a 	add	r3,r18,r2
   2fc14:	18c00003 	ldbu	r3,0(r3)
   2fc18:	183e9026 	beq	r3,zero,2f65c <__gethex+0xd4>
   2fc1c:	84000044 	addi	r16,r16,1
   2fc20:	80800003 	ldbu	r2,0(r16)
   2fc24:	9087883a 	add	r3,r18,r2
   2fc28:	18c00003 	ldbu	r3,0(r3)
   2fc2c:	183ffb1e 	bne	r3,zero,2fc1c <__gethex+0x694>
   2fc30:	003e8a06 	br	2f65c <__gethex+0xd4>
   2fc34:	a5ff191e 	bne	r20,r23,2f89c <__gethex+0x314>
   2fc38:	1dffdd0e 	bge	r3,r23,2fbb0 <__gethex+0x628>
   2fc3c:	b009883a 	mov	r4,r22
   2fc40:	b97fffc4 	addi	r5,r23,-1
   2fc44:	002c4440 	call	2c444 <__any_on>
   2fc48:	103f1426 	beq	r2,zero,2f89c <__gethex+0x314>
   2fc4c:	88800117 	ldw	r2,4(r17)
   2fc50:	003fd706 	br	2fbb0 <__gethex+0x628>
   2fc54:	d8c00f17 	ldw	r3,60(sp)
   2fc58:	183f1026 	beq	r3,zero,2f89c <__gethex+0x314>
   2fc5c:	003fd406 	br	2fbb0 <__gethex+0x628>
   2fc60:	10800044 	addi	r2,r2,1
   2fc64:	a8800015 	stw	r2,0(r21)
   2fc68:	003f5106 	br	2f9b0 <__gethex+0x428>
   2fc6c:	88800017 	ldw	r2,0(r17)
   2fc70:	10bfffc4 	addi	r2,r2,-1
   2fc74:	15c01426 	beq	r2,r23,2fcc8 <__gethex+0x740>
   2fc78:	04000884 	movi	r16,34
   2fc7c:	003f8606 	br	2fa98 <__gethex+0x510>
   2fc80:	b1400117 	ldw	r5,4(r22)
   2fc84:	d9000117 	ldw	r4,4(sp)
   2fc88:	29400044 	addi	r5,r5,1
   2fc8c:	002b4780 	call	2b478 <_Balloc>
   2fc90:	b1800417 	ldw	r6,16(r22)
   2fc94:	b1400304 	addi	r5,r22,12
   2fc98:	11000304 	addi	r4,r2,12
   2fc9c:	31800084 	addi	r6,r6,2
   2fca0:	318d883a 	add	r6,r6,r6
   2fca4:	318d883a 	add	r6,r6,r6
   2fca8:	102b883a 	mov	r21,r2
   2fcac:	00250a80 	call	250a8 <memcpy>
   2fcb0:	d9000117 	ldw	r4,4(sp)
   2fcb4:	b00b883a 	mov	r5,r22
   2fcb8:	a82d883a 	mov	r22,r21
   2fcbc:	002b5200 	call	2b520 <_Bfree>
   2fcc0:	a8800417 	ldw	r2,16(r21)
   2fcc4:	003f3206 	br	2f990 <__gethex+0x408>
   2fcc8:	b805d17a 	srai	r2,r23,5
   2fccc:	04000044 	movi	r16,1
   2fcd0:	bdc007cc 	andi	r23,r23,31
   2fcd4:	10800144 	addi	r2,r2,5
   2fcd8:	1085883a 	add	r2,r2,r2
   2fcdc:	1085883a 	add	r2,r2,r2
   2fce0:	b085883a 	add	r2,r22,r2
   2fce4:	10800017 	ldw	r2,0(r2)
   2fce8:	85e0983a 	sll	r16,r16,r23
   2fcec:	80a0703a 	and	r16,r16,r2
   2fcf0:	8020c03a 	cmpne	r16,r16,zero
   2fcf4:	00800884 	movi	r2,34
   2fcf8:	1421c83a 	sub	r16,r2,r16
   2fcfc:	003f6606 	br	2fa98 <__gethex+0x510>

0002fd00 <__hexnan>:
   2fd00:	defff604 	addi	sp,sp,-40
   2fd04:	dc000315 	stw	r16,12(sp)
   2fd08:	04000134 	movhi	r16,4
   2fd0c:	842147c4 	addi	r16,r16,-31457
   2fd10:	80800c03 	ldbu	r2,48(r16)
   2fd14:	dfc00915 	stw	ra,36(sp)
   2fd18:	dd400815 	stw	r21,32(sp)
   2fd1c:	dd000715 	stw	r20,28(sp)
   2fd20:	dcc00615 	stw	r19,24(sp)
   2fd24:	dc800515 	stw	r18,20(sp)
   2fd28:	dc400415 	stw	r17,16(sp)
   2fd2c:	10006c26 	beq	r2,zero,2fee0 <__hexnan+0x1e0>
   2fd30:	2d000017 	ldw	r20,0(r5)
   2fd34:	a025d17a 	srai	r18,r20,5
   2fd38:	a50007cc 	andi	r20,r20,31
   2fd3c:	94a5883a 	add	r18,r18,r18
   2fd40:	94a5883a 	add	r18,r18,r18
   2fd44:	34a5883a 	add	r18,r6,r18
   2fd48:	a0000126 	beq	r20,zero,2fd50 <__hexnan+0x50>
   2fd4c:	94800104 	addi	r18,r18,4
   2fd50:	20c00017 	ldw	r3,0(r4)
   2fd54:	903fff15 	stw	zero,-4(r18)
   2fd58:	947fff04 	addi	r17,r18,-4
   2fd5c:	18800043 	ldbu	r2,1(r3)
   2fd60:	8817883a 	mov	r11,r17
   2fd64:	880b883a 	mov	r5,r17
   2fd68:	0011883a 	mov	r8,zero
   2fd6c:	001b883a 	mov	r13,zero
   2fd70:	0015883a 	mov	r10,zero
   2fd74:	03c00204 	movi	r15,8
   2fd78:	03800804 	movi	r14,32
   2fd7c:	04c001c4 	movi	r19,7
   2fd80:	10001b26 	beq	r2,zero,2fdf0 <__hexnan+0xf0>
   2fd84:	808f883a 	add	r7,r16,r2
   2fd88:	39c00003 	ldbu	r7,0(r7)
   2fd8c:	3a403fcc 	andi	r9,r7,255
   2fd90:	4800301e 	bne	r9,zero,2fe54 <__hexnan+0x154>
   2fd94:	70804636 	bltu	r14,r2,2feb0 <__hexnan+0x1b0>
   2fd98:	6a80120e 	bge	r13,r10,2fde4 <__hexnan+0xe4>
   2fd9c:	2ac00f2e 	bgeu	r5,r11,2fddc <__hexnan+0xdc>
   2fda0:	9a000e16 	blt	r19,r8,2fddc <__hexnan+0xdc>
   2fda4:	7a11c83a 	sub	r8,r15,r8
   2fda8:	4211883a 	add	r8,r8,r8
   2fdac:	29c00017 	ldw	r7,0(r5)
   2fdb0:	4211883a 	add	r8,r8,r8
   2fdb4:	722bc83a 	sub	r21,r14,r8
   2fdb8:	2805883a 	mov	r2,r5
   2fdbc:	12400117 	ldw	r9,4(r2)
   2fdc0:	10800104 	addi	r2,r2,4
   2fdc4:	4d58983a 	sll	r12,r9,r21
   2fdc8:	3b18b03a 	or	r12,r7,r12
   2fdcc:	4a0ed83a 	srl	r7,r9,r8
   2fdd0:	133fff15 	stw	r12,-4(r2)
   2fdd4:	11c00015 	stw	r7,0(r2)
   2fdd8:	12fff836 	bltu	r2,r11,2fdbc <__hexnan+0xbc>
   2fddc:	31402d36 	bltu	r6,r5,2fe94 <__hexnan+0x194>
   2fde0:	02000204 	movi	r8,8
   2fde4:	18c00044 	addi	r3,r3,1
   2fde8:	18800043 	ldbu	r2,1(r3)
   2fdec:	103fe51e 	bne	r2,zero,2fd84 <__hexnan+0x84>
   2fdf0:	50003126 	beq	r10,zero,2feb8 <__hexnan+0x1b8>
   2fdf4:	2ac0022e 	bgeu	r5,r11,2fe00 <__hexnan+0x100>
   2fdf8:	008001c4 	movi	r2,7
   2fdfc:	1200520e 	bge	r2,r8,2ff48 <__hexnan+0x248>
   2fe00:	31403f2e 	bgeu	r6,r5,2ff00 <__hexnan+0x200>
   2fe04:	3005883a 	mov	r2,r6
   2fe08:	28c00017 	ldw	r3,0(r5)
   2fe0c:	10800104 	addi	r2,r2,4
   2fe10:	29400104 	addi	r5,r5,4
   2fe14:	10ffff15 	stw	r3,-4(r2)
   2fe18:	897ffb2e 	bgeu	r17,r5,2fe08 <__hexnan+0x108>
   2fe1c:	10000015 	stw	zero,0(r2)
   2fe20:	10800104 	addi	r2,r2,4
   2fe24:	88bffd2e 	bgeu	r17,r2,2fe1c <__hexnan+0x11c>
   2fe28:	90bfff17 	ldw	r2,-4(r18)
   2fe2c:	1000071e 	bne	r2,zero,2fe4c <__hexnan+0x14c>
   2fe30:	34403c26 	beq	r6,r17,2ff24 <__hexnan+0x224>
   2fe34:	8805883a 	mov	r2,r17
   2fe38:	00000106 	br	2fe40 <__hexnan+0x140>
   2fe3c:	30803a26 	beq	r6,r2,2ff28 <__hexnan+0x228>
   2fe40:	10bfff04 	addi	r2,r2,-4
   2fe44:	10c00017 	ldw	r3,0(r2)
   2fe48:	183ffc26 	beq	r3,zero,2fe3c <__hexnan+0x13c>
   2fe4c:	00800144 	movi	r2,5
   2fe50:	00001a06 	br	2febc <__hexnan+0x1bc>
   2fe54:	42000044 	addi	r8,r8,1
   2fe58:	52800044 	addi	r10,r10,1
   2fe5c:	7a000716 	blt	r15,r8,2fe7c <__hexnan+0x17c>
   2fe60:	28800017 	ldw	r2,0(r5)
   2fe64:	1004913a 	slli	r2,r2,4
   2fe68:	39c003cc 	andi	r7,r7,15
   2fe6c:	11ceb03a 	or	r7,r2,r7
   2fe70:	29c00015 	stw	r7,0(r5)
   2fe74:	18c00044 	addi	r3,r3,1
   2fe78:	003fdb06 	br	2fde8 <__hexnan+0xe8>
   2fe7c:	317fd92e 	bgeu	r6,r5,2fde4 <__hexnan+0xe4>
   2fe80:	283fff15 	stw	zero,-4(r5)
   2fe84:	0005883a 	mov	r2,zero
   2fe88:	297fff04 	addi	r5,r5,-4
   2fe8c:	02000044 	movi	r8,1
   2fe90:	003ff506 	br	2fe68 <__hexnan+0x168>
   2fe94:	283fff15 	stw	zero,-4(r5)
   2fe98:	297fff04 	addi	r5,r5,-4
   2fe9c:	501b883a 	mov	r13,r10
   2fea0:	2817883a 	mov	r11,r5
   2fea4:	0011883a 	mov	r8,zero
   2fea8:	18c00044 	addi	r3,r3,1
   2feac:	003fce06 	br	2fde8 <__hexnan+0xe8>
   2feb0:	01c00a44 	movi	r7,41
   2feb4:	11c02026 	beq	r2,r7,2ff38 <__hexnan+0x238>
   2feb8:	00800104 	movi	r2,4
   2febc:	dfc00917 	ldw	ra,36(sp)
   2fec0:	dd400817 	ldw	r21,32(sp)
   2fec4:	dd000717 	ldw	r20,28(sp)
   2fec8:	dcc00617 	ldw	r19,24(sp)
   2fecc:	dc800517 	ldw	r18,20(sp)
   2fed0:	dc400417 	ldw	r17,16(sp)
   2fed4:	dc000317 	ldw	r16,12(sp)
   2fed8:	dec00a04 	addi	sp,sp,40
   2fedc:	f800283a 	ret
   2fee0:	d9000015 	stw	r4,0(sp)
   2fee4:	d9400115 	stw	r5,4(sp)
   2fee8:	d9800215 	stw	r6,8(sp)
   2feec:	002f4f80 	call	2f4f8 <__hexdig_init>
   2fef0:	d9800217 	ldw	r6,8(sp)
   2fef4:	d9400117 	ldw	r5,4(sp)
   2fef8:	d9000017 	ldw	r4,0(sp)
   2fefc:	003f8c06 	br	2fd30 <__hexnan+0x30>
   2ff00:	a03fc926 	beq	r20,zero,2fe28 <__hexnan+0x128>
   2ff04:	00800804 	movi	r2,32
   2ff08:	1529c83a 	sub	r20,r2,r20
   2ff0c:	00ffffc4 	movi	r3,-1
   2ff10:	90bfff17 	ldw	r2,-4(r18)
   2ff14:	1d06d83a 	srl	r3,r3,r20
   2ff18:	1884703a 	and	r2,r3,r2
   2ff1c:	90bfff15 	stw	r2,-4(r18)
   2ff20:	003fc206 	br	2fe2c <__hexnan+0x12c>
   2ff24:	3005883a 	mov	r2,r6
   2ff28:	00c00044 	movi	r3,1
   2ff2c:	10c00015 	stw	r3,0(r2)
   2ff30:	00800144 	movi	r2,5
   2ff34:	003fe106 	br	2febc <__hexnan+0x1bc>
   2ff38:	503fdf26 	beq	r10,zero,2feb8 <__hexnan+0x1b8>
   2ff3c:	18c00084 	addi	r3,r3,2
   2ff40:	20c00015 	stw	r3,0(r4)
   2ff44:	003fab06 	br	2fdf4 <__hexnan+0xf4>
   2ff48:	00800204 	movi	r2,8
   2ff4c:	1211c83a 	sub	r8,r2,r8
   2ff50:	4211883a 	add	r8,r8,r8
   2ff54:	28c00017 	ldw	r3,0(r5)
   2ff58:	4211883a 	add	r8,r8,r8
   2ff5c:	02400804 	movi	r9,32
   2ff60:	4a13c83a 	sub	r9,r9,r8
   2ff64:	2805883a 	mov	r2,r5
   2ff68:	11000117 	ldw	r4,4(r2)
   2ff6c:	10800104 	addi	r2,r2,4
   2ff70:	224e983a 	sll	r7,r4,r9
   2ff74:	19ceb03a 	or	r7,r3,r7
   2ff78:	2206d83a 	srl	r3,r4,r8
   2ff7c:	11ffff15 	stw	r7,-4(r2)
   2ff80:	10c00015 	stw	r3,0(r2)
   2ff84:	12fff836 	bltu	r2,r11,2ff68 <__hexnan+0x268>
   2ff88:	003f9d06 	br	2fe00 <__hexnan+0x100>

0002ff8c <__fixunsdfsi>:
   2ff8c:	defffd04 	addi	sp,sp,-12
   2ff90:	000d883a 	mov	r6,zero
   2ff94:	01d07834 	movhi	r7,16864
   2ff98:	dc400115 	stw	r17,4(sp)
   2ff9c:	dc000015 	stw	r16,0(sp)
   2ffa0:	dfc00215 	stw	ra,8(sp)
   2ffa4:	2023883a 	mov	r17,r4
   2ffa8:	2821883a 	mov	r16,r5
   2ffac:	00317480 	call	31748 <__gedf2>
   2ffb0:	1000080e 	bge	r2,zero,2ffd4 <__fixunsdfsi+0x48>
   2ffb4:	8809883a 	mov	r4,r17
   2ffb8:	800b883a 	mov	r5,r16
   2ffbc:	00319380 	call	31938 <__fixdfsi>
   2ffc0:	dfc00217 	ldw	ra,8(sp)
   2ffc4:	dc400117 	ldw	r17,4(sp)
   2ffc8:	dc000017 	ldw	r16,0(sp)
   2ffcc:	dec00304 	addi	sp,sp,12
   2ffd0:	f800283a 	ret
   2ffd4:	000d883a 	mov	r6,zero
   2ffd8:	01d07834 	movhi	r7,16864
   2ffdc:	8809883a 	mov	r4,r17
   2ffe0:	800b883a 	mov	r5,r16
   2ffe4:	00311340 	call	31134 <__subdf3>
   2ffe8:	180b883a 	mov	r5,r3
   2ffec:	1009883a 	mov	r4,r2
   2fff0:	00319380 	call	31938 <__fixdfsi>
   2fff4:	00e00034 	movhi	r3,32768
   2fff8:	10c5883a 	add	r2,r2,r3
   2fffc:	dfc00217 	ldw	ra,8(sp)
   30000:	dc400117 	ldw	r17,4(sp)
   30004:	dc000017 	ldw	r16,0(sp)
   30008:	dec00304 	addi	sp,sp,12
   3000c:	f800283a 	ret

00030010 <__udivdi3>:
   30010:	defff504 	addi	sp,sp,-44
   30014:	dd000515 	stw	r20,20(sp)
   30018:	dcc00415 	stw	r19,16(sp)
   3001c:	dc800315 	stw	r18,12(sp)
   30020:	dc400215 	stw	r17,8(sp)
   30024:	dc000115 	stw	r16,4(sp)
   30028:	dfc00a15 	stw	ra,40(sp)
   3002c:	df000915 	stw	fp,36(sp)
   30030:	ddc00815 	stw	r23,32(sp)
   30034:	dd800715 	stw	r22,28(sp)
   30038:	dd400615 	stw	r21,24(sp)
   3003c:	2025883a 	mov	r18,r4
   30040:	2823883a 	mov	r17,r5
   30044:	3021883a 	mov	r16,r6
   30048:	2027883a 	mov	r19,r4
   3004c:	2829883a 	mov	r20,r5
   30050:	3800451e 	bne	r7,zero,30168 <__udivdi3+0x158>
   30054:	2980652e 	bgeu	r5,r6,301ec <__udivdi3+0x1dc>
   30058:	00bfffd4 	movui	r2,65535
   3005c:	1180b436 	bltu	r2,r6,30330 <__udivdi3+0x320>
   30060:	00803fc4 	movi	r2,255
   30064:	11816636 	bltu	r2,r6,30600 <__udivdi3+0x5f0>
   30068:	0005883a 	mov	r2,zero
   3006c:	0007883a 	mov	r3,zero
   30070:	3084d83a 	srl	r2,r6,r2
   30074:	010000f4 	movhi	r4,3
   30078:	2112bb04 	addi	r4,r4,19180
   3007c:	2085883a 	add	r2,r4,r2
   30080:	10800003 	ldbu	r2,0(r2)
   30084:	10c7883a 	add	r3,r2,r3
   30088:	00800804 	movi	r2,32
   3008c:	10c5c83a 	sub	r2,r2,r3
   30090:	10000526 	beq	r2,zero,300a8 <__udivdi3+0x98>
   30094:	88a2983a 	sll	r17,r17,r2
   30098:	90c6d83a 	srl	r3,r18,r3
   3009c:	30a0983a 	sll	r16,r6,r2
   300a0:	90a6983a 	sll	r19,r18,r2
   300a4:	88e8b03a 	or	r20,r17,r3
   300a8:	8022d43a 	srli	r17,r16,16
   300ac:	a009883a 	mov	r4,r20
   300b0:	857fffcc 	andi	r21,r16,65535
   300b4:	880b883a 	mov	r5,r17
   300b8:	0022d0c0 	call	22d0c <__umodsi3>
   300bc:	a009883a 	mov	r4,r20
   300c0:	880b883a 	mov	r5,r17
   300c4:	102d883a 	mov	r22,r2
   300c8:	0022d040 	call	22d04 <__udivsi3>
   300cc:	1009883a 	mov	r4,r2
   300d0:	a80b883a 	mov	r5,r21
   300d4:	1025883a 	mov	r18,r2
   300d8:	0022d140 	call	22d14 <__mulsi3>
   300dc:	1009883a 	mov	r4,r2
   300e0:	b006943a 	slli	r3,r22,16
   300e4:	9804d43a 	srli	r2,r19,16
   300e8:	1886b03a 	or	r3,r3,r2
   300ec:	1900052e 	bgeu	r3,r4,30104 <__udivdi3+0xf4>
   300f0:	1c07883a 	add	r3,r3,r16
   300f4:	90bfffc4 	addi	r2,r18,-1
   300f8:	1c000136 	bltu	r3,r16,30100 <__udivdi3+0xf0>
   300fc:	19015536 	bltu	r3,r4,30654 <__udivdi3+0x644>
   30100:	1025883a 	mov	r18,r2
   30104:	1929c83a 	sub	r20,r3,r4
   30108:	880b883a 	mov	r5,r17
   3010c:	a009883a 	mov	r4,r20
   30110:	0022d0c0 	call	22d0c <__umodsi3>
   30114:	102d883a 	mov	r22,r2
   30118:	880b883a 	mov	r5,r17
   3011c:	a009883a 	mov	r4,r20
   30120:	b02c943a 	slli	r22,r22,16
   30124:	0022d040 	call	22d04 <__udivsi3>
   30128:	1009883a 	mov	r4,r2
   3012c:	a80b883a 	mov	r5,r21
   30130:	9cffffcc 	andi	r19,r19,65535
   30134:	1023883a 	mov	r17,r2
   30138:	b4e6b03a 	or	r19,r22,r19
   3013c:	0022d140 	call	22d14 <__mulsi3>
   30140:	9880052e 	bgeu	r19,r2,30158 <__udivdi3+0x148>
   30144:	9c27883a 	add	r19,r19,r16
   30148:	88ffffc4 	addi	r3,r17,-1
   3014c:	9c011436 	bltu	r19,r16,305a0 <__udivdi3+0x590>
   30150:	9881132e 	bgeu	r19,r2,305a0 <__udivdi3+0x590>
   30154:	8c7fff84 	addi	r17,r17,-2
   30158:	9004943a 	slli	r2,r18,16
   3015c:	0007883a 	mov	r3,zero
   30160:	8884b03a 	or	r2,r17,r2
   30164:	00001506 	br	301bc <__udivdi3+0x1ac>
   30168:	29c06a36 	bltu	r5,r7,30314 <__udivdi3+0x304>
   3016c:	00bfffd4 	movui	r2,65535
   30170:	11c06a2e 	bgeu	r2,r7,3031c <__udivdi3+0x30c>
   30174:	00804034 	movhi	r2,256
   30178:	10bfffc4 	addi	r2,r2,-1
   3017c:	11c11436 	bltu	r2,r7,305d0 <__udivdi3+0x5c0>
   30180:	00c00404 	movi	r3,16
   30184:	180b883a 	mov	r5,r3
   30188:	38c6d83a 	srl	r3,r7,r3
   3018c:	010000f4 	movhi	r4,3
   30190:	2112bb04 	addi	r4,r4,19180
   30194:	04000804 	movi	r16,32
   30198:	20c7883a 	add	r3,r4,r3
   3019c:	18800003 	ldbu	r2,0(r3)
   301a0:	1145883a 	add	r2,r2,r5
   301a4:	80a1c83a 	sub	r16,r16,r2
   301a8:	80006e1e 	bne	r16,zero,30364 <__udivdi3+0x354>
   301ac:	0007883a 	mov	r3,zero
   301b0:	3c406a36 	bltu	r7,r17,3035c <__udivdi3+0x34c>
   301b4:	9180692e 	bgeu	r18,r6,3035c <__udivdi3+0x34c>
   301b8:	0005883a 	mov	r2,zero
   301bc:	dfc00a17 	ldw	ra,40(sp)
   301c0:	df000917 	ldw	fp,36(sp)
   301c4:	ddc00817 	ldw	r23,32(sp)
   301c8:	dd800717 	ldw	r22,28(sp)
   301cc:	dd400617 	ldw	r21,24(sp)
   301d0:	dd000517 	ldw	r20,20(sp)
   301d4:	dcc00417 	ldw	r19,16(sp)
   301d8:	dc800317 	ldw	r18,12(sp)
   301dc:	dc400217 	ldw	r17,8(sp)
   301e0:	dc000117 	ldw	r16,4(sp)
   301e4:	dec00b04 	addi	sp,sp,44
   301e8:	f800283a 	ret
   301ec:	3000041e 	bne	r6,zero,30200 <__udivdi3+0x1f0>
   301f0:	01000044 	movi	r4,1
   301f4:	000b883a 	mov	r5,zero
   301f8:	0022d040 	call	22d04 <__udivsi3>
   301fc:	1021883a 	mov	r16,r2
   30200:	00bfffd4 	movui	r2,65535
   30204:	1400502e 	bgeu	r2,r16,30348 <__udivdi3+0x338>
   30208:	00804034 	movhi	r2,256
   3020c:	10bfffc4 	addi	r2,r2,-1
   30210:	1400f536 	bltu	r2,r16,305e8 <__udivdi3+0x5d8>
   30214:	00800404 	movi	r2,16
   30218:	1007883a 	mov	r3,r2
   3021c:	8084d83a 	srl	r2,r16,r2
   30220:	010000f4 	movhi	r4,3
   30224:	2112bb04 	addi	r4,r4,19180
   30228:	2085883a 	add	r2,r4,r2
   3022c:	10800003 	ldbu	r2,0(r2)
   30230:	10c7883a 	add	r3,r2,r3
   30234:	00800804 	movi	r2,32
   30238:	10c5c83a 	sub	r2,r2,r3
   3023c:	1000a01e 	bne	r2,zero,304c0 <__udivdi3+0x4b0>
   30240:	8028d43a 	srli	r20,r16,16
   30244:	8c23c83a 	sub	r17,r17,r16
   30248:	857fffcc 	andi	r21,r16,65535
   3024c:	00c00044 	movi	r3,1
   30250:	8809883a 	mov	r4,r17
   30254:	a00b883a 	mov	r5,r20
   30258:	d8c00015 	stw	r3,0(sp)
   3025c:	0022d0c0 	call	22d0c <__umodsi3>
   30260:	8809883a 	mov	r4,r17
   30264:	a00b883a 	mov	r5,r20
   30268:	102d883a 	mov	r22,r2
   3026c:	0022d040 	call	22d04 <__udivsi3>
   30270:	1009883a 	mov	r4,r2
   30274:	a80b883a 	mov	r5,r21
   30278:	1025883a 	mov	r18,r2
   3027c:	0022d140 	call	22d14 <__mulsi3>
   30280:	1009883a 	mov	r4,r2
   30284:	b00c943a 	slli	r6,r22,16
   30288:	9804d43a 	srli	r2,r19,16
   3028c:	d8c00017 	ldw	r3,0(sp)
   30290:	308cb03a 	or	r6,r6,r2
   30294:	3100052e 	bgeu	r6,r4,302ac <__udivdi3+0x29c>
   30298:	340d883a 	add	r6,r6,r16
   3029c:	90bfffc4 	addi	r2,r18,-1
   302a0:	34000136 	bltu	r6,r16,302a8 <__udivdi3+0x298>
   302a4:	3100e836 	bltu	r6,r4,30648 <__udivdi3+0x638>
   302a8:	1025883a 	mov	r18,r2
   302ac:	3123c83a 	sub	r17,r6,r4
   302b0:	8809883a 	mov	r4,r17
   302b4:	a00b883a 	mov	r5,r20
   302b8:	d8c00015 	stw	r3,0(sp)
   302bc:	0022d0c0 	call	22d0c <__umodsi3>
   302c0:	102d883a 	mov	r22,r2
   302c4:	8809883a 	mov	r4,r17
   302c8:	a00b883a 	mov	r5,r20
   302cc:	b02c943a 	slli	r22,r22,16
   302d0:	0022d040 	call	22d04 <__udivsi3>
   302d4:	1009883a 	mov	r4,r2
   302d8:	a80b883a 	mov	r5,r21
   302dc:	9cffffcc 	andi	r19,r19,65535
   302e0:	1023883a 	mov	r17,r2
   302e4:	b4e6b03a 	or	r19,r22,r19
   302e8:	0022d140 	call	22d14 <__mulsi3>
   302ec:	d8c00017 	ldw	r3,0(sp)
   302f0:	9880052e 	bgeu	r19,r2,30308 <__udivdi3+0x2f8>
   302f4:	9c27883a 	add	r19,r19,r16
   302f8:	893fffc4 	addi	r4,r17,-1
   302fc:	9c00aa36 	bltu	r19,r16,305a8 <__udivdi3+0x598>
   30300:	9880a92e 	bgeu	r19,r2,305a8 <__udivdi3+0x598>
   30304:	8c7fff84 	addi	r17,r17,-2
   30308:	9004943a 	slli	r2,r18,16
   3030c:	8884b03a 	or	r2,r17,r2
   30310:	003faa06 	br	301bc <__udivdi3+0x1ac>
   30314:	0007883a 	mov	r3,zero
   30318:	003fa706 	br	301b8 <__udivdi3+0x1a8>
   3031c:	00803fc4 	movi	r2,255
   30320:	11c0ae36 	bltu	r2,r7,305dc <__udivdi3+0x5cc>
   30324:	0007883a 	mov	r3,zero
   30328:	000b883a 	mov	r5,zero
   3032c:	003f9606 	br	30188 <__udivdi3+0x178>
   30330:	00804034 	movhi	r2,256
   30334:	10bfffc4 	addi	r2,r2,-1
   30338:	1180ae36 	bltu	r2,r6,305f4 <__udivdi3+0x5e4>
   3033c:	00800404 	movi	r2,16
   30340:	1007883a 	mov	r3,r2
   30344:	003f4a06 	br	30070 <__udivdi3+0x60>
   30348:	00803fc4 	movi	r2,255
   3034c:	1400af36 	bltu	r2,r16,3060c <__udivdi3+0x5fc>
   30350:	0005883a 	mov	r2,zero
   30354:	0007883a 	mov	r3,zero
   30358:	003fb006 	br	3021c <__udivdi3+0x20c>
   3035c:	00800044 	movi	r2,1
   30360:	003f9606 	br	301bc <__udivdi3+0x1ac>
   30364:	3c0e983a 	sll	r7,r7,r16
   30368:	3086d83a 	srl	r3,r6,r2
   3036c:	88aed83a 	srl	r23,r17,r2
   30370:	9084d83a 	srl	r2,r18,r2
   30374:	38e6b03a 	or	r19,r7,r3
   30378:	9828d43a 	srli	r20,r19,16
   3037c:	8c22983a 	sll	r17,r17,r16
   30380:	b809883a 	mov	r4,r23
   30384:	a00b883a 	mov	r5,r20
   30388:	342a983a 	sll	r21,r6,r16
   3038c:	88a2b03a 	or	r17,r17,r2
   30390:	0022d0c0 	call	22d0c <__umodsi3>
   30394:	b809883a 	mov	r4,r23
   30398:	a00b883a 	mov	r5,r20
   3039c:	1039883a 	mov	fp,r2
   303a0:	9dbfffcc 	andi	r22,r19,65535
   303a4:	0022d040 	call	22d04 <__udivsi3>
   303a8:	1009883a 	mov	r4,r2
   303ac:	b00b883a 	mov	r5,r22
   303b0:	102f883a 	mov	r23,r2
   303b4:	0022d140 	call	22d14 <__mulsi3>
   303b8:	1009883a 	mov	r4,r2
   303bc:	e00e943a 	slli	r7,fp,16
   303c0:	8804d43a 	srli	r2,r17,16
   303c4:	388eb03a 	or	r7,r7,r2
   303c8:	3900042e 	bgeu	r7,r4,303dc <__udivdi3+0x3cc>
   303cc:	3ccf883a 	add	r7,r7,r19
   303d0:	b8bfffc4 	addi	r2,r23,-1
   303d4:	3cc0942e 	bgeu	r7,r19,30628 <__udivdi3+0x618>
   303d8:	102f883a 	mov	r23,r2
   303dc:	3939c83a 	sub	fp,r7,r4
   303e0:	a00b883a 	mov	r5,r20
   303e4:	e009883a 	mov	r4,fp
   303e8:	0022d0c0 	call	22d0c <__umodsi3>
   303ec:	a00b883a 	mov	r5,r20
   303f0:	e009883a 	mov	r4,fp
   303f4:	d8800015 	stw	r2,0(sp)
   303f8:	0022d040 	call	22d04 <__udivsi3>
   303fc:	1009883a 	mov	r4,r2
   30400:	b00b883a 	mov	r5,r22
   30404:	1029883a 	mov	r20,r2
   30408:	0022d140 	call	22d14 <__mulsi3>
   3040c:	d8c00017 	ldw	r3,0(sp)
   30410:	8c7fffcc 	andi	r17,r17,65535
   30414:	1806943a 	slli	r3,r3,16
   30418:	1c46b03a 	or	r3,r3,r17
   3041c:	1880042e 	bgeu	r3,r2,30430 <__udivdi3+0x420>
   30420:	1cc7883a 	add	r3,r3,r19
   30424:	a13fffc4 	addi	r4,r20,-1
   30428:	1cc07b2e 	bgeu	r3,r19,30618 <__udivdi3+0x608>
   3042c:	2029883a 	mov	r20,r4
   30430:	b82e943a 	slli	r23,r23,16
   30434:	a822d43a 	srli	r17,r21,16
   30438:	ad7fffcc 	andi	r21,r21,65535
   3043c:	a5e8b03a 	or	r20,r20,r23
   30440:	a5bfffcc 	andi	r22,r20,65535
   30444:	b009883a 	mov	r4,r22
   30448:	a80b883a 	mov	r5,r21
   3044c:	18afc83a 	sub	r23,r3,r2
   30450:	a026d43a 	srli	r19,r20,16
   30454:	0022d140 	call	22d14 <__mulsi3>
   30458:	b009883a 	mov	r4,r22
   3045c:	880b883a 	mov	r5,r17
   30460:	1039883a 	mov	fp,r2
   30464:	0022d140 	call	22d14 <__mulsi3>
   30468:	a80b883a 	mov	r5,r21
   3046c:	9809883a 	mov	r4,r19
   30470:	102d883a 	mov	r22,r2
   30474:	0022d140 	call	22d14 <__mulsi3>
   30478:	9809883a 	mov	r4,r19
   3047c:	880b883a 	mov	r5,r17
   30480:	102b883a 	mov	r21,r2
   30484:	0022d140 	call	22d14 <__mulsi3>
   30488:	100b883a 	mov	r5,r2
   3048c:	e004d43a 	srli	r2,fp,16
   30490:	ad89883a 	add	r4,r21,r22
   30494:	2089883a 	add	r4,r4,r2
   30498:	2540022e 	bgeu	r4,r21,304a4 <__udivdi3+0x494>
   3049c:	00800074 	movhi	r2,1
   304a0:	288b883a 	add	r5,r5,r2
   304a4:	2004d43a 	srli	r2,r4,16
   304a8:	288b883a 	add	r5,r5,r2
   304ac:	b9404536 	bltu	r23,r5,305c4 <__udivdi3+0x5b4>
   304b0:	b9403f26 	beq	r23,r5,305b0 <__udivdi3+0x5a0>
   304b4:	a005883a 	mov	r2,r20
   304b8:	0007883a 	mov	r3,zero
   304bc:	003f3f06 	br	301bc <__udivdi3+0x1ac>
   304c0:	80a0983a 	sll	r16,r16,r2
   304c4:	88eed83a 	srl	r23,r17,r3
   304c8:	90c6d83a 	srl	r3,r18,r3
   304cc:	8028d43a 	srli	r20,r16,16
   304d0:	88a2983a 	sll	r17,r17,r2
   304d4:	b809883a 	mov	r4,r23
   304d8:	a00b883a 	mov	r5,r20
   304dc:	88ecb03a 	or	r22,r17,r3
   304e0:	90a6983a 	sll	r19,r18,r2
   304e4:	0022d0c0 	call	22d0c <__umodsi3>
   304e8:	b809883a 	mov	r4,r23
   304ec:	a00b883a 	mov	r5,r20
   304f0:	1023883a 	mov	r17,r2
   304f4:	857fffcc 	andi	r21,r16,65535
   304f8:	0022d040 	call	22d04 <__udivsi3>
   304fc:	1009883a 	mov	r4,r2
   30500:	a80b883a 	mov	r5,r21
   30504:	102f883a 	mov	r23,r2
   30508:	0022d140 	call	22d14 <__mulsi3>
   3050c:	1009883a 	mov	r4,r2
   30510:	880a943a 	slli	r5,r17,16
   30514:	b004d43a 	srli	r2,r22,16
   30518:	288ab03a 	or	r5,r5,r2
   3051c:	2900062e 	bgeu	r5,r4,30538 <__udivdi3+0x528>
   30520:	2c0b883a 	add	r5,r5,r16
   30524:	b8bfffc4 	addi	r2,r23,-1
   30528:	2c004536 	bltu	r5,r16,30640 <__udivdi3+0x630>
   3052c:	2900442e 	bgeu	r5,r4,30640 <__udivdi3+0x630>
   30530:	bdffff84 	addi	r23,r23,-2
   30534:	2c0b883a 	add	r5,r5,r16
   30538:	2925c83a 	sub	r18,r5,r4
   3053c:	9009883a 	mov	r4,r18
   30540:	a00b883a 	mov	r5,r20
   30544:	0022d0c0 	call	22d0c <__umodsi3>
   30548:	1023883a 	mov	r17,r2
   3054c:	9009883a 	mov	r4,r18
   30550:	a00b883a 	mov	r5,r20
   30554:	8822943a 	slli	r17,r17,16
   30558:	0022d040 	call	22d04 <__udivsi3>
   3055c:	1009883a 	mov	r4,r2
   30560:	a80b883a 	mov	r5,r21
   30564:	b5bfffcc 	andi	r22,r22,65535
   30568:	1025883a 	mov	r18,r2
   3056c:	8da2b03a 	or	r17,r17,r22
   30570:	0022d140 	call	22d14 <__mulsi3>
   30574:	8880062e 	bgeu	r17,r2,30590 <__udivdi3+0x580>
   30578:	8c23883a 	add	r17,r17,r16
   3057c:	90ffffc4 	addi	r3,r18,-1
   30580:	8c002d36 	bltu	r17,r16,30638 <__udivdi3+0x628>
   30584:	88802c2e 	bgeu	r17,r2,30638 <__udivdi3+0x628>
   30588:	94bfff84 	addi	r18,r18,-2
   3058c:	8c23883a 	add	r17,r17,r16
   30590:	b806943a 	slli	r3,r23,16
   30594:	88a3c83a 	sub	r17,r17,r2
   30598:	90c6b03a 	or	r3,r18,r3
   3059c:	003f2c06 	br	30250 <__udivdi3+0x240>
   305a0:	1823883a 	mov	r17,r3
   305a4:	003eec06 	br	30158 <__udivdi3+0x148>
   305a8:	2023883a 	mov	r17,r4
   305ac:	003f5606 	br	30308 <__udivdi3+0x2f8>
   305b0:	2008943a 	slli	r4,r4,16
   305b4:	9420983a 	sll	r16,r18,r16
   305b8:	e73fffcc 	andi	fp,fp,65535
   305bc:	2709883a 	add	r4,r4,fp
   305c0:	813fbc2e 	bgeu	r16,r4,304b4 <__udivdi3+0x4a4>
   305c4:	a0bfffc4 	addi	r2,r20,-1
   305c8:	0007883a 	mov	r3,zero
   305cc:	003efb06 	br	301bc <__udivdi3+0x1ac>
   305d0:	00c00604 	movi	r3,24
   305d4:	180b883a 	mov	r5,r3
   305d8:	003eeb06 	br	30188 <__udivdi3+0x178>
   305dc:	00c00204 	movi	r3,8
   305e0:	180b883a 	mov	r5,r3
   305e4:	003ee806 	br	30188 <__udivdi3+0x178>
   305e8:	00800604 	movi	r2,24
   305ec:	1007883a 	mov	r3,r2
   305f0:	003f0a06 	br	3021c <__udivdi3+0x20c>
   305f4:	00800604 	movi	r2,24
   305f8:	1007883a 	mov	r3,r2
   305fc:	003e9c06 	br	30070 <__udivdi3+0x60>
   30600:	00800204 	movi	r2,8
   30604:	1007883a 	mov	r3,r2
   30608:	003e9906 	br	30070 <__udivdi3+0x60>
   3060c:	00800204 	movi	r2,8
   30610:	1007883a 	mov	r3,r2
   30614:	003f0106 	br	3021c <__udivdi3+0x20c>
   30618:	18bf842e 	bgeu	r3,r2,3042c <__udivdi3+0x41c>
   3061c:	a53fff84 	addi	r20,r20,-2
   30620:	1cc7883a 	add	r3,r3,r19
   30624:	003f8206 	br	30430 <__udivdi3+0x420>
   30628:	393f6b2e 	bgeu	r7,r4,303d8 <__udivdi3+0x3c8>
   3062c:	bdffff84 	addi	r23,r23,-2
   30630:	3ccf883a 	add	r7,r7,r19
   30634:	003f6906 	br	303dc <__udivdi3+0x3cc>
   30638:	1825883a 	mov	r18,r3
   3063c:	003fd406 	br	30590 <__udivdi3+0x580>
   30640:	102f883a 	mov	r23,r2
   30644:	003fbc06 	br	30538 <__udivdi3+0x528>
   30648:	94bfff84 	addi	r18,r18,-2
   3064c:	340d883a 	add	r6,r6,r16
   30650:	003f1606 	br	302ac <__udivdi3+0x29c>
   30654:	94bfff84 	addi	r18,r18,-2
   30658:	1c07883a 	add	r3,r3,r16
   3065c:	003ea906 	br	30104 <__udivdi3+0xf4>

00030660 <__umoddi3>:
   30660:	defff304 	addi	sp,sp,-52
   30664:	dd000715 	stw	r20,28(sp)
   30668:	dcc00615 	stw	r19,24(sp)
   3066c:	dc800515 	stw	r18,20(sp)
   30670:	dc400415 	stw	r17,16(sp)
   30674:	dc000315 	stw	r16,12(sp)
   30678:	dfc00c15 	stw	ra,48(sp)
   3067c:	df000b15 	stw	fp,44(sp)
   30680:	ddc00a15 	stw	r23,40(sp)
   30684:	dd800915 	stw	r22,36(sp)
   30688:	dd400815 	stw	r21,32(sp)
   3068c:	2025883a 	mov	r18,r4
   30690:	2823883a 	mov	r17,r5
   30694:	3021883a 	mov	r16,r6
   30698:	2027883a 	mov	r19,r4
   3069c:	2829883a 	mov	r20,r5
   306a0:	38003a1e 	bne	r7,zero,3078c <__umoddi3+0x12c>
   306a4:	2980522e 	bgeu	r5,r6,307f0 <__umoddi3+0x190>
   306a8:	00bfffd4 	movui	r2,65535
   306ac:	1180a436 	bltu	r2,r6,30940 <__umoddi3+0x2e0>
   306b0:	00803fc4 	movi	r2,255
   306b4:	11816036 	bltu	r2,r6,30c38 <__umoddi3+0x5d8>
   306b8:	0005883a 	mov	r2,zero
   306bc:	0009883a 	mov	r4,zero
   306c0:	3084d83a 	srl	r2,r6,r2
   306c4:	00c000f4 	movhi	r3,3
   306c8:	18d2bb04 	addi	r3,r3,19180
   306cc:	05400804 	movi	r21,32
   306d0:	1885883a 	add	r2,r3,r2
   306d4:	10800003 	ldbu	r2,0(r2)
   306d8:	1109883a 	add	r4,r2,r4
   306dc:	a92bc83a 	sub	r21,r21,r4
   306e0:	a8010e26 	beq	r21,zero,30b1c <__umoddi3+0x4bc>
   306e4:	8d62983a 	sll	r17,r17,r21
   306e8:	9108d83a 	srl	r4,r18,r4
   306ec:	3560983a 	sll	r16,r6,r21
   306f0:	9566983a 	sll	r19,r18,r21
   306f4:	8928b03a 	or	r20,r17,r4
   306f8:	8022d43a 	srli	r17,r16,16
   306fc:	a009883a 	mov	r4,r20
   30700:	84bfffcc 	andi	r18,r16,65535
   30704:	880b883a 	mov	r5,r17
   30708:	0022d0c0 	call	22d0c <__umodsi3>
   3070c:	a009883a 	mov	r4,r20
   30710:	880b883a 	mov	r5,r17
   30714:	102d883a 	mov	r22,r2
   30718:	0022d040 	call	22d04 <__udivsi3>
   3071c:	1009883a 	mov	r4,r2
   30720:	900b883a 	mov	r5,r18
   30724:	0022d140 	call	22d14 <__mulsi3>
   30728:	1009883a 	mov	r4,r2
   3072c:	b006943a 	slli	r3,r22,16
   30730:	9804d43a 	srli	r2,r19,16
   30734:	1886b03a 	or	r3,r3,r2
   30738:	1900042e 	bgeu	r3,r4,3074c <__umoddi3+0xec>
   3073c:	1c07883a 	add	r3,r3,r16
   30740:	1c000236 	bltu	r3,r16,3074c <__umoddi3+0xec>
   30744:	1900012e 	bgeu	r3,r4,3074c <__umoddi3+0xec>
   30748:	1c07883a 	add	r3,r3,r16
   3074c:	1929c83a 	sub	r20,r3,r4
   30750:	a009883a 	mov	r4,r20
   30754:	880b883a 	mov	r5,r17
   30758:	0022d0c0 	call	22d0c <__umodsi3>
   3075c:	102d883a 	mov	r22,r2
   30760:	a009883a 	mov	r4,r20
   30764:	880b883a 	mov	r5,r17
   30768:	b02c943a 	slli	r22,r22,16
   3076c:	0022d040 	call	22d04 <__udivsi3>
   30770:	1009883a 	mov	r4,r2
   30774:	900b883a 	mov	r5,r18
   30778:	9cffffcc 	andi	r19,r19,65535
   3077c:	0022d140 	call	22d14 <__mulsi3>
   30780:	b4e6b03a 	or	r19,r22,r19
   30784:	9880572e 	bgeu	r19,r2,308e4 <__umoddi3+0x284>
   30788:	00005206 	br	308d4 <__umoddi3+0x274>
   3078c:	29c05936 	bltu	r5,r7,308f4 <__umoddi3+0x294>
   30790:	00bfffd4 	movui	r2,65535
   30794:	11c0652e 	bgeu	r2,r7,3092c <__umoddi3+0x2cc>
   30798:	00804034 	movhi	r2,256
   3079c:	10bfffc4 	addi	r2,r2,-1
   307a0:	11c11936 	bltu	r2,r7,30c08 <__umoddi3+0x5a8>
   307a4:	00c00404 	movi	r3,16
   307a8:	1827883a 	mov	r19,r3
   307ac:	38c6d83a 	srl	r3,r7,r3
   307b0:	010000f4 	movhi	r4,3
   307b4:	2112bb04 	addi	r4,r4,19180
   307b8:	04000804 	movi	r16,32
   307bc:	20c7883a 	add	r3,r4,r3
   307c0:	18800003 	ldbu	r2,0(r3)
   307c4:	14e7883a 	add	r19,r2,r19
   307c8:	84e1c83a 	sub	r16,r16,r19
   307cc:	8000671e 	bne	r16,zero,3096c <__umoddi3+0x30c>
   307d0:	3c400136 	bltu	r7,r17,307d8 <__umoddi3+0x178>
   307d4:	91812536 	bltu	r18,r6,30c6c <__umoddi3+0x60c>
   307d8:	9185c83a 	sub	r2,r18,r6
   307dc:	89e3c83a 	sub	r17,r17,r7
   307e0:	90a5803a 	cmpltu	r18,r18,r2
   307e4:	8ca9c83a 	sub	r20,r17,r18
   307e8:	a007883a 	mov	r3,r20
   307ec:	00004306 	br	308fc <__umoddi3+0x29c>
   307f0:	3000041e 	bne	r6,zero,30804 <__umoddi3+0x1a4>
   307f4:	01000044 	movi	r4,1
   307f8:	000b883a 	mov	r5,zero
   307fc:	0022d040 	call	22d04 <__udivsi3>
   30800:	1021883a 	mov	r16,r2
   30804:	00bfffd4 	movui	r2,65535
   30808:	1400532e 	bgeu	r2,r16,30958 <__umoddi3+0x2f8>
   3080c:	00804034 	movhi	r2,256
   30810:	10bfffc4 	addi	r2,r2,-1
   30814:	14010536 	bltu	r2,r16,30c2c <__umoddi3+0x5cc>
   30818:	00800404 	movi	r2,16
   3081c:	1007883a 	mov	r3,r2
   30820:	8084d83a 	srl	r2,r16,r2
   30824:	010000f4 	movhi	r4,3
   30828:	2112bb04 	addi	r4,r4,19180
   3082c:	05400804 	movi	r21,32
   30830:	2085883a 	add	r2,r4,r2
   30834:	10800003 	ldbu	r2,0(r2)
   30838:	10c7883a 	add	r3,r2,r3
   3083c:	a8ebc83a 	sub	r21,r21,r3
   30840:	a800b81e 	bne	r21,zero,30b24 <__umoddi3+0x4c4>
   30844:	8028d43a 	srli	r20,r16,16
   30848:	8c23c83a 	sub	r17,r17,r16
   3084c:	85bfffcc 	andi	r22,r16,65535
   30850:	8809883a 	mov	r4,r17
   30854:	a00b883a 	mov	r5,r20
   30858:	0022d0c0 	call	22d0c <__umodsi3>
   3085c:	8809883a 	mov	r4,r17
   30860:	a00b883a 	mov	r5,r20
   30864:	1025883a 	mov	r18,r2
   30868:	0022d040 	call	22d04 <__udivsi3>
   3086c:	1009883a 	mov	r4,r2
   30870:	b00b883a 	mov	r5,r22
   30874:	0022d140 	call	22d14 <__mulsi3>
   30878:	1009883a 	mov	r4,r2
   3087c:	9006943a 	slli	r3,r18,16
   30880:	9804d43a 	srli	r2,r19,16
   30884:	1886b03a 	or	r3,r3,r2
   30888:	1900032e 	bgeu	r3,r4,30898 <__umoddi3+0x238>
   3088c:	1c07883a 	add	r3,r3,r16
   30890:	1c000136 	bltu	r3,r16,30898 <__umoddi3+0x238>
   30894:	1900f336 	bltu	r3,r4,30c64 <__umoddi3+0x604>
   30898:	1923c83a 	sub	r17,r3,r4
   3089c:	8809883a 	mov	r4,r17
   308a0:	a00b883a 	mov	r5,r20
   308a4:	0022d0c0 	call	22d0c <__umodsi3>
   308a8:	102f883a 	mov	r23,r2
   308ac:	8809883a 	mov	r4,r17
   308b0:	a00b883a 	mov	r5,r20
   308b4:	b82e943a 	slli	r23,r23,16
   308b8:	0022d040 	call	22d04 <__udivsi3>
   308bc:	1009883a 	mov	r4,r2
   308c0:	b00b883a 	mov	r5,r22
   308c4:	9cffffcc 	andi	r19,r19,65535
   308c8:	0022d140 	call	22d14 <__mulsi3>
   308cc:	bce6b03a 	or	r19,r23,r19
   308d0:	9880042e 	bgeu	r19,r2,308e4 <__umoddi3+0x284>
   308d4:	9c27883a 	add	r19,r19,r16
   308d8:	9c000236 	bltu	r19,r16,308e4 <__umoddi3+0x284>
   308dc:	9880012e 	bgeu	r19,r2,308e4 <__umoddi3+0x284>
   308e0:	9c27883a 	add	r19,r19,r16
   308e4:	9885c83a 	sub	r2,r19,r2
   308e8:	1544d83a 	srl	r2,r2,r21
   308ec:	0007883a 	mov	r3,zero
   308f0:	00000206 	br	308fc <__umoddi3+0x29c>
   308f4:	2005883a 	mov	r2,r4
   308f8:	2807883a 	mov	r3,r5
   308fc:	dfc00c17 	ldw	ra,48(sp)
   30900:	df000b17 	ldw	fp,44(sp)
   30904:	ddc00a17 	ldw	r23,40(sp)
   30908:	dd800917 	ldw	r22,36(sp)
   3090c:	dd400817 	ldw	r21,32(sp)
   30910:	dd000717 	ldw	r20,28(sp)
   30914:	dcc00617 	ldw	r19,24(sp)
   30918:	dc800517 	ldw	r18,20(sp)
   3091c:	dc400417 	ldw	r17,16(sp)
   30920:	dc000317 	ldw	r16,12(sp)
   30924:	dec00d04 	addi	sp,sp,52
   30928:	f800283a 	ret
   3092c:	00803fc4 	movi	r2,255
   30930:	11c0b236 	bltu	r2,r7,30bfc <__umoddi3+0x59c>
   30934:	0007883a 	mov	r3,zero
   30938:	0027883a 	mov	r19,zero
   3093c:	003f9b06 	br	307ac <__umoddi3+0x14c>
   30940:	00804034 	movhi	r2,256
   30944:	10bfffc4 	addi	r2,r2,-1
   30948:	1180b236 	bltu	r2,r6,30c14 <__umoddi3+0x5b4>
   3094c:	00800404 	movi	r2,16
   30950:	1009883a 	mov	r4,r2
   30954:	003f5a06 	br	306c0 <__umoddi3+0x60>
   30958:	00803fc4 	movi	r2,255
   3095c:	1400b036 	bltu	r2,r16,30c20 <__umoddi3+0x5c0>
   30960:	0005883a 	mov	r2,zero
   30964:	0007883a 	mov	r3,zero
   30968:	003fad06 	br	30820 <__umoddi3+0x1c0>
   3096c:	34c4d83a 	srl	r2,r6,r19
   30970:	3c0e983a 	sll	r7,r7,r16
   30974:	8cf8d83a 	srl	fp,r17,r19
   30978:	8c22983a 	sll	r17,r17,r16
   3097c:	38a8b03a 	or	r20,r7,r2
   30980:	a02ad43a 	srli	r21,r20,16
   30984:	94c4d83a 	srl	r2,r18,r19
   30988:	e009883a 	mov	r4,fp
   3098c:	a80b883a 	mov	r5,r21
   30990:	342c983a 	sll	r22,r6,r16
   30994:	88a2b03a 	or	r17,r17,r2
   30998:	0022d0c0 	call	22d0c <__umodsi3>
   3099c:	e009883a 	mov	r4,fp
   309a0:	a80b883a 	mov	r5,r21
   309a4:	a5ffffcc 	andi	r23,r20,65535
   309a8:	d8800215 	stw	r2,8(sp)
   309ac:	0022d040 	call	22d04 <__udivsi3>
   309b0:	1009883a 	mov	r4,r2
   309b4:	b80b883a 	mov	r5,r23
   309b8:	1039883a 	mov	fp,r2
   309bc:	0022d140 	call	22d14 <__mulsi3>
   309c0:	d8c00217 	ldw	r3,8(sp)
   309c4:	1009883a 	mov	r4,r2
   309c8:	8804d43a 	srli	r2,r17,16
   309cc:	1806943a 	slli	r3,r3,16
   309d0:	9424983a 	sll	r18,r18,r16
   309d4:	1886b03a 	or	r3,r3,r2
   309d8:	1900042e 	bgeu	r3,r4,309ec <__umoddi3+0x38c>
   309dc:	1d07883a 	add	r3,r3,r20
   309e0:	e0bfffc4 	addi	r2,fp,-1
   309e4:	1d009b2e 	bgeu	r3,r20,30c54 <__umoddi3+0x5f4>
   309e8:	1039883a 	mov	fp,r2
   309ec:	1907c83a 	sub	r3,r3,r4
   309f0:	1809883a 	mov	r4,r3
   309f4:	a80b883a 	mov	r5,r21
   309f8:	d8c00215 	stw	r3,8(sp)
   309fc:	0022d0c0 	call	22d0c <__umodsi3>
   30a00:	d8c00217 	ldw	r3,8(sp)
   30a04:	a80b883a 	mov	r5,r21
   30a08:	d8800015 	stw	r2,0(sp)
   30a0c:	1809883a 	mov	r4,r3
   30a10:	0022d040 	call	22d04 <__udivsi3>
   30a14:	1009883a 	mov	r4,r2
   30a18:	b80b883a 	mov	r5,r23
   30a1c:	102b883a 	mov	r21,r2
   30a20:	0022d140 	call	22d14 <__mulsi3>
   30a24:	d9c00017 	ldw	r7,0(sp)
   30a28:	8c7fffcc 	andi	r17,r17,65535
   30a2c:	380e943a 	slli	r7,r7,16
   30a30:	3c4eb03a 	or	r7,r7,r17
   30a34:	3880042e 	bgeu	r7,r2,30a48 <__umoddi3+0x3e8>
   30a38:	3d0f883a 	add	r7,r7,r20
   30a3c:	a8ffffc4 	addi	r3,r21,-1
   30a40:	3d00802e 	bgeu	r7,r20,30c44 <__umoddi3+0x5e4>
   30a44:	182b883a 	mov	r21,r3
   30a48:	e038943a 	slli	fp,fp,16
   30a4c:	b010d43a 	srli	r8,r22,16
   30a50:	b1bfffcc 	andi	r6,r22,65535
   30a54:	af2ab03a 	or	r21,r21,fp
   30a58:	a82ed43a 	srli	r23,r21,16
   30a5c:	ad7fffcc 	andi	r21,r21,65535
   30a60:	300b883a 	mov	r5,r6
   30a64:	a809883a 	mov	r4,r21
   30a68:	38a3c83a 	sub	r17,r7,r2
   30a6c:	d9800115 	stw	r6,4(sp)
   30a70:	da000015 	stw	r8,0(sp)
   30a74:	0022d140 	call	22d14 <__mulsi3>
   30a78:	da000017 	ldw	r8,0(sp)
   30a7c:	a809883a 	mov	r4,r21
   30a80:	1039883a 	mov	fp,r2
   30a84:	400b883a 	mov	r5,r8
   30a88:	da000215 	stw	r8,8(sp)
   30a8c:	0022d140 	call	22d14 <__mulsi3>
   30a90:	d9800117 	ldw	r6,4(sp)
   30a94:	b809883a 	mov	r4,r23
   30a98:	d8800015 	stw	r2,0(sp)
   30a9c:	300b883a 	mov	r5,r6
   30aa0:	0022d140 	call	22d14 <__mulsi3>
   30aa4:	d8c00217 	ldw	r3,8(sp)
   30aa8:	b809883a 	mov	r4,r23
   30aac:	102b883a 	mov	r21,r2
   30ab0:	180b883a 	mov	r5,r3
   30ab4:	0022d140 	call	22d14 <__mulsi3>
   30ab8:	d9c00017 	ldw	r7,0(sp)
   30abc:	1007883a 	mov	r3,r2
   30ac0:	e004d43a 	srli	r2,fp,16
   30ac4:	a9c9883a 	add	r4,r21,r7
   30ac8:	2089883a 	add	r4,r4,r2
   30acc:	2540022e 	bgeu	r4,r21,30ad8 <__umoddi3+0x478>
   30ad0:	00800074 	movhi	r2,1
   30ad4:	1887883a 	add	r3,r3,r2
   30ad8:	2004d43a 	srli	r2,r4,16
   30adc:	2008943a 	slli	r4,r4,16
   30ae0:	e73fffcc 	andi	fp,fp,65535
   30ae4:	1887883a 	add	r3,r3,r2
   30ae8:	2709883a 	add	r4,r4,fp
   30aec:	88c03d36 	bltu	r17,r3,30be4 <__umoddi3+0x584>
   30af0:	88c06126 	beq	r17,r3,30c78 <__umoddi3+0x618>
   30af4:	88c7c83a 	sub	r3,r17,r3
   30af8:	202d883a 	mov	r22,r4
   30afc:	95adc83a 	sub	r22,r18,r22
   30b00:	95a5803a 	cmpltu	r18,r18,r22
   30b04:	1c87c83a 	sub	r3,r3,r18
   30b08:	1cc4983a 	sll	r2,r3,r19
   30b0c:	b42cd83a 	srl	r22,r22,r16
   30b10:	1c06d83a 	srl	r3,r3,r16
   30b14:	1584b03a 	or	r2,r2,r22
   30b18:	003f7806 	br	308fc <__umoddi3+0x29c>
   30b1c:	002b883a 	mov	r21,zero
   30b20:	003ef506 	br	306f8 <__umoddi3+0x98>
   30b24:	8560983a 	sll	r16,r16,r21
   30b28:	88e6d83a 	srl	r19,r17,r3
   30b2c:	90c6d83a 	srl	r3,r18,r3
   30b30:	8028d43a 	srli	r20,r16,16
   30b34:	8d62983a 	sll	r17,r17,r21
   30b38:	9809883a 	mov	r4,r19
   30b3c:	a00b883a 	mov	r5,r20
   30b40:	88eeb03a 	or	r23,r17,r3
   30b44:	0022d0c0 	call	22d0c <__umodsi3>
   30b48:	9809883a 	mov	r4,r19
   30b4c:	a00b883a 	mov	r5,r20
   30b50:	1023883a 	mov	r17,r2
   30b54:	85bfffcc 	andi	r22,r16,65535
   30b58:	0022d040 	call	22d04 <__udivsi3>
   30b5c:	1009883a 	mov	r4,r2
   30b60:	b00b883a 	mov	r5,r22
   30b64:	0022d140 	call	22d14 <__mulsi3>
   30b68:	1007883a 	mov	r3,r2
   30b6c:	8808943a 	slli	r4,r17,16
   30b70:	b804d43a 	srli	r2,r23,16
   30b74:	9566983a 	sll	r19,r18,r21
   30b78:	2088b03a 	or	r4,r4,r2
   30b7c:	20c0042e 	bgeu	r4,r3,30b90 <__umoddi3+0x530>
   30b80:	2409883a 	add	r4,r4,r16
   30b84:	24000236 	bltu	r4,r16,30b90 <__umoddi3+0x530>
   30b88:	20c0012e 	bgeu	r4,r3,30b90 <__umoddi3+0x530>
   30b8c:	2409883a 	add	r4,r4,r16
   30b90:	20e5c83a 	sub	r18,r4,r3
   30b94:	9009883a 	mov	r4,r18
   30b98:	a00b883a 	mov	r5,r20
   30b9c:	0022d0c0 	call	22d0c <__umodsi3>
   30ba0:	1023883a 	mov	r17,r2
   30ba4:	9009883a 	mov	r4,r18
   30ba8:	a00b883a 	mov	r5,r20
   30bac:	8822943a 	slli	r17,r17,16
   30bb0:	0022d040 	call	22d04 <__udivsi3>
   30bb4:	1009883a 	mov	r4,r2
   30bb8:	b00b883a 	mov	r5,r22
   30bbc:	bdffffcc 	andi	r23,r23,65535
   30bc0:	0022d140 	call	22d14 <__mulsi3>
   30bc4:	8de2b03a 	or	r17,r17,r23
   30bc8:	8880042e 	bgeu	r17,r2,30bdc <__umoddi3+0x57c>
   30bcc:	8c23883a 	add	r17,r17,r16
   30bd0:	8c000236 	bltu	r17,r16,30bdc <__umoddi3+0x57c>
   30bd4:	8880012e 	bgeu	r17,r2,30bdc <__umoddi3+0x57c>
   30bd8:	8c23883a 	add	r17,r17,r16
   30bdc:	88a3c83a 	sub	r17,r17,r2
   30be0:	003f1b06 	br	30850 <__umoddi3+0x1f0>
   30be4:	25adc83a 	sub	r22,r4,r22
   30be8:	1d07c83a 	sub	r3,r3,r20
   30bec:	2589803a 	cmpltu	r4,r4,r22
   30bf0:	1907c83a 	sub	r3,r3,r4
   30bf4:	88c7c83a 	sub	r3,r17,r3
   30bf8:	003fc006 	br	30afc <__umoddi3+0x49c>
   30bfc:	00c00204 	movi	r3,8
   30c00:	1827883a 	mov	r19,r3
   30c04:	003ee906 	br	307ac <__umoddi3+0x14c>
   30c08:	00c00604 	movi	r3,24
   30c0c:	1827883a 	mov	r19,r3
   30c10:	003ee606 	br	307ac <__umoddi3+0x14c>
   30c14:	00800604 	movi	r2,24
   30c18:	1009883a 	mov	r4,r2
   30c1c:	003ea806 	br	306c0 <__umoddi3+0x60>
   30c20:	00800204 	movi	r2,8
   30c24:	1007883a 	mov	r3,r2
   30c28:	003efd06 	br	30820 <__umoddi3+0x1c0>
   30c2c:	00800604 	movi	r2,24
   30c30:	1007883a 	mov	r3,r2
   30c34:	003efa06 	br	30820 <__umoddi3+0x1c0>
   30c38:	00800204 	movi	r2,8
   30c3c:	1009883a 	mov	r4,r2
   30c40:	003e9f06 	br	306c0 <__umoddi3+0x60>
   30c44:	38bf7f2e 	bgeu	r7,r2,30a44 <__umoddi3+0x3e4>
   30c48:	ad7fff84 	addi	r21,r21,-2
   30c4c:	3d0f883a 	add	r7,r7,r20
   30c50:	003f7d06 	br	30a48 <__umoddi3+0x3e8>
   30c54:	193f642e 	bgeu	r3,r4,309e8 <__umoddi3+0x388>
   30c58:	e73fff84 	addi	fp,fp,-2
   30c5c:	1d07883a 	add	r3,r3,r20
   30c60:	003f6206 	br	309ec <__umoddi3+0x38c>
   30c64:	1c07883a 	add	r3,r3,r16
   30c68:	003f0b06 	br	30898 <__umoddi3+0x238>
   30c6c:	9005883a 	mov	r2,r18
   30c70:	a007883a 	mov	r3,r20
   30c74:	003f2106 	br	308fc <__umoddi3+0x29c>
   30c78:	913fda36 	bltu	r18,r4,30be4 <__umoddi3+0x584>
   30c7c:	202d883a 	mov	r22,r4
   30c80:	0007883a 	mov	r3,zero
   30c84:	003f9d06 	br	30afc <__umoddi3+0x49c>

00030c88 <__eqsf2>:
   30c88:	defff504 	addi	sp,sp,-44
   30c8c:	d9000915 	stw	r4,36(sp)
   30c90:	d9400815 	stw	r5,32(sp)
   30c94:	d9000904 	addi	r4,sp,36
   30c98:	d9400404 	addi	r5,sp,16
   30c9c:	dfc00a15 	stw	ra,40(sp)
   30ca0:	00230240 	call	23024 <__unpack_f>
   30ca4:	d9000804 	addi	r4,sp,32
   30ca8:	d80b883a 	mov	r5,sp
   30cac:	00230240 	call	23024 <__unpack_f>
   30cb0:	d8c00417 	ldw	r3,16(sp)
   30cb4:	00800044 	movi	r2,1
   30cb8:	10c0052e 	bgeu	r2,r3,30cd0 <__eqsf2+0x48>
   30cbc:	d8c00017 	ldw	r3,0(sp)
   30cc0:	10c0032e 	bgeu	r2,r3,30cd0 <__eqsf2+0x48>
   30cc4:	d9000404 	addi	r4,sp,16
   30cc8:	d80b883a 	mov	r5,sp
   30ccc:	00230ec0 	call	230ec <__fpcmp_parts_f>
   30cd0:	dfc00a17 	ldw	ra,40(sp)
   30cd4:	dec00b04 	addi	sp,sp,44
   30cd8:	f800283a 	ret

00030cdc <__gtsf2>:
   30cdc:	defff504 	addi	sp,sp,-44
   30ce0:	d9000915 	stw	r4,36(sp)
   30ce4:	d9400815 	stw	r5,32(sp)
   30ce8:	d9000904 	addi	r4,sp,36
   30cec:	d9400404 	addi	r5,sp,16
   30cf0:	dfc00a15 	stw	ra,40(sp)
   30cf4:	00230240 	call	23024 <__unpack_f>
   30cf8:	d9000804 	addi	r4,sp,32
   30cfc:	d80b883a 	mov	r5,sp
   30d00:	00230240 	call	23024 <__unpack_f>
   30d04:	d8c00417 	ldw	r3,16(sp)
   30d08:	00800044 	movi	r2,1
   30d0c:	10c0082e 	bgeu	r2,r3,30d30 <__gtsf2+0x54>
   30d10:	d8c00017 	ldw	r3,0(sp)
   30d14:	10c0062e 	bgeu	r2,r3,30d30 <__gtsf2+0x54>
   30d18:	d9000404 	addi	r4,sp,16
   30d1c:	d80b883a 	mov	r5,sp
   30d20:	00230ec0 	call	230ec <__fpcmp_parts_f>
   30d24:	dfc00a17 	ldw	ra,40(sp)
   30d28:	dec00b04 	addi	sp,sp,44
   30d2c:	f800283a 	ret
   30d30:	00bfffc4 	movi	r2,-1
   30d34:	003ffb06 	br	30d24 <__gtsf2+0x48>

00030d38 <__ltsf2>:
   30d38:	defff504 	addi	sp,sp,-44
   30d3c:	d9000915 	stw	r4,36(sp)
   30d40:	d9400815 	stw	r5,32(sp)
   30d44:	d9000904 	addi	r4,sp,36
   30d48:	d9400404 	addi	r5,sp,16
   30d4c:	dfc00a15 	stw	ra,40(sp)
   30d50:	00230240 	call	23024 <__unpack_f>
   30d54:	d9000804 	addi	r4,sp,32
   30d58:	d80b883a 	mov	r5,sp
   30d5c:	00230240 	call	23024 <__unpack_f>
   30d60:	d8c00417 	ldw	r3,16(sp)
   30d64:	00800044 	movi	r2,1
   30d68:	10c0052e 	bgeu	r2,r3,30d80 <__ltsf2+0x48>
   30d6c:	d8c00017 	ldw	r3,0(sp)
   30d70:	10c0032e 	bgeu	r2,r3,30d80 <__ltsf2+0x48>
   30d74:	d9000404 	addi	r4,sp,16
   30d78:	d80b883a 	mov	r5,sp
   30d7c:	00230ec0 	call	230ec <__fpcmp_parts_f>
   30d80:	dfc00a17 	ldw	ra,40(sp)
   30d84:	dec00b04 	addi	sp,sp,44
   30d88:	f800283a 	ret

00030d8c <_fpadd_parts>:
   30d8c:	2005883a 	mov	r2,r4
   30d90:	21000017 	ldw	r4,0(r4)
   30d94:	01c00044 	movi	r7,1
   30d98:	3900622e 	bgeu	r7,r4,30f24 <_fpadd_parts+0x198>
   30d9c:	28c00017 	ldw	r3,0(r5)
   30da0:	38c05f2e 	bgeu	r7,r3,30f20 <_fpadd_parts+0x194>
   30da4:	01c00104 	movi	r7,4
   30da8:	21c0c626 	beq	r4,r7,310c4 <_fpadd_parts+0x338>
   30dac:	19c05c26 	beq	r3,r7,30f20 <_fpadd_parts+0x194>
   30db0:	01c00084 	movi	r7,2
   30db4:	19c06b26 	beq	r3,r7,30f64 <_fpadd_parts+0x1d8>
   30db8:	21c05926 	beq	r4,r7,30f20 <_fpadd_parts+0x194>
   30dbc:	11c00217 	ldw	r7,8(r2)
   30dc0:	2ac00217 	ldw	r11,8(r5)
   30dc4:	13000317 	ldw	r12,12(r2)
   30dc8:	13400417 	ldw	r13,16(r2)
   30dcc:	3ac9c83a 	sub	r4,r7,r11
   30dd0:	2a000317 	ldw	r8,12(r5)
   30dd4:	2a400417 	ldw	r9,16(r5)
   30dd8:	2015883a 	mov	r10,r4
   30ddc:	20007516 	blt	r4,zero,30fb4 <_fpadd_parts+0x228>
   30de0:	00c00fc4 	movi	r3,63
   30de4:	1a805016 	blt	r3,r10,30f28 <_fpadd_parts+0x19c>
   30de8:	0100870e 	bge	zero,r4,31008 <_fpadd_parts+0x27c>
   30dec:	50fff804 	addi	r3,r10,-32
   30df0:	18009916 	blt	r3,zero,31058 <_fpadd_parts+0x2cc>
   30df4:	48d6d83a 	srl	r11,r9,r3
   30df8:	001d883a 	mov	r14,zero
   30dfc:	18009e16 	blt	r3,zero,31078 <_fpadd_parts+0x2ec>
   30e00:	01000044 	movi	r4,1
   30e04:	20c6983a 	sll	r3,r4,r3
   30e08:	0015883a 	mov	r10,zero
   30e0c:	513fffc4 	addi	r4,r10,-1
   30e10:	2295403a 	cmpgeu	r10,r4,r10
   30e14:	1a87c83a 	sub	r3,r3,r10
   30e18:	1a52703a 	and	r9,r3,r9
   30e1c:	2210703a 	and	r8,r4,r8
   30e20:	4250b03a 	or	r8,r8,r9
   30e24:	4010c03a 	cmpne	r8,r8,zero
   30e28:	42d0b03a 	or	r8,r8,r11
   30e2c:	7013883a 	mov	r9,r14
   30e30:	11000117 	ldw	r4,4(r2)
   30e34:	28800117 	ldw	r2,4(r5)
   30e38:	20804126 	beq	r4,r2,30f40 <_fpadd_parts+0x1b4>
   30e3c:	20006326 	beq	r4,zero,30fcc <_fpadd_parts+0x240>
   30e40:	4305c83a 	sub	r2,r8,r12
   30e44:	4091803a 	cmpltu	r8,r8,r2
   30e48:	4b47c83a 	sub	r3,r9,r13
   30e4c:	1a07c83a 	sub	r3,r3,r8
   30e50:	18006316 	blt	r3,zero,30fe0 <_fpadd_parts+0x254>
   30e54:	30000115 	stw	zero,4(r6)
   30e58:	31c00215 	stw	r7,8(r6)
   30e5c:	30800315 	stw	r2,12(r6)
   30e60:	30c00415 	stw	r3,16(r6)
   30e64:	11ffffc4 	addi	r7,r2,-1
   30e68:	388b403a 	cmpgeu	r5,r7,r2
   30e6c:	194bc83a 	sub	r5,r3,r5
   30e70:	01040034 	movhi	r4,4096
   30e74:	213fffc4 	addi	r4,r4,-1
   30e78:	21401736 	bltu	r4,r5,30ed8 <_fpadd_parts+0x14c>
   30e7c:	29008226 	beq	r5,r4,31088 <_fpadd_parts+0x2fc>
   30e80:	31400217 	ldw	r5,8(r6)
   30e84:	02840034 	movhi	r10,4096
   30e88:	52bfffc4 	addi	r10,r10,-1
   30e8c:	033fff84 	movi	r12,-2
   30e90:	297fffc4 	addi	r5,r5,-1
   30e94:	00000106 	br	30e9c <_fpadd_parts+0x110>
   30e98:	3a804a26 	beq	r7,r10,30fc4 <_fpadd_parts+0x238>
   30e9c:	1089883a 	add	r4,r2,r2
   30ea0:	2091803a 	cmpltu	r8,r4,r2
   30ea4:	18c7883a 	add	r3,r3,r3
   30ea8:	227fffc4 	addi	r9,r4,-1
   30eac:	40d1883a 	add	r8,r8,r3
   30eb0:	490f403a 	cmpgeu	r7,r9,r4
   30eb4:	41cfc83a 	sub	r7,r8,r7
   30eb8:	2817883a 	mov	r11,r5
   30ebc:	2005883a 	mov	r2,r4
   30ec0:	4007883a 	mov	r3,r8
   30ec4:	297fffc4 	addi	r5,r5,-1
   30ec8:	51fff32e 	bgeu	r10,r7,30e98 <_fpadd_parts+0x10c>
   30ecc:	31000315 	stw	r4,12(r6)
   30ed0:	32000415 	stw	r8,16(r6)
   30ed4:	32c00215 	stw	r11,8(r6)
   30ed8:	010000c4 	movi	r4,3
   30edc:	31000015 	stw	r4,0(r6)
   30ee0:	01080034 	movhi	r4,8192
   30ee4:	213fffc4 	addi	r4,r4,-1
   30ee8:	20c00b2e 	bgeu	r4,r3,30f18 <_fpadd_parts+0x18c>
   30eec:	180e97fa 	slli	r7,r3,31
   30ef0:	1008d07a 	srli	r4,r2,1
   30ef4:	31400217 	ldw	r5,8(r6)
   30ef8:	1806d07a 	srli	r3,r3,1
   30efc:	1080004c 	andi	r2,r2,1
   30f00:	3908b03a 	or	r4,r7,r4
   30f04:	1108b03a 	or	r4,r2,r4
   30f08:	29400044 	addi	r5,r5,1
   30f0c:	31000315 	stw	r4,12(r6)
   30f10:	30c00415 	stw	r3,16(r6)
   30f14:	31400215 	stw	r5,8(r6)
   30f18:	3005883a 	mov	r2,r6
   30f1c:	f800283a 	ret
   30f20:	2805883a 	mov	r2,r5
   30f24:	f800283a 	ret
   30f28:	59c01e0e 	bge	r11,r7,30fa4 <_fpadd_parts+0x218>
   30f2c:	11000117 	ldw	r4,4(r2)
   30f30:	28800117 	ldw	r2,4(r5)
   30f34:	0011883a 	mov	r8,zero
   30f38:	0013883a 	mov	r9,zero
   30f3c:	20bfbf1e 	bne	r4,r2,30e3c <_fpadd_parts+0xb0>
   30f40:	4305883a 	add	r2,r8,r12
   30f44:	1207803a 	cmpltu	r3,r2,r8
   30f48:	4b53883a 	add	r9,r9,r13
   30f4c:	1a47883a 	add	r3,r3,r9
   30f50:	31000115 	stw	r4,4(r6)
   30f54:	31c00215 	stw	r7,8(r6)
   30f58:	30800315 	stw	r2,12(r6)
   30f5c:	30c00415 	stw	r3,16(r6)
   30f60:	003fdd06 	br	30ed8 <_fpadd_parts+0x14c>
   30f64:	20ffef1e 	bne	r4,r3,30f24 <_fpadd_parts+0x198>
   30f68:	31000015 	stw	r4,0(r6)
   30f6c:	10c00117 	ldw	r3,4(r2)
   30f70:	30c00115 	stw	r3,4(r6)
   30f74:	10c00217 	ldw	r3,8(r2)
   30f78:	11000117 	ldw	r4,4(r2)
   30f7c:	29400117 	ldw	r5,4(r5)
   30f80:	30c00215 	stw	r3,8(r6)
   30f84:	10c00317 	ldw	r3,12(r2)
   30f88:	2908703a 	and	r4,r5,r4
   30f8c:	30c00315 	stw	r3,12(r6)
   30f90:	10c00417 	ldw	r3,16(r2)
   30f94:	31000115 	stw	r4,4(r6)
   30f98:	3005883a 	mov	r2,r6
   30f9c:	30c00415 	stw	r3,16(r6)
   30fa0:	f800283a 	ret
   30fa4:	580f883a 	mov	r7,r11
   30fa8:	0019883a 	mov	r12,zero
   30fac:	001b883a 	mov	r13,zero
   30fb0:	003f9f06 	br	30e30 <_fpadd_parts+0xa4>
   30fb4:	0115c83a 	sub	r10,zero,r4
   30fb8:	00c00fc4 	movi	r3,63
   30fbc:	1abfda16 	blt	r3,r10,30f28 <_fpadd_parts+0x19c>
   30fc0:	003f8906 	br	30de8 <_fpadd_parts+0x5c>
   30fc4:	627fb52e 	bgeu	r12,r9,30e9c <_fpadd_parts+0x110>
   30fc8:	003fc006 	br	30ecc <_fpadd_parts+0x140>
   30fcc:	6205c83a 	sub	r2,r12,r8
   30fd0:	6099803a 	cmpltu	r12,r12,r2
   30fd4:	6a47c83a 	sub	r3,r13,r9
   30fd8:	1b07c83a 	sub	r3,r3,r12
   30fdc:	183f9d0e 	bge	r3,zero,30e54 <_fpadd_parts+0xc8>
   30fe0:	0085c83a 	sub	r2,zero,r2
   30fe4:	1008c03a 	cmpne	r4,r2,zero
   30fe8:	00c7c83a 	sub	r3,zero,r3
   30fec:	1907c83a 	sub	r3,r3,r4
   30ff0:	01000044 	movi	r4,1
   30ff4:	31000115 	stw	r4,4(r6)
   30ff8:	31c00215 	stw	r7,8(r6)
   30ffc:	30800315 	stw	r2,12(r6)
   31000:	30c00415 	stw	r3,16(r6)
   31004:	003f9706 	br	30e64 <_fpadd_parts+0xd8>
   31008:	203f8926 	beq	r4,zero,30e30 <_fpadd_parts+0xa4>
   3100c:	50fff804 	addi	r3,r10,-32
   31010:	3a8f883a 	add	r7,r7,r10
   31014:	18002316 	blt	r3,zero,310a4 <_fpadd_parts+0x318>
   31018:	68d6d83a 	srl	r11,r13,r3
   3101c:	001d883a 	mov	r14,zero
   31020:	18001c16 	blt	r3,zero,31094 <_fpadd_parts+0x308>
   31024:	01000044 	movi	r4,1
   31028:	20c6983a 	sll	r3,r4,r3
   3102c:	0015883a 	mov	r10,zero
   31030:	513fffc4 	addi	r4,r10,-1
   31034:	2295403a 	cmpgeu	r10,r4,r10
   31038:	1a87c83a 	sub	r3,r3,r10
   3103c:	1b5a703a 	and	r13,r3,r13
   31040:	2318703a 	and	r12,r4,r12
   31044:	6358b03a 	or	r12,r12,r13
   31048:	6018c03a 	cmpne	r12,r12,zero
   3104c:	62d8b03a 	or	r12,r12,r11
   31050:	701b883a 	mov	r13,r14
   31054:	003f7606 	br	30e30 <_fpadd_parts+0xa4>
   31058:	4808907a 	slli	r4,r9,1
   3105c:	02c007c4 	movi	r11,31
   31060:	5a97c83a 	sub	r11,r11,r10
   31064:	22c8983a 	sll	r4,r4,r11
   31068:	4296d83a 	srl	r11,r8,r10
   3106c:	4a9cd83a 	srl	r14,r9,r10
   31070:	22d6b03a 	or	r11,r4,r11
   31074:	003f6106 	br	30dfc <_fpadd_parts+0x70>
   31078:	00c00044 	movi	r3,1
   3107c:	1a94983a 	sll	r10,r3,r10
   31080:	0007883a 	mov	r3,zero
   31084:	003f6106 	br	30e0c <_fpadd_parts+0x80>
   31088:	013fff84 	movi	r4,-2
   3108c:	21ff7c2e 	bgeu	r4,r7,30e80 <_fpadd_parts+0xf4>
   31090:	003f9106 	br	30ed8 <_fpadd_parts+0x14c>
   31094:	00c00044 	movi	r3,1
   31098:	1a94983a 	sll	r10,r3,r10
   3109c:	0007883a 	mov	r3,zero
   310a0:	003fe306 	br	31030 <_fpadd_parts+0x2a4>
   310a4:	6816907a 	slli	r11,r13,1
   310a8:	010007c4 	movi	r4,31
   310ac:	2289c83a 	sub	r4,r4,r10
   310b0:	5908983a 	sll	r4,r11,r4
   310b4:	6296d83a 	srl	r11,r12,r10
   310b8:	6a9cd83a 	srl	r14,r13,r10
   310bc:	22d6b03a 	or	r11,r4,r11
   310c0:	003fd706 	br	31020 <_fpadd_parts+0x294>
   310c4:	193f971e 	bne	r3,r4,30f24 <_fpadd_parts+0x198>
   310c8:	11000117 	ldw	r4,4(r2)
   310cc:	28c00117 	ldw	r3,4(r5)
   310d0:	20ff9426 	beq	r4,r3,30f24 <_fpadd_parts+0x198>
   310d4:	008000f4 	movhi	r2,3
   310d8:	10943304 	addi	r2,r2,20684
   310dc:	f800283a 	ret

000310e0 <__adddf3>:
   310e0:	deffec04 	addi	sp,sp,-80
   310e4:	d9001115 	stw	r4,68(sp)
   310e8:	d9401215 	stw	r5,72(sp)
   310ec:	d9001104 	addi	r4,sp,68
   310f0:	d9400a04 	addi	r5,sp,40
   310f4:	dfc01315 	stw	ra,76(sp)
   310f8:	d9c01015 	stw	r7,64(sp)
   310fc:	d9800f15 	stw	r6,60(sp)
   31100:	0031dd80 	call	31dd8 <__unpack_d>
   31104:	d9000f04 	addi	r4,sp,60
   31108:	d9400504 	addi	r5,sp,20
   3110c:	0031dd80 	call	31dd8 <__unpack_d>
   31110:	d9000a04 	addi	r4,sp,40
   31114:	d9400504 	addi	r5,sp,20
   31118:	d80d883a 	mov	r6,sp
   3111c:	0030d8c0 	call	30d8c <_fpadd_parts>
   31120:	1009883a 	mov	r4,r2
   31124:	0031bb40 	call	31bb4 <__pack_d>
   31128:	dfc01317 	ldw	ra,76(sp)
   3112c:	dec01404 	addi	sp,sp,80
   31130:	f800283a 	ret

00031134 <__subdf3>:
   31134:	deffec04 	addi	sp,sp,-80
   31138:	d9001115 	stw	r4,68(sp)
   3113c:	d9401215 	stw	r5,72(sp)
   31140:	d9001104 	addi	r4,sp,68
   31144:	d9400a04 	addi	r5,sp,40
   31148:	dfc01315 	stw	ra,76(sp)
   3114c:	d9c01015 	stw	r7,64(sp)
   31150:	d9800f15 	stw	r6,60(sp)
   31154:	0031dd80 	call	31dd8 <__unpack_d>
   31158:	d9000f04 	addi	r4,sp,60
   3115c:	d9400504 	addi	r5,sp,20
   31160:	0031dd80 	call	31dd8 <__unpack_d>
   31164:	d8800617 	ldw	r2,24(sp)
   31168:	d9000a04 	addi	r4,sp,40
   3116c:	d9400504 	addi	r5,sp,20
   31170:	d80d883a 	mov	r6,sp
   31174:	1080005c 	xori	r2,r2,1
   31178:	d8800615 	stw	r2,24(sp)
   3117c:	0030d8c0 	call	30d8c <_fpadd_parts>
   31180:	1009883a 	mov	r4,r2
   31184:	0031bb40 	call	31bb4 <__pack_d>
   31188:	dfc01317 	ldw	ra,76(sp)
   3118c:	dec01404 	addi	sp,sp,80
   31190:	f800283a 	ret

00031194 <__muldf3>:
   31194:	deffe404 	addi	sp,sp,-112
   31198:	d9001115 	stw	r4,68(sp)
   3119c:	d9401215 	stw	r5,72(sp)
   311a0:	d9001104 	addi	r4,sp,68
   311a4:	d9400a04 	addi	r5,sp,40
   311a8:	dfc01b15 	stw	ra,108(sp)
   311ac:	d9800f15 	stw	r6,60(sp)
   311b0:	d9c01015 	stw	r7,64(sp)
   311b4:	ddc01a15 	stw	r23,104(sp)
   311b8:	dd801915 	stw	r22,100(sp)
   311bc:	dd401815 	stw	r21,96(sp)
   311c0:	dd001715 	stw	r20,92(sp)
   311c4:	dcc01615 	stw	r19,88(sp)
   311c8:	dc801515 	stw	r18,84(sp)
   311cc:	dc401415 	stw	r17,80(sp)
   311d0:	dc001315 	stw	r16,76(sp)
   311d4:	0031dd80 	call	31dd8 <__unpack_d>
   311d8:	d9000f04 	addi	r4,sp,60
   311dc:	d9400504 	addi	r5,sp,20
   311e0:	0031dd80 	call	31dd8 <__unpack_d>
   311e4:	d8c00a17 	ldw	r3,40(sp)
   311e8:	00800044 	movi	r2,1
   311ec:	10c01136 	bltu	r2,r3,31234 <__muldf3+0xa0>
   311f0:	d8c00b17 	ldw	r3,44(sp)
   311f4:	d8800617 	ldw	r2,24(sp)
   311f8:	d9000a04 	addi	r4,sp,40
   311fc:	1884c03a 	cmpne	r2,r3,r2
   31200:	d8800b15 	stw	r2,44(sp)
   31204:	0031bb40 	call	31bb4 <__pack_d>
   31208:	dfc01b17 	ldw	ra,108(sp)
   3120c:	ddc01a17 	ldw	r23,104(sp)
   31210:	dd801917 	ldw	r22,100(sp)
   31214:	dd401817 	ldw	r21,96(sp)
   31218:	dd001717 	ldw	r20,92(sp)
   3121c:	dcc01617 	ldw	r19,88(sp)
   31220:	dc801517 	ldw	r18,84(sp)
   31224:	dc401417 	ldw	r17,80(sp)
   31228:	dc001317 	ldw	r16,76(sp)
   3122c:	dec01c04 	addi	sp,sp,112
   31230:	f800283a 	ret
   31234:	d9000517 	ldw	r4,20(sp)
   31238:	11000636 	bltu	r2,r4,31254 <__muldf3+0xc0>
   3123c:	d8800617 	ldw	r2,24(sp)
   31240:	d8c00b17 	ldw	r3,44(sp)
   31244:	d9000504 	addi	r4,sp,20
   31248:	1884c03a 	cmpne	r2,r3,r2
   3124c:	d8800615 	stw	r2,24(sp)
   31250:	003fec06 	br	31204 <__muldf3+0x70>
   31254:	00800104 	movi	r2,4
   31258:	1880051e 	bne	r3,r2,31270 <__muldf3+0xdc>
   3125c:	00800084 	movi	r2,2
   31260:	20bfe31e 	bne	r4,r2,311f0 <__muldf3+0x5c>
   31264:	010000f4 	movhi	r4,3
   31268:	21143304 	addi	r4,r4,20684
   3126c:	003fe506 	br	31204 <__muldf3+0x70>
   31270:	2080031e 	bne	r4,r2,31280 <__muldf3+0xec>
   31274:	00800084 	movi	r2,2
   31278:	18bffa26 	beq	r3,r2,31264 <__muldf3+0xd0>
   3127c:	003fef06 	br	3123c <__muldf3+0xa8>
   31280:	00800084 	movi	r2,2
   31284:	18bfda26 	beq	r3,r2,311f0 <__muldf3+0x5c>
   31288:	20bfec26 	beq	r4,r2,3123c <__muldf3+0xa8>
   3128c:	dc000d17 	ldw	r16,52(sp)
   31290:	dd000817 	ldw	r20,32(sp)
   31294:	dc800917 	ldw	r18,36(sp)
   31298:	8009883a 	mov	r4,r16
   3129c:	000b883a 	mov	r5,zero
   312a0:	a00d883a 	mov	r6,r20
   312a4:	000f883a 	mov	r7,zero
   312a8:	0022d3c0 	call	22d3c <__muldi3>
   312ac:	dc400e17 	ldw	r17,56(sp)
   312b0:	9009883a 	mov	r4,r18
   312b4:	800d883a 	mov	r6,r16
   312b8:	000b883a 	mov	r5,zero
   312bc:	000f883a 	mov	r7,zero
   312c0:	102f883a 	mov	r23,r2
   312c4:	1827883a 	mov	r19,r3
   312c8:	0022d3c0 	call	22d3c <__muldi3>
   312cc:	900d883a 	mov	r6,r18
   312d0:	8809883a 	mov	r4,r17
   312d4:	000b883a 	mov	r5,zero
   312d8:	000f883a 	mov	r7,zero
   312dc:	102b883a 	mov	r21,r2
   312e0:	1821883a 	mov	r16,r3
   312e4:	0022d3c0 	call	22d3c <__muldi3>
   312e8:	8809883a 	mov	r4,r17
   312ec:	000b883a 	mov	r5,zero
   312f0:	a00d883a 	mov	r6,r20
   312f4:	000f883a 	mov	r7,zero
   312f8:	102d883a 	mov	r22,r2
   312fc:	1825883a 	mov	r18,r3
   31300:	0022d3c0 	call	22d3c <__muldi3>
   31304:	154b883a 	add	r5,r2,r21
   31308:	2889803a 	cmpltu	r4,r5,r2
   3130c:	1c07883a 	add	r3,r3,r16
   31310:	20c9883a 	add	r4,r4,r3
   31314:	24004b36 	bltu	r4,r16,31444 <__muldf3+0x2b0>
   31318:	8100011e 	bne	r16,r4,31320 <__muldf3+0x18c>
   3131c:	2d404936 	bltu	r5,r21,31444 <__muldf3+0x2b0>
   31320:	0011883a 	mov	r8,zero
   31324:	0007883a 	mov	r3,zero
   31328:	2ccb883a 	add	r5,r5,r19
   3132c:	b80d883a 	mov	r6,r23
   31330:	2cc0012e 	bgeu	r5,r19,31338 <__muldf3+0x1a4>
   31334:	02000044 	movi	r8,1
   31338:	258f883a 	add	r7,r4,r22
   3133c:	3909803a 	cmpltu	r4,r7,r4
   31340:	da400c17 	ldw	r9,48(sp)
   31344:	2489883a 	add	r4,r4,r18
   31348:	d8800717 	ldw	r2,28(sp)
   3134c:	20c9883a 	add	r4,r4,r3
   31350:	da800b17 	ldw	r10,44(sp)
   31354:	d8c00617 	ldw	r3,24(sp)
   31358:	3a11883a 	add	r8,r7,r8
   3135c:	4885883a 	add	r2,r9,r2
   31360:	50c6c03a 	cmpne	r3,r10,r3
   31364:	41cf803a 	cmpltu	r7,r8,r7
   31368:	12400104 	addi	r9,r2,4
   3136c:	d8c00115 	stw	r3,4(sp)
   31370:	3909883a 	add	r4,r7,r4
   31374:	da400215 	stw	r9,8(sp)
   31378:	03480034 	movhi	r13,8192
   3137c:	6b7fffc4 	addi	r13,r13,-1
   31380:	4007883a 	mov	r3,r8
   31384:	6900102e 	bgeu	r13,r4,313c8 <__muldf3+0x234>
   31388:	10800144 	addi	r2,r2,5
   3138c:	180ed07a 	srli	r7,r3,1
   31390:	18c0004c 	andi	r3,r3,1
   31394:	201097fa 	slli	r8,r4,31
   31398:	281697fa 	slli	r11,r5,31
   3139c:	2008d07a 	srli	r4,r4,1
   313a0:	3014d07a 	srli	r10,r6,1
   313a4:	2812d07a 	srli	r9,r5,1
   313a8:	1019883a 	mov	r12,r2
   313ac:	18000226 	beq	r3,zero,313b8 <__muldf3+0x224>
   313b0:	5a8cb03a 	or	r6,r11,r10
   313b4:	49600034 	orhi	r5,r9,32768
   313b8:	41c6b03a 	or	r3,r8,r7
   313bc:	10800044 	addi	r2,r2,1
   313c0:	693ff236 	bltu	r13,r4,3138c <__muldf3+0x1f8>
   313c4:	db000215 	stw	r12,8(sp)
   313c8:	03440034 	movhi	r13,4096
   313cc:	6b7fffc4 	addi	r13,r13,-1
   313d0:	69001336 	bltu	r13,r4,31420 <__muldf3+0x28c>
   313d4:	d8800217 	ldw	r2,8(sp)
   313d8:	10bfffc4 	addi	r2,r2,-1
   313dc:	18d3883a 	add	r9,r3,r3
   313e0:	48c7803a 	cmpltu	r3,r9,r3
   313e4:	2109883a 	add	r4,r4,r4
   313e8:	190f883a 	add	r7,r3,r4
   313ec:	3191883a 	add	r8,r6,r6
   313f0:	4197803a 	cmpltu	r11,r8,r6
   313f4:	2955883a 	add	r10,r5,r5
   313f8:	1019883a 	mov	r12,r2
   313fc:	4807883a 	mov	r3,r9
   31400:	3809883a 	mov	r4,r7
   31404:	2800010e 	bge	r5,zero,3140c <__muldf3+0x278>
   31408:	48c00054 	ori	r3,r9,1
   3140c:	400d883a 	mov	r6,r8
   31410:	5a8b883a 	add	r5,r11,r10
   31414:	10bfffc4 	addi	r2,r2,-1
   31418:	69fff02e 	bgeu	r13,r7,313dc <__muldf3+0x248>
   3141c:	db000215 	stw	r12,8(sp)
   31420:	18803fcc 	andi	r2,r3,255
   31424:	01c02004 	movi	r7,128
   31428:	11c00926 	beq	r2,r7,31450 <__muldf3+0x2bc>
   3142c:	008000c4 	movi	r2,3
   31430:	d9000415 	stw	r4,16(sp)
   31434:	d8c00315 	stw	r3,12(sp)
   31438:	d8800015 	stw	r2,0(sp)
   3143c:	d809883a 	mov	r4,sp
   31440:	003f7006 	br	31204 <__muldf3+0x70>
   31444:	0011883a 	mov	r8,zero
   31448:	00c00044 	movi	r3,1
   3144c:	003fb606 	br	31328 <__muldf3+0x194>
   31450:	19c0400c 	andi	r7,r3,256
   31454:	383ff51e 	bne	r7,zero,3142c <__muldf3+0x298>
   31458:	314ab03a 	or	r5,r6,r5
   3145c:	283ff326 	beq	r5,zero,3142c <__muldf3+0x298>
   31460:	1885883a 	add	r2,r3,r2
   31464:	10cb803a 	cmpltu	r5,r2,r3
   31468:	00ffc004 	movi	r3,-256
   3146c:	10c6703a 	and	r3,r2,r3
   31470:	2909883a 	add	r4,r5,r4
   31474:	003fed06 	br	3142c <__muldf3+0x298>

00031478 <__divdf3>:
   31478:	defff104 	addi	sp,sp,-60
   3147c:	d9000c15 	stw	r4,48(sp)
   31480:	d9400d15 	stw	r5,52(sp)
   31484:	d9000c04 	addi	r4,sp,48
   31488:	d9400504 	addi	r5,sp,20
   3148c:	dfc00e15 	stw	ra,56(sp)
   31490:	d9800a15 	stw	r6,40(sp)
   31494:	d9c00b15 	stw	r7,44(sp)
   31498:	0031dd80 	call	31dd8 <__unpack_d>
   3149c:	d9000a04 	addi	r4,sp,40
   314a0:	d80b883a 	mov	r5,sp
   314a4:	0031dd80 	call	31dd8 <__unpack_d>
   314a8:	d8c00517 	ldw	r3,20(sp)
   314ac:	00800044 	movi	r2,1
   314b0:	10c00536 	bltu	r2,r3,314c8 <__divdf3+0x50>
   314b4:	d9000504 	addi	r4,sp,20
   314b8:	0031bb40 	call	31bb4 <__pack_d>
   314bc:	dfc00e17 	ldw	ra,56(sp)
   314c0:	dec00f04 	addi	sp,sp,60
   314c4:	f800283a 	ret
   314c8:	d9000017 	ldw	r4,0(sp)
   314cc:	11000536 	bltu	r2,r4,314e4 <__divdf3+0x6c>
   314d0:	d809883a 	mov	r4,sp
   314d4:	0031bb40 	call	31bb4 <__pack_d>
   314d8:	dfc00e17 	ldw	ra,56(sp)
   314dc:	dec00f04 	addi	sp,sp,60
   314e0:	f800283a 	ret
   314e4:	d9800617 	ldw	r6,24(sp)
   314e8:	d9400117 	ldw	r5,4(sp)
   314ec:	00800104 	movi	r2,4
   314f0:	314af03a 	xor	r5,r6,r5
   314f4:	d9400615 	stw	r5,24(sp)
   314f8:	18800226 	beq	r3,r2,31504 <__divdf3+0x8c>
   314fc:	01400084 	movi	r5,2
   31500:	1940041e 	bne	r3,r5,31514 <__divdf3+0x9c>
   31504:	193feb1e 	bne	r3,r4,314b4 <__divdf3+0x3c>
   31508:	010000f4 	movhi	r4,3
   3150c:	21143304 	addi	r4,r4,20684
   31510:	003fe906 	br	314b8 <__divdf3+0x40>
   31514:	20803326 	beq	r4,r2,315e4 <__divdf3+0x16c>
   31518:	21403726 	beq	r4,r5,315f8 <__divdf3+0x180>
   3151c:	d8800217 	ldw	r2,8(sp)
   31520:	d9000717 	ldw	r4,28(sp)
   31524:	d8c00917 	ldw	r3,36(sp)
   31528:	da000417 	ldw	r8,16(sp)
   3152c:	2089c83a 	sub	r4,r4,r2
   31530:	d9000715 	stw	r4,28(sp)
   31534:	d8800817 	ldw	r2,32(sp)
   31538:	dbc00317 	ldw	r15,12(sp)
   3153c:	1a000236 	bltu	r3,r8,31548 <__divdf3+0xd0>
   31540:	40c0081e 	bne	r8,r3,31564 <__divdf3+0xec>
   31544:	13c0072e 	bgeu	r2,r15,31564 <__divdf3+0xec>
   31548:	108b883a 	add	r5,r2,r2
   3154c:	288d803a 	cmpltu	r6,r5,r2
   31550:	18c7883a 	add	r3,r3,r3
   31554:	213fffc4 	addi	r4,r4,-1
   31558:	2805883a 	mov	r2,r5
   3155c:	30c7883a 	add	r3,r6,r3
   31560:	d9000715 	stw	r4,28(sp)
   31564:	01400f44 	movi	r5,61
   31568:	000f883a 	mov	r7,zero
   3156c:	01040034 	movhi	r4,4096
   31570:	0019883a 	mov	r12,zero
   31574:	001b883a 	mov	r13,zero
   31578:	201697fa 	slli	r11,r4,31
   3157c:	3814d07a 	srli	r10,r7,1
   31580:	297fffc4 	addi	r5,r5,-1
   31584:	1a000936 	bltu	r3,r8,315ac <__divdf3+0x134>
   31588:	13cdc83a 	sub	r6,r2,r15
   3158c:	1193803a 	cmpltu	r9,r2,r6
   31590:	1a1dc83a 	sub	r14,r3,r8
   31594:	40c0011e 	bne	r8,r3,3159c <__divdf3+0x124>
   31598:	13c00436 	bltu	r2,r15,315ac <__divdf3+0x134>
   3159c:	3005883a 	mov	r2,r6
   315a0:	7247c83a 	sub	r3,r14,r9
   315a4:	61d8b03a 	or	r12,r12,r7
   315a8:	691ab03a 	or	r13,r13,r4
   315ac:	108d883a 	add	r6,r2,r2
   315b0:	3093803a 	cmpltu	r9,r6,r2
   315b4:	18c7883a 	add	r3,r3,r3
   315b8:	5a8eb03a 	or	r7,r11,r10
   315bc:	2008d07a 	srli	r4,r4,1
   315c0:	3005883a 	mov	r2,r6
   315c4:	48c7883a 	add	r3,r9,r3
   315c8:	283feb1e 	bne	r5,zero,31578 <__divdf3+0x100>
   315cc:	61003fcc 	andi	r4,r12,255
   315d0:	01402004 	movi	r5,128
   315d4:	21400b26 	beq	r4,r5,31604 <__divdf3+0x18c>
   315d8:	db000815 	stw	r12,32(sp)
   315dc:	db400915 	stw	r13,36(sp)
   315e0:	003fb406 	br	314b4 <__divdf3+0x3c>
   315e4:	d8000815 	stw	zero,32(sp)
   315e8:	d8000915 	stw	zero,36(sp)
   315ec:	d8000715 	stw	zero,28(sp)
   315f0:	d9000504 	addi	r4,sp,20
   315f4:	003fb006 	br	314b8 <__divdf3+0x40>
   315f8:	d8800515 	stw	r2,20(sp)
   315fc:	d9000504 	addi	r4,sp,20
   31600:	003fad06 	br	314b8 <__divdf3+0x40>
   31604:	6140400c 	andi	r5,r12,256
   31608:	283ff31e 	bne	r5,zero,315d8 <__divdf3+0x160>
   3160c:	30c4b03a 	or	r2,r6,r3
   31610:	103ff126 	beq	r2,zero,315d8 <__divdf3+0x160>
   31614:	6109883a 	add	r4,r12,r4
   31618:	2305803a 	cmpltu	r2,r4,r12
   3161c:	033fc004 	movi	r12,-256
   31620:	2318703a 	and	r12,r4,r12
   31624:	135b883a 	add	r13,r2,r13
   31628:	003feb06 	br	315d8 <__divdf3+0x160>

0003162c <__eqdf2>:
   3162c:	defff104 	addi	sp,sp,-60
   31630:	d9000c15 	stw	r4,48(sp)
   31634:	d9400d15 	stw	r5,52(sp)
   31638:	d9000c04 	addi	r4,sp,48
   3163c:	d9400504 	addi	r5,sp,20
   31640:	dfc00e15 	stw	ra,56(sp)
   31644:	d9800a15 	stw	r6,40(sp)
   31648:	d9c00b15 	stw	r7,44(sp)
   3164c:	0031dd80 	call	31dd8 <__unpack_d>
   31650:	d9000a04 	addi	r4,sp,40
   31654:	d80b883a 	mov	r5,sp
   31658:	0031dd80 	call	31dd8 <__unpack_d>
   3165c:	d8c00517 	ldw	r3,20(sp)
   31660:	00800044 	movi	r2,1
   31664:	10c0052e 	bgeu	r2,r3,3167c <__eqdf2+0x50>
   31668:	d8c00017 	ldw	r3,0(sp)
   3166c:	10c0032e 	bgeu	r2,r3,3167c <__eqdf2+0x50>
   31670:	d9000504 	addi	r4,sp,20
   31674:	d80b883a 	mov	r5,sp
   31678:	0031edc0 	call	31edc <__fpcmp_parts_d>
   3167c:	dfc00e17 	ldw	ra,56(sp)
   31680:	dec00f04 	addi	sp,sp,60
   31684:	f800283a 	ret

00031688 <__nedf2>:
   31688:	defff104 	addi	sp,sp,-60
   3168c:	d9000c15 	stw	r4,48(sp)
   31690:	d9400d15 	stw	r5,52(sp)
   31694:	d9000c04 	addi	r4,sp,48
   31698:	d9400504 	addi	r5,sp,20
   3169c:	dfc00e15 	stw	ra,56(sp)
   316a0:	d9800a15 	stw	r6,40(sp)
   316a4:	d9c00b15 	stw	r7,44(sp)
   316a8:	0031dd80 	call	31dd8 <__unpack_d>
   316ac:	d9000a04 	addi	r4,sp,40
   316b0:	d80b883a 	mov	r5,sp
   316b4:	0031dd80 	call	31dd8 <__unpack_d>
   316b8:	d8c00517 	ldw	r3,20(sp)
   316bc:	00800044 	movi	r2,1
   316c0:	10c0052e 	bgeu	r2,r3,316d8 <__nedf2+0x50>
   316c4:	d8c00017 	ldw	r3,0(sp)
   316c8:	10c0032e 	bgeu	r2,r3,316d8 <__nedf2+0x50>
   316cc:	d9000504 	addi	r4,sp,20
   316d0:	d80b883a 	mov	r5,sp
   316d4:	0031edc0 	call	31edc <__fpcmp_parts_d>
   316d8:	dfc00e17 	ldw	ra,56(sp)
   316dc:	dec00f04 	addi	sp,sp,60
   316e0:	f800283a 	ret

000316e4 <__gtdf2>:
   316e4:	defff104 	addi	sp,sp,-60
   316e8:	d9000c15 	stw	r4,48(sp)
   316ec:	d9400d15 	stw	r5,52(sp)
   316f0:	d9000c04 	addi	r4,sp,48
   316f4:	d9400504 	addi	r5,sp,20
   316f8:	dfc00e15 	stw	ra,56(sp)
   316fc:	d9800a15 	stw	r6,40(sp)
   31700:	d9c00b15 	stw	r7,44(sp)
   31704:	0031dd80 	call	31dd8 <__unpack_d>
   31708:	d9000a04 	addi	r4,sp,40
   3170c:	d80b883a 	mov	r5,sp
   31710:	0031dd80 	call	31dd8 <__unpack_d>
   31714:	d8c00517 	ldw	r3,20(sp)
   31718:	00800044 	movi	r2,1
   3171c:	10c0082e 	bgeu	r2,r3,31740 <__gtdf2+0x5c>
   31720:	d8c00017 	ldw	r3,0(sp)
   31724:	10c0062e 	bgeu	r2,r3,31740 <__gtdf2+0x5c>
   31728:	d9000504 	addi	r4,sp,20
   3172c:	d80b883a 	mov	r5,sp
   31730:	0031edc0 	call	31edc <__fpcmp_parts_d>
   31734:	dfc00e17 	ldw	ra,56(sp)
   31738:	dec00f04 	addi	sp,sp,60
   3173c:	f800283a 	ret
   31740:	00bfffc4 	movi	r2,-1
   31744:	003ffb06 	br	31734 <__gtdf2+0x50>

00031748 <__gedf2>:
   31748:	defff104 	addi	sp,sp,-60
   3174c:	d9000c15 	stw	r4,48(sp)
   31750:	d9400d15 	stw	r5,52(sp)
   31754:	d9000c04 	addi	r4,sp,48
   31758:	d9400504 	addi	r5,sp,20
   3175c:	dfc00e15 	stw	ra,56(sp)
   31760:	d9800a15 	stw	r6,40(sp)
   31764:	d9c00b15 	stw	r7,44(sp)
   31768:	0031dd80 	call	31dd8 <__unpack_d>
   3176c:	d9000a04 	addi	r4,sp,40
   31770:	d80b883a 	mov	r5,sp
   31774:	0031dd80 	call	31dd8 <__unpack_d>
   31778:	d8c00517 	ldw	r3,20(sp)
   3177c:	00800044 	movi	r2,1
   31780:	10c0082e 	bgeu	r2,r3,317a4 <__gedf2+0x5c>
   31784:	d8c00017 	ldw	r3,0(sp)
   31788:	10c0062e 	bgeu	r2,r3,317a4 <__gedf2+0x5c>
   3178c:	d9000504 	addi	r4,sp,20
   31790:	d80b883a 	mov	r5,sp
   31794:	0031edc0 	call	31edc <__fpcmp_parts_d>
   31798:	dfc00e17 	ldw	ra,56(sp)
   3179c:	dec00f04 	addi	sp,sp,60
   317a0:	f800283a 	ret
   317a4:	00bfffc4 	movi	r2,-1
   317a8:	003ffb06 	br	31798 <__gedf2+0x50>

000317ac <__ltdf2>:
   317ac:	defff104 	addi	sp,sp,-60
   317b0:	d9000c15 	stw	r4,48(sp)
   317b4:	d9400d15 	stw	r5,52(sp)
   317b8:	d9000c04 	addi	r4,sp,48
   317bc:	d9400504 	addi	r5,sp,20
   317c0:	dfc00e15 	stw	ra,56(sp)
   317c4:	d9800a15 	stw	r6,40(sp)
   317c8:	d9c00b15 	stw	r7,44(sp)
   317cc:	0031dd80 	call	31dd8 <__unpack_d>
   317d0:	d9000a04 	addi	r4,sp,40
   317d4:	d80b883a 	mov	r5,sp
   317d8:	0031dd80 	call	31dd8 <__unpack_d>
   317dc:	d8c00517 	ldw	r3,20(sp)
   317e0:	00800044 	movi	r2,1
   317e4:	10c0052e 	bgeu	r2,r3,317fc <__ltdf2+0x50>
   317e8:	d8c00017 	ldw	r3,0(sp)
   317ec:	10c0032e 	bgeu	r2,r3,317fc <__ltdf2+0x50>
   317f0:	d9000504 	addi	r4,sp,20
   317f4:	d80b883a 	mov	r5,sp
   317f8:	0031edc0 	call	31edc <__fpcmp_parts_d>
   317fc:	dfc00e17 	ldw	ra,56(sp)
   31800:	dec00f04 	addi	sp,sp,60
   31804:	f800283a 	ret

00031808 <__ledf2>:
   31808:	defff104 	addi	sp,sp,-60
   3180c:	d9000c15 	stw	r4,48(sp)
   31810:	d9400d15 	stw	r5,52(sp)
   31814:	d9000c04 	addi	r4,sp,48
   31818:	d9400504 	addi	r5,sp,20
   3181c:	dfc00e15 	stw	ra,56(sp)
   31820:	d9800a15 	stw	r6,40(sp)
   31824:	d9c00b15 	stw	r7,44(sp)
   31828:	0031dd80 	call	31dd8 <__unpack_d>
   3182c:	d9000a04 	addi	r4,sp,40
   31830:	d80b883a 	mov	r5,sp
   31834:	0031dd80 	call	31dd8 <__unpack_d>
   31838:	d8c00517 	ldw	r3,20(sp)
   3183c:	00800044 	movi	r2,1
   31840:	10c0052e 	bgeu	r2,r3,31858 <__ledf2+0x50>
   31844:	d8c00017 	ldw	r3,0(sp)
   31848:	10c0032e 	bgeu	r2,r3,31858 <__ledf2+0x50>
   3184c:	d9000504 	addi	r4,sp,20
   31850:	d80b883a 	mov	r5,sp
   31854:	0031edc0 	call	31edc <__fpcmp_parts_d>
   31858:	dfc00e17 	ldw	ra,56(sp)
   3185c:	dec00f04 	addi	sp,sp,60
   31860:	f800283a 	ret

00031864 <__floatsidf>:
   31864:	2004d7fa 	srli	r2,r4,31
   31868:	defff904 	addi	sp,sp,-28
   3186c:	00c000c4 	movi	r3,3
   31870:	dfc00615 	stw	ra,24(sp)
   31874:	dc000515 	stw	r16,20(sp)
   31878:	d8c00015 	stw	r3,0(sp)
   3187c:	d8800115 	stw	r2,4(sp)
   31880:	2000081e 	bne	r4,zero,318a4 <__floatsidf+0x40>
   31884:	00800084 	movi	r2,2
   31888:	d8800015 	stw	r2,0(sp)
   3188c:	d809883a 	mov	r4,sp
   31890:	0031bb40 	call	31bb4 <__pack_d>
   31894:	dfc00617 	ldw	ra,24(sp)
   31898:	dc000517 	ldw	r16,20(sp)
   3189c:	dec00704 	addi	sp,sp,28
   318a0:	f800283a 	ret
   318a4:	00c00f04 	movi	r3,60
   318a8:	d8c00215 	stw	r3,8(sp)
   318ac:	10000f1e 	bne	r2,zero,318ec <__floatsidf+0x88>
   318b0:	2021883a 	mov	r16,r4
   318b4:	8009883a 	mov	r4,r16
   318b8:	0022e4c0 	call	22e4c <__clzsi2>
   318bc:	11000744 	addi	r4,r2,29
   318c0:	0100110e 	bge	zero,r4,31908 <__floatsidf+0xa4>
   318c4:	10ffff44 	addi	r3,r2,-3
   318c8:	18001216 	blt	r3,zero,31914 <__floatsidf+0xb0>
   318cc:	80c6983a 	sll	r3,r16,r3
   318d0:	0009883a 	mov	r4,zero
   318d4:	014007c4 	movi	r5,31
   318d8:	2885c83a 	sub	r2,r5,r2
   318dc:	d9000315 	stw	r4,12(sp)
   318e0:	d8c00415 	stw	r3,16(sp)
   318e4:	d8800215 	stw	r2,8(sp)
   318e8:	003fe806 	br	3188c <__floatsidf+0x28>
   318ec:	00a00034 	movhi	r2,32768
   318f0:	20800e26 	beq	r4,r2,3192c <__floatsidf+0xc8>
   318f4:	0121c83a 	sub	r16,zero,r4
   318f8:	8009883a 	mov	r4,r16
   318fc:	0022e4c0 	call	22e4c <__clzsi2>
   31900:	11000744 	addi	r4,r2,29
   31904:	013fef16 	blt	zero,r4,318c4 <__floatsidf+0x60>
   31908:	dc000315 	stw	r16,12(sp)
   3190c:	d8000415 	stw	zero,16(sp)
   31910:	003fde06 	br	3188c <__floatsidf+0x28>
   31914:	800ad07a 	srli	r5,r16,1
   31918:	00c007c4 	movi	r3,31
   3191c:	1907c83a 	sub	r3,r3,r4
   31920:	28c6d83a 	srl	r3,r5,r3
   31924:	8108983a 	sll	r4,r16,r4
   31928:	003fea06 	br	318d4 <__floatsidf+0x70>
   3192c:	0005883a 	mov	r2,zero
   31930:	00f07834 	movhi	r3,49632
   31934:	003fd706 	br	31894 <__floatsidf+0x30>

00031938 <__fixdfsi>:
   31938:	defff804 	addi	sp,sp,-32
   3193c:	d9000515 	stw	r4,20(sp)
   31940:	d9400615 	stw	r5,24(sp)
   31944:	d9000504 	addi	r4,sp,20
   31948:	d80b883a 	mov	r5,sp
   3194c:	dfc00715 	stw	ra,28(sp)
   31950:	0031dd80 	call	31dd8 <__unpack_d>
   31954:	d8800017 	ldw	r2,0(sp)
   31958:	00c00084 	movi	r3,2
   3195c:	10c01c26 	beq	r2,r3,319d0 <__fixdfsi+0x98>
   31960:	00c00044 	movi	r3,1
   31964:	18801a2e 	bgeu	r3,r2,319d0 <__fixdfsi+0x98>
   31968:	00c00104 	movi	r3,4
   3196c:	10c01126 	beq	r2,r3,319b4 <__fixdfsi+0x7c>
   31970:	d8800217 	ldw	r2,8(sp)
   31974:	10001616 	blt	r2,zero,319d0 <__fixdfsi+0x98>
   31978:	00c00784 	movi	r3,30
   3197c:	18800d16 	blt	r3,r2,319b4 <__fixdfsi+0x7c>
   31980:	00c00f04 	movi	r3,60
   31984:	1885c83a 	sub	r2,r3,r2
   31988:	10fff804 	addi	r3,r2,-32
   3198c:	d9400317 	ldw	r5,12(sp)
   31990:	d9000417 	ldw	r4,16(sp)
   31994:	18001616 	blt	r3,zero,319f0 <__fixdfsi+0xb8>
   31998:	20c4d83a 	srl	r2,r4,r3
   3199c:	d8c00117 	ldw	r3,4(sp)
   319a0:	18000126 	beq	r3,zero,319a8 <__fixdfsi+0x70>
   319a4:	0085c83a 	sub	r2,zero,r2
   319a8:	dfc00717 	ldw	ra,28(sp)
   319ac:	dec00804 	addi	sp,sp,32
   319b0:	f800283a 	ret
   319b4:	d8800117 	ldw	r2,4(sp)
   319b8:	1000091e 	bne	r2,zero,319e0 <__fixdfsi+0xa8>
   319bc:	00a00034 	movhi	r2,32768
   319c0:	10bfffc4 	addi	r2,r2,-1
   319c4:	dfc00717 	ldw	ra,28(sp)
   319c8:	dec00804 	addi	sp,sp,32
   319cc:	f800283a 	ret
   319d0:	0005883a 	mov	r2,zero
   319d4:	dfc00717 	ldw	ra,28(sp)
   319d8:	dec00804 	addi	sp,sp,32
   319dc:	f800283a 	ret
   319e0:	00a00034 	movhi	r2,32768
   319e4:	dfc00717 	ldw	ra,28(sp)
   319e8:	dec00804 	addi	sp,sp,32
   319ec:	f800283a 	ret
   319f0:	2008907a 	slli	r4,r4,1
   319f4:	018007c4 	movi	r6,31
   319f8:	308dc83a 	sub	r6,r6,r2
   319fc:	2188983a 	sll	r4,r4,r6
   31a00:	2884d83a 	srl	r2,r5,r2
   31a04:	2084b03a 	or	r2,r4,r2
   31a08:	003fe406 	br	3199c <__fixdfsi+0x64>

00031a0c <__truncdfsf2>:
   31a0c:	defff804 	addi	sp,sp,-32
   31a10:	d9000515 	stw	r4,20(sp)
   31a14:	d9400615 	stw	r5,24(sp)
   31a18:	d9000504 	addi	r4,sp,20
   31a1c:	d80b883a 	mov	r5,sp
   31a20:	dfc00715 	stw	ra,28(sp)
   31a24:	0031dd80 	call	31dd8 <__unpack_d>
   31a28:	d8800317 	ldw	r2,12(sp)
   31a2c:	d8c00417 	ldw	r3,16(sp)
   31a30:	01100034 	movhi	r4,16384
   31a34:	213fffc4 	addi	r4,r4,-1
   31a38:	100ed7ba 	srli	r7,r2,30
   31a3c:	180690ba 	slli	r3,r3,2
   31a40:	1104703a 	and	r2,r2,r4
   31a44:	19ceb03a 	or	r7,r3,r7
   31a48:	10000126 	beq	r2,zero,31a50 <__truncdfsf2+0x44>
   31a4c:	39c00054 	ori	r7,r7,1
   31a50:	d9000017 	ldw	r4,0(sp)
   31a54:	d9400117 	ldw	r5,4(sp)
   31a58:	d9800217 	ldw	r6,8(sp)
   31a5c:	0031b880 	call	31b88 <__make_fp>
   31a60:	dfc00717 	ldw	ra,28(sp)
   31a64:	dec00804 	addi	sp,sp,32
   31a68:	f800283a 	ret

00031a6c <__floatunsidf>:
   31a6c:	defff904 	addi	sp,sp,-28
   31a70:	dc000515 	stw	r16,20(sp)
   31a74:	dfc00615 	stw	ra,24(sp)
   31a78:	d8000115 	stw	zero,4(sp)
   31a7c:	2021883a 	mov	r16,r4
   31a80:	20001726 	beq	r4,zero,31ae0 <__floatunsidf+0x74>
   31a84:	008000c4 	movi	r2,3
   31a88:	d8800015 	stw	r2,0(sp)
   31a8c:	00800f04 	movi	r2,60
   31a90:	d8800215 	stw	r2,8(sp)
   31a94:	0022e4c0 	call	22e4c <__clzsi2>
   31a98:	10c00744 	addi	r3,r2,29
   31a9c:	18001816 	blt	r3,zero,31b00 <__floatunsidf+0x94>
   31aa0:	18002d26 	beq	r3,zero,31b58 <__floatunsidf+0xec>
   31aa4:	113fff44 	addi	r4,r2,-3
   31aa8:	20002e16 	blt	r4,zero,31b64 <__floatunsidf+0xf8>
   31aac:	8108983a 	sll	r4,r16,r4
   31ab0:	0021883a 	mov	r16,zero
   31ab4:	014007c4 	movi	r5,31
   31ab8:	2885c83a 	sub	r2,r5,r2
   31abc:	dc000315 	stw	r16,12(sp)
   31ac0:	d9000415 	stw	r4,16(sp)
   31ac4:	d8800215 	stw	r2,8(sp)
   31ac8:	d809883a 	mov	r4,sp
   31acc:	0031bb40 	call	31bb4 <__pack_d>
   31ad0:	dfc00617 	ldw	ra,24(sp)
   31ad4:	dc000517 	ldw	r16,20(sp)
   31ad8:	dec00704 	addi	sp,sp,28
   31adc:	f800283a 	ret
   31ae0:	00800084 	movi	r2,2
   31ae4:	d809883a 	mov	r4,sp
   31ae8:	d8800015 	stw	r2,0(sp)
   31aec:	0031bb40 	call	31bb4 <__pack_d>
   31af0:	dfc00617 	ldw	ra,24(sp)
   31af4:	dc000517 	ldw	r16,20(sp)
   31af8:	dec00704 	addi	sp,sp,28
   31afc:	f800283a 	ret
   31b00:	00c7c83a 	sub	r3,zero,r3
   31b04:	193ff804 	addi	r4,r3,-32
   31b08:	20001c16 	blt	r4,zero,31b7c <__floatunsidf+0x110>
   31b0c:	000b883a 	mov	r5,zero
   31b10:	2009d7fa 	srai	r4,r4,31
   31b14:	80c6d83a 	srl	r3,r16,r3
   31b18:	297fffc4 	addi	r5,r5,-1
   31b1c:	2c20703a 	and	r16,r5,r16
   31b20:	8020c03a 	cmpne	r16,r16,zero
   31b24:	1906703a 	and	r3,r3,r4
   31b28:	010007c4 	movi	r4,31
   31b2c:	80c6b03a 	or	r3,r16,r3
   31b30:	2085c83a 	sub	r2,r4,r2
   31b34:	d809883a 	mov	r4,sp
   31b38:	d8c00315 	stw	r3,12(sp)
   31b3c:	d8000415 	stw	zero,16(sp)
   31b40:	d8800215 	stw	r2,8(sp)
   31b44:	0031bb40 	call	31bb4 <__pack_d>
   31b48:	dfc00617 	ldw	ra,24(sp)
   31b4c:	dc000517 	ldw	r16,20(sp)
   31b50:	dec00704 	addi	sp,sp,28
   31b54:	f800283a 	ret
   31b58:	dc000315 	stw	r16,12(sp)
   31b5c:	d8000415 	stw	zero,16(sp)
   31b60:	003fd906 	br	31ac8 <__floatunsidf+0x5c>
   31b64:	800ad07a 	srli	r5,r16,1
   31b68:	010007c4 	movi	r4,31
   31b6c:	20c9c83a 	sub	r4,r4,r3
   31b70:	2908d83a 	srl	r4,r5,r4
   31b74:	80e0983a 	sll	r16,r16,r3
   31b78:	003fce06 	br	31ab4 <__floatunsidf+0x48>
   31b7c:	01400044 	movi	r5,1
   31b80:	28ca983a 	sll	r5,r5,r3
   31b84:	003fe206 	br	31b10 <__floatunsidf+0xa4>

00031b88 <__make_fp>:
   31b88:	defffb04 	addi	sp,sp,-20
   31b8c:	d9000015 	stw	r4,0(sp)
   31b90:	d809883a 	mov	r4,sp
   31b94:	dfc00415 	stw	ra,16(sp)
   31b98:	d9400115 	stw	r5,4(sp)
   31b9c:	d9800215 	stw	r6,8(sp)
   31ba0:	d9c00315 	stw	r7,12(sp)
   31ba4:	0022ef80 	call	22ef8 <__pack_f>
   31ba8:	dfc00417 	ldw	ra,16(sp)
   31bac:	dec00504 	addi	sp,sp,20
   31bb0:	f800283a 	ret

00031bb4 <__pack_d>:
   31bb4:	20800017 	ldw	r2,0(r4)
   31bb8:	defff804 	addi	sp,sp,-32
   31bbc:	dcc00315 	stw	r19,12(sp)
   31bc0:	dc800215 	stw	r18,8(sp)
   31bc4:	dfc00715 	stw	ra,28(sp)
   31bc8:	dd800615 	stw	r22,24(sp)
   31bcc:	dd400515 	stw	r21,20(sp)
   31bd0:	dd000415 	stw	r20,16(sp)
   31bd4:	dc400115 	stw	r17,4(sp)
   31bd8:	dc000015 	stw	r16,0(sp)
   31bdc:	04800044 	movi	r18,1
   31be0:	24400317 	ldw	r17,12(r4)
   31be4:	24000417 	ldw	r16,16(r4)
   31be8:	24c00117 	ldw	r19,4(r4)
   31bec:	9080422e 	bgeu	r18,r2,31cf8 <__pack_d+0x144>
   31bf0:	00c00104 	movi	r3,4
   31bf4:	10c03c26 	beq	r2,r3,31ce8 <__pack_d+0x134>
   31bf8:	00c00084 	movi	r3,2
   31bfc:	10c01926 	beq	r2,r3,31c64 <__pack_d+0xb0>
   31c00:	8c04b03a 	or	r2,r17,r16
   31c04:	10001726 	beq	r2,zero,31c64 <__pack_d+0xb0>
   31c08:	21000217 	ldw	r4,8(r4)
   31c0c:	00bf0084 	movi	r2,-1022
   31c10:	20804016 	blt	r4,r2,31d14 <__pack_d+0x160>
   31c14:	0080ffc4 	movi	r2,1023
   31c18:	11003316 	blt	r2,r4,31ce8 <__pack_d+0x134>
   31c1c:	88803fcc 	andi	r2,r17,255
   31c20:	00c02004 	movi	r3,128
   31c24:	10c02926 	beq	r2,r3,31ccc <__pack_d+0x118>
   31c28:	88801fc4 	addi	r2,r17,127
   31c2c:	1463803a 	cmpltu	r17,r2,r17
   31c30:	8c21883a 	add	r16,r17,r16
   31c34:	1023883a 	mov	r17,r2
   31c38:	00880034 	movhi	r2,8192
   31c3c:	10bfffc4 	addi	r2,r2,-1
   31c40:	14001c36 	bltu	r2,r16,31cb4 <__pack_d+0x100>
   31c44:	2100ffc4 	addi	r4,r4,1023
   31c48:	8006963a 	slli	r3,r16,24
   31c4c:	8804d23a 	srli	r2,r17,8
   31c50:	8020913a 	slli	r16,r16,4
   31c54:	2101ffcc 	andi	r4,r4,2047
   31c58:	1884b03a 	or	r2,r3,r2
   31c5c:	8020d33a 	srli	r16,r16,12
   31c60:	00000306 	br	31c70 <__pack_d+0xbc>
   31c64:	0009883a 	mov	r4,zero
   31c68:	0005883a 	mov	r2,zero
   31c6c:	0021883a 	mov	r16,zero
   31c70:	2008953a 	slli	r4,r4,20
   31c74:	982697fa 	slli	r19,r19,31
   31c78:	00c00434 	movhi	r3,16
   31c7c:	18ffffc4 	addi	r3,r3,-1
   31c80:	80e0703a 	and	r16,r16,r3
   31c84:	8106b03a 	or	r3,r16,r4
   31c88:	1cc6b03a 	or	r3,r3,r19
   31c8c:	dfc00717 	ldw	ra,28(sp)
   31c90:	dd800617 	ldw	r22,24(sp)
   31c94:	dd400517 	ldw	r21,20(sp)
   31c98:	dd000417 	ldw	r20,16(sp)
   31c9c:	dcc00317 	ldw	r19,12(sp)
   31ca0:	dc800217 	ldw	r18,8(sp)
   31ca4:	dc400117 	ldw	r17,4(sp)
   31ca8:	dc000017 	ldw	r16,0(sp)
   31cac:	dec00804 	addi	sp,sp,32
   31cb0:	f800283a 	ret
   31cb4:	800697fa 	slli	r3,r16,31
   31cb8:	8804d07a 	srli	r2,r17,1
   31cbc:	21010004 	addi	r4,r4,1024
   31cc0:	8020d07a 	srli	r16,r16,1
   31cc4:	18a2b03a 	or	r17,r3,r2
   31cc8:	003fdf06 	br	31c48 <__pack_d+0x94>
   31ccc:	88c0400c 	andi	r3,r17,256
   31cd0:	183fd926 	beq	r3,zero,31c38 <__pack_d+0x84>
   31cd4:	8885883a 	add	r2,r17,r2
   31cd8:	1463803a 	cmpltu	r17,r2,r17
   31cdc:	8c21883a 	add	r16,r17,r16
   31ce0:	1023883a 	mov	r17,r2
   31ce4:	003fd406 	br	31c38 <__pack_d+0x84>
   31ce8:	0101ffc4 	movi	r4,2047
   31cec:	0005883a 	mov	r2,zero
   31cf0:	0021883a 	mov	r16,zero
   31cf4:	003fde06 	br	31c70 <__pack_d+0xbc>
   31cf8:	84000234 	orhi	r16,r16,8
   31cfc:	00c00434 	movhi	r3,16
   31d00:	18ffffc4 	addi	r3,r3,-1
   31d04:	8805883a 	mov	r2,r17
   31d08:	80e0703a 	and	r16,r16,r3
   31d0c:	0101ffc4 	movi	r4,2047
   31d10:	003fd706 	br	31c70 <__pack_d+0xbc>
   31d14:	1129c83a 	sub	r20,r2,r4
   31d18:	00800e04 	movi	r2,56
   31d1c:	15002716 	blt	r2,r20,31dbc <__pack_d+0x208>
   31d20:	800b883a 	mov	r5,r16
   31d24:	a00d883a 	mov	r6,r20
   31d28:	8809883a 	mov	r4,r17
   31d2c:	0031fac0 	call	31fac <__lshrdi3>
   31d30:	9009883a 	mov	r4,r18
   31d34:	000b883a 	mov	r5,zero
   31d38:	a00d883a 	mov	r6,r20
   31d3c:	102d883a 	mov	r22,r2
   31d40:	182b883a 	mov	r21,r3
   31d44:	0031ff00 	call	31ff0 <__ashldi3>
   31d48:	1009003a 	cmpeq	r4,r2,zero
   31d4c:	1907c83a 	sub	r3,r3,r4
   31d50:	10bfffc4 	addi	r2,r2,-1
   31d54:	1c20703a 	and	r16,r3,r16
   31d58:	1444703a 	and	r2,r2,r17
   31d5c:	1404b03a 	or	r2,r2,r16
   31d60:	1004c03a 	cmpne	r2,r2,zero
   31d64:	1584b03a 	or	r2,r2,r22
   31d68:	11003fcc 	andi	r4,r2,255
   31d6c:	01402004 	movi	r5,128
   31d70:	a807883a 	mov	r3,r21
   31d74:	2140131e 	bne	r4,r5,31dc4 <__pack_d+0x210>
   31d78:	1140400c 	andi	r5,r2,256
   31d7c:	28000426 	beq	r5,zero,31d90 <__pack_d+0x1dc>
   31d80:	1109883a 	add	r4,r2,r4
   31d84:	2085803a 	cmpltu	r2,r4,r2
   31d88:	1547883a 	add	r3,r2,r21
   31d8c:	2005883a 	mov	r2,r4
   31d90:	1808963a 	slli	r4,r3,24
   31d94:	1004d23a 	srli	r2,r2,8
   31d98:	1820913a 	slli	r16,r3,4
   31d9c:	01440034 	movhi	r5,4096
   31da0:	297fffc4 	addi	r5,r5,-1
   31da4:	2084b03a 	or	r2,r4,r2
   31da8:	8020d33a 	srli	r16,r16,12
   31dac:	01000044 	movi	r4,1
   31db0:	28ffaf36 	bltu	r5,r3,31c70 <__pack_d+0xbc>
   31db4:	0009883a 	mov	r4,zero
   31db8:	003fad06 	br	31c70 <__pack_d+0xbc>
   31dbc:	0005883a 	mov	r2,zero
   31dc0:	0007883a 	mov	r3,zero
   31dc4:	11001fc4 	addi	r4,r2,127
   31dc8:	2085803a 	cmpltu	r2,r4,r2
   31dcc:	10c7883a 	add	r3,r2,r3
   31dd0:	2005883a 	mov	r2,r4
   31dd4:	003fee06 	br	31d90 <__pack_d+0x1dc>

00031dd8 <__unpack_d>:
   31dd8:	21800117 	ldw	r6,4(r4)
   31ddc:	20c00017 	ldw	r3,0(r4)
   31de0:	3004d7fa 	srli	r2,r6,31
   31de4:	3008d53a 	srli	r4,r6,20
   31de8:	28800115 	stw	r2,4(r5)
   31dec:	2101ffcc 	andi	r4,r4,2047
   31df0:	00800434 	movhi	r2,16
   31df4:	10bfffc4 	addi	r2,r2,-1
   31df8:	3084703a 	and	r2,r6,r2
   31dfc:	20001a1e 	bne	r4,zero,31e68 <__unpack_d+0x90>
   31e00:	1888b03a 	or	r4,r3,r2
   31e04:	20002626 	beq	r4,zero,31ea0 <__unpack_d+0xc8>
   31e08:	1808d63a 	srli	r4,r3,24
   31e0c:	1004923a 	slli	r2,r2,8
   31e10:	01bf0084 	movi	r6,-1022
   31e14:	29800215 	stw	r6,8(r5)
   31e18:	2084b03a 	or	r2,r4,r2
   31e1c:	010000c4 	movi	r4,3
   31e20:	29000015 	stw	r4,0(r5)
   31e24:	02040034 	movhi	r8,4096
   31e28:	423fffc4 	addi	r8,r8,-1
   31e2c:	1806923a 	slli	r3,r3,8
   31e30:	40801836 	bltu	r8,r2,31e94 <__unpack_d+0xbc>
   31e34:	013f0044 	movi	r4,-1023
   31e38:	18cd883a 	add	r6,r3,r3
   31e3c:	30c7803a 	cmpltu	r3,r6,r3
   31e40:	1085883a 	add	r2,r2,r2
   31e44:	1885883a 	add	r2,r3,r2
   31e48:	200f883a 	mov	r7,r4
   31e4c:	3007883a 	mov	r3,r6
   31e50:	213fffc4 	addi	r4,r4,-1
   31e54:	40bff82e 	bgeu	r8,r2,31e38 <__unpack_d+0x60>
   31e58:	29c00215 	stw	r7,8(r5)
   31e5c:	28c00315 	stw	r3,12(r5)
   31e60:	28800415 	stw	r2,16(r5)
   31e64:	f800283a 	ret
   31e68:	01c1ffc4 	movi	r7,2047
   31e6c:	21c00f26 	beq	r4,r7,31eac <__unpack_d+0xd4>
   31e70:	180cd63a 	srli	r6,r3,24
   31e74:	1004923a 	slli	r2,r2,8
   31e78:	213f0044 	addi	r4,r4,-1023
   31e7c:	1806923a 	slli	r3,r3,8
   31e80:	3084b03a 	or	r2,r6,r2
   31e84:	29000215 	stw	r4,8(r5)
   31e88:	010000c4 	movi	r4,3
   31e8c:	10840034 	orhi	r2,r2,4096
   31e90:	29000015 	stw	r4,0(r5)
   31e94:	28c00315 	stw	r3,12(r5)
   31e98:	28800415 	stw	r2,16(r5)
   31e9c:	f800283a 	ret
   31ea0:	00800084 	movi	r2,2
   31ea4:	28800015 	stw	r2,0(r5)
   31ea8:	f800283a 	ret
   31eac:	1888b03a 	or	r4,r3,r2
   31eb0:	20000526 	beq	r4,zero,31ec8 <__unpack_d+0xf0>
   31eb4:	3180022c 	andhi	r6,r6,8
   31eb8:	30000626 	beq	r6,zero,31ed4 <__unpack_d+0xfc>
   31ebc:	01000044 	movi	r4,1
   31ec0:	29000015 	stw	r4,0(r5)
   31ec4:	003ff306 	br	31e94 <__unpack_d+0xbc>
   31ec8:	00800104 	movi	r2,4
   31ecc:	28800015 	stw	r2,0(r5)
   31ed0:	f800283a 	ret
   31ed4:	28000015 	stw	zero,0(r5)
   31ed8:	003fee06 	br	31e94 <__unpack_d+0xbc>

00031edc <__fpcmp_parts_d>:
   31edc:	20c00017 	ldw	r3,0(r4)
   31ee0:	00800044 	movi	r2,1
   31ee4:	10c0142e 	bgeu	r2,r3,31f38 <__fpcmp_parts_d+0x5c>
   31ee8:	29800017 	ldw	r6,0(r5)
   31eec:	1180122e 	bgeu	r2,r6,31f38 <__fpcmp_parts_d+0x5c>
   31ef0:	01c00104 	movi	r7,4
   31ef4:	19c02826 	beq	r3,r7,31f98 <__fpcmp_parts_d+0xbc>
   31ef8:	31c00926 	beq	r6,r7,31f20 <__fpcmp_parts_d+0x44>
   31efc:	01c00084 	movi	r7,2
   31f00:	19c00626 	beq	r3,r7,31f1c <__fpcmp_parts_d+0x40>
   31f04:	31c00a26 	beq	r6,r7,31f30 <__fpcmp_parts_d+0x54>
   31f08:	20c00117 	ldw	r3,4(r4)
   31f0c:	29800117 	ldw	r6,4(r5)
   31f10:	19800b26 	beq	r3,r6,31f40 <__fpcmp_parts_d+0x64>
   31f14:	1800041e 	bne	r3,zero,31f28 <__fpcmp_parts_d+0x4c>
   31f18:	f800283a 	ret
   31f1c:	30c01a26 	beq	r6,r3,31f88 <__fpcmp_parts_d+0xac>
   31f20:	28800117 	ldw	r2,4(r5)
   31f24:	1000041e 	bne	r2,zero,31f38 <__fpcmp_parts_d+0x5c>
   31f28:	00bfffc4 	movi	r2,-1
   31f2c:	f800283a 	ret
   31f30:	20800117 	ldw	r2,4(r4)
   31f34:	103ffc1e 	bne	r2,zero,31f28 <__fpcmp_parts_d+0x4c>
   31f38:	00800044 	movi	r2,1
   31f3c:	f800283a 	ret
   31f40:	21c00217 	ldw	r7,8(r4)
   31f44:	29800217 	ldw	r6,8(r5)
   31f48:	31c0020e 	bge	r6,r7,31f54 <__fpcmp_parts_d+0x78>
   31f4c:	183ff61e 	bne	r3,zero,31f28 <__fpcmp_parts_d+0x4c>
   31f50:	f800283a 	ret
   31f54:	39800a16 	blt	r7,r6,31f80 <__fpcmp_parts_d+0xa4>
   31f58:	20800417 	ldw	r2,16(r4)
   31f5c:	29800417 	ldw	r6,16(r5)
   31f60:	21c00317 	ldw	r7,12(r4)
   31f64:	29000317 	ldw	r4,12(r5)
   31f68:	30800936 	bltu	r6,r2,31f90 <__fpcmp_parts_d+0xb4>
   31f6c:	1180011e 	bne	r2,r6,31f74 <__fpcmp_parts_d+0x98>
   31f70:	21c00736 	bltu	r4,r7,31f90 <__fpcmp_parts_d+0xb4>
   31f74:	11800236 	bltu	r2,r6,31f80 <__fpcmp_parts_d+0xa4>
   31f78:	3080031e 	bne	r6,r2,31f88 <__fpcmp_parts_d+0xac>
   31f7c:	3900022e 	bgeu	r7,r4,31f88 <__fpcmp_parts_d+0xac>
   31f80:	183fe926 	beq	r3,zero,31f28 <__fpcmp_parts_d+0x4c>
   31f84:	003fec06 	br	31f38 <__fpcmp_parts_d+0x5c>
   31f88:	0005883a 	mov	r2,zero
   31f8c:	f800283a 	ret
   31f90:	183fe926 	beq	r3,zero,31f38 <__fpcmp_parts_d+0x5c>
   31f94:	003fe406 	br	31f28 <__fpcmp_parts_d+0x4c>
   31f98:	30ffe51e 	bne	r6,r3,31f30 <__fpcmp_parts_d+0x54>
   31f9c:	28c00117 	ldw	r3,4(r5)
   31fa0:	20800117 	ldw	r2,4(r4)
   31fa4:	1885c83a 	sub	r2,r3,r2
   31fa8:	f800283a 	ret

00031fac <__lshrdi3>:
   31fac:	2005883a 	mov	r2,r4
   31fb0:	2807883a 	mov	r3,r5
   31fb4:	30000826 	beq	r6,zero,31fd8 <__lshrdi3+0x2c>
   31fb8:	01000804 	movi	r4,32
   31fbc:	2189c83a 	sub	r4,r4,r6
   31fc0:	0100060e 	bge	zero,r4,31fdc <__lshrdi3+0x30>
   31fc4:	1184d83a 	srl	r2,r2,r6
   31fc8:	2908983a 	sll	r4,r5,r4
   31fcc:	298cd83a 	srl	r6,r5,r6
   31fd0:	2084b03a 	or	r2,r4,r2
   31fd4:	3007883a 	mov	r3,r6
   31fd8:	f800283a 	ret
   31fdc:	0105c83a 	sub	r2,zero,r4
   31fe0:	000d883a 	mov	r6,zero
   31fe4:	2884d83a 	srl	r2,r5,r2
   31fe8:	3007883a 	mov	r3,r6
   31fec:	003ffa06 	br	31fd8 <__lshrdi3+0x2c>

00031ff0 <__ashldi3>:
   31ff0:	2005883a 	mov	r2,r4
   31ff4:	2807883a 	mov	r3,r5
   31ff8:	30000826 	beq	r6,zero,3201c <__ashldi3+0x2c>
   31ffc:	01000804 	movi	r4,32
   32000:	2189c83a 	sub	r4,r4,r6
   32004:	0100060e 	bge	zero,r4,32020 <__ashldi3+0x30>
   32008:	1108d83a 	srl	r4,r2,r4
   3200c:	2986983a 	sll	r3,r5,r6
   32010:	118c983a 	sll	r6,r2,r6
   32014:	20c6b03a 	or	r3,r4,r3
   32018:	3005883a 	mov	r2,r6
   3201c:	f800283a 	ret
   32020:	0107c83a 	sub	r3,zero,r4
   32024:	000d883a 	mov	r6,zero
   32028:	10c6983a 	sll	r3,r2,r3
   3202c:	3005883a 	mov	r2,r6
   32030:	003ffa06 	br	3201c <__ashldi3+0x2c>

00032034 <alt_get_errno>:
#undef errno

extern int errno;

static ALT_INLINE int* alt_get_errno(void)
{
   32034:	defffe04 	addi	sp,sp,-8
   32038:	dfc00115 	stw	ra,4(sp)
   3203c:	df000015 	stw	fp,0(sp)
   32040:	d839883a 	mov	fp,sp
  return ((alt_errno) ? alt_errno() : &errno);
   32044:	008000f4 	movhi	r2,3
   32048:	1096f904 	addi	r2,r2,23524
   3204c:	10800017 	ldw	r2,0(r2)
   32050:	10000526 	beq	r2,zero,32068 <alt_get_errno+0x34>
   32054:	008000f4 	movhi	r2,3
   32058:	1096f904 	addi	r2,r2,23524
   3205c:	10800017 	ldw	r2,0(r2)
   32060:	103ee83a 	callr	r2
   32064:	00000206 	br	32070 <alt_get_errno+0x3c>
   32068:	008000f4 	movhi	r2,3
   3206c:	1099d604 	addi	r2,r2,26456
}
   32070:	e037883a 	mov	sp,fp
   32074:	dfc00117 	ldw	ra,4(sp)
   32078:	df000017 	ldw	fp,0(sp)
   3207c:	dec00204 	addi	sp,sp,8
   32080:	f800283a 	ret

00032084 <close>:
 *
 * ALT_CLOSE is mapped onto the close() system call in alt_syscall.h
 */
 
int ALT_CLOSE (int fildes)
{
   32084:	defffb04 	addi	sp,sp,-20
   32088:	dfc00415 	stw	ra,16(sp)
   3208c:	df000315 	stw	fp,12(sp)
   32090:	df000304 	addi	fp,sp,12
   32094:	e13fff15 	stw	r4,-4(fp)
   * A common error case is that when the file descriptor was created, the call
   * to open() failed resulting in a negative file descriptor. This is trapped
   * below so that we don't try and process an invalid file descriptor.
   */

  fd = (fildes < 0) ? NULL : &alt_fd_list[fildes];
   32098:	e0bfff17 	ldw	r2,-4(fp)
   3209c:	10000716 	blt	r2,zero,320bc <close+0x38>
   320a0:	e13fff17 	ldw	r4,-4(fp)
   320a4:	01400304 	movi	r5,12
   320a8:	0022d140 	call	22d14 <__mulsi3>
   320ac:	00c000f4 	movhi	r3,3
   320b0:	18d67904 	addi	r3,r3,23012
   320b4:	10c5883a 	add	r2,r2,r3
   320b8:	00000106 	br	320c0 <close+0x3c>
   320bc:	0005883a 	mov	r2,zero
   320c0:	e0bffd15 	stw	r2,-12(fp)

  if (fd)
   320c4:	e0bffd17 	ldw	r2,-12(fp)
   320c8:	10001826 	beq	r2,zero,3212c <close+0xa8>
    /*
     * If the associated file system/device has a close function, call it so 
     * that any necessary cleanup code can run.
     */

    rval = (fd->dev->close) ? fd->dev->close(fd) : 0;
   320cc:	e0bffd17 	ldw	r2,-12(fp)
   320d0:	10800017 	ldw	r2,0(r2)
   320d4:	10800417 	ldw	r2,16(r2)
   320d8:	10000626 	beq	r2,zero,320f4 <close+0x70>
   320dc:	e0bffd17 	ldw	r2,-12(fp)
   320e0:	10800017 	ldw	r2,0(r2)
   320e4:	10800417 	ldw	r2,16(r2)
   320e8:	e13ffd17 	ldw	r4,-12(fp)
   320ec:	103ee83a 	callr	r2
   320f0:	00000106 	br	320f8 <close+0x74>
   320f4:	0005883a 	mov	r2,zero
   320f8:	e0bffe15 	stw	r2,-8(fp)

    /* Free the file descriptor structure and return. */

    alt_release_fd (fildes);
   320fc:	e13fff17 	ldw	r4,-4(fp)
   32100:	0032a140 	call	32a14 <alt_release_fd>
    if (rval < 0)
   32104:	e0bffe17 	ldw	r2,-8(fp)
   32108:	1000060e 	bge	r2,zero,32124 <close+0xa0>
    {
      ALT_ERRNO = -rval;
   3210c:	00320340 	call	32034 <alt_get_errno>
   32110:	e0fffe17 	ldw	r3,-8(fp)
   32114:	00c7c83a 	sub	r3,zero,r3
   32118:	10c00015 	stw	r3,0(r2)
      return -1;
   3211c:	00bfffc4 	movi	r2,-1
   32120:	00000606 	br	3213c <close+0xb8>
    }
    return 0;
   32124:	0005883a 	mov	r2,zero
   32128:	00000406 	br	3213c <close+0xb8>
  }
  else
  {
    ALT_ERRNO = EBADFD;
   3212c:	00320340 	call	32034 <alt_get_errno>
   32130:	00c01444 	movi	r3,81
   32134:	10c00015 	stw	r3,0(r2)
    return -1;
   32138:	00bfffc4 	movi	r2,-1
  }
}
   3213c:	e037883a 	mov	sp,fp
   32140:	dfc00117 	ldw	ra,4(sp)
   32144:	df000017 	ldw	fp,0(sp)
   32148:	dec00204 	addi	sp,sp,8
   3214c:	f800283a 	ret

00032150 <alt_dev_null_write>:
 * by the alt_dev_null device. It simple discards all data passed to it, and
 * indicates that the data has been successfully transmitted.
 */

static int alt_dev_null_write (alt_fd* fd, const char* ptr, int len)
{
   32150:	defffc04 	addi	sp,sp,-16
   32154:	df000315 	stw	fp,12(sp)
   32158:	df000304 	addi	fp,sp,12
   3215c:	e13ffd15 	stw	r4,-12(fp)
   32160:	e17ffe15 	stw	r5,-8(fp)
   32164:	e1bfff15 	stw	r6,-4(fp)
  return len;
   32168:	e0bfff17 	ldw	r2,-4(fp)
}
   3216c:	e037883a 	mov	sp,fp
   32170:	df000017 	ldw	fp,0(sp)
   32174:	dec00104 	addi	sp,sp,4
   32178:	f800283a 	ret

0003217c <alt_get_errno>:
#undef errno

extern int errno;

static ALT_INLINE int* alt_get_errno(void)
{
   3217c:	defffe04 	addi	sp,sp,-8
   32180:	dfc00115 	stw	ra,4(sp)
   32184:	df000015 	stw	fp,0(sp)
   32188:	d839883a 	mov	fp,sp
  return ((alt_errno) ? alt_errno() : &errno);
   3218c:	008000f4 	movhi	r2,3
   32190:	1096f904 	addi	r2,r2,23524
   32194:	10800017 	ldw	r2,0(r2)
   32198:	10000526 	beq	r2,zero,321b0 <alt_get_errno+0x34>
   3219c:	008000f4 	movhi	r2,3
   321a0:	1096f904 	addi	r2,r2,23524
   321a4:	10800017 	ldw	r2,0(r2)
   321a8:	103ee83a 	callr	r2
   321ac:	00000206 	br	321b8 <alt_get_errno+0x3c>
   321b0:	008000f4 	movhi	r2,3
   321b4:	1099d604 	addi	r2,r2,26456
}
   321b8:	e037883a 	mov	sp,fp
   321bc:	dfc00117 	ldw	ra,4(sp)
   321c0:	df000017 	ldw	fp,0(sp)
   321c4:	dec00204 	addi	sp,sp,8
   321c8:	f800283a 	ret

000321cc <fstat>:
}

#else /* !ALT_USE_DIRECT_DRIVERS */

int ALT_FSTAT (int file, struct stat *st)
{
   321cc:	defffb04 	addi	sp,sp,-20
   321d0:	dfc00415 	stw	ra,16(sp)
   321d4:	df000315 	stw	fp,12(sp)
   321d8:	df000304 	addi	fp,sp,12
   321dc:	e13ffe15 	stw	r4,-8(fp)
   321e0:	e17fff15 	stw	r5,-4(fp)
   * A common error case is that when the file descriptor was created, the call
   * to open() failed resulting in a negative file descriptor. This is trapped
   * below so that we don't try and process an invalid file descriptor.
   */

  fd = (file < 0) ? NULL : &alt_fd_list[file];
   321e4:	e0bffe17 	ldw	r2,-8(fp)
   321e8:	10000716 	blt	r2,zero,32208 <fstat+0x3c>
   321ec:	e13ffe17 	ldw	r4,-8(fp)
   321f0:	01400304 	movi	r5,12
   321f4:	0022d140 	call	22d14 <__mulsi3>
   321f8:	00c000f4 	movhi	r3,3
   321fc:	18d67904 	addi	r3,r3,23012
   32200:	10c5883a 	add	r2,r2,r3
   32204:	00000106 	br	3220c <fstat+0x40>
   32208:	0005883a 	mov	r2,zero
   3220c:	e0bffd15 	stw	r2,-12(fp)
  
  if (fd)
   32210:	e0bffd17 	ldw	r2,-12(fp)
   32214:	10001026 	beq	r2,zero,32258 <fstat+0x8c>
  {
    /* Call the drivers fstat() function to fill out the "st" structure. */

    if (fd->dev->fstat)
   32218:	e0bffd17 	ldw	r2,-12(fp)
   3221c:	10800017 	ldw	r2,0(r2)
   32220:	10800817 	ldw	r2,32(r2)
   32224:	10000726 	beq	r2,zero,32244 <fstat+0x78>
    {
      return fd->dev->fstat(fd, st);
   32228:	e0bffd17 	ldw	r2,-12(fp)
   3222c:	10800017 	ldw	r2,0(r2)
   32230:	10800817 	ldw	r2,32(r2)
   32234:	e13ffd17 	ldw	r4,-12(fp)
   32238:	e17fff17 	ldw	r5,-4(fp)
   3223c:	103ee83a 	callr	r2
   32240:	00000906 	br	32268 <fstat+0x9c>
     * device.
     */
 
    else
    {
      st->st_mode = _IFCHR;
   32244:	e0bfff17 	ldw	r2,-4(fp)
   32248:	00c80004 	movi	r3,8192
   3224c:	10c00115 	stw	r3,4(r2)
      return 0;
   32250:	0005883a 	mov	r2,zero
   32254:	00000406 	br	32268 <fstat+0x9c>
    }
  }
  else
  {
    ALT_ERRNO = EBADFD;
   32258:	003217c0 	call	3217c <alt_get_errno>
   3225c:	00c01444 	movi	r3,81
   32260:	10c00015 	stw	r3,0(r2)
    return -1;
   32264:	00bfffc4 	movi	r2,-1
  }
}
   32268:	e037883a 	mov	sp,fp
   3226c:	dfc00117 	ldw	ra,4(sp)
   32270:	df000017 	ldw	fp,0(sp)
   32274:	dec00204 	addi	sp,sp,8
   32278:	f800283a 	ret

0003227c <alt_get_errno>:
#undef errno

extern int errno;

static ALT_INLINE int* alt_get_errno(void)
{
   3227c:	defffe04 	addi	sp,sp,-8
   32280:	dfc00115 	stw	ra,4(sp)
   32284:	df000015 	stw	fp,0(sp)
   32288:	d839883a 	mov	fp,sp
  return ((alt_errno) ? alt_errno() : &errno);
   3228c:	008000f4 	movhi	r2,3
   32290:	1096f904 	addi	r2,r2,23524
   32294:	10800017 	ldw	r2,0(r2)
   32298:	10000526 	beq	r2,zero,322b0 <alt_get_errno+0x34>
   3229c:	008000f4 	movhi	r2,3
   322a0:	1096f904 	addi	r2,r2,23524
   322a4:	10800017 	ldw	r2,0(r2)
   322a8:	103ee83a 	callr	r2
   322ac:	00000206 	br	322b8 <alt_get_errno+0x3c>
   322b0:	008000f4 	movhi	r2,3
   322b4:	1099d604 	addi	r2,r2,26456
}
   322b8:	e037883a 	mov	sp,fp
   322bc:	dfc00117 	ldw	ra,4(sp)
   322c0:	df000017 	ldw	fp,0(sp)
   322c4:	dec00204 	addi	sp,sp,8
   322c8:	f800283a 	ret

000322cc <isatty>:
 *
 * ALT_ISATTY is mapped onto the isatty() system call in alt_syscall.h
 */
 
int ALT_ISATTY (int file)
{
   322cc:	deffed04 	addi	sp,sp,-76
   322d0:	dfc01215 	stw	ra,72(sp)
   322d4:	df001115 	stw	fp,68(sp)
   322d8:	df001104 	addi	fp,sp,68
   322dc:	e13fff15 	stw	r4,-4(fp)
   * A common error case is that when the file descriptor was created, the call
   * to open() failed resulting in a negative file descriptor. This is trapped
   * below so that we don't try and process an invalid file descriptor.
   */

  fd = (file < 0) ? NULL : &alt_fd_list[file];
   322e0:	e0bfff17 	ldw	r2,-4(fp)
   322e4:	10000716 	blt	r2,zero,32304 <isatty+0x38>
   322e8:	e13fff17 	ldw	r4,-4(fp)
   322ec:	01400304 	movi	r5,12
   322f0:	0022d140 	call	22d14 <__mulsi3>
   322f4:	00c000f4 	movhi	r3,3
   322f8:	18d67904 	addi	r3,r3,23012
   322fc:	10c5883a 	add	r2,r2,r3
   32300:	00000106 	br	32308 <isatty+0x3c>
   32304:	0005883a 	mov	r2,zero
   32308:	e0bfef15 	stw	r2,-68(fp)
  
  if (fd)
   3230c:	e0bfef17 	ldw	r2,-68(fp)
   32310:	10000e26 	beq	r2,zero,3234c <isatty+0x80>
    /*
     * If a device driver does not provide an fstat() function, then it is 
     * treated as a terminal device by default.
     */

    if (!fd->dev->fstat)
   32314:	e0bfef17 	ldw	r2,-68(fp)
   32318:	10800017 	ldw	r2,0(r2)
   3231c:	10800817 	ldw	r2,32(r2)
   32320:	1000021e 	bne	r2,zero,3232c <isatty+0x60>
    {
      return 1;
   32324:	00800044 	movi	r2,1
   32328:	00000c06 	br	3235c <isatty+0x90>
     * this is called so that the device can identify itself.
     */ 

    else
    {
      fstat (file, &stat);
   3232c:	e0bff004 	addi	r2,fp,-64
   32330:	e13fff17 	ldw	r4,-4(fp)
   32334:	100b883a 	mov	r5,r2
   32338:	00321cc0 	call	321cc <fstat>
      return (stat.st_mode == _IFCHR) ? 1 : 0;
   3233c:	e0bff117 	ldw	r2,-60(fp)
   32340:	10880020 	cmpeqi	r2,r2,8192
   32344:	10803fcc 	andi	r2,r2,255
   32348:	00000406 	br	3235c <isatty+0x90>
    }
  }
  else
  {
    ALT_ERRNO = EBADFD;
   3234c:	003227c0 	call	3227c <alt_get_errno>
   32350:	00c01444 	movi	r3,81
   32354:	10c00015 	stw	r3,0(r2)
    return 0;
   32358:	0005883a 	mov	r2,zero
  }
}
   3235c:	e037883a 	mov	sp,fp
   32360:	dfc00117 	ldw	ra,4(sp)
   32364:	df000017 	ldw	fp,0(sp)
   32368:	dec00204 	addi	sp,sp,8
   3236c:	f800283a 	ret

00032370 <alt_load_section>:
 */

static void ALT_INLINE alt_load_section (alt_u32* from, 
                                         alt_u32* to, 
                                         alt_u32* end)
{
   32370:	defffc04 	addi	sp,sp,-16
   32374:	df000315 	stw	fp,12(sp)
   32378:	df000304 	addi	fp,sp,12
   3237c:	e13ffd15 	stw	r4,-12(fp)
   32380:	e17ffe15 	stw	r5,-8(fp)
   32384:	e1bfff15 	stw	r6,-4(fp)
  if (to != from)
   32388:	e0fffe17 	ldw	r3,-8(fp)
   3238c:	e0bffd17 	ldw	r2,-12(fp)
   32390:	18800e26 	beq	r3,r2,323cc <alt_load_section+0x5c>
  {
    while( to != end )
   32394:	00000a06 	br	323c0 <alt_load_section+0x50>
    {
      *to++ = *from++;
   32398:	e0bffd17 	ldw	r2,-12(fp)
   3239c:	10c00017 	ldw	r3,0(r2)
   323a0:	e0bffe17 	ldw	r2,-8(fp)
   323a4:	10c00015 	stw	r3,0(r2)
   323a8:	e0bffe17 	ldw	r2,-8(fp)
   323ac:	10800104 	addi	r2,r2,4
   323b0:	e0bffe15 	stw	r2,-8(fp)
   323b4:	e0bffd17 	ldw	r2,-12(fp)
   323b8:	10800104 	addi	r2,r2,4
   323bc:	e0bffd15 	stw	r2,-12(fp)
                                         alt_u32* to, 
                                         alt_u32* end)
{
  if (to != from)
  {
    while( to != end )
   323c0:	e0fffe17 	ldw	r3,-8(fp)
   323c4:	e0bfff17 	ldw	r2,-4(fp)
   323c8:	18bff31e 	bne	r3,r2,32398 <alt_load_section+0x28>
    {
      *to++ = *from++;
    }
  }
}
   323cc:	e037883a 	mov	sp,fp
   323d0:	df000017 	ldw	fp,0(sp)
   323d4:	dec00104 	addi	sp,sp,4
   323d8:	f800283a 	ret

000323dc <alt_load>:
 * there is no bootloader, so this application is responsible for loading to
 * RAM any sections that are required.
 */  

void alt_load (void)
{
   323dc:	defffe04 	addi	sp,sp,-8
   323e0:	dfc00115 	stw	ra,4(sp)
   323e4:	df000015 	stw	fp,0(sp)
   323e8:	d839883a 	mov	fp,sp
  /* 
   * Copy the .rwdata section. 
   */

  alt_load_section (&__flash_rwdata_start, 
   323ec:	010000f4 	movhi	r4,3
   323f0:	21170d04 	addi	r4,r4,23604
   323f4:	014000f4 	movhi	r5,3
   323f8:	29544804 	addi	r5,r5,20768
   323fc:	018000f4 	movhi	r6,3
   32400:	31970d04 	addi	r6,r6,23604
   32404:	00323700 	call	32370 <alt_load_section>

  /*
   * Copy the exception handler.
   */

  alt_load_section (&__flash_exceptions_start, 
   32408:	010000b4 	movhi	r4,2
   3240c:	21000804 	addi	r4,r4,32
   32410:	014000b4 	movhi	r5,2
   32414:	29400804 	addi	r5,r5,32
   32418:	018000b4 	movhi	r6,2
   3241c:	31800804 	addi	r6,r6,32
   32420:	00323700 	call	32370 <alt_load_section>

  /*
   * Copy the .rodata section.
   */

  alt_load_section (&__flash_rodata_start, 
   32424:	010000f4 	movhi	r4,3
   32428:	21105104 	addi	r4,r4,16708
   3242c:	014000f4 	movhi	r5,3
   32430:	29505104 	addi	r5,r5,16708
   32434:	018000f4 	movhi	r6,3
   32438:	31944804 	addi	r6,r6,20768
   3243c:	00323700 	call	32370 <alt_load_section>
  
  /*
   * Now ensure that the caches are in synch.
   */
  
  alt_dcache_flush_all();
   32440:	003371c0 	call	3371c <alt_dcache_flush_all>
  alt_icache_flush_all();
   32444:	0033bdc0 	call	33bdc <alt_icache_flush_all>
}
   32448:	e037883a 	mov	sp,fp
   3244c:	dfc00117 	ldw	ra,4(sp)
   32450:	df000017 	ldw	fp,0(sp)
   32454:	dec00204 	addi	sp,sp,8
   32458:	f800283a 	ret

0003245c <alt_get_errno>:
#undef errno

extern int errno;

static ALT_INLINE int* alt_get_errno(void)
{
   3245c:	defffe04 	addi	sp,sp,-8
   32460:	dfc00115 	stw	ra,4(sp)
   32464:	df000015 	stw	fp,0(sp)
   32468:	d839883a 	mov	fp,sp
  return ((alt_errno) ? alt_errno() : &errno);
   3246c:	008000f4 	movhi	r2,3
   32470:	1096f904 	addi	r2,r2,23524
   32474:	10800017 	ldw	r2,0(r2)
   32478:	10000526 	beq	r2,zero,32490 <alt_get_errno+0x34>
   3247c:	008000f4 	movhi	r2,3
   32480:	1096f904 	addi	r2,r2,23524
   32484:	10800017 	ldw	r2,0(r2)
   32488:	103ee83a 	callr	r2
   3248c:	00000206 	br	32498 <alt_get_errno+0x3c>
   32490:	008000f4 	movhi	r2,3
   32494:	1099d604 	addi	r2,r2,26456
}
   32498:	e037883a 	mov	sp,fp
   3249c:	dfc00117 	ldw	ra,4(sp)
   324a0:	df000017 	ldw	fp,0(sp)
   324a4:	dec00204 	addi	sp,sp,8
   324a8:	f800283a 	ret

000324ac <lseek>:
 * ALT_LSEEK is mapped onto the lseek() system call in alt_syscall.h
 *
 */

off_t ALT_LSEEK (int file, off_t ptr, int dir)
{
   324ac:	defff904 	addi	sp,sp,-28
   324b0:	dfc00615 	stw	ra,24(sp)
   324b4:	df000515 	stw	fp,20(sp)
   324b8:	df000504 	addi	fp,sp,20
   324bc:	e13ffd15 	stw	r4,-12(fp)
   324c0:	e17ffe15 	stw	r5,-8(fp)
   324c4:	e1bfff15 	stw	r6,-4(fp)
  alt_fd* fd;
  off_t   rc = 0; 
   324c8:	e03ffb15 	stw	zero,-20(fp)
   * A common error case is that when the file descriptor was created, the call
   * to open() failed resulting in a negative file descriptor. This is trapped
   * below so that we don't try and process an invalid file descriptor.
   */

  fd = (file < 0) ? NULL : &alt_fd_list[file];
   324cc:	e0bffd17 	ldw	r2,-12(fp)
   324d0:	10000716 	blt	r2,zero,324f0 <lseek+0x44>
   324d4:	e13ffd17 	ldw	r4,-12(fp)
   324d8:	01400304 	movi	r5,12
   324dc:	0022d140 	call	22d14 <__mulsi3>
   324e0:	00c000f4 	movhi	r3,3
   324e4:	18d67904 	addi	r3,r3,23012
   324e8:	10c5883a 	add	r2,r2,r3
   324ec:	00000106 	br	324f4 <lseek+0x48>
   324f0:	0005883a 	mov	r2,zero
   324f4:	e0bffc15 	stw	r2,-16(fp)
  
  if (fd) 
   324f8:	e0bffc17 	ldw	r2,-16(fp)
   324fc:	10001026 	beq	r2,zero,32540 <lseek+0x94>
    /*
     * If the device driver provides an implementation of the lseek() function,
     * then call that to process the request.
     */
 
    if (fd->dev->lseek)
   32500:	e0bffc17 	ldw	r2,-16(fp)
   32504:	10800017 	ldw	r2,0(r2)
   32508:	10800717 	ldw	r2,28(r2)
   3250c:	10000926 	beq	r2,zero,32534 <lseek+0x88>
    {
      rc = fd->dev->lseek(fd, ptr, dir);
   32510:	e0bffc17 	ldw	r2,-16(fp)
   32514:	10800017 	ldw	r2,0(r2)
   32518:	10800717 	ldw	r2,28(r2)
   3251c:	e13ffc17 	ldw	r4,-16(fp)
   32520:	e17ffe17 	ldw	r5,-8(fp)
   32524:	e1bfff17 	ldw	r6,-4(fp)
   32528:	103ee83a 	callr	r2
   3252c:	e0bffb15 	stw	r2,-20(fp)
   32530:	00000506 	br	32548 <lseek+0x9c>
     * Otherwise return an error.
     */

    else
    {
      rc = -ENOTSUP;
   32534:	00bfde84 	movi	r2,-134
   32538:	e0bffb15 	stw	r2,-20(fp)
   3253c:	00000206 	br	32548 <lseek+0x9c>
    }
  }
  else  
  {
    rc = -EBADFD;
   32540:	00bfebc4 	movi	r2,-81
   32544:	e0bffb15 	stw	r2,-20(fp)
  }

  if (rc < 0)
   32548:	e0bffb17 	ldw	r2,-20(fp)
   3254c:	1000060e 	bge	r2,zero,32568 <lseek+0xbc>
  {
    ALT_ERRNO = -rc;
   32550:	003245c0 	call	3245c <alt_get_errno>
   32554:	e0fffb17 	ldw	r3,-20(fp)
   32558:	00c7c83a 	sub	r3,zero,r3
   3255c:	10c00015 	stw	r3,0(r2)
    rc = -1;
   32560:	00bfffc4 	movi	r2,-1
   32564:	e0bffb15 	stw	r2,-20(fp)
  }

  return rc;
   32568:	e0bffb17 	ldw	r2,-20(fp)
}
   3256c:	e037883a 	mov	sp,fp
   32570:	dfc00117 	ldw	ra,4(sp)
   32574:	df000017 	ldw	fp,0(sp)
   32578:	dec00204 	addi	sp,sp,8
   3257c:	f800283a 	ret

00032580 <alt_main>:
 * devices/filesystems/components in the system; and call the entry point for
 * the users application, i.e. main().
 */

void alt_main (void)
{
   32580:	defffd04 	addi	sp,sp,-12
   32584:	dfc00215 	stw	ra,8(sp)
   32588:	df000115 	stw	fp,4(sp)
   3258c:	df000104 	addi	fp,sp,4
#endif

  /* ALT LOG - please see HAL/sys/alt_log_printf.h for details */
  ALT_LOG_PRINT_BOOT("[alt_main.c] Entering alt_main, calling alt_irq_init.\r\n");
  /* Initialize the interrupt controller. */
  alt_irq_init (NULL);
   32590:	0009883a 	mov	r4,zero
   32594:	0032cbc0 	call	32cbc <alt_irq_init>

  /* Initialize the operating system */
  ALT_LOG_PRINT_BOOT("[alt_main.c] Done alt_irq_init, calling alt_os_init.\r\n");
  ALT_OS_INIT();
   32598:	0001883a 	nop
  ALT_LOG_PRINT_BOOT("[alt_main.c] Done OS Init, calling alt_sem_create.\r\n");
  ALT_SEM_CREATE (&alt_fd_list_lock, 1);

  /* Initialize the device drivers/software components. */
  ALT_LOG_PRINT_BOOT("[alt_main.c] Calling alt_sys_init.\r\n");
  alt_sys_init();
   3259c:	0032cf00 	call	32cf0 <alt_sys_init>
   * devices be present (not equal to /dev/null) and if direct drivers
   * aren't being used.
   */

    ALT_LOG_PRINT_BOOT("[alt_main.c] Redirecting IO.\r\n");
    alt_io_redirect(ALT_STDOUT, ALT_STDIN, ALT_STDERR);
   325a0:	010000f4 	movhi	r4,3
   325a4:	21143b04 	addi	r4,r4,20716
   325a8:	014000f4 	movhi	r5,3
   325ac:	29543b04 	addi	r5,r5,20716
   325b0:	018000f4 	movhi	r6,3
   325b4:	31943b04 	addi	r6,r6,20716
   325b8:	0033cd80 	call	33cd8 <alt_io_redirect>
  /* 
   * Call the C++ constructors 
   */

  ALT_LOG_PRINT_BOOT("[alt_main.c] Calling C++ constructors.\r\n");
  _do_ctors ();
   325bc:	00338280 	call	33828 <_do_ctors>
   * redefined as _exit()). This is in the interest of reducing code footprint,
   * in that the atexit() overhead is removed when it's not needed.
   */

  ALT_LOG_PRINT_BOOT("[alt_main.c] Calling atexit.\r\n");
  atexit (_do_dtors);
   325c0:	010000f4 	movhi	r4,3
   325c4:	210e2104 	addi	r4,r4,14468
   325c8:	0033d700 	call	33d70 <atexit>
  ALT_LOG_PRINT_BOOT("[alt_main.c] Calling main.\r\n");

#ifdef ALT_NO_EXIT
  main (alt_argc, alt_argv, alt_envp);
#else
  result = main (alt_argc, alt_argv, alt_envp);
   325cc:	d122ef17 	ldw	r4,-29764(gp)
   325d0:	d0e2f017 	ldw	r3,-29760(gp)
   325d4:	d0a2f117 	ldw	r2,-29756(gp)
   325d8:	180b883a 	mov	r5,r3
   325dc:	100d883a 	mov	r6,r2
   325e0:	00213000 	call	21300 <main>
   325e4:	e0bfff15 	stw	r2,-4(fp)
  close(STDOUT_FILENO);
   325e8:	01000044 	movi	r4,1
   325ec:	00320840 	call	32084 <close>
  exit (result);
   325f0:	e13fff17 	ldw	r4,-4(fp)
   325f4:	0033d840 	call	33d84 <exit>

000325f8 <__malloc_lock>:
 * configuration is single threaded, so there is nothing to do here. Note that 
 * this requires that malloc is never called by an interrupt service routine.
 */

void __malloc_lock ( struct _reent *_r )
{
   325f8:	defffe04 	addi	sp,sp,-8
   325fc:	df000115 	stw	fp,4(sp)
   32600:	df000104 	addi	fp,sp,4
   32604:	e13fff15 	stw	r4,-4(fp)
}
   32608:	e037883a 	mov	sp,fp
   3260c:	df000017 	ldw	fp,0(sp)
   32610:	dec00104 	addi	sp,sp,4
   32614:	f800283a 	ret

00032618 <__malloc_unlock>:
/*
 *
 */

void __malloc_unlock ( struct _reent *_r )
{
   32618:	defffe04 	addi	sp,sp,-8
   3261c:	df000115 	stw	fp,4(sp)
   32620:	df000104 	addi	fp,sp,4
   32624:	e13fff15 	stw	r4,-4(fp)
}
   32628:	e037883a 	mov	sp,fp
   3262c:	df000017 	ldw	fp,0(sp)
   32630:	dec00104 	addi	sp,sp,4
   32634:	f800283a 	ret

00032638 <alt_get_errno>:
#undef errno

extern int errno;

static ALT_INLINE int* alt_get_errno(void)
{
   32638:	defffe04 	addi	sp,sp,-8
   3263c:	dfc00115 	stw	ra,4(sp)
   32640:	df000015 	stw	fp,0(sp)
   32644:	d839883a 	mov	fp,sp
  return ((alt_errno) ? alt_errno() : &errno);
   32648:	008000f4 	movhi	r2,3
   3264c:	1096f904 	addi	r2,r2,23524
   32650:	10800017 	ldw	r2,0(r2)
   32654:	10000526 	beq	r2,zero,3266c <alt_get_errno+0x34>
   32658:	008000f4 	movhi	r2,3
   3265c:	1096f904 	addi	r2,r2,23524
   32660:	10800017 	ldw	r2,0(r2)
   32664:	103ee83a 	callr	r2
   32668:	00000206 	br	32674 <alt_get_errno+0x3c>
   3266c:	008000f4 	movhi	r2,3
   32670:	1099d604 	addi	r2,r2,26456
}
   32674:	e037883a 	mov	sp,fp
   32678:	dfc00117 	ldw	ra,4(sp)
   3267c:	df000017 	ldw	fp,0(sp)
   32680:	dec00204 	addi	sp,sp,8
   32684:	f800283a 	ret

00032688 <alt_file_locked>:
 * performed for devices. Filesystems are required to handle the ioctl() call
 * themselves, and report the error from the filesystems open() function. 
 */ 

static int alt_file_locked (alt_fd* fd)
{
   32688:	defffb04 	addi	sp,sp,-20
   3268c:	dfc00415 	stw	ra,16(sp)
   32690:	df000315 	stw	fp,12(sp)
   32694:	dc000215 	stw	r16,8(sp)
   32698:	df000204 	addi	fp,sp,8
   3269c:	e13fff15 	stw	r4,-4(fp)

  /*
   * Mark the file descriptor as belonging to a device.
   */

  fd->fd_flags |= ALT_FD_DEV;
   326a0:	e0bfff17 	ldw	r2,-4(fp)
   326a4:	10800217 	ldw	r2,8(r2)
   326a8:	10d00034 	orhi	r3,r2,16384
   326ac:	e0bfff17 	ldw	r2,-4(fp)
   326b0:	10c00215 	stw	r3,8(r2)
  /*
   * Loop through all current file descriptors searching for one that's locked
   * for exclusive access. If a match is found, generate an error.
   */

  for (i = 0; i <= alt_max_fd; i++)
   326b4:	e03ffe15 	stw	zero,-8(fp)
   326b8:	00002206 	br	32744 <alt_file_locked+0xbc>
  {
    if ((alt_fd_list[i].dev == fd->dev) &&
   326bc:	040000f4 	movhi	r16,3
   326c0:	84167904 	addi	r16,r16,23012
   326c4:	e0bffe17 	ldw	r2,-8(fp)
   326c8:	1009883a 	mov	r4,r2
   326cc:	01400304 	movi	r5,12
   326d0:	0022d140 	call	22d14 <__mulsi3>
   326d4:	8085883a 	add	r2,r16,r2
   326d8:	10c00017 	ldw	r3,0(r2)
   326dc:	e0bfff17 	ldw	r2,-4(fp)
   326e0:	10800017 	ldw	r2,0(r2)
   326e4:	1880141e 	bne	r3,r2,32738 <alt_file_locked+0xb0>
        (alt_fd_list[i].fd_flags & ALT_FD_EXCL) &&
   326e8:	040000f4 	movhi	r16,3
   326ec:	84167904 	addi	r16,r16,23012
   326f0:	e0bffe17 	ldw	r2,-8(fp)
   326f4:	1009883a 	mov	r4,r2
   326f8:	01400304 	movi	r5,12
   326fc:	0022d140 	call	22d14 <__mulsi3>
   32700:	8085883a 	add	r2,r16,r2
   32704:	10800204 	addi	r2,r2,8
   32708:	10800017 	ldw	r2,0(r2)
   * for exclusive access. If a match is found, generate an error.
   */

  for (i = 0; i <= alt_max_fd; i++)
  {
    if ((alt_fd_list[i].dev == fd->dev) &&
   3270c:	10000a0e 	bge	r2,zero,32738 <alt_file_locked+0xb0>
        (alt_fd_list[i].fd_flags & ALT_FD_EXCL) &&
        (&alt_fd_list[i] != fd))
   32710:	e13ffe17 	ldw	r4,-8(fp)
   32714:	01400304 	movi	r5,12
   32718:	0022d140 	call	22d14 <__mulsi3>
   3271c:	00c000f4 	movhi	r3,3
   32720:	18d67904 	addi	r3,r3,23012
   32724:	10c7883a 	add	r3,r2,r3
   */

  for (i = 0; i <= alt_max_fd; i++)
  {
    if ((alt_fd_list[i].dev == fd->dev) &&
        (alt_fd_list[i].fd_flags & ALT_FD_EXCL) &&
   32728:	e0bfff17 	ldw	r2,-4(fp)
   3272c:	18800226 	beq	r3,r2,32738 <alt_file_locked+0xb0>
        (&alt_fd_list[i] != fd))
    {
      return -EACCES;
   32730:	00bffcc4 	movi	r2,-13
   32734:	00000a06 	br	32760 <alt_file_locked+0xd8>
  /*
   * Loop through all current file descriptors searching for one that's locked
   * for exclusive access. If a match is found, generate an error.
   */

  for (i = 0; i <= alt_max_fd; i++)
   32738:	e0bffe17 	ldw	r2,-8(fp)
   3273c:	10800044 	addi	r2,r2,1
   32740:	e0bffe15 	stw	r2,-8(fp)
   32744:	008000f4 	movhi	r2,3
   32748:	1096f804 	addi	r2,r2,23520
   3274c:	10800017 	ldw	r2,0(r2)
   32750:	1007883a 	mov	r3,r2
   32754:	e0bffe17 	ldw	r2,-8(fp)
   32758:	18bfd82e 	bgeu	r3,r2,326bc <alt_file_locked+0x34>
    }
  }
  
  /* The device is not locked */
 
  return 0;
   3275c:	0005883a 	mov	r2,zero
}
   32760:	e037883a 	mov	sp,fp
   32764:	dfc00217 	ldw	ra,8(sp)
   32768:	df000117 	ldw	fp,4(sp)
   3276c:	dc000017 	ldw	r16,0(sp)
   32770:	dec00304 	addi	sp,sp,12
   32774:	f800283a 	ret

00032778 <open>:
 *
 * ALT_OPEN is mapped onto the open() system call in alt_syscall.h
 */
 
int ALT_OPEN (const char* file, int flags, int mode)
{ 
   32778:	defff604 	addi	sp,sp,-40
   3277c:	dfc00915 	stw	ra,36(sp)
   32780:	df000815 	stw	fp,32(sp)
   32784:	df000804 	addi	fp,sp,32
   32788:	e13ffd15 	stw	r4,-12(fp)
   3278c:	e17ffe15 	stw	r5,-8(fp)
   32790:	e1bfff15 	stw	r6,-4(fp)
  alt_dev* dev;
  alt_fd*  fd;
  int index  = -1;
   32794:	00bfffc4 	movi	r2,-1
   32798:	e0bff915 	stw	r2,-28(fp)
  int status = -ENODEV;
   3279c:	00bffb44 	movi	r2,-19
   327a0:	e0bffa15 	stw	r2,-24(fp)
  int isafs = 0;
   327a4:	e03ffb15 	stw	zero,-20(fp)
  /* 
   * Check the device list, to see if a device with a matching name is 
   * registered.
   */
  
  if (!(dev = alt_find_dev (file, &alt_dev_list)))
   327a8:	e13ffd17 	ldw	r4,-12(fp)
   327ac:	014000f4 	movhi	r5,3
   327b0:	2956f604 	addi	r5,r5,23512
   327b4:	00338e00 	call	338e0 <alt_find_dev>
   327b8:	e0bff815 	stw	r2,-32(fp)
   327bc:	e0bff817 	ldw	r2,-32(fp)
   327c0:	1000051e 	bne	r2,zero,327d8 <open+0x60>
  {
    /* No matching device, so try the filesystem list */

    dev   = alt_find_file (file);
   327c4:	e13ffd17 	ldw	r4,-12(fp)
   327c8:	00339700 	call	33970 <alt_find_file>
   327cc:	e0bff815 	stw	r2,-32(fp)
    isafs = 1;
   327d0:	00800044 	movi	r2,1
   327d4:	e0bffb15 	stw	r2,-20(fp)

  /* 
   * If a matching device or filesystem is found, allocate a file descriptor. 
   */

  if (dev)
   327d8:	e0bff817 	ldw	r2,-32(fp)
   327dc:	10002a26 	beq	r2,zero,32888 <open+0x110>
  {
    if ((index = alt_get_fd (dev)) < 0)
   327e0:	e13ff817 	ldw	r4,-32(fp)
   327e4:	0033b080 	call	33b08 <alt_get_fd>
   327e8:	e0bff915 	stw	r2,-28(fp)
   327ec:	e0bff917 	ldw	r2,-28(fp)
   327f0:	1000030e 	bge	r2,zero,32800 <open+0x88>
    {
      status = index;
   327f4:	e0bff917 	ldw	r2,-28(fp)
   327f8:	e0bffa15 	stw	r2,-24(fp)
   327fc:	00002406 	br	32890 <open+0x118>
    }
    else
    {
      fd = &alt_fd_list[index];
   32800:	e13ff917 	ldw	r4,-28(fp)
   32804:	01400304 	movi	r5,12
   32808:	0022d140 	call	22d14 <__mulsi3>
   3280c:	00c000f4 	movhi	r3,3
   32810:	18d67904 	addi	r3,r3,23012
   32814:	10c5883a 	add	r2,r2,r3
   32818:	e0bffc15 	stw	r2,-16(fp)
      fd->fd_flags = (flags & ~ALT_FD_FLAGS_MASK);
   3281c:	e0fffe17 	ldw	r3,-8(fp)
   32820:	00900034 	movhi	r2,16384
   32824:	10bfffc4 	addi	r2,r2,-1
   32828:	1886703a 	and	r3,r3,r2
   3282c:	e0bffc17 	ldw	r2,-16(fp)
   32830:	10c00215 	stw	r3,8(r2)
      
      /* If this is a device, ensure it isn't already locked */

      if (isafs || ((status = alt_file_locked (fd)) >= 0))
   32834:	e0bffb17 	ldw	r2,-20(fp)
   32838:	1000051e 	bne	r2,zero,32850 <open+0xd8>
   3283c:	e13ffc17 	ldw	r4,-16(fp)
   32840:	00326880 	call	32688 <alt_file_locked>
   32844:	e0bffa15 	stw	r2,-24(fp)
   32848:	e0bffa17 	ldw	r2,-24(fp)
   3284c:	10001016 	blt	r2,zero,32890 <open+0x118>
        /* 
         * If the device or filesystem provides an open() callback function,
         * call it now to perform any device/filesystem specific operations.
         */
    
        status = (dev->open) ? dev->open(fd, file, flags, mode): 0;
   32850:	e0bff817 	ldw	r2,-32(fp)
   32854:	10800317 	ldw	r2,12(r2)
   32858:	10000826 	beq	r2,zero,3287c <open+0x104>
   3285c:	e0bff817 	ldw	r2,-32(fp)
   32860:	10800317 	ldw	r2,12(r2)
   32864:	e13ffc17 	ldw	r4,-16(fp)
   32868:	e17ffd17 	ldw	r5,-12(fp)
   3286c:	e1bffe17 	ldw	r6,-8(fp)
   32870:	e1ffff17 	ldw	r7,-4(fp)
   32874:	103ee83a 	callr	r2
   32878:	00000106 	br	32880 <open+0x108>
   3287c:	0005883a 	mov	r2,zero
   32880:	e0bffa15 	stw	r2,-24(fp)
   32884:	00000206 	br	32890 <open+0x118>
      }
    }
  }
  else
  {
    status = -ENODEV;
   32888:	00bffb44 	movi	r2,-19
   3288c:	e0bffa15 	stw	r2,-24(fp)
  }

  /* Allocation failed, so clean up and return an error */ 

  if (status < 0)
   32890:	e0bffa17 	ldw	r2,-24(fp)
   32894:	1000080e 	bge	r2,zero,328b8 <open+0x140>
  {
    alt_release_fd (index);  
   32898:	e13ff917 	ldw	r4,-28(fp)
   3289c:	0032a140 	call	32a14 <alt_release_fd>
    ALT_ERRNO = -status;
   328a0:	00326380 	call	32638 <alt_get_errno>
   328a4:	e0fffa17 	ldw	r3,-24(fp)
   328a8:	00c7c83a 	sub	r3,zero,r3
   328ac:	10c00015 	stw	r3,0(r2)
    return -1;
   328b0:	00bfffc4 	movi	r2,-1
   328b4:	00000106 	br	328bc <open+0x144>
  }
  
  /* return the reference upon success */

  return index;
   328b8:	e0bff917 	ldw	r2,-28(fp)
}
   328bc:	e037883a 	mov	sp,fp
   328c0:	dfc00117 	ldw	ra,4(sp)
   328c4:	df000017 	ldw	fp,0(sp)
   328c8:	dec00204 	addi	sp,sp,8
   328cc:	f800283a 	ret

000328d0 <alt_get_errno>:
#undef errno

extern int errno;

static ALT_INLINE int* alt_get_errno(void)
{
   328d0:	defffe04 	addi	sp,sp,-8
   328d4:	dfc00115 	stw	ra,4(sp)
   328d8:	df000015 	stw	fp,0(sp)
   328dc:	d839883a 	mov	fp,sp
  return ((alt_errno) ? alt_errno() : &errno);
   328e0:	008000f4 	movhi	r2,3
   328e4:	1096f904 	addi	r2,r2,23524
   328e8:	10800017 	ldw	r2,0(r2)
   328ec:	10000526 	beq	r2,zero,32904 <alt_get_errno+0x34>
   328f0:	008000f4 	movhi	r2,3
   328f4:	1096f904 	addi	r2,r2,23524
   328f8:	10800017 	ldw	r2,0(r2)
   328fc:	103ee83a 	callr	r2
   32900:	00000206 	br	3290c <alt_get_errno+0x3c>
   32904:	008000f4 	movhi	r2,3
   32908:	1099d604 	addi	r2,r2,26456
}
   3290c:	e037883a 	mov	sp,fp
   32910:	dfc00117 	ldw	ra,4(sp)
   32914:	df000017 	ldw	fp,0(sp)
   32918:	dec00204 	addi	sp,sp,8
   3291c:	f800283a 	ret

00032920 <read>:
}

#else /* !ALT_USE_DIRECT_DRIVERS */

int ALT_READ (int file, void *ptr, size_t len)
{
   32920:	defff904 	addi	sp,sp,-28
   32924:	dfc00615 	stw	ra,24(sp)
   32928:	df000515 	stw	fp,20(sp)
   3292c:	df000504 	addi	fp,sp,20
   32930:	e13ffd15 	stw	r4,-12(fp)
   32934:	e17ffe15 	stw	r5,-8(fp)
   32938:	e1bfff15 	stw	r6,-4(fp)
   * A common error case is that when the file descriptor was created, the call
   * to open() failed resulting in a negative file descriptor. This is trapped
   * below so that we don't try and process an invalid file descriptor.
   */

  fd = (file < 0) ? NULL : &alt_fd_list[file];
   3293c:	e0bffd17 	ldw	r2,-12(fp)
   32940:	10000716 	blt	r2,zero,32960 <read+0x40>
   32944:	e13ffd17 	ldw	r4,-12(fp)
   32948:	01400304 	movi	r5,12
   3294c:	0022d140 	call	22d14 <__mulsi3>
   32950:	00c000f4 	movhi	r3,3
   32954:	18d67904 	addi	r3,r3,23012
   32958:	10c5883a 	add	r2,r2,r3
   3295c:	00000106 	br	32964 <read+0x44>
   32960:	0005883a 	mov	r2,zero
   32964:	e0bffb15 	stw	r2,-20(fp)
  
  if (fd)
   32968:	e0bffb17 	ldw	r2,-20(fp)
   3296c:	10002026 	beq	r2,zero,329f0 <read+0xd0>
     * If the file has not been opened with read access, or if the driver does
     * not provide an implementation of read(), generate an error. Otherwise
     * call the drivers read() function to process the request.
     */

    if (((fd->fd_flags & O_ACCMODE) != O_WRONLY) && 
   32970:	e0bffb17 	ldw	r2,-20(fp)
   32974:	10800217 	ldw	r2,8(r2)
   32978:	108000cc 	andi	r2,r2,3
   3297c:	10800060 	cmpeqi	r2,r2,1
   32980:	1000171e 	bne	r2,zero,329e0 <read+0xc0>
        (fd->dev->read))
   32984:	e0bffb17 	ldw	r2,-20(fp)
   32988:	10800017 	ldw	r2,0(r2)
   3298c:	10800517 	ldw	r2,20(r2)
     * If the file has not been opened with read access, or if the driver does
     * not provide an implementation of read(), generate an error. Otherwise
     * call the drivers read() function to process the request.
     */

    if (((fd->fd_flags & O_ACCMODE) != O_WRONLY) && 
   32990:	10001326 	beq	r2,zero,329e0 <read+0xc0>
        (fd->dev->read))
      {
        if ((rval = fd->dev->read(fd, ptr, len)) < 0)
   32994:	e0bffb17 	ldw	r2,-20(fp)
   32998:	10800017 	ldw	r2,0(r2)
   3299c:	10c00517 	ldw	r3,20(r2)
   329a0:	e0bfff17 	ldw	r2,-4(fp)
   329a4:	e13ffb17 	ldw	r4,-20(fp)
   329a8:	e17ffe17 	ldw	r5,-8(fp)
   329ac:	100d883a 	mov	r6,r2
   329b0:	183ee83a 	callr	r3
   329b4:	e0bffc15 	stw	r2,-16(fp)
   329b8:	e0bffc17 	ldw	r2,-16(fp)
   329bc:	1000060e 	bge	r2,zero,329d8 <read+0xb8>
        {
          ALT_ERRNO = -rval;
   329c0:	00328d00 	call	328d0 <alt_get_errno>
   329c4:	e0fffc17 	ldw	r3,-16(fp)
   329c8:	00c7c83a 	sub	r3,zero,r3
   329cc:	10c00015 	stw	r3,0(r2)
          return -1;
   329d0:	00bfffc4 	movi	r2,-1
   329d4:	00000a06 	br	32a00 <read+0xe0>
        }
        return rval;
   329d8:	e0bffc17 	ldw	r2,-16(fp)
   329dc:	00000806 	br	32a00 <read+0xe0>
      }
      else
      {
        ALT_ERRNO = EACCES;
   329e0:	00328d00 	call	328d0 <alt_get_errno>
   329e4:	00c00344 	movi	r3,13
   329e8:	10c00015 	stw	r3,0(r2)
   329ec:	00000306 	br	329fc <read+0xdc>
      }
    }
  else
  {
    ALT_ERRNO = EBADFD;
   329f0:	00328d00 	call	328d0 <alt_get_errno>
   329f4:	00c01444 	movi	r3,81
   329f8:	10c00015 	stw	r3,0(r2)
  }
  return -1;
   329fc:	00bfffc4 	movi	r2,-1
}
   32a00:	e037883a 	mov	sp,fp
   32a04:	dfc00117 	ldw	ra,4(sp)
   32a08:	df000017 	ldw	fp,0(sp)
   32a0c:	dec00204 	addi	sp,sp,8
   32a10:	f800283a 	ret

00032a14 <alt_release_fd>:
 * File descriptors correcponding to standard in, standard out and standard 
 * error cannont be released backed to the pool. They are always reserved.
 */

void alt_release_fd (int fd)
{
   32a14:	defffc04 	addi	sp,sp,-16
   32a18:	dfc00315 	stw	ra,12(sp)
   32a1c:	df000215 	stw	fp,8(sp)
   32a20:	dc000115 	stw	r16,4(sp)
   32a24:	df000104 	addi	fp,sp,4
   32a28:	e13fff15 	stw	r4,-4(fp)
  if (fd > 2)
   32a2c:	e0bfff17 	ldw	r2,-4(fp)
   32a30:	108000d0 	cmplti	r2,r2,3
   32a34:	1000111e 	bne	r2,zero,32a7c <alt_release_fd+0x68>
  {
    alt_fd_list[fd].fd_flags = 0;
   32a38:	040000f4 	movhi	r16,3
   32a3c:	84167904 	addi	r16,r16,23012
   32a40:	e0bfff17 	ldw	r2,-4(fp)
   32a44:	1009883a 	mov	r4,r2
   32a48:	01400304 	movi	r5,12
   32a4c:	0022d140 	call	22d14 <__mulsi3>
   32a50:	8085883a 	add	r2,r16,r2
   32a54:	10800204 	addi	r2,r2,8
   32a58:	10000015 	stw	zero,0(r2)
    alt_fd_list[fd].dev      = 0;
   32a5c:	040000f4 	movhi	r16,3
   32a60:	84167904 	addi	r16,r16,23012
   32a64:	e0bfff17 	ldw	r2,-4(fp)
   32a68:	1009883a 	mov	r4,r2
   32a6c:	01400304 	movi	r5,12
   32a70:	0022d140 	call	22d14 <__mulsi3>
   32a74:	8085883a 	add	r2,r16,r2
   32a78:	10000015 	stw	zero,0(r2)
  }
}
   32a7c:	e037883a 	mov	sp,fp
   32a80:	dfc00217 	ldw	ra,8(sp)
   32a84:	df000117 	ldw	fp,4(sp)
   32a88:	dc000017 	ldw	r16,0(sp)
   32a8c:	dec00304 	addi	sp,sp,12
   32a90:	f800283a 	ret

00032a94 <sbrk>:
#endif
 
caddr_t ALT_SBRK (int incr) __attribute__ ((no_instrument_function ));

caddr_t ALT_SBRK (int incr)
{ 
   32a94:	defff904 	addi	sp,sp,-28
   32a98:	df000615 	stw	fp,24(sp)
   32a9c:	df000604 	addi	fp,sp,24
   32aa0:	e13fff15 	stw	r4,-4(fp)
static ALT_INLINE alt_irq_context ALT_ALWAYS_INLINE 
       alt_irq_disable_all (void)
{
  alt_irq_context context;

  NIOS2_READ_STATUS (context);
   32aa4:	0005303a 	rdctl	r2,status
   32aa8:	e0bffc15 	stw	r2,-16(fp)

  NIOS2_WRITE_STATUS (context & ~NIOS2_STATUS_PIE_MSK);
   32aac:	e0fffc17 	ldw	r3,-16(fp)
   32ab0:	00bfff84 	movi	r2,-2
   32ab4:	1884703a 	and	r2,r3,r2
   32ab8:	1001703a 	wrctl	status,r2
  
  return context;
   32abc:	e0bffc17 	ldw	r2,-16(fp)
  alt_irq_context context;
  char *prev_heap_end; 

  context = alt_irq_disable_all();
   32ac0:	e0bffa15 	stw	r2,-24(fp)

  /* Always return data aligned on a word boundary */
  heap_end = (char *)(((unsigned int)heap_end + 3) & ~3);
   32ac4:	d0a00c17 	ldw	r2,-32720(gp)
   32ac8:	10c000c4 	addi	r3,r2,3
   32acc:	00bfff04 	movi	r2,-4
   32ad0:	1884703a 	and	r2,r3,r2
   32ad4:	d0a00c15 	stw	r2,-32720(gp)
  if (((heap_end + incr) - __alt_heap_start) > ALT_MAX_HEAP_BYTES) {
    alt_irq_enable_all(context);
    return (caddr_t)-1;
  }
#else
  if ((heap_end + incr) > __alt_heap_limit) {
   32ad8:	d0e00c17 	ldw	r3,-32720(gp)
   32adc:	e0bfff17 	ldw	r2,-4(fp)
   32ae0:	1885883a 	add	r2,r3,r2
   32ae4:	00c00134 	movhi	r3,4
   32ae8:	18e59004 	addi	r3,r3,-27072
   32aec:	1880062e 	bgeu	r3,r2,32b08 <sbrk+0x74>
   32af0:	e0bffa17 	ldw	r2,-24(fp)
   32af4:	e0bffd15 	stw	r2,-12(fp)
  status &= ~NIOS2_STATUS_PIE_MSK;
  status |= (context & NIOS2_STATUS_PIE_MSK);
  
  NIOS2_WRITE_STATUS (status);
#else
  NIOS2_WRITE_STATUS (context);
   32af8:	e0bffd17 	ldw	r2,-12(fp)
   32afc:	1001703a 	wrctl	status,r2
    alt_irq_enable_all(context);
    return (caddr_t)-1;
   32b00:	00bfffc4 	movi	r2,-1
   32b04:	00000b06 	br	32b34 <sbrk+0xa0>
  }
#endif

  prev_heap_end = heap_end; 
   32b08:	d0a00c17 	ldw	r2,-32720(gp)
   32b0c:	e0bffb15 	stw	r2,-20(fp)
  heap_end += incr; 
   32b10:	d0e00c17 	ldw	r3,-32720(gp)
   32b14:	e0bfff17 	ldw	r2,-4(fp)
   32b18:	1885883a 	add	r2,r3,r2
   32b1c:	d0a00c15 	stw	r2,-32720(gp)
   32b20:	e0bffa17 	ldw	r2,-24(fp)
   32b24:	e0bffe15 	stw	r2,-8(fp)
   32b28:	e0bffe17 	ldw	r2,-8(fp)
   32b2c:	1001703a 	wrctl	status,r2

#endif

  alt_irq_enable_all(context);

  return (caddr_t) prev_heap_end; 
   32b30:	e0bffb17 	ldw	r2,-20(fp)
} 
   32b34:	e037883a 	mov	sp,fp
   32b38:	df000017 	ldw	fp,0(sp)
   32b3c:	dec00104 	addi	sp,sp,4
   32b40:	f800283a 	ret

00032b44 <alt_get_errno>:
#undef errno

extern int errno;

static ALT_INLINE int* alt_get_errno(void)
{
   32b44:	defffe04 	addi	sp,sp,-8
   32b48:	dfc00115 	stw	ra,4(sp)
   32b4c:	df000015 	stw	fp,0(sp)
   32b50:	d839883a 	mov	fp,sp
  return ((alt_errno) ? alt_errno() : &errno);
   32b54:	008000f4 	movhi	r2,3
   32b58:	1096f904 	addi	r2,r2,23524
   32b5c:	10800017 	ldw	r2,0(r2)
   32b60:	10000526 	beq	r2,zero,32b78 <alt_get_errno+0x34>
   32b64:	008000f4 	movhi	r2,3
   32b68:	1096f904 	addi	r2,r2,23524
   32b6c:	10800017 	ldw	r2,0(r2)
   32b70:	103ee83a 	callr	r2
   32b74:	00000206 	br	32b80 <alt_get_errno+0x3c>
   32b78:	008000f4 	movhi	r2,3
   32b7c:	1099d604 	addi	r2,r2,26456
}
   32b80:	e037883a 	mov	sp,fp
   32b84:	dfc00117 	ldw	ra,4(sp)
   32b88:	df000017 	ldw	fp,0(sp)
   32b8c:	dec00204 	addi	sp,sp,8
   32b90:	f800283a 	ret

00032b94 <write>:
}

#else /* !ALT_USE_DIRECT_DRIVERS */

int ALT_WRITE (int file, const void *ptr, size_t len)
{
   32b94:	defff904 	addi	sp,sp,-28
   32b98:	dfc00615 	stw	ra,24(sp)
   32b9c:	df000515 	stw	fp,20(sp)
   32ba0:	df000504 	addi	fp,sp,20
   32ba4:	e13ffd15 	stw	r4,-12(fp)
   32ba8:	e17ffe15 	stw	r5,-8(fp)
   32bac:	e1bfff15 	stw	r6,-4(fp)
   * A common error case is that when the file descriptor was created, the call
   * to open() failed resulting in a negative file descriptor. This is trapped
   * below so that we don't try and process an invalid file descriptor.
   */

  fd = (file < 0) ? NULL : &alt_fd_list[file];
   32bb0:	e0bffd17 	ldw	r2,-12(fp)
   32bb4:	10000716 	blt	r2,zero,32bd4 <write+0x40>
   32bb8:	e13ffd17 	ldw	r4,-12(fp)
   32bbc:	01400304 	movi	r5,12
   32bc0:	0022d140 	call	22d14 <__mulsi3>
   32bc4:	00c000f4 	movhi	r3,3
   32bc8:	18d67904 	addi	r3,r3,23012
   32bcc:	10c5883a 	add	r2,r2,r3
   32bd0:	00000106 	br	32bd8 <write+0x44>
   32bd4:	0005883a 	mov	r2,zero
   32bd8:	e0bffb15 	stw	r2,-20(fp)
  
  if (fd)
   32bdc:	e0bffb17 	ldw	r2,-20(fp)
   32be0:	10001f26 	beq	r2,zero,32c60 <write+0xcc>
     * If the file has not been opened with write access, or if the driver does
     * not provide an implementation of write(), generate an error. Otherwise
     * call the drivers write() function to process the request.
     */

    if (((fd->fd_flags & O_ACCMODE) != O_RDONLY) && fd->dev->write)
   32be4:	e0bffb17 	ldw	r2,-20(fp)
   32be8:	10800217 	ldw	r2,8(r2)
   32bec:	108000cc 	andi	r2,r2,3
   32bf0:	10001726 	beq	r2,zero,32c50 <write+0xbc>
   32bf4:	e0bffb17 	ldw	r2,-20(fp)
   32bf8:	10800017 	ldw	r2,0(r2)
   32bfc:	10800617 	ldw	r2,24(r2)
   32c00:	10001326 	beq	r2,zero,32c50 <write+0xbc>
    {
      
      /* ALT_LOG - see altera_hal/HAL/inc/sys/alt_log_printf.h */
      ALT_LOG_WRITE_FUNCTION(ptr,len);

      if ((rval = fd->dev->write(fd, ptr, len)) < 0)
   32c04:	e0bffb17 	ldw	r2,-20(fp)
   32c08:	10800017 	ldw	r2,0(r2)
   32c0c:	10c00617 	ldw	r3,24(r2)
   32c10:	e0bfff17 	ldw	r2,-4(fp)
   32c14:	e13ffb17 	ldw	r4,-20(fp)
   32c18:	e17ffe17 	ldw	r5,-8(fp)
   32c1c:	100d883a 	mov	r6,r2
   32c20:	183ee83a 	callr	r3
   32c24:	e0bffc15 	stw	r2,-16(fp)
   32c28:	e0bffc17 	ldw	r2,-16(fp)
   32c2c:	1000060e 	bge	r2,zero,32c48 <write+0xb4>
      {
        ALT_ERRNO = -rval;
   32c30:	0032b440 	call	32b44 <alt_get_errno>
   32c34:	e0fffc17 	ldw	r3,-16(fp)
   32c38:	00c7c83a 	sub	r3,zero,r3
   32c3c:	10c00015 	stw	r3,0(r2)
        return -1;
   32c40:	00bfffc4 	movi	r2,-1
   32c44:	00000a06 	br	32c70 <write+0xdc>
      }
      return rval;
   32c48:	e0bffc17 	ldw	r2,-16(fp)
   32c4c:	00000806 	br	32c70 <write+0xdc>
    }
    else
    {
      ALT_ERRNO = EACCES;
   32c50:	0032b440 	call	32b44 <alt_get_errno>
   32c54:	00c00344 	movi	r3,13
   32c58:	10c00015 	stw	r3,0(r2)
   32c5c:	00000306 	br	32c6c <write+0xd8>
    }
  }
  else  
  {
    ALT_ERRNO = EBADFD;
   32c60:	0032b440 	call	32b44 <alt_get_errno>
   32c64:	00c01444 	movi	r3,81
   32c68:	10c00015 	stw	r3,0(r2)
  }
  return -1;
   32c6c:	00bfffc4 	movi	r2,-1
}
   32c70:	e037883a 	mov	sp,fp
   32c74:	dfc00117 	ldw	ra,4(sp)
   32c78:	df000017 	ldw	fp,0(sp)
   32c7c:	dec00204 	addi	sp,sp,8
   32c80:	f800283a 	ret

00032c84 <alt_dev_reg>:
 */

extern int alt_fs_reg  (alt_dev* dev); 

static ALT_INLINE int alt_dev_reg (alt_dev* dev)
{
   32c84:	defffd04 	addi	sp,sp,-12
   32c88:	dfc00215 	stw	ra,8(sp)
   32c8c:	df000115 	stw	fp,4(sp)
   32c90:	df000104 	addi	fp,sp,4
   32c94:	e13fff15 	stw	r4,-4(fp)
  extern alt_llist alt_dev_list;

  return alt_dev_llist_insert ((alt_dev_llist*) dev, &alt_dev_list);
   32c98:	e13fff17 	ldw	r4,-4(fp)
   32c9c:	014000f4 	movhi	r5,3
   32ca0:	2956f604 	addi	r5,r5,23512
   32ca4:	00337880 	call	33788 <alt_dev_llist_insert>
}
   32ca8:	e037883a 	mov	sp,fp
   32cac:	dfc00117 	ldw	ra,4(sp)
   32cb0:	df000017 	ldw	fp,0(sp)
   32cb4:	dec00204 	addi	sp,sp,8
   32cb8:	f800283a 	ret

00032cbc <alt_irq_init>:
 * The "base" parameter is ignored and only
 * present for backwards-compatibility.
 */

void alt_irq_init ( const void* base )
{
   32cbc:	defffd04 	addi	sp,sp,-12
   32cc0:	dfc00215 	stw	ra,8(sp)
   32cc4:	df000115 	stw	fp,4(sp)
   32cc8:	df000104 	addi	fp,sp,4
   32ccc:	e13fff15 	stw	r4,-4(fp)
    ALTERA_NIOS2_QSYS_IRQ_INIT ( CPU_1, cpu_1);
   32cd0:	0033d500 	call	33d50 <altera_nios2_qsys_irq_init>
 * alt_irq_cpu_enable_interrupts() enables the CPU to start taking interrupts.
 */
static ALT_INLINE void ALT_ALWAYS_INLINE 
       alt_irq_cpu_enable_interrupts ()
{
    NIOS2_WRITE_STATUS(NIOS2_STATUS_PIE_MSK
   32cd4:	00800044 	movi	r2,1
   32cd8:	1001703a 	wrctl	status,r2
    alt_irq_cpu_enable_interrupts();
}
   32cdc:	e037883a 	mov	sp,fp
   32ce0:	dfc00117 	ldw	ra,4(sp)
   32ce4:	df000017 	ldw	fp,0(sp)
   32ce8:	dec00204 	addi	sp,sp,8
   32cec:	f800283a 	ret

00032cf0 <alt_sys_init>:
 * Initialize the non-interrupt controller devices.
 * Called after alt_irq_init().
 */

void alt_sys_init( void )
{
   32cf0:	defffe04 	addi	sp,sp,-8
   32cf4:	dfc00115 	stw	ra,4(sp)
   32cf8:	df000015 	stw	fp,0(sp)
   32cfc:	d839883a 	mov	fp,sp
    ALTERA_AVALON_TIMER_INIT ( TIMER_1, timer_1);
   32d00:	008000f4 	movhi	r2,3
   32d04:	1099e004 	addi	r2,r2,26496
   32d08:	00c00134 	movhi	r3,4
   32d0c:	18c42004 	addi	r3,r3,4224
   32d10:	10c00015 	stw	r3,0(r2)
   32d14:	008000f4 	movhi	r2,3
   32d18:	1099e104 	addi	r2,r2,26500
   32d1c:	00c0bef4 	movhi	r3,763
   32d20:	18fc2004 	addi	r3,r3,-3968
   32d24:	10c00015 	stw	r3,0(r2)
    ALTERA_AVALON_FIFO_INIT ( FIFO_1_TO_2, fifo_1_to_2);
   32d28:	0001883a 	nop
    ALTERA_AVALON_FIFO_INIT ( FIFO_1_TO_4, fifo_1_to_4);
   32d2c:	0001883a 	nop
    ALTERA_AVALON_FIFO_INIT ( FIFO_1_TO_5, fifo_1_to_5);
   32d30:	0001883a 	nop
    ALTERA_AVALON_FIFO_INIT ( FIFO_1_TO_6, fifo_1_to_6);
   32d34:	0001883a 	nop
    ALTERA_AVALON_JTAG_UART_INIT ( JTAG_UART_1, jtag_uart_1);
   32d38:	010000f4 	movhi	r4,3
   32d3c:	2116d904 	addi	r4,r4,23396
   32d40:	0032c840 	call	32c84 <alt_dev_reg>
    ALTERA_AVALON_SYSID_QSYS_INIT ( SYSID_1, sysid_1);
   32d44:	0001883a 	nop
    ALTERA_HOSTFS_INIT ( ALTERA_HOSTFS, altera_hostfs);
   32d48:	010000f4 	movhi	r4,3
   32d4c:	2116e404 	addi	r4,r4,23440
   32d50:	0033a840 	call	33a84 <alt_fs_reg>
}
   32d54:	e037883a 	mov	sp,fp
   32d58:	dfc00117 	ldw	ra,4(sp)
   32d5c:	df000017 	ldw	fp,0(sp)
   32d60:	dec00204 	addi	sp,sp,8
   32d64:	f800283a 	ret

00032d68 <altera_avalon_jtag_uart_read_fd>:
 *
 */

int 
altera_avalon_jtag_uart_read_fd(alt_fd* fd, char* buffer, int space)
{
   32d68:	defffa04 	addi	sp,sp,-24
   32d6c:	dfc00515 	stw	ra,20(sp)
   32d70:	df000415 	stw	fp,16(sp)
   32d74:	df000404 	addi	fp,sp,16
   32d78:	e13ffd15 	stw	r4,-12(fp)
   32d7c:	e17ffe15 	stw	r5,-8(fp)
   32d80:	e1bfff15 	stw	r6,-4(fp)
    altera_avalon_jtag_uart_dev* dev = (altera_avalon_jtag_uart_dev*) fd->dev; 
   32d84:	e0bffd17 	ldw	r2,-12(fp)
   32d88:	10800017 	ldw	r2,0(r2)
   32d8c:	e0bffc15 	stw	r2,-16(fp)

    return altera_avalon_jtag_uart_read(&dev->state, buffer, space,
   32d90:	e0bffc17 	ldw	r2,-16(fp)
   32d94:	10c00a04 	addi	r3,r2,40
      fd->fd_flags);
   32d98:	e0bffd17 	ldw	r2,-12(fp)
int 
altera_avalon_jtag_uart_read_fd(alt_fd* fd, char* buffer, int space)
{
    altera_avalon_jtag_uart_dev* dev = (altera_avalon_jtag_uart_dev*) fd->dev; 

    return altera_avalon_jtag_uart_read(&dev->state, buffer, space,
   32d9c:	10800217 	ldw	r2,8(r2)
   32da0:	1809883a 	mov	r4,r3
   32da4:	e17ffe17 	ldw	r5,-8(fp)
   32da8:	e1bfff17 	ldw	r6,-4(fp)
   32dac:	100f883a 	mov	r7,r2
   32db0:	0032e280 	call	32e28 <altera_avalon_jtag_uart_read>
      fd->fd_flags);
}
   32db4:	e037883a 	mov	sp,fp
   32db8:	dfc00117 	ldw	ra,4(sp)
   32dbc:	df000017 	ldw	fp,0(sp)
   32dc0:	dec00204 	addi	sp,sp,8
   32dc4:	f800283a 	ret

00032dc8 <altera_avalon_jtag_uart_write_fd>:

int 
altera_avalon_jtag_uart_write_fd(alt_fd* fd, const char* buffer, int space)
{
   32dc8:	defffa04 	addi	sp,sp,-24
   32dcc:	dfc00515 	stw	ra,20(sp)
   32dd0:	df000415 	stw	fp,16(sp)
   32dd4:	df000404 	addi	fp,sp,16
   32dd8:	e13ffd15 	stw	r4,-12(fp)
   32ddc:	e17ffe15 	stw	r5,-8(fp)
   32de0:	e1bfff15 	stw	r6,-4(fp)
    altera_avalon_jtag_uart_dev* dev = (altera_avalon_jtag_uart_dev*) fd->dev; 
   32de4:	e0bffd17 	ldw	r2,-12(fp)
   32de8:	10800017 	ldw	r2,0(r2)
   32dec:	e0bffc15 	stw	r2,-16(fp)

    return altera_avalon_jtag_uart_write(&dev->state, buffer, space,
   32df0:	e0bffc17 	ldw	r2,-16(fp)
   32df4:	10c00a04 	addi	r3,r2,40
      fd->fd_flags);
   32df8:	e0bffd17 	ldw	r2,-12(fp)
int 
altera_avalon_jtag_uart_write_fd(alt_fd* fd, const char* buffer, int space)
{
    altera_avalon_jtag_uart_dev* dev = (altera_avalon_jtag_uart_dev*) fd->dev; 

    return altera_avalon_jtag_uart_write(&dev->state, buffer, space,
   32dfc:	10800217 	ldw	r2,8(r2)
   32e00:	1809883a 	mov	r4,r3
   32e04:	e17ffe17 	ldw	r5,-8(fp)
   32e08:	e1bfff17 	ldw	r6,-4(fp)
   32e0c:	100f883a 	mov	r7,r2
   32e10:	0032f1c0 	call	32f1c <altera_avalon_jtag_uart_write>
      fd->fd_flags);
}
   32e14:	e037883a 	mov	sp,fp
   32e18:	dfc00117 	ldw	ra,4(sp)
   32e1c:	df000017 	ldw	fp,0(sp)
   32e20:	dec00204 	addi	sp,sp,8
   32e24:	f800283a 	ret

00032e28 <altera_avalon_jtag_uart_read>:
 */

int 
altera_avalon_jtag_uart_read(altera_avalon_jtag_uart_state* sp, 
  char* buffer, int space, int flags)
{
   32e28:	defff704 	addi	sp,sp,-36
   32e2c:	df000815 	stw	fp,32(sp)
   32e30:	df000804 	addi	fp,sp,32
   32e34:	e13ffc15 	stw	r4,-16(fp)
   32e38:	e17ffd15 	stw	r5,-12(fp)
   32e3c:	e1bffe15 	stw	r6,-8(fp)
   32e40:	e1ffff15 	stw	r7,-4(fp)
  unsigned int base = sp->base;
   32e44:	e0bffc17 	ldw	r2,-16(fp)
   32e48:	10800017 	ldw	r2,0(r2)
   32e4c:	e0bff915 	stw	r2,-28(fp)

  char * ptr = buffer;
   32e50:	e0bffd17 	ldw	r2,-12(fp)
   32e54:	e0bff815 	stw	r2,-32(fp)
  char * end = buffer + space;
   32e58:	e0bffe17 	ldw	r2,-8(fp)
   32e5c:	e0fffd17 	ldw	r3,-12(fp)
   32e60:	1885883a 	add	r2,r3,r2
   32e64:	e0bffa15 	stw	r2,-24(fp)

  while (ptr < end)
   32e68:	00001406 	br	32ebc <altera_avalon_jtag_uart_read+0x94>
  {
    unsigned int data = IORD_ALTERA_AVALON_JTAG_UART_DATA(base);
   32e6c:	e0bff917 	ldw	r2,-28(fp)
   32e70:	10800037 	ldwio	r2,0(r2)
   32e74:	e0bffb15 	stw	r2,-20(fp)

    if (data & ALTERA_AVALON_JTAG_UART_DATA_RVALID_MSK)
   32e78:	e0bffb17 	ldw	r2,-20(fp)
   32e7c:	10a0000c 	andi	r2,r2,32768
   32e80:	10000826 	beq	r2,zero,32ea4 <altera_avalon_jtag_uart_read+0x7c>
      *ptr++ = (data & ALTERA_AVALON_JTAG_UART_DATA_DATA_MSK) >> ALTERA_AVALON_JTAG_UART_DATA_DATA_OFST;
   32e84:	e0bffb17 	ldw	r2,-20(fp)
   32e88:	1007883a 	mov	r3,r2
   32e8c:	e0bff817 	ldw	r2,-32(fp)
   32e90:	10c00005 	stb	r3,0(r2)
   32e94:	e0bff817 	ldw	r2,-32(fp)
   32e98:	10800044 	addi	r2,r2,1
   32e9c:	e0bff815 	stw	r2,-32(fp)
   32ea0:	00000606 	br	32ebc <altera_avalon_jtag_uart_read+0x94>
    else if (ptr != buffer)
   32ea4:	e0fff817 	ldw	r3,-32(fp)
   32ea8:	e0bffd17 	ldw	r2,-12(fp)
   32eac:	1880071e 	bne	r3,r2,32ecc <altera_avalon_jtag_uart_read+0xa4>
      break;
    else if(flags & O_NONBLOCK)
   32eb0:	e0bfff17 	ldw	r2,-4(fp)
   32eb4:	1090000c 	andi	r2,r2,16384
   32eb8:	1000061e 	bne	r2,zero,32ed4 <altera_avalon_jtag_uart_read+0xac>
  unsigned int base = sp->base;

  char * ptr = buffer;
  char * end = buffer + space;

  while (ptr < end)
   32ebc:	e0fff817 	ldw	r3,-32(fp)
   32ec0:	e0bffa17 	ldw	r2,-24(fp)
   32ec4:	18bfe936 	bltu	r3,r2,32e6c <altera_avalon_jtag_uart_read+0x44>
   32ec8:	00000306 	br	32ed8 <altera_avalon_jtag_uart_read+0xb0>
    unsigned int data = IORD_ALTERA_AVALON_JTAG_UART_DATA(base);

    if (data & ALTERA_AVALON_JTAG_UART_DATA_RVALID_MSK)
      *ptr++ = (data & ALTERA_AVALON_JTAG_UART_DATA_DATA_MSK) >> ALTERA_AVALON_JTAG_UART_DATA_DATA_OFST;
    else if (ptr != buffer)
      break;
   32ecc:	0001883a 	nop
   32ed0:	00000106 	br	32ed8 <altera_avalon_jtag_uart_read+0xb0>
    else if(flags & O_NONBLOCK)
      break;   
   32ed4:	0001883a 	nop
    
  }

  if (ptr != buffer)
   32ed8:	e0fff817 	ldw	r3,-32(fp)
   32edc:	e0bffd17 	ldw	r2,-12(fp)
   32ee0:	18800426 	beq	r3,r2,32ef4 <altera_avalon_jtag_uart_read+0xcc>
    return ptr - buffer;
   32ee4:	e0fff817 	ldw	r3,-32(fp)
   32ee8:	e0bffd17 	ldw	r2,-12(fp)
   32eec:	1885c83a 	sub	r2,r3,r2
   32ef0:	00000606 	br	32f0c <altera_avalon_jtag_uart_read+0xe4>
  else if (flags & O_NONBLOCK)
   32ef4:	e0bfff17 	ldw	r2,-4(fp)
   32ef8:	1090000c 	andi	r2,r2,16384
   32efc:	10000226 	beq	r2,zero,32f08 <altera_avalon_jtag_uart_read+0xe0>
    return -EWOULDBLOCK;
   32f00:	00bffd44 	movi	r2,-11
   32f04:	00000106 	br	32f0c <altera_avalon_jtag_uart_read+0xe4>
  else
    return -EIO;
   32f08:	00bffec4 	movi	r2,-5
}
   32f0c:	e037883a 	mov	sp,fp
   32f10:	df000017 	ldw	fp,0(sp)
   32f14:	dec00104 	addi	sp,sp,4
   32f18:	f800283a 	ret

00032f1c <altera_avalon_jtag_uart_write>:
 * one FIFOs worth of data.  But you said you didn't want to use interrupts :-)
 */

int altera_avalon_jtag_uart_write(altera_avalon_jtag_uart_state* sp, 
  const char * ptr, int count, int flags)
{
   32f1c:	defff904 	addi	sp,sp,-28
   32f20:	df000615 	stw	fp,24(sp)
   32f24:	df000604 	addi	fp,sp,24
   32f28:	e13ffc15 	stw	r4,-16(fp)
   32f2c:	e17ffd15 	stw	r5,-12(fp)
   32f30:	e1bffe15 	stw	r6,-8(fp)
   32f34:	e1ffff15 	stw	r7,-4(fp)
  unsigned int base = sp->base;
   32f38:	e0bffc17 	ldw	r2,-16(fp)
   32f3c:	10800017 	ldw	r2,0(r2)
   32f40:	e0bffa15 	stw	r2,-24(fp)

  const char * end = ptr + count;
   32f44:	e0bffe17 	ldw	r2,-8(fp)
   32f48:	e0fffd17 	ldw	r3,-12(fp)
   32f4c:	1885883a 	add	r2,r3,r2
   32f50:	e0bffb15 	stw	r2,-20(fp)

  while (ptr < end)
   32f54:	00000f06 	br	32f94 <altera_avalon_jtag_uart_write+0x78>
    if ((IORD_ALTERA_AVALON_JTAG_UART_CONTROL(base) & ALTERA_AVALON_JTAG_UART_CONTROL_WSPACE_MSK) != 0)
   32f58:	e0bffa17 	ldw	r2,-24(fp)
   32f5c:	10800104 	addi	r2,r2,4
   32f60:	10800037 	ldwio	r2,0(r2)
   32f64:	10bfffec 	andhi	r2,r2,65535
   32f68:	10000a26 	beq	r2,zero,32f94 <altera_avalon_jtag_uart_write+0x78>
      IOWR_ALTERA_AVALON_JTAG_UART_DATA(base, *ptr++);
   32f6c:	e0bffa17 	ldw	r2,-24(fp)
   32f70:	e0fffd17 	ldw	r3,-12(fp)
   32f74:	18c00003 	ldbu	r3,0(r3)
   32f78:	18c03fcc 	andi	r3,r3,255
   32f7c:	18c0201c 	xori	r3,r3,128
   32f80:	18ffe004 	addi	r3,r3,-128
   32f84:	e13ffd17 	ldw	r4,-12(fp)
   32f88:	21000044 	addi	r4,r4,1
   32f8c:	e13ffd15 	stw	r4,-12(fp)
   32f90:	10c00035 	stwio	r3,0(r2)
{
  unsigned int base = sp->base;

  const char * end = ptr + count;

  while (ptr < end)
   32f94:	e0fffd17 	ldw	r3,-12(fp)
   32f98:	e0bffb17 	ldw	r2,-20(fp)
   32f9c:	18bfee36 	bltu	r3,r2,32f58 <altera_avalon_jtag_uart_write+0x3c>
    if ((IORD_ALTERA_AVALON_JTAG_UART_CONTROL(base) & ALTERA_AVALON_JTAG_UART_CONTROL_WSPACE_MSK) != 0)
      IOWR_ALTERA_AVALON_JTAG_UART_DATA(base, *ptr++);

  return count;
   32fa0:	e0bffe17 	ldw	r2,-8(fp)
}
   32fa4:	e037883a 	mov	sp,fp
   32fa8:	df000017 	ldw	fp,0(sp)
   32fac:	dec00104 	addi	sp,sp,4
   32fb0:	f800283a 	ret

00032fb4 <alt_timestamp_start>:
 * The return value of this function is 0 upon sucess and -1 if in timestamp
 * device has not been registered. 
 */

int alt_timestamp_start(void)
{
   32fb4:	defffe04 	addi	sp,sp,-8
   32fb8:	df000115 	stw	fp,4(sp)
   32fbc:	df000104 	addi	fp,sp,4
  void* base = altera_avalon_timer_ts_base;
   32fc0:	008000f4 	movhi	r2,3
   32fc4:	1099e004 	addi	r2,r2,26496
   32fc8:	10800017 	ldw	r2,0(r2)
   32fcc:	e0bfff15 	stw	r2,-4(fp)

  if (!altera_avalon_timer_ts_freq)
   32fd0:	008000f4 	movhi	r2,3
   32fd4:	1099e104 	addi	r2,r2,26500
   32fd8:	10800017 	ldw	r2,0(r2)
   32fdc:	1000021e 	bne	r2,zero,32fe8 <alt_timestamp_start+0x34>
  {
    return -1;
   32fe0:	00bfffc4 	movi	r2,-1
   32fe4:	00001106 	br	3302c <alt_timestamp_start+0x78>
        IOWR_ALTERA_AVALON_TIMER_PERIOD_1 (base, 0xFFFF);;
        IOWR_ALTERA_AVALON_TIMER_PERIOD_2 (base, 0xFFFF);
        IOWR_ALTERA_AVALON_TIMER_PERIOD_3 (base, 0xFFFF);
        IOWR_ALTERA_AVALON_TIMER_CONTROL (base, ALTERA_AVALON_TIMER_CONTROL_START_MSK);
    } else {
        IOWR_ALTERA_AVALON_TIMER_CONTROL (base,ALTERA_AVALON_TIMER_CONTROL_STOP_MSK);
   32fe8:	e0bfff17 	ldw	r2,-4(fp)
   32fec:	10800104 	addi	r2,r2,4
   32ff0:	00c00204 	movi	r3,8
   32ff4:	10c00035 	stwio	r3,0(r2)
        IOWR_ALTERA_AVALON_TIMER_PERIODL (base, 0xFFFF);
   32ff8:	e0bfff17 	ldw	r2,-4(fp)
   32ffc:	10800204 	addi	r2,r2,8
   33000:	00ffffd4 	movui	r3,65535
   33004:	10c00035 	stwio	r3,0(r2)
        IOWR_ALTERA_AVALON_TIMER_PERIODH (base, 0xFFFF);
   33008:	e0bfff17 	ldw	r2,-4(fp)
   3300c:	10800304 	addi	r2,r2,12
   33010:	00ffffd4 	movui	r3,65535
   33014:	10c00035 	stwio	r3,0(r2)
        IOWR_ALTERA_AVALON_TIMER_CONTROL (base, ALTERA_AVALON_TIMER_CONTROL_START_MSK); 
   33018:	e0bfff17 	ldw	r2,-4(fp)
   3301c:	10800104 	addi	r2,r2,4
   33020:	00c00104 	movi	r3,4
   33024:	10c00035 	stwio	r3,0(r2)
    } 
  }
  return 0;
   33028:	0005883a 	mov	r2,zero
}
   3302c:	e037883a 	mov	sp,fp
   33030:	df000017 	ldw	fp,0(sp)
   33034:	dec00104 	addi	sp,sp,4
   33038:	f800283a 	ret

0003303c <alt_timestamp>:
 * The returned timestamp counts up from the last time the period register
 * was reset. 
 */

alt_timestamp_type alt_timestamp(void)
{
   3303c:	defffc04 	addi	sp,sp,-16
   33040:	df000315 	stw	fp,12(sp)
   33044:	df000304 	addi	fp,sp,12

  void* base = altera_avalon_timer_ts_base;
   33048:	008000f4 	movhi	r2,3
   3304c:	1099e004 	addi	r2,r2,26496
   33050:	10800017 	ldw	r2,0(r2)
   33054:	e0bffd15 	stw	r2,-12(fp)

  if (!altera_avalon_timer_ts_freq)
   33058:	008000f4 	movhi	r2,3
   3305c:	1099e104 	addi	r2,r2,26500
   33060:	10800017 	ldw	r2,0(r2)
   33064:	1000021e 	bne	r2,zero,33070 <alt_timestamp+0x34>
  {
	if(ALT_TIMESTAMP_COUNTER_SIZE == 64) {
        return 0xFFFFFFFFFFFFFFFFULL;
    } else {
        return 0xFFFFFFFF;
   33068:	00bfffc4 	movi	r2,-1
   3306c:	00001306 	br	330bc <alt_timestamp+0x80>
        alt_timestamp_type snap_2 = IORD_ALTERA_AVALON_TIMER_SNAP_2(base) & ALTERA_AVALON_TIMER_SNAP_2_MSK;
        alt_timestamp_type snap_3 = IORD_ALTERA_AVALON_TIMER_SNAP_3(base) & ALTERA_AVALON_TIMER_SNAP_3_MSK;
        
        return (0xFFFFFFFFFFFFFFFFULL - ( (snap_3 << 48) | (snap_2 << 32) | (snap_1 << 16) | (snap_0) ));
    } else {
        IOWR_ALTERA_AVALON_TIMER_SNAPL (base, 0);
   33070:	e0bffd17 	ldw	r2,-12(fp)
   33074:	10800404 	addi	r2,r2,16
   33078:	0007883a 	mov	r3,zero
   3307c:	10c00035 	stwio	r3,0(r2)
        alt_timestamp_type lower = IORD_ALTERA_AVALON_TIMER_SNAPL(base) & ALTERA_AVALON_TIMER_SNAPL_MSK;
   33080:	e0bffd17 	ldw	r2,-12(fp)
   33084:	10800404 	addi	r2,r2,16
   33088:	10800037 	ldwio	r2,0(r2)
   3308c:	10bfffcc 	andi	r2,r2,65535
   33090:	e0bffe15 	stw	r2,-8(fp)
        alt_timestamp_type upper = IORD_ALTERA_AVALON_TIMER_SNAPH(base) & ALTERA_AVALON_TIMER_SNAPH_MSK;
   33094:	e0bffd17 	ldw	r2,-12(fp)
   33098:	10800504 	addi	r2,r2,20
   3309c:	10800037 	ldwio	r2,0(r2)
   330a0:	10bfffcc 	andi	r2,r2,65535
   330a4:	e0bfff15 	stw	r2,-4(fp)
        
        return (0xFFFFFFFF - ((upper << 16) | lower)); 
   330a8:	e0bfff17 	ldw	r2,-4(fp)
   330ac:	1006943a 	slli	r3,r2,16
   330b0:	e0bffe17 	ldw	r2,-8(fp)
   330b4:	1884b03a 	or	r2,r3,r2
   330b8:	0084303a 	nor	r2,zero,r2
    }  
  }
}
   330bc:	e037883a 	mov	sp,fp
   330c0:	df000017 	ldw	fp,0(sp)
   330c4:	dec00104 	addi	sp,sp,4
   330c8:	f800283a 	ret

000330cc <alt_timestamp_freq>:
 * Return the number of timestamp ticks per second. This will be 0 if no
 * timestamp device has been registered.
 */

alt_u32 alt_timestamp_freq(void)
{
   330cc:	deffff04 	addi	sp,sp,-4
   330d0:	df000015 	stw	fp,0(sp)
   330d4:	d839883a 	mov	fp,sp
  return altera_avalon_timer_ts_freq;
   330d8:	008000f4 	movhi	r2,3
   330dc:	1099e104 	addi	r2,r2,26500
   330e0:	10800017 	ldw	r2,0(r2)
}
   330e4:	e037883a 	mov	sp,fp
   330e8:	df000017 	ldw	fp,0(sp)
   330ec:	dec00104 	addi	sp,sp,4
   330f0:	f800283a 	ret

000330f4 <alt_hostfs_open>:
* alt_hostfs_open
*
* If we can't find anything return -1
*/
int alt_hostfs_open(alt_fd* fd, const char * name, int flags, int mode)
{
   330f4:	deffeb04 	addi	sp,sp,-84
   330f8:	df001415 	stw	fp,80(sp)
   330fc:	dc401315 	stw	r17,76(sp)
   33100:	dc001215 	stw	r16,72(sp)
   33104:	df001204 	addi	fp,sp,72
   33108:	e13ffb15 	stw	r4,-20(fp)
   3310c:	e17ffc15 	stw	r5,-16(fp)
   33110:	e1bffd15 	stw	r6,-12(fp)
   33114:	e1fffe15 	stw	r7,-8(fp)
  static const struct HOSTCALL_INFO hcinfo = { 0x0103, "open" };

  alt_hostfs_dev* dev= (alt_hostfs_dev*)fd->dev;
   33118:	e0bffb17 	ldw	r2,-20(fp)
   3311c:	10800017 	ldw	r2,0(r2)
   33120:	e0bfee15 	stw	r2,-72(fp)
#endif

  /* Mount point names don't end with a slash, so we must skip over the
   * slash following the mount point name.
  */
  name += inline_strlen(dev->fs_dev.name) + 1;
   33124:	e0bfee17 	ldw	r2,-72(fp)
   33128:	10800217 	ldw	r2,8(r2)
   3312c:	e0bff715 	stw	r2,-36(fp)
};

static inline int inline_strlen(const char * string) ALT_ALWAYS_INLINE;
static inline int inline_strlen(const char * string)
{
  const char * ptr = string - 1;
   33130:	e0bff717 	ldw	r2,-36(fp)
   33134:	10bfffc4 	addi	r2,r2,-1
   33138:	e0bff815 	stw	r2,-32(fp)

  while (*++ptr != 0)
   3313c:	e0bff817 	ldw	r2,-32(fp)
   33140:	10800044 	addi	r2,r2,1
   33144:	e0bff815 	stw	r2,-32(fp)
   33148:	e0bff817 	ldw	r2,-32(fp)
   3314c:	10800003 	ldbu	r2,0(r2)
   33150:	10803fcc 	andi	r2,r2,255
   33154:	1080201c 	xori	r2,r2,128
   33158:	10bfe004 	addi	r2,r2,-128
   3315c:	103ff71e 	bne	r2,zero,3313c <alt_hostfs_open+0x48>
    ;

  return ptr - string;
   33160:	e0fff817 	ldw	r3,-32(fp)
   33164:	e0bff717 	ldw	r2,-36(fp)
   33168:	1885c83a 	sub	r2,r3,r2
#endif

  /* Mount point names don't end with a slash, so we must skip over the
   * slash following the mount point name.
  */
  name += inline_strlen(dev->fs_dev.name) + 1;
   3316c:	10800044 	addi	r2,r2,1
   33170:	e0fffc17 	ldw	r3,-16(fp)
   33174:	1885883a 	add	r2,r3,r2
   33178:	e0bffc15 	stw	r2,-16(fp)

  r3 = (int)&hcinfo;
   3317c:	d0a01c04 	addi	r2,gp,-32656
   33180:	e0bfef15 	stw	r2,-68(fp)
  r4 = (int)name;
   33184:	e0bffc17 	ldw	r2,-16(fp)
   33188:	e0bff015 	stw	r2,-64(fp)
  r5 = flags;
   3318c:	e0bffd17 	ldw	r2,-12(fp)
   33190:	e0bff115 	stw	r2,-60(fp)
  r6 = mode;
   33194:	e0bffe17 	ldw	r2,-8(fp)
   33198:	e0bff215 	stw	r2,-56(fp)
   3319c:	e0bffc17 	ldw	r2,-16(fp)
   331a0:	e0bff915 	stw	r2,-28(fp)
};

static inline int inline_strlen(const char * string) ALT_ALWAYS_INLINE;
static inline int inline_strlen(const char * string)
{
  const char * ptr = string - 1;
   331a4:	e0bff917 	ldw	r2,-28(fp)
   331a8:	10bfffc4 	addi	r2,r2,-1
   331ac:	e0bffa15 	stw	r2,-24(fp)

  while (*++ptr != 0)
   331b0:	e0bffa17 	ldw	r2,-24(fp)
   331b4:	10800044 	addi	r2,r2,1
   331b8:	e0bffa15 	stw	r2,-24(fp)
   331bc:	e0bffa17 	ldw	r2,-24(fp)
   331c0:	10800003 	ldbu	r2,0(r2)
   331c4:	10803fcc 	andi	r2,r2,255
   331c8:	1080201c 	xori	r2,r2,128
   331cc:	10bfe004 	addi	r2,r2,-128
   331d0:	103ff71e 	bne	r2,zero,331b0 <alt_hostfs_open+0xbc>
    ;

  return ptr - string;
   331d4:	e0fffa17 	ldw	r3,-24(fp)
   331d8:	e0bff917 	ldw	r2,-28(fp)
   331dc:	1885c83a 	sub	r2,r3,r2

  r3 = (int)&hcinfo;
  r4 = (int)name;
  r5 = flags;
  r6 = mode;
  r7 = inline_strlen(name);
   331e0:	e0bff315 	stw	r2,-52(fp)

  __asm__ volatile("break 1" : "=D02" (r2), "+D03" (r3) : "D04" (r4), "D05" (r5), "D06" (r6), "D07" (r7) : "memory" );
   331e4:	e13ff017 	ldw	r4,-64(fp)
   331e8:	e13fff15 	stw	r4,-4(fp)
   331ec:	e17ff117 	ldw	r5,-60(fp)
   331f0:	e1bff217 	ldw	r6,-56(fp)
   331f4:	e1fff317 	ldw	r7,-52(fp)
   331f8:	e0ffef17 	ldw	r3,-68(fp)
   331fc:	1821883a 	mov	r16,r3
   33200:	8007883a 	mov	r3,r16
   33204:	e13fff17 	ldw	r4,-4(fp)
   33208:	003da07a 	break	1
   3320c:	1821883a 	mov	r16,r3
   33210:	1023883a 	mov	r17,r2
   33214:	e47ff415 	stw	r17,-48(fp)
   33218:	e43fef15 	stw	r16,-68(fp)

  handle = (void *)r2;
   3321c:	e0bff417 	ldw	r2,-48(fp)
   33220:	e0bff515 	stw	r2,-44(fp)
  error = r3;
   33224:	e0bfef17 	ldw	r2,-68(fp)
   33228:	e0bff615 	stw	r2,-40(fp)

  if (error == 0)
   3322c:	e0bff617 	ldw	r2,-40(fp)
   33230:	1000031e 	bne	r2,zero,33240 <alt_hostfs_open+0x14c>
    fd->priv = handle;
   33234:	e0bffb17 	ldw	r2,-20(fp)
   33238:	e0fff517 	ldw	r3,-44(fp)
   3323c:	10c00115 	stw	r3,4(r2)

  return -error;
   33240:	e0bff617 	ldw	r2,-40(fp)
   33244:	0085c83a 	sub	r2,zero,r2
}
   33248:	e037883a 	mov	sp,fp
   3324c:	df000217 	ldw	fp,8(sp)
   33250:	dc400117 	ldw	r17,4(sp)
   33254:	dc000017 	ldw	r16,0(sp)
   33258:	dec00304 	addi	sp,sp,12
   3325c:	f800283a 	ret

00033260 <alt_hostfs_close>:
* alt_hostfs_close
*
* Read the file
*/
int alt_hostfs_close(alt_fd* fd)
{
   33260:	defffa04 	addi	sp,sp,-24
   33264:	df000515 	stw	fp,20(sp)
   33268:	dc000415 	stw	r16,16(sp)
   3326c:	df000404 	addi	fp,sp,16
   33270:	e13fff15 	stw	r4,-4(fp)
  int error;

  /* Input and output parameters for the hostcall */
  int r3, r4;

  r3 = (int)&hcinfo;
   33274:	d0a01904 	addi	r2,gp,-32668
   33278:	e0bffc15 	stw	r2,-16(fp)
  r4 = (int)fd->priv;
   3327c:	e0bfff17 	ldw	r2,-4(fp)
   33280:	10800117 	ldw	r2,4(r2)
   33284:	e0bffd15 	stw	r2,-12(fp)

  __asm__ volatile("break 1" : "+D03" (r3) : "D04" (r4) );
   33288:	e0bffd17 	ldw	r2,-12(fp)
   3328c:	e0fffc17 	ldw	r3,-16(fp)
   33290:	1821883a 	mov	r16,r3
   33294:	8007883a 	mov	r3,r16
   33298:	1009883a 	mov	r4,r2
   3329c:	003da07a 	break	1
   332a0:	1821883a 	mov	r16,r3
   332a4:	e43ffc15 	stw	r16,-16(fp)

  error = r3;
   332a8:	e0bffc17 	ldw	r2,-16(fp)
   332ac:	e0bffe15 	stw	r2,-8(fp)

  return -error;
   332b0:	e0bffe17 	ldw	r2,-8(fp)
   332b4:	0085c83a 	sub	r2,zero,r2
}
   332b8:	e037883a 	mov	sp,fp
   332bc:	df000117 	ldw	fp,4(sp)
   332c0:	dc000017 	ldw	r16,0(sp)
   332c4:	dec00204 	addi	sp,sp,8
   332c8:	f800283a 	ret

000332cc <alt_hostfs_read>:
* alt_hostfs_read
*
* Read the file
*/
int alt_hostfs_read(alt_fd* fd, char * ptr, int len)
{
   332cc:	defff204 	addi	sp,sp,-56
   332d0:	df000d15 	stw	fp,52(sp)
   332d4:	dc400c15 	stw	r17,48(sp)
   332d8:	dc000b15 	stw	r16,44(sp)
   332dc:	df000b04 	addi	fp,sp,44
   332e0:	e13ffc15 	stw	r4,-16(fp)
   332e4:	e17ffd15 	stw	r5,-12(fp)
   332e8:	e1bffe15 	stw	r6,-8(fp)
  int rc;

  /* Input and output parameters for the hostcall */
  int r2, r3, r4, r5, r6;

  r3 = (int)&hcinfo;
   332ec:	d0a01604 	addi	r2,gp,-32680
   332f0:	e0bff515 	stw	r2,-44(fp)
  r4 = (int)fd->priv;
   332f4:	e0bffc17 	ldw	r2,-16(fp)
   332f8:	10800117 	ldw	r2,4(r2)
   332fc:	e0bff615 	stw	r2,-40(fp)
  r5 = (int)ptr;
   33300:	e0bffd17 	ldw	r2,-12(fp)
   33304:	e0bff715 	stw	r2,-36(fp)
  r6 = len;
   33308:	e0bffe17 	ldw	r2,-8(fp)
   3330c:	e0bff815 	stw	r2,-32(fp)

  __asm__ volatile("break 1" : "=D02" (r2), "+D03" (r3) : "D04" (r4), "D05" (r5), "D06" (r6) : "memory" );
   33310:	e13ff617 	ldw	r4,-40(fp)
   33314:	e13fff15 	stw	r4,-4(fp)
   33318:	e17ff717 	ldw	r5,-36(fp)
   3331c:	e1bff817 	ldw	r6,-32(fp)
   33320:	e0fff517 	ldw	r3,-44(fp)
   33324:	1821883a 	mov	r16,r3
   33328:	8007883a 	mov	r3,r16
   3332c:	e13fff17 	ldw	r4,-4(fp)
   33330:	003da07a 	break	1
   33334:	1821883a 	mov	r16,r3
   33338:	1023883a 	mov	r17,r2
   3333c:	e47ff915 	stw	r17,-28(fp)
   33340:	e43ff515 	stw	r16,-44(fp)

  rc = r2;
   33344:	e0bff917 	ldw	r2,-28(fp)
   33348:	e0bffa15 	stw	r2,-24(fp)
  error = r3;
   3334c:	e0bff517 	ldw	r2,-44(fp)
   33350:	e0bffb15 	stw	r2,-20(fp)

  return (error == 0) ? rc : -error;
   33354:	e0bffb17 	ldw	r2,-20(fp)
   33358:	10000326 	beq	r2,zero,33368 <alt_hostfs_read+0x9c>
   3335c:	e0bffb17 	ldw	r2,-20(fp)
   33360:	0085c83a 	sub	r2,zero,r2
   33364:	00000106 	br	3336c <alt_hostfs_read+0xa0>
   33368:	e0bffa17 	ldw	r2,-24(fp)
}
   3336c:	e037883a 	mov	sp,fp
   33370:	df000217 	ldw	fp,8(sp)
   33374:	dc400117 	ldw	r17,4(sp)
   33378:	dc000017 	ldw	r16,0(sp)
   3337c:	dec00304 	addi	sp,sp,12
   33380:	f800283a 	ret

00033384 <alt_hostfs_write>:
* alt_hostfs_write
*
* Read the file
*/
int alt_hostfs_write(alt_fd* fd, const char * ptr, int len)
{
   33384:	defff204 	addi	sp,sp,-56
   33388:	df000d15 	stw	fp,52(sp)
   3338c:	dc400c15 	stw	r17,48(sp)
   33390:	dc000b15 	stw	r16,44(sp)
   33394:	df000b04 	addi	fp,sp,44
   33398:	e13ffc15 	stw	r4,-16(fp)
   3339c:	e17ffd15 	stw	r5,-12(fp)
   333a0:	e1bffe15 	stw	r6,-8(fp)
  int rc;

  /* Input and output parameters for the hostcall */
  int r2, r3, r4, r5, r6;

  r3 = (int)&hcinfo;
   333a4:	d0a01304 	addi	r2,gp,-32692
   333a8:	e0bff515 	stw	r2,-44(fp)
  r4 = (int)fd->priv;
   333ac:	e0bffc17 	ldw	r2,-16(fp)
   333b0:	10800117 	ldw	r2,4(r2)
   333b4:	e0bff615 	stw	r2,-40(fp)
  r5 = (int)ptr;
   333b8:	e0bffd17 	ldw	r2,-12(fp)
   333bc:	e0bff715 	stw	r2,-36(fp)
  r6 = len;
   333c0:	e0bffe17 	ldw	r2,-8(fp)
   333c4:	e0bff815 	stw	r2,-32(fp)

  __asm__ volatile("break 1" : "=D02" (r2), "+D03" (r3) : "D04" (r4), "D05" (r5), "D06" (r6) : "memory" );
   333c8:	e13ff617 	ldw	r4,-40(fp)
   333cc:	e13fff15 	stw	r4,-4(fp)
   333d0:	e17ff717 	ldw	r5,-36(fp)
   333d4:	e1bff817 	ldw	r6,-32(fp)
   333d8:	e0fff517 	ldw	r3,-44(fp)
   333dc:	1821883a 	mov	r16,r3
   333e0:	8007883a 	mov	r3,r16
   333e4:	e13fff17 	ldw	r4,-4(fp)
   333e8:	003da07a 	break	1
   333ec:	1821883a 	mov	r16,r3
   333f0:	1023883a 	mov	r17,r2
   333f4:	e47ff915 	stw	r17,-28(fp)
   333f8:	e43ff515 	stw	r16,-44(fp)

  rc = r2;
   333fc:	e0bff917 	ldw	r2,-28(fp)
   33400:	e0bffa15 	stw	r2,-24(fp)
  error = r3;
   33404:	e0bff517 	ldw	r2,-44(fp)
   33408:	e0bffb15 	stw	r2,-20(fp)

  return (error == 0) ? rc : -error;
   3340c:	e0bffb17 	ldw	r2,-20(fp)
   33410:	10000326 	beq	r2,zero,33420 <alt_hostfs_write+0x9c>
   33414:	e0bffb17 	ldw	r2,-20(fp)
   33418:	0085c83a 	sub	r2,zero,r2
   3341c:	00000106 	br	33424 <alt_hostfs_write+0xa0>
   33420:	e0bffa17 	ldw	r2,-24(fp)
}
   33424:	e037883a 	mov	sp,fp
   33428:	df000217 	ldw	fp,8(sp)
   3342c:	dc400117 	ldw	r17,4(sp)
   33430:	dc000017 	ldw	r16,0(sp)
   33434:	dec00304 	addi	sp,sp,12
   33438:	f800283a 	ret

0003343c <alt_hostfs_seek>:
* Move around within a file
*
* returns -errno for an error or the offset within the file
*/
int alt_hostfs_seek(alt_fd* fd, int ptr, int dir)
{
   3343c:	defff204 	addi	sp,sp,-56
   33440:	df000d15 	stw	fp,52(sp)
   33444:	dc400c15 	stw	r17,48(sp)
   33448:	dc000b15 	stw	r16,44(sp)
   3344c:	df000b04 	addi	fp,sp,44
   33450:	e13ffc15 	stw	r4,-16(fp)
   33454:	e17ffd15 	stw	r5,-12(fp)
   33458:	e1bffe15 	stw	r6,-8(fp)
  int rc;

  /* Input and output parameters for the hostcall */
  int r2, r3, r4, r5, r6;

  r3 = (int)&hcinfo;
   3345c:	d0a01004 	addi	r2,gp,-32704
   33460:	e0bff515 	stw	r2,-44(fp)
  r4 = (int)fd->priv;
   33464:	e0bffc17 	ldw	r2,-16(fp)
   33468:	10800117 	ldw	r2,4(r2)
   3346c:	e0bff615 	stw	r2,-40(fp)
  r5 = ptr;
   33470:	e0bffd17 	ldw	r2,-12(fp)
   33474:	e0bff715 	stw	r2,-36(fp)
  r6 = dir;
   33478:	e0bffe17 	ldw	r2,-8(fp)
   3347c:	e0bff815 	stw	r2,-32(fp)

  __asm__ volatile("break 1" : "=D02" (r2), "+D03" (r3) : "D04" (r4), "D05" (r5), "D06" (r6) : "memory" );
   33480:	e13ff617 	ldw	r4,-40(fp)
   33484:	e13fff15 	stw	r4,-4(fp)
   33488:	e17ff717 	ldw	r5,-36(fp)
   3348c:	e1bff817 	ldw	r6,-32(fp)
   33490:	e0fff517 	ldw	r3,-44(fp)
   33494:	1821883a 	mov	r16,r3
   33498:	8007883a 	mov	r3,r16
   3349c:	e13fff17 	ldw	r4,-4(fp)
   334a0:	003da07a 	break	1
   334a4:	1821883a 	mov	r16,r3
   334a8:	1023883a 	mov	r17,r2
   334ac:	e47ff915 	stw	r17,-28(fp)
   334b0:	e43ff515 	stw	r16,-44(fp)

  rc = r2;
   334b4:	e0bff917 	ldw	r2,-28(fp)
   334b8:	e0bffa15 	stw	r2,-24(fp)
  error = r3;
   334bc:	e0bff517 	ldw	r2,-44(fp)
   334c0:	e0bffb15 	stw	r2,-20(fp)

  return (error == 0) ? rc : -error;
   334c4:	e0bffb17 	ldw	r2,-20(fp)
   334c8:	10000326 	beq	r2,zero,334d8 <alt_hostfs_seek+0x9c>
   334cc:	e0bffb17 	ldw	r2,-20(fp)
   334d0:	0085c83a 	sub	r2,zero,r2
   334d4:	00000106 	br	334dc <alt_hostfs_seek+0xa0>
   334d8:	e0bffa17 	ldw	r2,-24(fp)
}
   334dc:	e037883a 	mov	sp,fp
   334e0:	df000217 	ldw	fp,8(sp)
   334e4:	dc400117 	ldw	r17,4(sp)
   334e8:	dc000017 	ldw	r16,0(sp)
   334ec:	dec00304 	addi	sp,sp,12
   334f0:	f800283a 	ret

000334f4 <alt_hostfs_fstat>:
* at the lower address.
* We need to copy the structure and byte swap it to make it match our local
* layout of struct stat.
*/
int alt_hostfs_fstat(alt_fd* fd, struct stat* st)
{
   334f4:	deffe204 	addi	sp,sp,-120
   334f8:	df001d15 	stw	fp,116(sp)
   334fc:	dc401c15 	stw	r17,112(sp)
   33500:	dc001b15 	stw	r16,108(sp)
   33504:	df001b04 	addi	fp,sp,108
   33508:	e13ffd15 	stw	r4,-12(fp)
   3350c:	e17ffe15 	stw	r5,-8(fp)
  int rc;

  /* Input and output parameters for the hostcall */
  int r2, r3, r4, r5;

  r3 = (int)&hcinfo;
   33510:	d0a00d04 	addi	r2,gp,-32716
   33514:	e0bfe615 	stw	r2,-104(fp)
  r4 = (int)fd->priv;
   33518:	e0bffd17 	ldw	r2,-12(fp)
   3351c:	10800117 	ldw	r2,4(r2)
   33520:	e0bfe715 	stw	r2,-100(fp)
  r5 = (int)&hoststat;
   33524:	e0bfed04 	addi	r2,fp,-76
   33528:	e0bfe815 	stw	r2,-96(fp)

  __asm__ volatile("break 1" : "=D02" (r2), "+D03" (r3) : "D04" (r4), "D05" (r5) : "memory" );
   3352c:	e13fe717 	ldw	r4,-100(fp)
   33530:	e13fff15 	stw	r4,-4(fp)
   33534:	e17fe817 	ldw	r5,-96(fp)
   33538:	e0ffe617 	ldw	r3,-104(fp)
   3353c:	1821883a 	mov	r16,r3
   33540:	8007883a 	mov	r3,r16
   33544:	e13fff17 	ldw	r4,-4(fp)
   33548:	003da07a 	break	1
   3354c:	1821883a 	mov	r16,r3
   33550:	1023883a 	mov	r17,r2
   33554:	e47fe915 	stw	r17,-92(fp)
   33558:	e43fe615 	stw	r16,-104(fp)

  rc = r2;
   3355c:	e0bfe917 	ldw	r2,-92(fp)
   33560:	e0bfea15 	stw	r2,-88(fp)
  error = r3;
   33564:	e0bfe617 	ldw	r2,-104(fp)
   33568:	e0bfeb15 	stw	r2,-84(fp)

  if (error == 0)
   3356c:	e0bfeb17 	ldw	r2,-84(fp)
   33570:	1000621e 	bne	r2,zero,336fc <alt_hostfs_fstat+0x208>
     * no change is required.  On a little-endian processor we need to swap
     * the bytes in each word.
     */

#ifndef ALT_BIGENDIAN
    ptr = (alt_u32 *)&hoststat;
   33574:	e0bfed04 	addi	r2,fp,-76
   33578:	e0bfe515 	stw	r2,-108(fp)
    end = (alt_u32 *)((char *)ptr + sizeof(struct fio_stat));
   3357c:	e0bfe517 	ldw	r2,-108(fp)
   33580:	10801004 	addi	r2,r2,64
   33584:	e0bfec15 	stw	r2,-80(fp)
    for ( ; ptr < end ; ptr++)
   33588:	00001606 	br	335e4 <alt_hostfs_fstat+0xf0>
      *ptr = ((*ptr & 0xFF000000) >> 24) |
   3358c:	e0bfe517 	ldw	r2,-108(fp)
   33590:	10800017 	ldw	r2,0(r2)
   33594:	1006d63a 	srli	r3,r2,24
             ((*ptr & 0x00FF0000) >> 8)  |
   33598:	e0bfe517 	ldw	r2,-108(fp)
   3359c:	10800017 	ldw	r2,0(r2)
   335a0:	10803fec 	andhi	r2,r2,255
   335a4:	1004d23a 	srli	r2,r2,8

#ifndef ALT_BIGENDIAN
    ptr = (alt_u32 *)&hoststat;
    end = (alt_u32 *)((char *)ptr + sizeof(struct fio_stat));
    for ( ; ptr < end ; ptr++)
      *ptr = ((*ptr & 0xFF000000) >> 24) |
   335a8:	1886b03a 	or	r3,r3,r2
             ((*ptr & 0x00FF0000) >> 8)  |
             ((*ptr & 0x0000FF00) << 8)  |
   335ac:	e0bfe517 	ldw	r2,-108(fp)
   335b0:	10800017 	ldw	r2,0(r2)
   335b4:	10bfc00c 	andi	r2,r2,65280
   335b8:	1004923a 	slli	r2,r2,8
#ifndef ALT_BIGENDIAN
    ptr = (alt_u32 *)&hoststat;
    end = (alt_u32 *)((char *)ptr + sizeof(struct fio_stat));
    for ( ; ptr < end ; ptr++)
      *ptr = ((*ptr & 0xFF000000) >> 24) |
             ((*ptr & 0x00FF0000) >> 8)  |
   335bc:	1886b03a 	or	r3,r3,r2
             ((*ptr & 0x0000FF00) << 8)  |
             ((*ptr & 0x000000FF) << 24);
   335c0:	e0bfe517 	ldw	r2,-108(fp)
   335c4:	10800017 	ldw	r2,0(r2)
   335c8:	1004963a 	slli	r2,r2,24
    ptr = (alt_u32 *)&hoststat;
    end = (alt_u32 *)((char *)ptr + sizeof(struct fio_stat));
    for ( ; ptr < end ; ptr++)
      *ptr = ((*ptr & 0xFF000000) >> 24) |
             ((*ptr & 0x00FF0000) >> 8)  |
             ((*ptr & 0x0000FF00) << 8)  |
   335cc:	1886b03a 	or	r3,r3,r2

#ifndef ALT_BIGENDIAN
    ptr = (alt_u32 *)&hoststat;
    end = (alt_u32 *)((char *)ptr + sizeof(struct fio_stat));
    for ( ; ptr < end ; ptr++)
      *ptr = ((*ptr & 0xFF000000) >> 24) |
   335d0:	e0bfe517 	ldw	r2,-108(fp)
   335d4:	10c00015 	stw	r3,0(r2)
     */

#ifndef ALT_BIGENDIAN
    ptr = (alt_u32 *)&hoststat;
    end = (alt_u32 *)((char *)ptr + sizeof(struct fio_stat));
    for ( ; ptr < end ; ptr++)
   335d8:	e0bfe517 	ldw	r2,-108(fp)
   335dc:	10800104 	addi	r2,r2,4
   335e0:	e0bfe515 	stw	r2,-108(fp)
   335e4:	e0ffe517 	ldw	r3,-108(fp)
   335e8:	e0bfec17 	ldw	r2,-80(fp)
   335ec:	18bfe736 	bltu	r3,r2,3358c <alt_hostfs_fstat+0x98>
             ((*ptr & 0x0000FF00) << 8)  |
             ((*ptr & 0x000000FF) << 24);
#endif

    /* Zero the unused parts of struct stat */
    ptr = (alt_u32 *)st;
   335f0:	e0bffe17 	ldw	r2,-8(fp)
   335f4:	e0bfe515 	stw	r2,-108(fp)
    end = (alt_u32 *)((char *)ptr + sizeof(struct stat));
   335f8:	e0bfe517 	ldw	r2,-108(fp)
   335fc:	10800f04 	addi	r2,r2,60
   33600:	e0bfec15 	stw	r2,-80(fp)
    for ( ; ptr < end ; ptr++)
   33604:	00000506 	br	3361c <alt_hostfs_fstat+0x128>
      *ptr = 0;
   33608:	e0bfe517 	ldw	r2,-108(fp)
   3360c:	10000015 	stw	zero,0(r2)
#endif

    /* Zero the unused parts of struct stat */
    ptr = (alt_u32 *)st;
    end = (alt_u32 *)((char *)ptr + sizeof(struct stat));
    for ( ; ptr < end ; ptr++)
   33610:	e0bfe517 	ldw	r2,-108(fp)
   33614:	10800104 	addi	r2,r2,4
   33618:	e0bfe515 	stw	r2,-108(fp)
   3361c:	e0ffe517 	ldw	r3,-108(fp)
   33620:	e0bfec17 	ldw	r2,-80(fp)
   33624:	18bff836 	bltu	r3,r2,33608 <alt_hostfs_fstat+0x114>

    /* Copy the data provided by the host into our local copy, for data which
     * is provided as 64bit values by the host we just use the least
     * significant word.
     */
    st->st_dev     = hoststat.fst_dev;
   33628:	e0bfed17 	ldw	r2,-76(fp)
   3362c:	1007883a 	mov	r3,r2
   33630:	e0bffe17 	ldw	r2,-8(fp)
   33634:	10c0000d 	sth	r3,0(r2)
    st->st_ino     = hoststat.fst_ino;
   33638:	e0bfee17 	ldw	r2,-72(fp)
   3363c:	1007883a 	mov	r3,r2
   33640:	e0bffe17 	ldw	r2,-8(fp)
   33644:	10c0008d 	sth	r3,2(r2)
    st->st_mode    = hoststat.fst_mode;
   33648:	e0ffef17 	ldw	r3,-68(fp)
   3364c:	e0bffe17 	ldw	r2,-8(fp)
   33650:	10c00115 	stw	r3,4(r2)
    st->st_nlink   = hoststat.fst_nlink;
   33654:	e0bff017 	ldw	r2,-64(fp)
   33658:	1007883a 	mov	r3,r2
   3365c:	e0bffe17 	ldw	r2,-8(fp)
   33660:	10c0020d 	sth	r3,8(r2)
    st->st_uid     = hoststat.fst_uid;
   33664:	e0bff117 	ldw	r2,-60(fp)
   33668:	1007883a 	mov	r3,r2
   3366c:	e0bffe17 	ldw	r2,-8(fp)
   33670:	10c0028d 	sth	r3,10(r2)
    st->st_gid     = hoststat.fst_gid;
   33674:	e0bff217 	ldw	r2,-56(fp)
   33678:	1007883a 	mov	r3,r2
   3367c:	e0bffe17 	ldw	r2,-8(fp)
   33680:	10c0030d 	sth	r3,12(r2)
    st->st_rdev    = hoststat.fst_rdev;
   33684:	e0bff317 	ldw	r2,-52(fp)
   33688:	1007883a 	mov	r3,r2
   3368c:	e0bffe17 	ldw	r2,-8(fp)
   33690:	10c0038d 	sth	r3,14(r2)
    st->st_size    = hoststat.fst_size[1];
   33694:	e0bff517 	ldw	r2,-44(fp)
   33698:	1007883a 	mov	r3,r2
   3369c:	e0bffe17 	ldw	r2,-8(fp)
   336a0:	10c00415 	stw	r3,16(r2)

    st->st_atime   = hoststat.fst_atime;
   336a4:	e0bffa17 	ldw	r2,-24(fp)
   336a8:	1007883a 	mov	r3,r2
   336ac:	e0bffe17 	ldw	r2,-8(fp)
   336b0:	10c00515 	stw	r3,20(r2)
    st->st_mtime   = hoststat.fst_mtime;
   336b4:	e0bffb17 	ldw	r2,-20(fp)
   336b8:	1007883a 	mov	r3,r2
   336bc:	e0bffe17 	ldw	r2,-8(fp)
   336c0:	10c00715 	stw	r3,28(r2)
    st->st_ctime   = hoststat.fst_ctime;
   336c4:	e0bffc17 	ldw	r2,-16(fp)
   336c8:	1007883a 	mov	r3,r2
   336cc:	e0bffe17 	ldw	r2,-8(fp)
   336d0:	10c00915 	stw	r3,36(r2)

    st->st_blksize = hoststat.fst_blksize[1];
   336d4:	e0bff717 	ldw	r2,-36(fp)
   336d8:	1007883a 	mov	r3,r2
   336dc:	e0bffe17 	ldw	r2,-8(fp)
   336e0:	10c00b15 	stw	r3,44(r2)
    st->st_blocks  = hoststat.fst_blocks[1];
   336e4:	e0bff917 	ldw	r2,-28(fp)
   336e8:	1007883a 	mov	r3,r2
   336ec:	e0bffe17 	ldw	r2,-8(fp)
   336f0:	10c00c15 	stw	r3,48(r2)

    return rc;
   336f4:	e0bfea17 	ldw	r2,-88(fp)
   336f8:	00000206 	br	33704 <alt_hostfs_fstat+0x210>
  }
  else
    return -error;
   336fc:	e0bfeb17 	ldw	r2,-84(fp)
   33700:	0085c83a 	sub	r2,zero,r2
}
   33704:	e037883a 	mov	sp,fp
   33708:	df000217 	ldw	fp,8(sp)
   3370c:	dc400117 	ldw	r17,4(sp)
   33710:	dc000017 	ldw	r16,0(sp)
   33714:	dec00304 	addi	sp,sp,12
   33718:	f800283a 	ret

0003371c <alt_dcache_flush_all>:
/*
 * alt_dcache_flush_all() is called to flush the entire data cache.
 */

void alt_dcache_flush_all (void)
{
   3371c:	deffff04 	addi	sp,sp,-4
   33720:	df000015 	stw	fp,0(sp)
   33724:	d839883a 	mov	fp,sp
  for (i = (char*) 0; i < (char*) NIOS2_DCACHE_SIZE; i+= NIOS2_DCACHE_LINE_SIZE)
  { 
    __asm__ volatile ("flushd (%0)" :: "r" (i));
  }
#endif /* NIOS2_DCACHE_SIZE > 0 */
}
   33728:	e037883a 	mov	sp,fp
   3372c:	df000017 	ldw	fp,0(sp)
   33730:	dec00104 	addi	sp,sp,4
   33734:	f800283a 	ret

00033738 <alt_get_errno>:
#undef errno

extern int errno;

static ALT_INLINE int* alt_get_errno(void)
{
   33738:	defffe04 	addi	sp,sp,-8
   3373c:	dfc00115 	stw	ra,4(sp)
   33740:	df000015 	stw	fp,0(sp)
   33744:	d839883a 	mov	fp,sp
  return ((alt_errno) ? alt_errno() : &errno);
   33748:	008000f4 	movhi	r2,3
   3374c:	1096f904 	addi	r2,r2,23524
   33750:	10800017 	ldw	r2,0(r2)
   33754:	10000526 	beq	r2,zero,3376c <alt_get_errno+0x34>
   33758:	008000f4 	movhi	r2,3
   3375c:	1096f904 	addi	r2,r2,23524
   33760:	10800017 	ldw	r2,0(r2)
   33764:	103ee83a 	callr	r2
   33768:	00000206 	br	33774 <alt_get_errno+0x3c>
   3376c:	008000f4 	movhi	r2,3
   33770:	1099d604 	addi	r2,r2,26456
}
   33774:	e037883a 	mov	sp,fp
   33778:	dfc00117 	ldw	ra,4(sp)
   3377c:	df000017 	ldw	fp,0(sp)
   33780:	dec00204 	addi	sp,sp,8
   33784:	f800283a 	ret

00033788 <alt_dev_llist_insert>:
/*
 *
 */

int alt_dev_llist_insert (alt_dev_llist* dev, alt_llist* list)
{
   33788:	defffa04 	addi	sp,sp,-24
   3378c:	dfc00515 	stw	ra,20(sp)
   33790:	df000415 	stw	fp,16(sp)
   33794:	df000404 	addi	fp,sp,16
   33798:	e13ffe15 	stw	r4,-8(fp)
   3379c:	e17fff15 	stw	r5,-4(fp)
  /*
   * check that the device exists, and that it has a valid name.
   */

  if (!dev || !dev->name)
   337a0:	e0bffe17 	ldw	r2,-8(fp)
   337a4:	10000326 	beq	r2,zero,337b4 <alt_dev_llist_insert+0x2c>
   337a8:	e0bffe17 	ldw	r2,-8(fp)
   337ac:	10800217 	ldw	r2,8(r2)
   337b0:	1000051e 	bne	r2,zero,337c8 <alt_dev_llist_insert+0x40>
  {
    ALT_ERRNO = EINVAL;
   337b4:	00337380 	call	33738 <alt_get_errno>
   337b8:	00c00584 	movi	r3,22
   337bc:	10c00015 	stw	r3,0(r2)
    return -EINVAL;
   337c0:	00bffa84 	movi	r2,-22
   337c4:	00001306 	br	33814 <alt_dev_llist_insert+0x8c>
  
  /*
   * register the device.
   */
  
  alt_llist_insert(list, &dev->llist);
   337c8:	e0bffe17 	ldw	r2,-8(fp)
   337cc:	e0ffff17 	ldw	r3,-4(fp)
   337d0:	e0fffc15 	stw	r3,-16(fp)
   337d4:	e0bffd15 	stw	r2,-12(fp)
 */

static ALT_INLINE void ALT_ALWAYS_INLINE alt_llist_insert(alt_llist* list, 
                alt_llist* entry)
{
  entry->previous = list;
   337d8:	e0bffd17 	ldw	r2,-12(fp)
   337dc:	e0fffc17 	ldw	r3,-16(fp)
   337e0:	10c00115 	stw	r3,4(r2)
  entry->next     = list->next;
   337e4:	e0bffc17 	ldw	r2,-16(fp)
   337e8:	10c00017 	ldw	r3,0(r2)
   337ec:	e0bffd17 	ldw	r2,-12(fp)
   337f0:	10c00015 	stw	r3,0(r2)

  list->next->previous = entry;
   337f4:	e0bffc17 	ldw	r2,-16(fp)
   337f8:	10800017 	ldw	r2,0(r2)
   337fc:	e0fffd17 	ldw	r3,-12(fp)
   33800:	10c00115 	stw	r3,4(r2)
  list->next           = entry;
   33804:	e0bffc17 	ldw	r2,-16(fp)
   33808:	e0fffd17 	ldw	r3,-12(fp)
   3380c:	10c00015 	stw	r3,0(r2)

  return 0;  
   33810:	0005883a 	mov	r2,zero
}
   33814:	e037883a 	mov	sp,fp
   33818:	dfc00117 	ldw	ra,4(sp)
   3381c:	df000017 	ldw	fp,0(sp)
   33820:	dec00204 	addi	sp,sp,8
   33824:	f800283a 	ret

00033828 <_do_ctors>:
/*
 * Run the C++ static constructors.
 */

void _do_ctors(void)
{
   33828:	defffd04 	addi	sp,sp,-12
   3382c:	dfc00215 	stw	ra,8(sp)
   33830:	df000115 	stw	fp,4(sp)
   33834:	df000104 	addi	fp,sp,4
  constructor* ctor;

  for (ctor = &__CTOR_END__[-1]; ctor >= __CTOR_LIST__; ctor--)
   33838:	008000f4 	movhi	r2,3
   3383c:	10905004 	addi	r2,r2,16704
   33840:	e0bfff15 	stw	r2,-4(fp)
   33844:	00000606 	br	33860 <_do_ctors+0x38>
        (*ctor) (); 
   33848:	e0bfff17 	ldw	r2,-4(fp)
   3384c:	10800017 	ldw	r2,0(r2)
   33850:	103ee83a 	callr	r2

void _do_ctors(void)
{
  constructor* ctor;

  for (ctor = &__CTOR_END__[-1]; ctor >= __CTOR_LIST__; ctor--)
   33854:	e0bfff17 	ldw	r2,-4(fp)
   33858:	10bfff04 	addi	r2,r2,-4
   3385c:	e0bfff15 	stw	r2,-4(fp)
   33860:	e0ffff17 	ldw	r3,-4(fp)
   33864:	008000f4 	movhi	r2,3
   33868:	10905104 	addi	r2,r2,16708
   3386c:	18bff62e 	bgeu	r3,r2,33848 <_do_ctors+0x20>
        (*ctor) (); 
}
   33870:	e037883a 	mov	sp,fp
   33874:	dfc00117 	ldw	ra,4(sp)
   33878:	df000017 	ldw	fp,0(sp)
   3387c:	dec00204 	addi	sp,sp,8
   33880:	f800283a 	ret

00033884 <_do_dtors>:
/*
 * Run the C++ static destructors.
 */

void _do_dtors(void)
{
   33884:	defffd04 	addi	sp,sp,-12
   33888:	dfc00215 	stw	ra,8(sp)
   3388c:	df000115 	stw	fp,4(sp)
   33890:	df000104 	addi	fp,sp,4
  destructor* dtor;

  for (dtor = &__DTOR_END__[-1]; dtor >= __DTOR_LIST__; dtor--)
   33894:	008000f4 	movhi	r2,3
   33898:	10905004 	addi	r2,r2,16704
   3389c:	e0bfff15 	stw	r2,-4(fp)
   338a0:	00000606 	br	338bc <_do_dtors+0x38>
        (*dtor) (); 
   338a4:	e0bfff17 	ldw	r2,-4(fp)
   338a8:	10800017 	ldw	r2,0(r2)
   338ac:	103ee83a 	callr	r2

void _do_dtors(void)
{
  destructor* dtor;

  for (dtor = &__DTOR_END__[-1]; dtor >= __DTOR_LIST__; dtor--)
   338b0:	e0bfff17 	ldw	r2,-4(fp)
   338b4:	10bfff04 	addi	r2,r2,-4
   338b8:	e0bfff15 	stw	r2,-4(fp)
   338bc:	e0ffff17 	ldw	r3,-4(fp)
   338c0:	008000f4 	movhi	r2,3
   338c4:	10905104 	addi	r2,r2,16708
   338c8:	18bff62e 	bgeu	r3,r2,338a4 <_do_dtors+0x20>
        (*dtor) (); 
}
   338cc:	e037883a 	mov	sp,fp
   338d0:	dfc00117 	ldw	ra,4(sp)
   338d4:	df000017 	ldw	fp,0(sp)
   338d8:	dec00204 	addi	sp,sp,8
   338dc:	f800283a 	ret

000338e0 <alt_find_dev>:
 * "name" must be an exact match for the devices registered name for a match to
 * be found.
 */
 
alt_dev* alt_find_dev(const char* name, alt_llist* llist)
{
   338e0:	defffa04 	addi	sp,sp,-24
   338e4:	dfc00515 	stw	ra,20(sp)
   338e8:	df000415 	stw	fp,16(sp)
   338ec:	df000404 	addi	fp,sp,16
   338f0:	e13ffe15 	stw	r4,-8(fp)
   338f4:	e17fff15 	stw	r5,-4(fp)
  alt_dev* next = (alt_dev*) llist->next;
   338f8:	e0bfff17 	ldw	r2,-4(fp)
   338fc:	10800017 	ldw	r2,0(r2)
   33900:	e0bffc15 	stw	r2,-16(fp)
  alt_32 len;

  len  = strlen(name) + 1;
   33904:	e13ffe17 	ldw	r4,-8(fp)
   33908:	00258280 	call	25828 <strlen>
   3390c:	10800044 	addi	r2,r2,1
   33910:	e0bffd15 	stw	r2,-12(fp)
  /*
   * Check each list entry in turn, until a match is found, or we reach the
   * end of the list (i.e. next winds up pointing back to the list head).
   */ 

  while (next != (alt_dev*) llist)
   33914:	00000d06 	br	3394c <alt_find_dev+0x6c>
    /* 
     * memcmp() is used here rather than strcmp() in order to reduce the size
     * of the executable.
     */

    if (!memcmp (next->name, name, len))
   33918:	e0bffc17 	ldw	r2,-16(fp)
   3391c:	10c00217 	ldw	r3,8(r2)
   33920:	e0bffd17 	ldw	r2,-12(fp)
   33924:	1809883a 	mov	r4,r3
   33928:	e17ffe17 	ldw	r5,-8(fp)
   3392c:	100d883a 	mov	r6,r2
   33930:	0033dbc0 	call	33dbc <memcmp>
   33934:	1000021e 	bne	r2,zero,33940 <alt_find_dev+0x60>
    {
      /* match found */

      return next;
   33938:	e0bffc17 	ldw	r2,-16(fp)
   3393c:	00000706 	br	3395c <alt_find_dev+0x7c>
    }
    next = (alt_dev*) next->llist.next;
   33940:	e0bffc17 	ldw	r2,-16(fp)
   33944:	10800017 	ldw	r2,0(r2)
   33948:	e0bffc15 	stw	r2,-16(fp)
  /*
   * Check each list entry in turn, until a match is found, or we reach the
   * end of the list (i.e. next winds up pointing back to the list head).
   */ 

  while (next != (alt_dev*) llist)
   3394c:	e0fffc17 	ldw	r3,-16(fp)
   33950:	e0bfff17 	ldw	r2,-4(fp)
   33954:	18bff01e 	bne	r3,r2,33918 <alt_find_dev+0x38>
    next = (alt_dev*) next->llist.next;
  }
  
  /* No match found */
  
  return NULL;
   33958:	0005883a 	mov	r2,zero
}
   3395c:	e037883a 	mov	sp,fp
   33960:	dfc00117 	ldw	ra,4(sp)
   33964:	df000017 	ldw	fp,0(sp)
   33968:	dec00204 	addi	sp,sp,8
   3396c:	f800283a 	ret

00033970 <alt_find_file>:
 * either '/' or '\0' is the prefix of the filename. For example the filename:
 * "/myfilesystem/junk.txt" would match: "/myfilesystem", but not: "/myfile". 
 */
 
alt_dev* alt_find_file (const char* name)
{
   33970:	defffb04 	addi	sp,sp,-20
   33974:	dfc00415 	stw	ra,16(sp)
   33978:	df000315 	stw	fp,12(sp)
   3397c:	df000304 	addi	fp,sp,12
   33980:	e13fff15 	stw	r4,-4(fp)
  alt_dev* next = (alt_dev*) alt_fs_list.next;   
   33984:	008000f4 	movhi	r2,3
   33988:	1096f404 	addi	r2,r2,23504
   3398c:	10800017 	ldw	r2,0(r2)
   33990:	e0bffd15 	stw	r2,-12(fp)
  /*
   * Check each list entry in turn, until a match is found, or we reach the
   * end of the list (i.e. next winds up pointing back to the list head).
   */ 
 
  while (next != (alt_dev*) &alt_fs_list)
   33994:	00003106 	br	33a5c <alt_find_file+0xec>
  {
    len = strlen(next->name);
   33998:	e0bffd17 	ldw	r2,-12(fp)
   3399c:	10800217 	ldw	r2,8(r2)
   339a0:	1009883a 	mov	r4,r2
   339a4:	00258280 	call	25828 <strlen>
   339a8:	e0bffe15 	stw	r2,-8(fp)
    
    if (next->name[len-1] == '/')
   339ac:	e0bffd17 	ldw	r2,-12(fp)
   339b0:	10c00217 	ldw	r3,8(r2)
   339b4:	e0bffe17 	ldw	r2,-8(fp)
   339b8:	10bfffc4 	addi	r2,r2,-1
   339bc:	1885883a 	add	r2,r3,r2
   339c0:	10800003 	ldbu	r2,0(r2)
   339c4:	10803fcc 	andi	r2,r2,255
   339c8:	1080201c 	xori	r2,r2,128
   339cc:	10bfe004 	addi	r2,r2,-128
   339d0:	10800bd8 	cmpnei	r2,r2,47
   339d4:	1000031e 	bne	r2,zero,339e4 <alt_find_file+0x74>
    {
      len -= 1;
   339d8:	e0bffe17 	ldw	r2,-8(fp)
   339dc:	10bfffc4 	addi	r2,r2,-1
   339e0:	e0bffe15 	stw	r2,-8(fp)
    }

    if (((name[len] == '/') || (name[len] == '\0')) && 
   339e4:	e0bffe17 	ldw	r2,-8(fp)
   339e8:	e0ffff17 	ldw	r3,-4(fp)
   339ec:	1885883a 	add	r2,r3,r2
   339f0:	10800003 	ldbu	r2,0(r2)
   339f4:	10803fcc 	andi	r2,r2,255
   339f8:	1080201c 	xori	r2,r2,128
   339fc:	10bfe004 	addi	r2,r2,-128
   33a00:	10800be0 	cmpeqi	r2,r2,47
   33a04:	1000081e 	bne	r2,zero,33a28 <alt_find_file+0xb8>
   33a08:	e0bffe17 	ldw	r2,-8(fp)
   33a0c:	e0ffff17 	ldw	r3,-4(fp)
   33a10:	1885883a 	add	r2,r3,r2
   33a14:	10800003 	ldbu	r2,0(r2)
   33a18:	10803fcc 	andi	r2,r2,255
   33a1c:	1080201c 	xori	r2,r2,128
   33a20:	10bfe004 	addi	r2,r2,-128
   33a24:	10000a1e 	bne	r2,zero,33a50 <alt_find_file+0xe0>
        !memcmp (next->name, name, len))
   33a28:	e0bffd17 	ldw	r2,-12(fp)
   33a2c:	10c00217 	ldw	r3,8(r2)
   33a30:	e0bffe17 	ldw	r2,-8(fp)
   33a34:	1809883a 	mov	r4,r3
   33a38:	e17fff17 	ldw	r5,-4(fp)
   33a3c:	100d883a 	mov	r6,r2
   33a40:	0033dbc0 	call	33dbc <memcmp>
    if (next->name[len-1] == '/')
    {
      len -= 1;
    }

    if (((name[len] == '/') || (name[len] == '\0')) && 
   33a44:	1000021e 	bne	r2,zero,33a50 <alt_find_file+0xe0>
        !memcmp (next->name, name, len))
    {
      /* match found */

      return next;
   33a48:	e0bffd17 	ldw	r2,-12(fp)
   33a4c:	00000806 	br	33a70 <alt_find_file+0x100>
    }
    next = (alt_dev*) next->llist.next;
   33a50:	e0bffd17 	ldw	r2,-12(fp)
   33a54:	10800017 	ldw	r2,0(r2)
   33a58:	e0bffd15 	stw	r2,-12(fp)
  /*
   * Check each list entry in turn, until a match is found, or we reach the
   * end of the list (i.e. next winds up pointing back to the list head).
   */ 
 
  while (next != (alt_dev*) &alt_fs_list)
   33a5c:	e0fffd17 	ldw	r3,-12(fp)
   33a60:	008000f4 	movhi	r2,3
   33a64:	1096f404 	addi	r2,r2,23504
   33a68:	18bfcb1e 	bne	r3,r2,33998 <alt_find_file+0x28>
    next = (alt_dev*) next->llist.next;
  }
  
  /* No match found */
  
  return NULL;     
   33a6c:	0005883a 	mov	r2,zero
}
   33a70:	e037883a 	mov	sp,fp
   33a74:	dfc00117 	ldw	ra,4(sp)
   33a78:	df000017 	ldw	fp,0(sp)
   33a7c:	dec00204 	addi	sp,sp,8
   33a80:	f800283a 	ret

00033a84 <alt_fs_reg>:
 * A return value of zero indicates success. A negative return value indicates
 * failure. 
 */
 
int alt_fs_reg (alt_dev* dev)
{
   33a84:	defffc04 	addi	sp,sp,-16
   33a88:	df000315 	stw	fp,12(sp)
   33a8c:	df000304 	addi	fp,sp,12
   33a90:	e13fff15 	stw	r4,-4(fp)
  /*
   * check that the device has a name.
   */

  if (!dev->name)
   33a94:	e0bfff17 	ldw	r2,-4(fp)
   33a98:	10800217 	ldw	r2,8(r2)
   33a9c:	1000021e 	bne	r2,zero,33aa8 <alt_fs_reg+0x24>
  {
    return -ENODEV;
   33aa0:	00bffb44 	movi	r2,-19
   33aa4:	00001406 	br	33af8 <alt_fs_reg+0x74>
  
  /*
   * register the file system.
   */

  alt_llist_insert(&alt_fs_list, &dev->llist);
   33aa8:	e0bfff17 	ldw	r2,-4(fp)
   33aac:	00c000f4 	movhi	r3,3
   33ab0:	18d6f404 	addi	r3,r3,23504
   33ab4:	e0fffd15 	stw	r3,-12(fp)
   33ab8:	e0bffe15 	stw	r2,-8(fp)
 */

static ALT_INLINE void ALT_ALWAYS_INLINE alt_llist_insert(alt_llist* list, 
                alt_llist* entry)
{
  entry->previous = list;
   33abc:	e0bffe17 	ldw	r2,-8(fp)
   33ac0:	e0fffd17 	ldw	r3,-12(fp)
   33ac4:	10c00115 	stw	r3,4(r2)
  entry->next     = list->next;
   33ac8:	e0bffd17 	ldw	r2,-12(fp)
   33acc:	10c00017 	ldw	r3,0(r2)
   33ad0:	e0bffe17 	ldw	r2,-8(fp)
   33ad4:	10c00015 	stw	r3,0(r2)

  list->next->previous = entry;
   33ad8:	e0bffd17 	ldw	r2,-12(fp)
   33adc:	10800017 	ldw	r2,0(r2)
   33ae0:	e0fffe17 	ldw	r3,-8(fp)
   33ae4:	10c00115 	stw	r3,4(r2)
  list->next           = entry;
   33ae8:	e0bffd17 	ldw	r2,-12(fp)
   33aec:	e0fffe17 	ldw	r3,-8(fp)
   33af0:	10c00015 	stw	r3,0(r2)

  return 0;
   33af4:	0005883a 	mov	r2,zero
} 
   33af8:	e037883a 	mov	sp,fp
   33afc:	df000017 	ldw	fp,0(sp)
   33b00:	dec00104 	addi	sp,sp,4
   33b04:	f800283a 	ret

00033b08 <alt_get_fd>:
 * the offset of the file descriptor within the file descriptor array). A
 * negative value indicates failure.
 */

int alt_get_fd (alt_dev* dev)
{
   33b08:	defffa04 	addi	sp,sp,-24
   33b0c:	dfc00515 	stw	ra,20(sp)
   33b10:	df000415 	stw	fp,16(sp)
   33b14:	dc000315 	stw	r16,12(sp)
   33b18:	df000304 	addi	fp,sp,12
   33b1c:	e13fff15 	stw	r4,-4(fp)
  alt_32 i;
  int rc = -EMFILE;
   33b20:	00bffa04 	movi	r2,-24
   33b24:	e0bffe15 	stw	r2,-8(fp)
   * indicates the highest file descriptor ever allocated. This is used to
   * improve efficency when searching the file descriptor list, and 
   * therefore reduce contention on the alt_fd_list_lock semaphore. 
   */

  for (i = 0; i < ALT_MAX_FD; i++)
   33b28:	e03ffd15 	stw	zero,-12(fp)
   33b2c:	00002106 	br	33bb4 <alt_get_fd+0xac>
  {
    if (!alt_fd_list[i].dev)
   33b30:	040000f4 	movhi	r16,3
   33b34:	84167904 	addi	r16,r16,23012
   33b38:	e0bffd17 	ldw	r2,-12(fp)
   33b3c:	1009883a 	mov	r4,r2
   33b40:	01400304 	movi	r5,12
   33b44:	0022d140 	call	22d14 <__mulsi3>
   33b48:	8085883a 	add	r2,r16,r2
   33b4c:	10800017 	ldw	r2,0(r2)
   33b50:	1000151e 	bne	r2,zero,33ba8 <alt_get_fd+0xa0>
    {
      alt_fd_list[i].dev = dev;
   33b54:	040000f4 	movhi	r16,3
   33b58:	84167904 	addi	r16,r16,23012
   33b5c:	e0bffd17 	ldw	r2,-12(fp)
   33b60:	1009883a 	mov	r4,r2
   33b64:	01400304 	movi	r5,12
   33b68:	0022d140 	call	22d14 <__mulsi3>
   33b6c:	8085883a 	add	r2,r16,r2
   33b70:	e0ffff17 	ldw	r3,-4(fp)
   33b74:	10c00015 	stw	r3,0(r2)
      if (i > alt_max_fd)
   33b78:	008000f4 	movhi	r2,3
   33b7c:	1096f804 	addi	r2,r2,23520
   33b80:	10c00017 	ldw	r3,0(r2)
   33b84:	e0bffd17 	ldw	r2,-12(fp)
   33b88:	1880040e 	bge	r3,r2,33b9c <alt_get_fd+0x94>
      {
        alt_max_fd = i;
   33b8c:	008000f4 	movhi	r2,3
   33b90:	1096f804 	addi	r2,r2,23520
   33b94:	e0fffd17 	ldw	r3,-12(fp)
   33b98:	10c00015 	stw	r3,0(r2)
      }
      rc = i;
   33b9c:	e0bffd17 	ldw	r2,-12(fp)
   33ba0:	e0bffe15 	stw	r2,-8(fp)
      goto alt_get_fd_exit;
   33ba4:	00000606 	br	33bc0 <alt_get_fd+0xb8>
   * indicates the highest file descriptor ever allocated. This is used to
   * improve efficency when searching the file descriptor list, and 
   * therefore reduce contention on the alt_fd_list_lock semaphore. 
   */

  for (i = 0; i < ALT_MAX_FD; i++)
   33ba8:	e0bffd17 	ldw	r2,-12(fp)
   33bac:	10800044 	addi	r2,r2,1
   33bb0:	e0bffd15 	stw	r2,-12(fp)
   33bb4:	e0bffd17 	ldw	r2,-12(fp)
   33bb8:	10800810 	cmplti	r2,r2,32
   33bbc:	103fdc1e 	bne	r2,zero,33b30 <alt_get_fd+0x28>
   * file descriptor pool.
   */

  ALT_SEM_POST(alt_fd_list_lock);

  return rc;
   33bc0:	e0bffe17 	ldw	r2,-8(fp)
}
   33bc4:	e037883a 	mov	sp,fp
   33bc8:	dfc00217 	ldw	ra,8(sp)
   33bcc:	df000117 	ldw	fp,4(sp)
   33bd0:	dc000017 	ldw	r16,0(sp)
   33bd4:	dec00304 	addi	sp,sp,12
   33bd8:	f800283a 	ret

00033bdc <alt_icache_flush_all>:
/*
 * alt_icache_flush_all() is called to flush the entire instruction cache.
 */

void alt_icache_flush_all (void)
{
   33bdc:	deffff04 	addi	sp,sp,-4
   33be0:	df000015 	stw	fp,0(sp)
   33be4:	d839883a 	mov	fp,sp
#if NIOS2_ICACHE_SIZE > 0
  alt_icache_flush (0, NIOS2_ICACHE_SIZE);
#endif
}
   33be8:	e037883a 	mov	sp,fp
   33bec:	df000017 	ldw	fp,0(sp)
   33bf0:	dec00104 	addi	sp,sp,4
   33bf4:	f800283a 	ret

00033bf8 <alt_open_fd>:
 * If the device can not be succesfully opened, then the input file descriptor
 * remains unchanged.
 */

static void alt_open_fd(alt_fd* fd, const char* name, int flags, int mode)
{
   33bf8:	defff804 	addi	sp,sp,-32
   33bfc:	dfc00715 	stw	ra,28(sp)
   33c00:	df000615 	stw	fp,24(sp)
   33c04:	dc000515 	stw	r16,20(sp)
   33c08:	df000504 	addi	fp,sp,20
   33c0c:	e13ffc15 	stw	r4,-16(fp)
   33c10:	e17ffd15 	stw	r5,-12(fp)
   33c14:	e1bffe15 	stw	r6,-8(fp)
   33c18:	e1ffff15 	stw	r7,-4(fp)
  int old;

  old = open (name, flags, mode);
   33c1c:	e13ffd17 	ldw	r4,-12(fp)
   33c20:	e17ffe17 	ldw	r5,-8(fp)
   33c24:	e1bfff17 	ldw	r6,-4(fp)
   33c28:	00327780 	call	32778 <open>
   33c2c:	e0bffb15 	stw	r2,-20(fp)

  if (old >= 0)
   33c30:	e0bffb17 	ldw	r2,-20(fp)
   33c34:	10002216 	blt	r2,zero,33cc0 <alt_open_fd+0xc8>
  {
    fd->dev      = alt_fd_list[old].dev;
   33c38:	040000f4 	movhi	r16,3
   33c3c:	84167904 	addi	r16,r16,23012
   33c40:	e0bffb17 	ldw	r2,-20(fp)
   33c44:	1009883a 	mov	r4,r2
   33c48:	01400304 	movi	r5,12
   33c4c:	0022d140 	call	22d14 <__mulsi3>
   33c50:	8085883a 	add	r2,r16,r2
   33c54:	10c00017 	ldw	r3,0(r2)
   33c58:	e0bffc17 	ldw	r2,-16(fp)
   33c5c:	10c00015 	stw	r3,0(r2)
    fd->priv     = alt_fd_list[old].priv;
   33c60:	040000f4 	movhi	r16,3
   33c64:	84167904 	addi	r16,r16,23012
   33c68:	e0bffb17 	ldw	r2,-20(fp)
   33c6c:	1009883a 	mov	r4,r2
   33c70:	01400304 	movi	r5,12
   33c74:	0022d140 	call	22d14 <__mulsi3>
   33c78:	8085883a 	add	r2,r16,r2
   33c7c:	10800104 	addi	r2,r2,4
   33c80:	10c00017 	ldw	r3,0(r2)
   33c84:	e0bffc17 	ldw	r2,-16(fp)
   33c88:	10c00115 	stw	r3,4(r2)
    fd->fd_flags = alt_fd_list[old].fd_flags;
   33c8c:	040000f4 	movhi	r16,3
   33c90:	84167904 	addi	r16,r16,23012
   33c94:	e0bffb17 	ldw	r2,-20(fp)
   33c98:	1009883a 	mov	r4,r2
   33c9c:	01400304 	movi	r5,12
   33ca0:	0022d140 	call	22d14 <__mulsi3>
   33ca4:	8085883a 	add	r2,r16,r2
   33ca8:	10800204 	addi	r2,r2,8
   33cac:	10c00017 	ldw	r3,0(r2)
   33cb0:	e0bffc17 	ldw	r2,-16(fp)
   33cb4:	10c00215 	stw	r3,8(r2)

    alt_release_fd (old);
   33cb8:	e13ffb17 	ldw	r4,-20(fp)
   33cbc:	0032a140 	call	32a14 <alt_release_fd>
  }
} 
   33cc0:	e037883a 	mov	sp,fp
   33cc4:	dfc00217 	ldw	ra,8(sp)
   33cc8:	df000117 	ldw	fp,4(sp)
   33ccc:	dc000017 	ldw	r16,0(sp)
   33cd0:	dec00304 	addi	sp,sp,12
   33cd4:	f800283a 	ret

00033cd8 <alt_io_redirect>:
 */
 
void alt_io_redirect(const char* stdout_dev, 
                     const char* stdin_dev, 
                     const char* stderr_dev)
{
   33cd8:	defffb04 	addi	sp,sp,-20
   33cdc:	dfc00415 	stw	ra,16(sp)
   33ce0:	df000315 	stw	fp,12(sp)
   33ce4:	df000304 	addi	fp,sp,12
   33ce8:	e13ffd15 	stw	r4,-12(fp)
   33cec:	e17ffe15 	stw	r5,-8(fp)
   33cf0:	e1bfff15 	stw	r6,-4(fp)
  /* Redirect the channels */

  alt_open_fd (&alt_fd_list[STDOUT_FILENO], stdout_dev, O_WRONLY, 0777);
   33cf4:	010000f4 	movhi	r4,3
   33cf8:	21167c04 	addi	r4,r4,23024
   33cfc:	e17ffd17 	ldw	r5,-12(fp)
   33d00:	01800044 	movi	r6,1
   33d04:	01c07fc4 	movi	r7,511
   33d08:	0033bf80 	call	33bf8 <alt_open_fd>
  alt_open_fd (&alt_fd_list[STDIN_FILENO], stdin_dev, O_RDONLY, 0777);
   33d0c:	010000f4 	movhi	r4,3
   33d10:	21167904 	addi	r4,r4,23012
   33d14:	e17ffe17 	ldw	r5,-8(fp)
   33d18:	000d883a 	mov	r6,zero
   33d1c:	01c07fc4 	movi	r7,511
   33d20:	0033bf80 	call	33bf8 <alt_open_fd>
  alt_open_fd (&alt_fd_list[STDERR_FILENO], stderr_dev, O_WRONLY, 0777);
   33d24:	010000f4 	movhi	r4,3
   33d28:	21167f04 	addi	r4,r4,23036
   33d2c:	e17fff17 	ldw	r5,-4(fp)
   33d30:	01800044 	movi	r6,1
   33d34:	01c07fc4 	movi	r7,511
   33d38:	0033bf80 	call	33bf8 <alt_open_fd>
}  
   33d3c:	e037883a 	mov	sp,fp
   33d40:	dfc00117 	ldw	ra,4(sp)
   33d44:	df000017 	ldw	fp,0(sp)
   33d48:	dec00204 	addi	sp,sp,8
   33d4c:	f800283a 	ret

00033d50 <altera_nios2_qsys_irq_init>:
/*
 * To initialize the internal interrupt controller, just clear the IENABLE
 * register so that all possible IRQs are disabled.
 */
void altera_nios2_qsys_irq_init(void) 
{
   33d50:	deffff04 	addi	sp,sp,-4
   33d54:	df000015 	stw	fp,0(sp)
   33d58:	d839883a 	mov	fp,sp
    NIOS2_WRITE_IENABLE(0);
   33d5c:	000170fa 	wrctl	ienable,zero
}
   33d60:	e037883a 	mov	sp,fp
   33d64:	df000017 	ldw	fp,0(sp)
   33d68:	dec00104 	addi	sp,sp,4
   33d6c:	f800283a 	ret

00033d70 <atexit>:
   33d70:	200b883a 	mov	r5,r4
   33d74:	000d883a 	mov	r6,zero
   33d78:	0009883a 	mov	r4,zero
   33d7c:	000f883a 	mov	r7,zero
   33d80:	0033e381 	jmpi	33e38 <__register_exitproc>

00033d84 <exit>:
   33d84:	defffe04 	addi	sp,sp,-8
   33d88:	000b883a 	mov	r5,zero
   33d8c:	dc000015 	stw	r16,0(sp)
   33d90:	dfc00115 	stw	ra,4(sp)
   33d94:	2021883a 	mov	r16,r4
   33d98:	0033f680 	call	33f68 <__call_exitprocs>
   33d9c:	008000f4 	movhi	r2,3
   33da0:	1096ee04 	addi	r2,r2,23480
   33da4:	11000017 	ldw	r4,0(r2)
   33da8:	20800f17 	ldw	r2,60(r4)
   33dac:	10000126 	beq	r2,zero,33db4 <exit+0x30>
   33db0:	103ee83a 	callr	r2
   33db4:	8009883a 	mov	r4,r16
   33db8:	00341080 	call	34108 <_exit>

00033dbc <memcmp>:
   33dbc:	01c000c4 	movi	r7,3
   33dc0:	3980192e 	bgeu	r7,r6,33e28 <memcmp+0x6c>
   33dc4:	2904b03a 	or	r2,r5,r4
   33dc8:	11c4703a 	and	r2,r2,r7
   33dcc:	10000f26 	beq	r2,zero,33e0c <memcmp+0x50>
   33dd0:	20c00003 	ldbu	r3,0(r4)
   33dd4:	28800003 	ldbu	r2,0(r5)
   33dd8:	1880151e 	bne	r3,r2,33e30 <memcmp+0x74>
   33ddc:	31bfff84 	addi	r6,r6,-2
   33de0:	01ffffc4 	movi	r7,-1
   33de4:	00000406 	br	33df8 <memcmp+0x3c>
   33de8:	20c00003 	ldbu	r3,0(r4)
   33dec:	28800003 	ldbu	r2,0(r5)
   33df0:	31bfffc4 	addi	r6,r6,-1
   33df4:	18800e1e 	bne	r3,r2,33e30 <memcmp+0x74>
   33df8:	21000044 	addi	r4,r4,1
   33dfc:	29400044 	addi	r5,r5,1
   33e00:	31fff91e 	bne	r6,r7,33de8 <memcmp+0x2c>
   33e04:	0005883a 	mov	r2,zero
   33e08:	f800283a 	ret
   33e0c:	20c00017 	ldw	r3,0(r4)
   33e10:	28800017 	ldw	r2,0(r5)
   33e14:	1880041e 	bne	r3,r2,33e28 <memcmp+0x6c>
   33e18:	31bfff04 	addi	r6,r6,-4
   33e1c:	21000104 	addi	r4,r4,4
   33e20:	29400104 	addi	r5,r5,4
   33e24:	39bff936 	bltu	r7,r6,33e0c <memcmp+0x50>
   33e28:	303fe91e 	bne	r6,zero,33dd0 <memcmp+0x14>
   33e2c:	003ff506 	br	33e04 <memcmp+0x48>
   33e30:	1885c83a 	sub	r2,r3,r2
   33e34:	f800283a 	ret

00033e38 <__register_exitproc>:
   33e38:	defffa04 	addi	sp,sp,-24
   33e3c:	008000f4 	movhi	r2,3
   33e40:	1096ee04 	addi	r2,r2,23480
   33e44:	dc000315 	stw	r16,12(sp)
   33e48:	14000017 	ldw	r16,0(r2)
   33e4c:	dc400415 	stw	r17,16(sp)
   33e50:	dfc00515 	stw	ra,20(sp)
   33e54:	80805217 	ldw	r2,328(r16)
   33e58:	2023883a 	mov	r17,r4
   33e5c:	10003e26 	beq	r2,zero,33f58 <__register_exitproc+0x120>
   33e60:	10c00117 	ldw	r3,4(r2)
   33e64:	020007c4 	movi	r8,31
   33e68:	40c0180e 	bge	r8,r3,33ecc <__register_exitproc+0x94>
   33e6c:	00800034 	movhi	r2,0
   33e70:	10800004 	addi	r2,r2,0
   33e74:	1000061e 	bne	r2,zero,33e90 <__register_exitproc+0x58>
   33e78:	00bfffc4 	movi	r2,-1
   33e7c:	dfc00517 	ldw	ra,20(sp)
   33e80:	dc400417 	ldw	r17,16(sp)
   33e84:	dc000317 	ldw	r16,12(sp)
   33e88:	dec00604 	addi	sp,sp,24
   33e8c:	f800283a 	ret
   33e90:	01006404 	movi	r4,400
   33e94:	d9400015 	stw	r5,0(sp)
   33e98:	d9800115 	stw	r6,4(sp)
   33e9c:	d9c00215 	stw	r7,8(sp)
   33ea0:	00000000 	call	0 <__alt_mem_mem_1-0x20000>
   33ea4:	d9400017 	ldw	r5,0(sp)
   33ea8:	d9800117 	ldw	r6,4(sp)
   33eac:	d9c00217 	ldw	r7,8(sp)
   33eb0:	103ff126 	beq	r2,zero,33e78 <__register_exitproc+0x40>
   33eb4:	80c05217 	ldw	r3,328(r16)
   33eb8:	10000115 	stw	zero,4(r2)
   33ebc:	10c00015 	stw	r3,0(r2)
   33ec0:	80805215 	stw	r2,328(r16)
   33ec4:	10006215 	stw	zero,392(r2)
   33ec8:	10006315 	stw	zero,396(r2)
   33ecc:	10c00117 	ldw	r3,4(r2)
   33ed0:	88000d1e 	bne	r17,zero,33f08 <__register_exitproc+0xd0>
   33ed4:	19000084 	addi	r4,r3,2
   33ed8:	2109883a 	add	r4,r4,r4
   33edc:	18c00044 	addi	r3,r3,1
   33ee0:	2109883a 	add	r4,r4,r4
   33ee4:	1109883a 	add	r4,r2,r4
   33ee8:	10c00115 	stw	r3,4(r2)
   33eec:	0005883a 	mov	r2,zero
   33ef0:	21400015 	stw	r5,0(r4)
   33ef4:	dfc00517 	ldw	ra,20(sp)
   33ef8:	dc400417 	ldw	r17,16(sp)
   33efc:	dc000317 	ldw	r16,12(sp)
   33f00:	dec00604 	addi	sp,sp,24
   33f04:	f800283a 	ret
   33f08:	02400044 	movi	r9,1
   33f0c:	12806217 	ldw	r10,392(r2)
   33f10:	48d2983a 	sll	r9,r9,r3
   33f14:	19000804 	addi	r4,r3,32
   33f18:	18d1883a 	add	r8,r3,r3
   33f1c:	2109883a 	add	r4,r4,r4
   33f20:	4211883a 	add	r8,r8,r8
   33f24:	2109883a 	add	r4,r4,r4
   33f28:	1109883a 	add	r4,r2,r4
   33f2c:	1211883a 	add	r8,r2,r8
   33f30:	5254b03a 	or	r10,r10,r9
   33f34:	21c02215 	stw	r7,136(r4)
   33f38:	41802215 	stw	r6,136(r8)
   33f3c:	12806215 	stw	r10,392(r2)
   33f40:	01000084 	movi	r4,2
   33f44:	893fe31e 	bne	r17,r4,33ed4 <__register_exitproc+0x9c>
   33f48:	11006317 	ldw	r4,396(r2)
   33f4c:	2252b03a 	or	r9,r4,r9
   33f50:	12406315 	stw	r9,396(r2)
   33f54:	003fdf06 	br	33ed4 <__register_exitproc+0x9c>
   33f58:	00800134 	movhi	r2,4
   33f5c:	10a18804 	addi	r2,r2,-31200
   33f60:	80805215 	stw	r2,328(r16)
   33f64:	003fbe06 	br	33e60 <__register_exitproc+0x28>

00033f68 <__call_exitprocs>:
   33f68:	008000f4 	movhi	r2,3
   33f6c:	1096ee04 	addi	r2,r2,23480
   33f70:	10800017 	ldw	r2,0(r2)
   33f74:	defff304 	addi	sp,sp,-52
   33f78:	df000b15 	stw	fp,44(sp)
   33f7c:	d8800015 	stw	r2,0(sp)
   33f80:	10805204 	addi	r2,r2,328
   33f84:	dd400815 	stw	r21,32(sp)
   33f88:	dfc00c15 	stw	ra,48(sp)
   33f8c:	ddc00a15 	stw	r23,40(sp)
   33f90:	dd800915 	stw	r22,36(sp)
   33f94:	dd000715 	stw	r20,28(sp)
   33f98:	dcc00615 	stw	r19,24(sp)
   33f9c:	dc800515 	stw	r18,20(sp)
   33fa0:	dc400415 	stw	r17,16(sp)
   33fa4:	dc000315 	stw	r16,12(sp)
   33fa8:	d9000115 	stw	r4,4(sp)
   33fac:	2839883a 	mov	fp,r5
   33fb0:	d8800215 	stw	r2,8(sp)
   33fb4:	057fffc4 	movi	r21,-1
   33fb8:	d8800017 	ldw	r2,0(sp)
   33fbc:	ddc00217 	ldw	r23,8(sp)
   33fc0:	14805217 	ldw	r18,328(r2)
   33fc4:	90001726 	beq	r18,zero,34024 <__call_exitprocs+0xbc>
   33fc8:	94400117 	ldw	r17,4(r18)
   33fcc:	8c3fffc4 	addi	r16,r17,-1
   33fd0:	80001116 	blt	r16,zero,34018 <__call_exitprocs+0xb0>
   33fd4:	8c400044 	addi	r17,r17,1
   33fd8:	8427883a 	add	r19,r16,r16
   33fdc:	8c63883a 	add	r17,r17,r17
   33fe0:	95802204 	addi	r22,r18,136
   33fe4:	9ce7883a 	add	r19,r19,r19
   33fe8:	8c63883a 	add	r17,r17,r17
   33fec:	b4e7883a 	add	r19,r22,r19
   33ff0:	9463883a 	add	r17,r18,r17
   33ff4:	e0001726 	beq	fp,zero,34054 <__call_exitprocs+0xec>
   33ff8:	8c87c83a 	sub	r3,r17,r18
   33ffc:	b0c7883a 	add	r3,r22,r3
   34000:	18c01e17 	ldw	r3,120(r3)
   34004:	1f001326 	beq	r3,fp,34054 <__call_exitprocs+0xec>
   34008:	843fffc4 	addi	r16,r16,-1
   3400c:	9cffff04 	addi	r19,r19,-4
   34010:	8c7fff04 	addi	r17,r17,-4
   34014:	857ff71e 	bne	r16,r21,33ff4 <__call_exitprocs+0x8c>
   34018:	00800034 	movhi	r2,0
   3401c:	10800004 	addi	r2,r2,0
   34020:	10002a1e 	bne	r2,zero,340cc <__call_exitprocs+0x164>
   34024:	dfc00c17 	ldw	ra,48(sp)
   34028:	df000b17 	ldw	fp,44(sp)
   3402c:	ddc00a17 	ldw	r23,40(sp)
   34030:	dd800917 	ldw	r22,36(sp)
   34034:	dd400817 	ldw	r21,32(sp)
   34038:	dd000717 	ldw	r20,28(sp)
   3403c:	dcc00617 	ldw	r19,24(sp)
   34040:	dc800517 	ldw	r18,20(sp)
   34044:	dc400417 	ldw	r17,16(sp)
   34048:	dc000317 	ldw	r16,12(sp)
   3404c:	dec00d04 	addi	sp,sp,52
   34050:	f800283a 	ret
   34054:	91000117 	ldw	r4,4(r18)
   34058:	88c00017 	ldw	r3,0(r17)
   3405c:	213fffc4 	addi	r4,r4,-1
   34060:	24001526 	beq	r4,r16,340b8 <__call_exitprocs+0x150>
   34064:	88000015 	stw	zero,0(r17)
   34068:	183fe726 	beq	r3,zero,34008 <__call_exitprocs+0xa0>
   3406c:	00800044 	movi	r2,1
   34070:	1408983a 	sll	r4,r2,r16
   34074:	91406217 	ldw	r5,392(r18)
   34078:	95000117 	ldw	r20,4(r18)
   3407c:	214a703a 	and	r5,r4,r5
   34080:	28000b26 	beq	r5,zero,340b0 <__call_exitprocs+0x148>
   34084:	91406317 	ldw	r5,396(r18)
   34088:	2148703a 	and	r4,r4,r5
   3408c:	20000c1e 	bne	r4,zero,340c0 <__call_exitprocs+0x158>
   34090:	99400017 	ldw	r5,0(r19)
   34094:	d9000117 	ldw	r4,4(sp)
   34098:	183ee83a 	callr	r3
   3409c:	90c00117 	ldw	r3,4(r18)
   340a0:	1d3fc51e 	bne	r3,r20,33fb8 <__call_exitprocs+0x50>
   340a4:	b8c00017 	ldw	r3,0(r23)
   340a8:	1cbfd726 	beq	r3,r18,34008 <__call_exitprocs+0xa0>
   340ac:	003fc206 	br	33fb8 <__call_exitprocs+0x50>
   340b0:	183ee83a 	callr	r3
   340b4:	003ff906 	br	3409c <__call_exitprocs+0x134>
   340b8:	94000115 	stw	r16,4(r18)
   340bc:	003fea06 	br	34068 <__call_exitprocs+0x100>
   340c0:	99000017 	ldw	r4,0(r19)
   340c4:	183ee83a 	callr	r3
   340c8:	003ff406 	br	3409c <__call_exitprocs+0x134>
   340cc:	90c00117 	ldw	r3,4(r18)
   340d0:	1800071e 	bne	r3,zero,340f0 <__call_exitprocs+0x188>
   340d4:	90c00017 	ldw	r3,0(r18)
   340d8:	18000926 	beq	r3,zero,34100 <__call_exitprocs+0x198>
   340dc:	9009883a 	mov	r4,r18
   340e0:	b8c00015 	stw	r3,0(r23)
   340e4:	00000000 	call	0 <__alt_mem_mem_1-0x20000>
   340e8:	bc800017 	ldw	r18,0(r23)
   340ec:	003fb506 	br	33fc4 <__call_exitprocs+0x5c>
   340f0:	90c00017 	ldw	r3,0(r18)
   340f4:	902f883a 	mov	r23,r18
   340f8:	1825883a 	mov	r18,r3
   340fc:	003fb106 	br	33fc4 <__call_exitprocs+0x5c>
   34100:	0007883a 	mov	r3,zero
   34104:	003ffb06 	br	340f4 <__call_exitprocs+0x18c>

00034108 <_exit>:
 *
 * ALT_EXIT is mapped onto the _exit() system call in alt_syscall.h
 */

void ALT_EXIT (int exit_code)
{
   34108:	defffc04 	addi	sp,sp,-16
   3410c:	df000315 	stw	fp,12(sp)
   34110:	df000304 	addi	fp,sp,12
   34114:	e13fff15 	stw	r4,-4(fp)
  ALT_LOG_PRINT_BOOT("[alt_exit.c] Entering _exit() function.\r\n");
  ALT_LOG_PRINT_BOOT("[alt_exit.c] Exit code from main was %d.\r\n",exit_code);
  /* Stop all other threads */

  ALT_LOG_PRINT_BOOT("[alt_exit.c] Calling ALT_OS_STOP().\r\n");
  ALT_OS_STOP();
   34118:	0001883a 	nop
   3411c:	e0bfff17 	ldw	r2,-4(fp)
   34120:	e0bffd15 	stw	r2,-12(fp)
/*
 * Routine called on exit.
 */
static ALT_INLINE ALT_ALWAYS_INLINE void alt_sim_halt(int exit_code)
{
  int r2 = exit_code;
   34124:	e0bffd17 	ldw	r2,-12(fp)
   34128:	e0bffe15 	stw	r2,-8(fp)
  __asm__ volatile ("\n0:\n\taddi %0,%0, -1\n\tbgt %0,zero,0b" : : "r" (ALT_CPU_FREQ/100) ); /* Delay for >30ms */

  __asm__ volatile ("break 2" : : "D02"(r2), "D03"(r3) ALT_GMON_DATA );

#else /* !DEBUG_STUB */
  if (r2) {
   3412c:	e0bffe17 	ldw	r2,-8(fp)
   34130:	10000226 	beq	r2,zero,3413c <_exit+0x34>
    ALT_SIM_FAIL();
   34134:	002af070 	cmpltui	zero,zero,43969
   34138:	00000106 	br	34140 <_exit+0x38>
  } else {
    ALT_SIM_PASS();
   3413c:	002af0b0 	cmpltui	zero,zero,43970
  ALT_SIM_HALT(exit_code);

  /* spin forever, since there's no where to go back to */

  ALT_LOG_PRINT_BOOT("[alt_exit.c] Spinning forever.\r\n");
  while (1);
   34140:	003fff06 	br	34140 <_exit+0x38>
