
stage1.elf:     file format elf32-littlenios2
stage1.elf
architecture: nios2, flags 0x00000112:
EXEC_P, HAS_SYMS, D_PAGED
start address 0x000201b8

Program Header:
    LOAD off    0x00001000 vaddr 0x00020000 paddr 0x00020000 align 2**12
         filesz 0x00000020 memsz 0x00000020 flags r-x
    LOAD off    0x00001020 vaddr 0x00020020 paddr 0x00020020 align 2**12
         filesz 0x0000f610 memsz 0x0000f610 flags r-x
    LOAD off    0x00010630 vaddr 0x0002f630 paddr 0x00030124 align 2**12
         filesz 0x00000af4 memsz 0x00000af4 flags rw-
    LOAD off    0x00011c18 vaddr 0x00030c18 paddr 0x00030c18 align 2**12
         filesz 0x00000000 memsz 0x00000afc flags rw-

Sections:
Idx Name          Size      VMA       LMA       File off  Algn
  0 .entry        00000020  00020000  00020000  00001000  2**5
                  CONTENTS, ALLOC, LOAD, READONLY, CODE
  1 .exceptions   00000198  00020020  00020020  00001020  2**2
                  CONTENTS, ALLOC, LOAD, READONLY, CODE
  2 .text         0000e840  000201b8  000201b8  000011b8  2**2
                  CONTENTS, ALLOC, LOAD, READONLY, CODE
  3 .rodata       00000c38  0002e9f8  0002e9f8  0000f9f8  2**2
                  CONTENTS, ALLOC, LOAD, READONLY, DATA
  4 .rwdata       00000af4  0002f630  00030124  00010630  2**2
                  CONTENTS, ALLOC, LOAD, DATA, SMALL_DATA
  5 .bss          00000afc  00030c18  00030c18  00011c18  2**2
                  ALLOC, SMALL_DATA
  6 .comment      00000023  00000000  00000000  00011124  2**0
                  CONTENTS, READONLY
  7 .debug_aranges 00000f60  00000000  00000000  00011148  2**3
                  CONTENTS, READONLY, DEBUGGING
  8 .debug_info   0002cde2  00000000  00000000  000120a8  2**0
                  CONTENTS, READONLY, DEBUGGING
  9 .debug_abbrev 0000abda  00000000  00000000  0003ee8a  2**0
                  CONTENTS, READONLY, DEBUGGING
 10 .debug_line   0000c554  00000000  00000000  00049a64  2**0
                  CONTENTS, READONLY, DEBUGGING
 11 .debug_frame  00001cb0  00000000  00000000  00055fb8  2**2
                  CONTENTS, READONLY, DEBUGGING
 12 .debug_str    000034c0  00000000  00000000  00057c68  2**0
                  CONTENTS, READONLY, DEBUGGING
 13 .debug_loc    0001229d  00000000  00000000  0005b128  2**0
                  CONTENTS, READONLY, DEBUGGING
 14 .debug_alt_sim_info 00000010  00000000  00000000  0006d3c8  2**2
                  CONTENTS, READONLY, DEBUGGING
 15 .debug_ranges 00000a80  00000000  00000000  0006d3d8  2**3
                  CONTENTS, READONLY, DEBUGGING
 16 .thread_model 00000003  00000000  00000000  000714ae  2**0
                  CONTENTS, READONLY
 17 .cpu          00000005  00000000  00000000  000714b1  2**0
                  CONTENTS, READONLY
 18 .qsys         00000001  00000000  00000000  000714b6  2**0
                  CONTENTS, READONLY
 19 .simulation_enabled 00000001  00000000  00000000  000714b7  2**0
                  CONTENTS, READONLY
 20 .sysid_hash   00000004  00000000  00000000  000714b8  2**0
                  CONTENTS, READONLY
 21 .sysid_base   00000004  00000000  00000000  000714bc  2**0
                  CONTENTS, READONLY
 22 .sysid_time   00000004  00000000  00000000  000714c0  2**0
                  CONTENTS, READONLY
 23 .stderr_dev   0000000b  00000000  00000000  000714c4  2**0
                  CONTENTS, READONLY
 24 .stdin_dev    0000000b  00000000  00000000  000714cf  2**0
                  CONTENTS, READONLY
 25 .stdout_dev   0000000b  00000000  00000000  000714da  2**0
                  CONTENTS, READONLY
 26 .sopc_system_name 00000005  00000000  00000000  000714e5  2**0
                  CONTENTS, READONLY
 27 .quartus_project_dir 0000001b  00000000  00000000  000714ea  2**0
                  CONTENTS, READONLY
 28 .sopcinfo     0019b37b  00000000  00000000  00071505  2**0
                  CONTENTS, READONLY
SYMBOL TABLE:
00020000 l    d  .entry	00000000 .entry
00020020 l    d  .exceptions	00000000 .exceptions
000201b8 l    d  .text	00000000 .text
0002e9f8 l    d  .rodata	00000000 .rodata
0002f630 l    d  .rwdata	00000000 .rwdata
00030c18 l    d  .bss	00000000 .bss
00000000 l    d  .comment	00000000 .comment
00000000 l    d  .debug_aranges	00000000 .debug_aranges
00000000 l    d  .debug_info	00000000 .debug_info
00000000 l    d  .debug_abbrev	00000000 .debug_abbrev
00000000 l    d  .debug_line	00000000 .debug_line
00000000 l    d  .debug_frame	00000000 .debug_frame
00000000 l    d  .debug_str	00000000 .debug_str
00000000 l    d  .debug_loc	00000000 .debug_loc
00000000 l    d  .debug_alt_sim_info	00000000 .debug_alt_sim_info
00000000 l    d  .debug_ranges	00000000 .debug_ranges
00000000 l    df *ABS*	00000000 ../stage1_bsp//obj/HAL/src/crt0.o
000201f0 l       .text	00000000 alt_after_alt_main
00000000 l    df *ABS*	00000000 alt_exception_entry.o
00020094 l       .exceptions	00000000 alt_exception_unknown
00000000 l    df *ABS*	00000000 alt_irq_handler.c
00000000 l    df *ABS*	00000000 encoder.c
00000000 l    df *ABS*	00000000 huffdata.c
00000000 l    df *ABS*	00000000 huffman.c
000208d8 l     F .text	00000074 get_vli_size
00000000 l    df *ABS*	00000000 main.c
00000000 l    df *ABS*	00000000 fifo_io.c
00000000 l    df *ABS*	00000000 readYUV.c
00021afc l     F .text	0000004c clamp
00000000 l    df *ABS*	00000000 lib2-mul.c
00000000 l    df *ABS*	00000000 calloc.c
00000000 l    df *ABS*	00000000 mallocr.c
00000000 l    df *ABS*	00000000 fclose.c
00000000 l    df *ABS*	00000000 fflush.c
00000000 l    df *ABS*	00000000 findfp.c
00022240 l     F .text	00000008 __fp_lock
00022248 l     F .text	00000008 __fp_unlock
00000000 l    df *ABS*	00000000 fopen.c
00000000 l    df *ABS*	00000000 fread.c
00000000 l    df *ABS*	00000000 mallocr.c
00000000 l    df *ABS*	00000000 fseek.c
00000000 l    df *ABS*	00000000 fstatr.c
00000000 l    df *ABS*	00000000 fwalk.c
00000000 l    df *ABS*	00000000 fwrite.c
00000000 l    df *ABS*	00000000 impure.c
0002f690 l     O .rwdata	00000400 impure_data
00000000 l    df *ABS*	00000000 int_errno.c
00000000 l    df *ABS*	00000000 makebuf.c
00000000 l    df *ABS*	00000000 malloc.c
00000000 l    df *ABS*	00000000 mallocr.c
00000000 l    df *ABS*	00000000 memcpy.c
00000000 l    df *ABS*	00000000 memset.c
00000000 l    df *ABS*	00000000 openr.c
00000000 l    df *ABS*	00000000 printf.c
00000000 l    df *ABS*	00000000 putchar.c
00000000 l    df *ABS*	00000000 puts.c
00000000 l    df *ABS*	00000000 refill.c
00024150 l     F .text	0000001c lflush
00000000 l    df *ABS*	00000000 rewind.c
00000000 l    df *ABS*	00000000 sbrkr.c
00000000 l    df *ABS*	00000000 stdio.c
00000000 l    df *ABS*	00000000 strlen.c
00000000 l    df *ABS*	00000000 vfprintf.c
000245d4 l     F .text	00000034 __sprint_r
0002f346 l     O .rodata	00000010 blanks.3515
0002f356 l     O .rodata	00000010 zeroes.3516
00000000 l    df *ABS*	00000000 writer.c
00000000 l    df *ABS*	00000000 wsetup.c
00000000 l    df *ABS*	00000000 closer.c
00000000 l    df *ABS*	00000000 dtoa.c
000266ec l     F .text	0000023c quorem
00000000 l    df *ABS*	00000000 flags.c
00000000 l    df *ABS*	00000000 fvwrite.c
00000000 l    df *ABS*	00000000 isattyr.c
00000000 l    df *ABS*	00000000 locale.c
0002f388 l     O .rodata	00000030 lconv
00000000 l    df *ABS*	00000000 lseekr.c
00000000 l    df *ABS*	00000000 memchr.c
00000000 l    df *ABS*	00000000 memmove.c
00000000 l    df *ABS*	00000000 mprec.c
0002f4d0 l     O .rodata	0000000c p05.2435
00000000 l    df *ABS*	00000000 putc.c
00000000 l    df *ABS*	00000000 readr.c
00000000 l    df *ABS*	00000000 mallocr.c
00000000 l    df *ABS*	00000000 s_isinfd.c
00000000 l    df *ABS*	00000000 s_isnand.c
00000000 l    df *ABS*	00000000 strcmp.c
00000000 l    df *ABS*	00000000 wbuf.c
00000000 l    df *ABS*	00000000 libgcc2.c
00000000 l    df *ABS*	00000000 libgcc2.c
00000000 l    df *ABS*	00000000 fp-bit.c
0002b02c l     F .text	00000354 _fpadd_parts
00000000 l    df *ABS*	00000000 fp-bit.c
00000000 l    df *ABS*	00000000 fp-bit.c
00000000 l    df *ABS*	00000000 fp-bit.c
00000000 l    df *ABS*	00000000 fp-bit.c
00000000 l    df *ABS*	00000000 fp-bit.c
00000000 l    df *ABS*	00000000 fp-bit.c
00000000 l    df *ABS*	00000000 fp-bit.c
00000000 l    df *ABS*	00000000 fp-bit.c
00000000 l    df *ABS*	00000000 fp-bit.c
00000000 l    df *ABS*	00000000 fp-bit.c
00000000 l    df *ABS*	00000000 fp-bit.c
00000000 l    df *ABS*	00000000 lib2-divmod.c
0002bd6c l     F .text	00000074 udivmodsi4
00000000 l    df *ABS*	00000000 libgcc2.c
00000000 l    df *ABS*	00000000 libgcc2.c
00000000 l    df *ABS*	00000000 libgcc2.c
00000000 l    df *ABS*	00000000 fp-bit.c
00000000 l    df *ABS*	00000000 fp-bit.c
00000000 l    df *ABS*	00000000 fp-bit.c
00000000 l    df *ABS*	00000000 libgcc2.c
00000000 l    df *ABS*	00000000 libgcc2.c
00000000 l    df *ABS*	00000000 alt_close.c
0002c4d8 l     F .text	00000050 alt_get_errno
00000000 l    df *ABS*	00000000 alt_dev.c
0002c5f4 l     F .text	0000002c alt_dev_null_write
00000000 l    df *ABS*	00000000 alt_errno.c
00000000 l    df *ABS*	00000000 alt_fstat.c
0002c620 l     F .text	00000050 alt_get_errno
00000000 l    df *ABS*	00000000 alt_isatty.c
0002c720 l     F .text	00000050 alt_get_errno
00000000 l    df *ABS*	00000000 alt_load.c
0002c814 l     F .text	0000006c alt_load_section
00000000 l    df *ABS*	00000000 alt_lseek.c
0002c900 l     F .text	00000050 alt_get_errno
00000000 l    df *ABS*	00000000 alt_main.c
00000000 l    df *ABS*	00000000 alt_malloc_lock.c
00000000 l    df *ABS*	00000000 alt_open.c
0002cadc l     F .text	00000050 alt_get_errno
0002cb2c l     F .text	000000f0 alt_file_locked
00000000 l    df *ABS*	00000000 alt_read.c
0002cd74 l     F .text	00000050 alt_get_errno
00000000 l    df *ABS*	00000000 alt_release_fd.c
00000000 l    df *ABS*	00000000 alt_sbrk.c
000300cc l     O .rwdata	00000004 heap_end
00000000 l    df *ABS*	00000000 alt_write.c
0002cfe8 l     F .text	00000050 alt_get_errno
00000000 l    df *ABS*	00000000 alt_sys_init.c
0002d128 l     F .text	00000038 alt_dev_reg
0003004c l     O .rwdata	0000002c jtag_uart_1
00030078 l     O .rwdata	00000028 altera_hostfs
00000000 l    df *ABS*	00000000 altera_avalon_jtag_uart_fd.c
00000000 l    df *ABS*	00000000 altera_avalon_jtag_uart_read.c
00000000 l    df *ABS*	00000000 altera_avalon_jtag_uart_write.c
00000000 l    df *ABS*	00000000 altera_avalon_timer_sc.c
0002d448 l     F .text	00000074 alt_avalon_timer_sc_irq
00000000 l    df *ABS*	00000000 altera_hostfs.c
0003010c l     O .rwdata	00000004 hcinfo.2311
00030100 l     O .rwdata	00000004 hcinfo.2324
000300f4 l     O .rwdata	00000004 hcinfo.2333
000300e8 l     O .rwdata	00000004 hcinfo.2346
000300dc l     O .rwdata	00000004 hcinfo.2359
000300d0 l     O .rwdata	00000004 hcinfo.2385
00000000 l    df *ABS*	00000000 alt_dcache_flush_all.c
00000000 l    df *ABS*	00000000 alt_dev_llist_insert.c
0002db88 l     F .text	00000050 alt_get_errno
00000000 l    df *ABS*	00000000 alt_do_ctors.c
00000000 l    df *ABS*	00000000 alt_do_dtors.c
00000000 l    df *ABS*	00000000 alt_find_dev.c
00000000 l    df *ABS*	00000000 alt_find_file.c
00000000 l    df *ABS*	00000000 alt_fs_reg.c
00000000 l    df *ABS*	00000000 alt_get_fd.c
00000000 l    df *ABS*	00000000 alt_icache_flush_all.c
00000000 l    df *ABS*	00000000 alt_iic.c
00000000 l    df *ABS*	00000000 alt_iic_isr_register.c
00000000 l    df *ABS*	00000000 alt_io_redirect.c
0002e310 l     F .text	000000e0 alt_open_fd
00000000 l    df *ABS*	00000000 alt_irq_vars.c
00000000 l    df *ABS*	00000000 alt_tick.c
00000000 l    df *ABS*	00000000 altera_nios2_qsys_irq.c
00000000 l    df *ABS*	00000000 atexit.c
00000000 l    df *ABS*	00000000 exit.c
00000000 l    df *ABS*	00000000 memcmp.c
00000000 l    df *ABS*	00000000 __atexit.c
00000000 l    df *ABS*	00000000 __call_atexit.c
00000000 l    df *ABS*	00000000 alt_exit.c
00000000 l    df *ABS*	00000000 
00021a70 g     F .text	0000008c fifo_write_block
0002409c g     F .text	0000001c putchar
000297cc g     F .text	00000074 _mprec_log10
000298bc g     F .text	00000084 __any_on
000284c0 g     F .text	00000064 _isatty_r
0002f3b8 g     O .rodata	00000028 __mprec_tinytens
00030c20 g     O .bss	00000001 byte_buffer
0002ca24 g     F .text	00000078 alt_main
0002c494 g     F .text	00000044 __ashldi3
000240b8 g     F .text	00000084 _puts_r
00031484 g     O .bss	00000100 alt_irq
00028600 g     F .text	0000006c _lseek_r
00030124 g       *ABS*	00000000 __flash_rwdata_start
00027f44 g     F .text	00000098 __sflags
0002b8cc g     F .text	0000005c __eqdf2
00031714 g       *ABS*	00000000 __alt_heap_start
00024058 g     F .text	0000003c printf
0002f630 g     O .rwdata	00000018 luminance_dc_code_table
000244e4 g     F .text	0000005c __sseek
000222e4 g     F .text	0000010c __sinit
0002a25c g     F .text	0000013c __swbuf_r
00028524 g     F .text	0000009c _setlocale_r
0002225c g     F .text	00000078 __sfmoreglue
0002cabc g     F .text	00000020 __malloc_unlock
0002d544 g     F .text	0000016c alt_hostfs_open
00028764 g     F .text	0000018c memmove
000222d4 g     F .text	00000010 _cleanup
000288f0 g     F .text	000000a8 _Balloc
0002b984 g     F .text	00000064 __gtdf2
00000000  w      *UND*	00000000 __errno
00020000 g     F .entry	0000000c __reset
00020020 g       *ABS*	00000000 __flash_exceptions_start
00023198 g     F .text	00000068 _fstat_r
00030c28 g     O .bss	00000004 errno
00030c48 g     O .bss	00000004 alt_argv
000380a0 g       *ABS*	00000000 _gp
0002fecc g     O .rwdata	00000180 alt_fd_list
0002d88c g     F .text	000000b8 alt_hostfs_seek
00020000 g       *ABS*	00000000 __alt_mem_mem_1
00024094 g     F .text	00000008 _putchar_r
0002dd30 g     F .text	00000090 alt_find_dev
00023da4 g     F .text	00000140 memcpy
00022250 g     F .text	0000000c _cleanup_r
0002baa8 g     F .text	000000d4 __floatsidf
0002ded4 g     F .text	00000084 alt_fs_reg
0002e3f0 g     F .text	00000078 alt_io_redirect
0002ba4c g     F .text	0000005c __ltdf2
0002e9f8 g       *ABS*	00000000 __DTOR_END__
0002413c g     F .text	00000014 puts
00029728 g     F .text	000000a4 __ratio
00030c84 g     O .bss	00000200 chrominance_ac_code_table
00020b68 g     F .text	000003fc huffman_encode_block
0002d2bc g     F .text	000000f4 altera_avalon_jtag_uart_read
000235f8 g     F .text	00000014 malloc
0002402c g     F .text	0000002c _printf_r
0002be8c g     F .text	00000008 __udivsi3
0002c770 g     F .text	000000a4 isatty
0002f408 g     O .rodata	000000c8 __mprec_tens
000219c0 g     F .text	00000030 fifo_init
000285c0 g     F .text	0000000c __locale_charset
00030c34 g     O .bss	00000004 __malloc_top_pad
000300b0 g     O .rwdata	00000004 __mb_cur_max
000285cc g     F .text	0000000c _localeconv_r
00028d20 g     F .text	0000003c __i2b
00027fdc g     F .text	000004e4 __sfvwrite_r
000243a4 g     F .text	00000064 _sbrk_r
00021b48 g     F .text	00000280 read_444_format
00020614 g     F .text	000002c4 init_chroma_ac_tables
0002d71c g     F .text	000000b8 alt_hostfs_read
00029aec g     F .text	0000006c _read_r
0002fe98 g     O .rwdata	0000000c __lc_ctype
000300c4 g     O .rwdata	00000004 alt_max_fd
0002c27c g     F .text	00000104 __unpack_d
00021ed8 g     F .text	0000013c _fclose_r
00022210 g     F .text	00000030 fflush
00030c30 g     O .bss	00000004 __malloc_max_sbrked_mem
0002ebbc g     O .rodata	0000026f full_jpeg_headers_template
0002b380 g     F .text	00000054 __adddf3
0002949c g     F .text	00000148 __b2d
0002aa04 g     F .text	00000628 __umoddi3
0002c950 g     F .text	000000d4 lseek
000300a0 g     O .rwdata	00000004 _global_impure_ptr
00029b58 g     F .text	000005fc _realloc_r
00031714 g       *ABS*	00000000 __bss_end
0002e220 g     F .text	000000f0 alt_iic_isr_register
0002e500 g     F .text	00000104 alt_tick
0002a3b4 g     F .text	00000650 __udivdi3
0002f3e0 g     O .rodata	00000028 __mprec_bigtens
00028b04 g     F .text	00000104 __s2b
0002bc50 g     F .text	0000011c __floatunsidf
0002923c g     F .text	00000058 __mcmp
000224fc g     F .text	00000018 __fp_lock_all
0002e1d4 g     F .text	0000004c alt_ic_irq_enabled
0002e468 g     F .text	00000098 alt_alarm_stop
00030c50 g     O .bss	00000004 alt_irq_active
0002d6b0 g     F .text	0000006c alt_hostfs_close
000200ec g     F .exceptions	000000cc alt_irq_handler
0002fea4 g     O .rwdata	00000028 alt_dev_null
0002db6c g     F .text	0000001c alt_dcache_flush_all
00028c08 g     F .text	00000068 __hi0bits
0002bb7c g     F .text	000000d4 __fixdfsi
00021df0 g     F .text	0000001c calloc
00030124 g       *ABS*	00000000 __ram_rwdata_end
000300bc g     O .rwdata	00000008 alt_dev_list
0002d038 g     F .text	000000f0 write
00029940 g     F .text	000000bc _putc_r
00024358 g     F .text	00000038 _rewind_r
0002f630 g       *ABS*	00000000 __ram_rodata_end
0002c670 g     F .text	000000b0 fstat
0002c450 g     F .text	00000044 __lshrdi3
00028fb4 g     F .text	0000012c __pow5mult
00030c40 g     O .bss	00000004 __nlocale_changed
0002be94 g     F .text	00000008 __umodsi3
00031714 g       *ABS*	00000000 end
00023174 g     F .text	00000024 fseek
0002e9f8 g       *ABS*	00000000 __CTOR_LIST__
00033c68 g       *ABS*	00000000 __alt_stack_pointer
0002d4bc g     F .text	00000088 alt_avalon_timer_sc_init
0002bfac g     F .text	000000ac __clzsi2
0002f660 g     O .rwdata	00000018 chrominance_dc_code_table
0002d3b0 g     F .text	00000098 altera_avalon_jtag_uart_write
000224ec g     F .text	00000004 __sfp_lock_acquire
0002866c g     F .text	000000f8 memchr
00024608 g     F .text	00001e7c ___vfprintf_internal_r
00022a30 g     F .text	000002d0 _free_r
0002094c g     F .text	00000158 write_bits
0002e81c g     F .text	000001a0 __call_exitprocs
00030c3c g     O .bss	00000004 __mlocale_changed
000300a8 g     O .rwdata	00000004 __malloc_sbrk_base
000201b8 g     F .text	0000003c _start
00030c54 g     O .bss	00000004 _alt_tick_rate
000290e0 g     F .text	0000015c __lshift
00030c58 g     O .bss	00000004 _alt_nticks
0002cdc4 g     F .text	000000f4 read
0002d194 g     F .text	00000068 alt_sys_init
00023fc0 g     F .text	0000006c _open_r
0002e6ec g     F .text	00000130 __register_exitproc
00020aa4 g     F .text	000000c4 huffman_flush
00028d5c g     F .text	00000258 __multiply
00021dc8 g     F .text	00000028 __mulsi3
0002f630 g       *ABS*	00000000 __ram_rwdata_start
0002e9f8 g       *ABS*	00000000 __ram_rodata_start
00030c5c g     O .bss	00000028 __malloc_current_mallinfo
000295e4 g     F .text	00000144 __d2b
00030e84 g     O .bss	00000200 chrominance_ac_size_table
0002d1fc g     F .text	00000060 altera_avalon_jtag_uart_read_fd
0002df58 g     F .text	000000d4 alt_get_fd
0002c380 g     F .text	000000d0 __fpcmp_parts_d
00026688 g     F .text	00000064 _close_r
0002e670 g     F .text	0000007c memcmp
000210d8 g     F .text	000000e8 send_dqt_to_stage4
00031714 g       *ABS*	00000000 __alt_stack_base
00023360 g     F .text	000000b0 _fwrite_r
00026514 g     F .text	00000174 __swsetup_r
0002b718 g     F .text	000001b4 __divdf3
000223f0 g     F .text	000000fc __sfp
00029840 g     F .text	0000007c __copybits
0002fa90 g     O .rwdata	00000408 __malloc_av_
000224f8 g     F .text	00000004 __sinit_lock_release
0002b434 g     F .text	000002e4 __muldf3
00024408 g     F .text	00000054 __sread
000228b4 g     F .text	00000040 fread
0002ee2b g     O .rodata	00000040 q_table_luma
0002ddc0 g     F .text	00000114 alt_find_file
0002dbd8 g     F .text	000000a0 alt_dev_llist_insert
0002ca9c g     F .text	00000020 __malloc_lock
0002cf38 g     F .text	000000b0 sbrk
00022028 g     F .text	000001e8 _fflush_r
00021e0c g     F .text	000000cc _calloc_r
0002265c g     F .text	0000001c fopen
00030c18 g       *ABS*	00000000 __bss_start
00023ee4 g     F .text	000000dc memset
00021464 g     F .text	0000055c main
00030c4c g     O .bss	00000004 alt_envp
00030c2c g     O .bss	00000004 __malloc_max_total_mem
0002d25c g     F .text	00000060 altera_avalon_jtag_uart_write_fd
0002a398 g     F .text	0000001c __swbuf
00022678 g     F .text	0000023c _fread_r
000219f0 g     F .text	00000080 fifo_read_block
00024540 g     F .text	00000008 __sclose
00033c68 g       *ABS*	00000000 __alt_heap_limit
00022014 g     F .text	00000014 fclose
00031584 g     O .bss	00000190 _atexit0
00026928 g     F .text	0000161c _dtoa_r
00023620 g     F .text	00000784 _malloc_r
000300c8 g     O .rwdata	00000004 alt_errno
00023200 g     F .text	000000a8 _fwalk
00030c1c g     O .bss	00000004 bit_count
000299fc g     F .text	000000f0 putc
0002bde0 g     F .text	00000050 __divsi3
0002f4dc g     O .rodata	00000014 __thenan_df
000228f4 g     F .text	0000013c _malloc_trim_r
0002e9f8 g       *ABS*	00000000 __CTOR_END__
0002a1b8 g     F .text	000000a4 strcmp
0002e9f8 g       *ABS*	00000000 __flash_rodata_start
00020f64 g     F .text	00000174 parse_image_header
0002e9f8 g       *ABS*	00000000 __DTOR_LIST__
0002b928 g     F .text	0000005c __nedf2
0002d160 g     F .text	00000034 alt_irq_init
0002ceb8 g     F .text	00000080 alt_release_fd
0002f4f0 g     O .rodata	00000100 __clz_tab
00030c38 g     O .bss	00000004 _PathLocale
0002e624 g     F .text	00000014 atexit
000264a8 g     F .text	0000006c _write_r
00030c18 g     O .bss	00000004 bit_buffer
000211c0 g     F .text	00000130 send_dht_to_stage5
000285d8 g     F .text	0000001c setlocale
000300a4 g     O .rwdata	00000004 _impure_ptr
00030c44 g     O .bss	00000004 alt_argc
0002dcd4 g     F .text	0000005c _do_dtors
00022d00 g     F .text	00000474 _fseek_r
0002416c g     F .text	000001ec __srefill_r
00020020 g       .exceptions	00000000 alt_irq_entry
0002943c g     F .text	00000060 __ulp
0002a154 g     F .text	00000038 __isinfd
00022514 g     F .text	00000018 __fp_unlock_all
000300b4 g     O .rwdata	00000008 alt_fs_list
0002d7d4 g     F .text	000000b8 alt_hostfs_write
00030c24 g     O .bss	00000004 has_odd_byte
000201f4 g     F .text	00000420 encode_image_stage1
00020020 g       *ABS*	00000000 __ram_exceptions_start
000285f4 g     F .text	0000000c localeconv
0002e048 g     F .text	00000050 alt_ic_isr_register
00023410 g     F .text	00000040 fwrite
00030124 g       *ABS*	00000000 _edata
00031714 g       *ABS*	00000000 _end
000201b8 g       *ABS*	00000000 __ram_exceptions_end
00024390 g     F .text	00000014 rewind
0002e134 g     F .text	000000a0 alt_ic_irq_disable
0002445c g     F .text	00000088 __swrite
000300ac g     O .rwdata	00000004 __malloc_trim_threshold
00031084 g     O .bss	00000200 luminance_ac_size_table
0002e604 g     F .text	00000020 altera_nios2_qsys_irq_init
0002e638 g     F .text	00000038 exit
000232a8 g     F .text	000000b8 _fwalk_reent
00029294 g     F .text	000001a8 __mdiff
0002be30 g     F .text	0000005c __modsi3
00033c68 g       *ABS*	00000000 __alt_data_end
00020020 g     F .exceptions	00000000 alt_exception
000224f0 g     F .text	00000004 __sfp_lock_release
0002252c g     F .text	00000130 _fopen_r
0002e9bc g     F .text	0000003c _exit
0002a18c g     F .text	0000002c __isnand
0002f678 g     O .rwdata	00000018 chrominance_dc_size_table
0002be9c g     F .text	00000110 __muldi3
00023450 g     F .text	000001a8 __smakebuf_r
00024548 g     F .text	0000008c strlen
0002cc1c g     F .text	00000158 open
0002b9e8 g     F .text	00000064 __gedf2
0002e02c g     F .text	0000001c alt_icache_flush_all
00031284 g     O .bss	00000200 luminance_ac_code_table
00030118 g     O .rwdata	00000004 alt_priority_mask
0002e098 g     F .text	0000009c alt_ic_irq_enable
00026484 g     F .text	00000024 __vfprintf_internal
0002ee6b g     O .rodata	00000040 q_table_chroma
0002b3d4 g     F .text	00000060 __subdf3
00028c70 g     F .text	000000b0 __lo0bits
0003011c g     O .rwdata	00000008 alt_alarm_list
0002dc78 g     F .text	0000005c _do_ctors
0002f648 g     O .rwdata	00000018 luminance_dc_size_table
0002c528 g     F .text	000000cc close
0002c880 g     F .text	00000080 alt_load
0002c058 g     F .text	00000224 __pack_d
000212f0 g     F .text	00000174 send_dynamic_header
0002360c g     F .text	00000014 free
000224f4 g     F .text	00000004 __sinit_lock_acquire
000289c0 g     F .text	00000144 __multadd
00028998 g     F .text	00000028 _Bfree
0002d944 g     F .text	00000228 alt_hostfs_fstat



Disassembly of section .entry:

00020000 <__reset>:
 * Jump to the _start entry point in the .text section if reset code
 * is allowed or if optimizing for RTL simulation.
 */
#if defined(ALT_ALLOW_CODE_AT_RESET) || defined(ALT_SIM_OPTIMIZE)
    /* Jump to the _start entry point in the .text section. */
    movhi r1, %hi(_start)
   20000:	004000b4 	movhi	at,2
    ori r1, r1, %lo(_start)
   20004:	08406e14 	ori	at,at,440
    jmp r1
   20008:	0800683a 	jmp	at
	...

Disassembly of section .exceptions:

00020020 <alt_exception>:

#else /* ALT_EXCEPTION_STACK disabled */
        /* 
         * Reserve space on normal stack for registers about to be pushed.
         */
        addi  sp, sp, -76
   20020:	deffed04 	addi	sp,sp,-76
         * documentation for details).
         *
         * Leave a gap in the stack frame at 4(sp) for the muldiv handler to
         * store zero into.
         */
        stw   ra,  0(sp)
   20024:	dfc00015 	stw	ra,0(sp)
        stw   r1,   8(sp)
   20028:	d8400215 	stw	at,8(sp)
        stw   r2,  12(sp)
   2002c:	d8800315 	stw	r2,12(sp)
        stw   r3,  16(sp)
   20030:	d8c00415 	stw	r3,16(sp)
        stw   r4,  20(sp)
   20034:	d9000515 	stw	r4,20(sp)
        stw   r5,  24(sp)
   20038:	d9400615 	stw	r5,24(sp)
        stw   r6,  28(sp)
   2003c:	d9800715 	stw	r6,28(sp)
        stw   r7,  32(sp)
   20040:	d9c00815 	stw	r7,32(sp)
        rdctl r5, estatus   /* Read early to avoid usage stall */
   20044:	000b307a 	rdctl	r5,estatus
        stw   r8,  36(sp)
   20048:	da000915 	stw	r8,36(sp)
        stw   r9,  40(sp)
   2004c:	da400a15 	stw	r9,40(sp)
        stw   r10, 44(sp)
   20050:	da800b15 	stw	r10,44(sp)
        stw   r11, 48(sp)
   20054:	dac00c15 	stw	r11,48(sp)
        stw   r12, 52(sp)
   20058:	db000d15 	stw	r12,52(sp)
        stw   r13, 56(sp)
   2005c:	db400e15 	stw	r13,56(sp)
        stw   r14, 60(sp)
   20060:	db800f15 	stw	r14,60(sp)
        stw   r15, 64(sp)
   20064:	dbc01015 	stw	r15,64(sp)
        /*
         * ea-4 contains the address of the instruction being executed
         * when the exception occured. For interrupt exceptions, we will
         * will be re-issue the isntruction. Store it in 72(sp)
         */
        stw   r5,  68(sp)  /* estatus */
   20068:	d9401115 	stw	r5,68(sp)
        addi  r15, ea, -4  /* instruction that caused exception */
   2006c:	ebffff04 	addi	r15,ea,-4
        stw   r15,  72(sp)
   20070:	dbc01215 	stw	r15,72(sp)
#else
        /*
         * Test to see if the exception was a software exception or caused 
         * by an external interrupt, and vector accordingly.
         */
        rdctl r4, ipending
   20074:	0009313a 	rdctl	r4,ipending
        andi  r2, r5, 1
   20078:	2880004c 	andi	r2,r5,1
        beq   r2, zero, .Lnot_irq
   2007c:	10000326 	beq	r2,zero,2008c <alt_exception+0x6c>
        beq   r4, zero, .Lnot_irq
   20080:	20000226 	beq	r4,zero,2008c <alt_exception+0x6c>
        /*
         * Now that all necessary registers have been preserved, call 
         * alt_irq_handler() to process the interrupts.
         */

        call alt_irq_handler
   20084:	00200ec0 	call	200ec <alt_irq_handler>

        .section .exceptions.irqreturn, "xa"

        br    .Lexception_exit
   20088:	00000306 	br	20098 <alt_exception_unknown+0x4>
         * upon completion, so we write ea (address of instruction *after*
         * the one where the exception occured) into 72(sp). The actual
         * instruction that caused the exception is written in r2, which these
         * handlers will utilize.
         */
        stw   ea,  72(sp)  /* Don't re-issue */
   2008c:	df401215 	stw	ea,72(sp)
        ldw   r2, -4(ea)   /* Instruction that caused exception */
   20090:	e8bfff17 	ldw	r2,-4(ea)

00020094 <alt_exception_unknown>:
#ifdef NIOS2_HAS_DEBUG_STUB
       /*
        *  Either tell the user now (if there is a debugger attached) or go into
        *  the debug monitor which will loop until a debugger is attached.
        */
        break
   20094:	003da03a 	break	0
        /* 
         * Restore the saved registers, so that all general purpose registers 
         * have been restored to their state at the time the interrupt occured.
         */

        ldw   r5,  68(sp)
   20098:	d9401117 	ldw	r5,68(sp)
        ldw   ea,  72(sp)  /* This becomes the PC once eret is executed */
   2009c:	df401217 	ldw	ea,72(sp)
        ldw   ra,   0(sp)
   200a0:	dfc00017 	ldw	ra,0(sp)

        wrctl estatus, r5
   200a4:	2801707a 	wrctl	estatus,r5

        ldw   r1,   8(sp)
   200a8:	d8400217 	ldw	at,8(sp)
        ldw   r2,  12(sp)
   200ac:	d8800317 	ldw	r2,12(sp)
        ldw   r3,  16(sp)
   200b0:	d8c00417 	ldw	r3,16(sp)
        ldw   r4,  20(sp)
   200b4:	d9000517 	ldw	r4,20(sp)
        ldw   r5,  24(sp)
   200b8:	d9400617 	ldw	r5,24(sp)
        ldw   r6,  28(sp)
   200bc:	d9800717 	ldw	r6,28(sp)
        ldw   r7,  32(sp)
   200c0:	d9c00817 	ldw	r7,32(sp)

#if defined(ALT_EXCEPTION_STACK) && defined(ALT_STACK_CHECK)
        ldw   et, %gprel(alt_exception_old_stack_limit)(gp)
#endif

        ldw   r8,  36(sp)
   200c4:	da000917 	ldw	r8,36(sp)
        ldw   r9,  40(sp)
   200c8:	da400a17 	ldw	r9,40(sp)
        ldw   r10, 44(sp)
   200cc:	da800b17 	ldw	r10,44(sp)
        ldw   r11, 48(sp)
   200d0:	dac00c17 	ldw	r11,48(sp)
        ldw   r12, 52(sp)
   200d4:	db000d17 	ldw	r12,52(sp)
        ldw   r13, 56(sp)
   200d8:	db400e17 	ldw	r13,56(sp)
        ldw   r14, 60(sp)
   200dc:	db800f17 	ldw	r14,60(sp)
        ldw   r15, 64(sp)
   200e0:	dbc01017 	ldw	r15,64(sp)
        stw   et, %gprel(alt_stack_limit_value)(gp)
        stw   zero, %gprel(alt_exception_old_stack_limit)(gp)
#endif /* ALT_STACK_CHECK */
        ldw   sp,  76(sp)
#else /* ALT_EXCEPTION_STACK disabled */
        addi  sp, sp, 76
   200e4:	dec01304 	addi	sp,sp,76

        /*
         * Return to the interrupted instruction.
         */

        eret
   200e8:	ef80083a 	eret

000200ec <alt_irq_handler>:
 * instruction is present if the macro ALT_CI_INTERRUPT_VECTOR defined.
 */

void alt_irq_handler (void) __attribute__ ((section (".exceptions")));
void alt_irq_handler (void)
{
   200ec:	defff904 	addi	sp,sp,-28
   200f0:	dfc00615 	stw	ra,24(sp)
   200f4:	df000515 	stw	fp,20(sp)
   200f8:	df000504 	addi	fp,sp,20
  
  /*
   * Notify the operating system that we are at interrupt level.
   */ 
  
  ALT_OS_INT_ENTER();
   200fc:	0001883a 	nop
#ifndef NIOS2_EIC_PRESENT
static ALT_INLINE alt_u32 ALT_ALWAYS_INLINE alt_irq_pending (void)
{
  alt_u32 active;

  NIOS2_READ_IPENDING (active);
   20100:	0005313a 	rdctl	r2,ipending
   20104:	e0bffe15 	stw	r2,-8(fp)

  return active;
   20108:	e0bffe17 	ldw	r2,-8(fp)
   * Consider the case where the high priority interupt is asserted during
   * the interrupt entry sequence for a lower priority interrupt to see why
   * this is the case.
   */

  active = alt_irq_pending ();
   2010c:	e0bffb15 	stw	r2,-20(fp)

  do
  {
    i = 0;
   20110:	e03ffd15 	stw	zero,-12(fp)
    mask = 1;
   20114:	00800044 	movi	r2,1
   20118:	e0bffc15 	stw	r2,-16(fp)
     * called to clear the interrupt condition.
     */

    do
    {
      if (active & mask)
   2011c:	e0fffb17 	ldw	r3,-20(fp)
   20120:	e0bffc17 	ldw	r2,-16(fp)
   20124:	1884703a 	and	r2,r3,r2
   20128:	10001726 	beq	r2,zero,20188 <alt_irq_handler+0x9c>
      { 
#ifdef ALT_ENHANCED_INTERRUPT_API_PRESENT
        alt_irq[i].handler(alt_irq[i].context); 
   2012c:	00c000f4 	movhi	r3,3
   20130:	18c52104 	addi	r3,r3,5252
   20134:	e0bffd17 	ldw	r2,-12(fp)
   20138:	100490fa 	slli	r2,r2,3
   2013c:	1885883a 	add	r2,r3,r2
   20140:	10c00017 	ldw	r3,0(r2)
   20144:	010000f4 	movhi	r4,3
   20148:	21052104 	addi	r4,r4,5252
   2014c:	e0bffd17 	ldw	r2,-12(fp)
   20150:	100490fa 	slli	r2,r2,3
   20154:	2085883a 	add	r2,r4,r2
   20158:	10800104 	addi	r2,r2,4
   2015c:	10800017 	ldw	r2,0(r2)
   20160:	1009883a 	mov	r4,r2
   20164:	183ee83a 	callr	r3
#else
        alt_irq[i].handler(alt_irq[i].context, i); 
#endif
        break;
   20168:	0001883a 	nop
#ifndef NIOS2_EIC_PRESENT
static ALT_INLINE alt_u32 ALT_ALWAYS_INLINE alt_irq_pending (void)
{
  alt_u32 active;

  NIOS2_READ_IPENDING (active);
   2016c:	0005313a 	rdctl	r2,ipending
   20170:	e0bfff15 	stw	r2,-4(fp)

  return active;
   20174:	e0bfff17 	ldw	r2,-4(fp)
      mask <<= 1;
      i++;

    } while (1);

    active = alt_irq_pending ();
   20178:	e0bffb15 	stw	r2,-20(fp)
    
  } while (active);
   2017c:	e0bffb17 	ldw	r2,-20(fp)
   20180:	103fe31e 	bne	r2,zero,20110 <alt_irq_handler+0x24>

  /*
   * Notify the operating system that interrupt processing is complete.
   */ 

  ALT_OS_INT_EXIT();
   20184:	00000706 	br	201a4 <alt_irq_handler+0xb8>
#else
        alt_irq[i].handler(alt_irq[i].context, i); 
#endif
        break;
      }
      mask <<= 1;
   20188:	e0bffc17 	ldw	r2,-16(fp)
   2018c:	1085883a 	add	r2,r2,r2
   20190:	e0bffc15 	stw	r2,-16(fp)
      i++;
   20194:	e0bffd17 	ldw	r2,-12(fp)
   20198:	10800044 	addi	r2,r2,1
   2019c:	e0bffd15 	stw	r2,-12(fp)

    } while (1);
   201a0:	003fde06 	br	2011c <alt_irq_handler+0x30>
  /*
   * Notify the operating system that interrupt processing is complete.
   */ 

  ALT_OS_INT_EXIT();
}
   201a4:	e037883a 	mov	sp,fp
   201a8:	dfc00117 	ldw	ra,4(sp)
   201ac:	df000017 	ldw	fp,0(sp)
   201b0:	dec00204 	addi	sp,sp,8
   201b4:	f800283a 	ret

Disassembly of section .text:

000201b8 <_start>:

    /*
     * Now that the caches are initialized, set up the stack pointer and global pointer.
     * The values provided by the linker are assumed to be correctly aligned.
     */
    movhi sp, %hi(__alt_stack_pointer)
   201b8:	06c000f4 	movhi	sp,3
    ori sp, sp, %lo(__alt_stack_pointer)
   201bc:	decf1a14 	ori	sp,sp,15464
    movhi gp, %hi(_gp)
   201c0:	068000f4 	movhi	gp,3
    ori gp, gp, %lo(_gp)
   201c4:	d6a02814 	ori	gp,gp,32928
 */
#ifndef ALT_SIM_OPTIMIZE
    /* Log that the BSS is about to be cleared. */
    ALT_LOG_PUTS(alt_log_msg_bss)

    movhi r2, %hi(__bss_start)
   201c8:	008000f4 	movhi	r2,3
    ori r2, r2, %lo(__bss_start)
   201cc:	10830614 	ori	r2,r2,3096

    movhi r3, %hi(__bss_end)
   201d0:	00c000f4 	movhi	r3,3
    ori r3, r3, %lo(__bss_end)
   201d4:	18c5c514 	ori	r3,r3,5908

    beq r2, r3, 1f
   201d8:	10c00326 	beq	r2,r3,201e8 <_start+0x30>

0:
    stw zero, (r2)
   201dc:	10000015 	stw	zero,0(r2)
    addi r2, r2, 4
   201e0:	10800104 	addi	r2,r2,4
    bltu r2, r3, 0b
   201e4:	10fffd36 	bltu	r2,r3,201dc <_start+0x24>
     * section aren't defined until alt_load() has been called).
     */
    mov   et, zero
#endif

    call alt_load
   201e8:	002c8800 	call	2c880 <alt_load>

    /* Log that alt_main is about to be called. */
    ALT_LOG_PUTS(alt_log_msg_alt_main)

    /* Call the C entry point. It should never return. */
    call alt_main
   201ec:	002ca240 	call	2ca24 <alt_main>

000201f0 <alt_after_alt_main>:

    /* Wait in infinite loop in case alt_main does return. */
alt_after_alt_main:
    br alt_after_alt_main
   201f0:	003fff06 	br	201f0 <alt_after_alt_main>

000201f4 <encode_image_stage1>:
#include "encoder.h"
#include "nios2_common/fifo_io.h"
#include <stdio.h>

void encode_image_stage1(UINT8 *rgb_in, int width, int height, unsigned int fifo_base, unsigned int fifo_csr) {
   201f4:	deff8804 	addi	sp,sp,-480
   201f8:	dfc07715 	stw	ra,476(sp)
   201fc:	df007615 	stw	fp,472(sp)
   20200:	dc007515 	stw	r16,468(sp)
   20204:	df007504 	addi	fp,sp,468
   20208:	e13ffc15 	stw	r4,-16(fp)
   2020c:	e17ffd15 	stw	r5,-12(fp)
   20210:	e1bffe15 	stw	r6,-8(fp)
   20214:	e1ffff15 	stw	r7,-4(fp)
    int mcus_x = (width + 7) / 8;
   20218:	e0bffd17 	ldw	r2,-12(fp)
   2021c:	108001c4 	addi	r2,r2,7
   20220:	1000010e 	bge	r2,zero,20228 <encode_image_stage1+0x34>
   20224:	108001c4 	addi	r2,r2,7
   20228:	1005d0fa 	srai	r2,r2,3
   2022c:	e0bf9215 	stw	r2,-440(fp)
    int mcus_y = (height + 7) / 8;
   20230:	e0bffe17 	ldw	r2,-8(fp)
   20234:	108001c4 	addi	r2,r2,7
   20238:	1000010e 	bge	r2,zero,20240 <encode_image_stage1+0x4c>
   2023c:	108001c4 	addi	r2,r2,7
   20240:	1005d0fa 	srai	r2,r2,3
   20244:	e0bf9315 	stw	r2,-436(fp)
    
    INT16 Y_block[64], Cb_block[64], Cr_block[64];

    // Open a host-side dump for Stage 1 reference comparison
    FILE *f_stage1 = fopen("/mnt/host/files/hw_stage1_ycbcr.bin", "wb");
   20248:	010000f4 	movhi	r4,3
   2024c:	213a7e04 	addi	r4,r4,-5640
   20250:	014000f4 	movhi	r5,3
   20254:	297a8704 	addi	r5,r5,-5604
   20258:	002265c0 	call	2265c <fopen>
   2025c:	e0bf9415 	stw	r2,-432(fp)
    
    int row, col, x, y;
    for (row = 0; row < mcus_y; row++) {
   20260:	e03f8b15 	stw	zero,-468(fp)
   20264:	0000de06 	br	205e0 <encode_image_stage1+0x3ec>
        for (col = 0; col < mcus_x; col++) {
   20268:	e03f8c15 	stw	zero,-464(fp)
   2026c:	0000d606 	br	205c8 <encode_image_stage1+0x3d4>
            
            // 1. Safely extract the 8x8 block from the flat scanline array
            for (y = 0; y < 8; y++) {
   20270:	e03f8e15 	stw	zero,-456(fp)
   20274:	00008606 	br	20490 <encode_image_stage1+0x29c>
                for (x = 0; x < 8; x++) {
   20278:	e03f8d15 	stw	zero,-460(fp)
   2027c:	00007e06 	br	20478 <encode_image_stage1+0x284>
                    // Find the global X/Y pixel coordinate
                    int global_x = (col * 8) + x;
   20280:	e0bf8c17 	ldw	r2,-464(fp)
   20284:	100690fa 	slli	r3,r2,3
   20288:	e0bf8d17 	ldw	r2,-460(fp)
   2028c:	1885883a 	add	r2,r3,r2
   20290:	e0bf8f15 	stw	r2,-452(fp)
                    int global_y = (row * 8) + y;
   20294:	e0bf8b17 	ldw	r2,-468(fp)
   20298:	100690fa 	slli	r3,r2,3
   2029c:	e0bf8e17 	ldw	r2,-456(fp)
   202a0:	1885883a 	add	r2,r3,r2
   202a4:	e0bf9015 	stw	r2,-448(fp)

                    // Clamp to the edge if the image isn't a perfect multiple of 8
                    if (global_x >= width)  global_x = width - 1;
   202a8:	e0ff8f17 	ldw	r3,-452(fp)
   202ac:	e0bffd17 	ldw	r2,-12(fp)
   202b0:	18800316 	blt	r3,r2,202c0 <encode_image_stage1+0xcc>
   202b4:	e0bffd17 	ldw	r2,-12(fp)
   202b8:	10bfffc4 	addi	r2,r2,-1
   202bc:	e0bf8f15 	stw	r2,-452(fp)
                    if (global_y >= height) global_y = height - 1;
   202c0:	e0ff9017 	ldw	r3,-448(fp)
   202c4:	e0bffe17 	ldw	r2,-8(fp)
   202c8:	18800316 	blt	r3,r2,202d8 <encode_image_stage1+0xe4>
   202cc:	e0bffe17 	ldw	r2,-8(fp)
   202d0:	10bfffc4 	addi	r2,r2,-1
   202d4:	e0bf9015 	stw	r2,-448(fp)

                    // Calculate exactly where this pixel lives in the 1D array
                    int pixel_idx = (global_y * width + global_x) * 3;
   202d8:	e13f9017 	ldw	r4,-448(fp)
   202dc:	e17ffd17 	ldw	r5,-12(fp)
   202e0:	0021dc80 	call	21dc8 <__mulsi3>
   202e4:	1007883a 	mov	r3,r2
   202e8:	e0bf8f17 	ldw	r2,-452(fp)
   202ec:	1887883a 	add	r3,r3,r2
   202f0:	1805883a 	mov	r2,r3
   202f4:	1085883a 	add	r2,r2,r2
   202f8:	10c5883a 	add	r2,r2,r3
   202fc:	e0bf9515 	stw	r2,-428(fp)

                    int R = rgb_in[pixel_idx + 0];
   20300:	e0bf9517 	ldw	r2,-428(fp)
   20304:	e0fffc17 	ldw	r3,-16(fp)
   20308:	1885883a 	add	r2,r3,r2
   2030c:	10800003 	ldbu	r2,0(r2)
   20310:	10803fcc 	andi	r2,r2,255
   20314:	e0bf9615 	stw	r2,-424(fp)
                    int G = rgb_in[pixel_idx + 1];
   20318:	e0bf9517 	ldw	r2,-428(fp)
   2031c:	10800044 	addi	r2,r2,1
   20320:	e0fffc17 	ldw	r3,-16(fp)
   20324:	1885883a 	add	r2,r3,r2
   20328:	10800003 	ldbu	r2,0(r2)
   2032c:	10803fcc 	andi	r2,r2,255
   20330:	e0bf9715 	stw	r2,-420(fp)
                    int B = rgb_in[pixel_idx + 2];
   20334:	e0bf9517 	ldw	r2,-428(fp)
   20338:	10800084 	addi	r2,r2,2
   2033c:	e0fffc17 	ldw	r3,-16(fp)
   20340:	1885883a 	add	r2,r3,r2
   20344:	10800003 	ldbu	r2,0(r2)
   20348:	10803fcc 	andi	r2,r2,255
   2034c:	e0bf9815 	stw	r2,-416(fp)

                    // Standard CCIR 601 RGB-to-YCbCr Integer Math (Optimized for Nios II)
                    int Y  = ( 19595 * R + 38469 * G +  7471 * B) >> 16;
   20350:	e13f9617 	ldw	r4,-424(fp)
   20354:	015322c4 	movi	r5,19595
   20358:	0021dc80 	call	21dc8 <__mulsi3>
   2035c:	1021883a 	mov	r16,r2
   20360:	e13f9717 	ldw	r4,-420(fp)
   20364:	01659154 	movui	r5,38469
   20368:	0021dc80 	call	21dc8 <__mulsi3>
   2036c:	80a1883a 	add	r16,r16,r2
   20370:	e13f9817 	ldw	r4,-416(fp)
   20374:	01474bc4 	movi	r5,7471
   20378:	0021dc80 	call	21dc8 <__mulsi3>
   2037c:	8085883a 	add	r2,r16,r2
   20380:	1005d43a 	srai	r2,r2,16
   20384:	e0bf9915 	stw	r2,-412(fp)
                    int Cb = ((-11059 * R - 21709 * G + 32768 * B) >> 16) + 128;
   20388:	e13f9617 	ldw	r4,-424(fp)
   2038c:	01753344 	movi	r5,-11059
   20390:	0021dc80 	call	21dc8 <__mulsi3>
   20394:	1021883a 	mov	r16,r2
   20398:	e13f9717 	ldw	r4,-420(fp)
   2039c:	016accc4 	movi	r5,-21709
   203a0:	0021dc80 	call	21dc8 <__mulsi3>
   203a4:	8087883a 	add	r3,r16,r2
   203a8:	e0bf9817 	ldw	r2,-416(fp)
   203ac:	100493fa 	slli	r2,r2,15
   203b0:	1885883a 	add	r2,r3,r2
   203b4:	1005d43a 	srai	r2,r2,16
   203b8:	10802004 	addi	r2,r2,128
   203bc:	e0bf9a15 	stw	r2,-408(fp)
                    int Cr = (( 32768 * R - 27439 * G -  5329 * B) >> 16) + 128;
   203c0:	e0bf9617 	ldw	r2,-424(fp)
   203c4:	102093fa 	slli	r16,r2,15
   203c8:	e13f9717 	ldw	r4,-420(fp)
   203cc:	01653444 	movi	r5,-27439
   203d0:	0021dc80 	call	21dc8 <__mulsi3>
   203d4:	80a1883a 	add	r16,r16,r2
   203d8:	e13f9817 	ldw	r4,-416(fp)
   203dc:	017acbc4 	movi	r5,-5329
   203e0:	0021dc80 	call	21dc8 <__mulsi3>
   203e4:	8085883a 	add	r2,r16,r2
   203e8:	1005d43a 	srai	r2,r2,16
   203ec:	10802004 	addi	r2,r2,128
   203f0:	e0bf9b15 	stw	r2,-404(fp)

                    Y_block[y * 8 + x]  = (INT16)Y;
   203f4:	e0bf8e17 	ldw	r2,-456(fp)
   203f8:	100690fa 	slli	r3,r2,3
   203fc:	e0bf8d17 	ldw	r2,-460(fp)
   20400:	1885883a 	add	r2,r3,r2
   20404:	e0ff9917 	ldw	r3,-412(fp)
   20408:	1085883a 	add	r2,r2,r2
   2040c:	e13f8b04 	addi	r4,fp,-468
   20410:	2085883a 	add	r2,r4,r2
   20414:	10801104 	addi	r2,r2,68
   20418:	10c0000d 	sth	r3,0(r2)
                    Cb_block[y * 8 + x] = (INT16)Cb;
   2041c:	e0bf8e17 	ldw	r2,-456(fp)
   20420:	100690fa 	slli	r3,r2,3
   20424:	e0bf8d17 	ldw	r2,-460(fp)
   20428:	1885883a 	add	r2,r3,r2
   2042c:	e0ff9a17 	ldw	r3,-408(fp)
   20430:	1085883a 	add	r2,r2,r2
   20434:	e13f8b04 	addi	r4,fp,-468
   20438:	2085883a 	add	r2,r4,r2
   2043c:	10803104 	addi	r2,r2,196
   20440:	10c0000d 	sth	r3,0(r2)
                    Cr_block[y * 8 + x] = (INT16)Cr;
   20444:	e0bf8e17 	ldw	r2,-456(fp)
   20448:	100690fa 	slli	r3,r2,3
   2044c:	e0bf8d17 	ldw	r2,-460(fp)
   20450:	1885883a 	add	r2,r3,r2
   20454:	e0ff9b17 	ldw	r3,-404(fp)
   20458:	1085883a 	add	r2,r2,r2
   2045c:	e13f8b04 	addi	r4,fp,-468
   20460:	2085883a 	add	r2,r4,r2
   20464:	10805104 	addi	r2,r2,324
   20468:	10c0000d 	sth	r3,0(r2)
    for (row = 0; row < mcus_y; row++) {
        for (col = 0; col < mcus_x; col++) {
            
            // 1. Safely extract the 8x8 block from the flat scanline array
            for (y = 0; y < 8; y++) {
                for (x = 0; x < 8; x++) {
   2046c:	e0bf8d17 	ldw	r2,-460(fp)
   20470:	10800044 	addi	r2,r2,1
   20474:	e0bf8d15 	stw	r2,-460(fp)
   20478:	e0bf8d17 	ldw	r2,-460(fp)
   2047c:	10800210 	cmplti	r2,r2,8
   20480:	103f7f1e 	bne	r2,zero,20280 <encode_image_stage1+0x8c>
    int row, col, x, y;
    for (row = 0; row < mcus_y; row++) {
        for (col = 0; col < mcus_x; col++) {
            
            // 1. Safely extract the 8x8 block from the flat scanline array
            for (y = 0; y < 8; y++) {
   20484:	e0bf8e17 	ldw	r2,-456(fp)
   20488:	10800044 	addi	r2,r2,1
   2048c:	e0bf8e15 	stw	r2,-456(fp)
   20490:	e0bf8e17 	ldw	r2,-456(fp)
   20494:	10800210 	cmplti	r2,r2,8
   20498:	103f771e 	bne	r2,zero,20278 <encode_image_stage1+0x84>
                    Cr_block[y * 8 + x] = (INT16)Cr;
                }
            }
            
            // Optional debug print for the very first block
            if (col == 0 && row == 0) {
   2049c:	e0bf8c17 	ldw	r2,-464(fp)
   204a0:	1000201e 	bne	r2,zero,20524 <encode_image_stage1+0x330>
   204a4:	e0bf8b17 	ldw	r2,-468(fp)
   204a8:	10001e1e 	bne	r2,zero,20524 <encode_image_stage1+0x330>
                printf("\n--- Stage 1: MCU 0 (Y-Block) BEFORE FIFO ---\n");
   204ac:	010000f4 	movhi	r4,3
   204b0:	213a8804 	addi	r4,r4,-5600
   204b4:	002413c0 	call	2413c <puts>
                int j;
                for (j = 0; j < 64; j++) {
   204b8:	e03f9115 	stw	zero,-444(fp)
   204bc:	00001606 	br	20518 <encode_image_stage1+0x324>
                    printf("%6d ", Y_block[j]);
   204c0:	e0bf9117 	ldw	r2,-444(fp)
   204c4:	1085883a 	add	r2,r2,r2
   204c8:	e0ff8b04 	addi	r3,fp,-468
   204cc:	1885883a 	add	r2,r3,r2
   204d0:	10801104 	addi	r2,r2,68
   204d4:	1080000b 	ldhu	r2,0(r2)
   204d8:	10bfffcc 	andi	r2,r2,65535
   204dc:	10a0001c 	xori	r2,r2,32768
   204e0:	10a00004 	addi	r2,r2,-32768
   204e4:	010000f4 	movhi	r4,3
   204e8:	213a9404 	addi	r4,r4,-5552
   204ec:	100b883a 	mov	r5,r2
   204f0:	00240580 	call	24058 <printf>
                    if ((j + 1) % 8 == 0) printf("\n");
   204f4:	e0bf9117 	ldw	r2,-444(fp)
   204f8:	10800044 	addi	r2,r2,1
   204fc:	108001cc 	andi	r2,r2,7
   20500:	1000021e 	bne	r2,zero,2050c <encode_image_stage1+0x318>
   20504:	01000284 	movi	r4,10
   20508:	002409c0 	call	2409c <putchar>
            
            // Optional debug print for the very first block
            if (col == 0 && row == 0) {
                printf("\n--- Stage 1: MCU 0 (Y-Block) BEFORE FIFO ---\n");
                int j;
                for (j = 0; j < 64; j++) {
   2050c:	e0bf9117 	ldw	r2,-444(fp)
   20510:	10800044 	addi	r2,r2,1
   20514:	e0bf9115 	stw	r2,-444(fp)
   20518:	e0bf9117 	ldw	r2,-444(fp)
   2051c:	10801010 	cmplti	r2,r2,64
   20520:	103fe71e 	bne	r2,zero,204c0 <encode_image_stage1+0x2cc>
                    if ((j + 1) % 8 == 0) printf("\n");
                }
            }

            // Dump Stage 1 MCU to host for comparison
            if (f_stage1) {
   20524:	e0bf9417 	ldw	r2,-432(fp)
   20528:	10001226 	beq	r2,zero,20574 <encode_image_stage1+0x380>
                fwrite(Y_block, sizeof(INT16), 64, f_stage1);
   2052c:	e0bf9c04 	addi	r2,fp,-400
   20530:	1009883a 	mov	r4,r2
   20534:	01400084 	movi	r5,2
   20538:	01801004 	movi	r6,64
   2053c:	e1ff9417 	ldw	r7,-432(fp)
   20540:	00234100 	call	23410 <fwrite>
                fwrite(Cb_block, sizeof(INT16), 64, f_stage1);
   20544:	e0bfbc04 	addi	r2,fp,-272
   20548:	1009883a 	mov	r4,r2
   2054c:	01400084 	movi	r5,2
   20550:	01801004 	movi	r6,64
   20554:	e1ff9417 	ldw	r7,-432(fp)
   20558:	00234100 	call	23410 <fwrite>
                fwrite(Cr_block, sizeof(INT16), 64, f_stage1);
   2055c:	e0bfdc04 	addi	r2,fp,-144
   20560:	1009883a 	mov	r4,r2
   20564:	01400084 	movi	r5,2
   20568:	01801004 	movi	r6,64
   2056c:	e1ff9417 	ldw	r7,-432(fp)
   20570:	00234100 	call	23410 <fwrite>
            }

            // 2. Push the converted blocks down to Stage 2
            fifo_write_block(fifo_base, fifo_csr, Y_block, 64);
   20574:	e0bf9c04 	addi	r2,fp,-400
   20578:	e13fff17 	ldw	r4,-4(fp)
   2057c:	e1400317 	ldw	r5,12(fp)
   20580:	100d883a 	mov	r6,r2
   20584:	01c01004 	movi	r7,64
   20588:	0021a700 	call	21a70 <fifo_write_block>
            fifo_write_block(fifo_base, fifo_csr, Cb_block, 64);
   2058c:	e0bfbc04 	addi	r2,fp,-272
   20590:	e13fff17 	ldw	r4,-4(fp)
   20594:	e1400317 	ldw	r5,12(fp)
   20598:	100d883a 	mov	r6,r2
   2059c:	01c01004 	movi	r7,64
   205a0:	0021a700 	call	21a70 <fifo_write_block>
            fifo_write_block(fifo_base, fifo_csr, Cr_block, 64);
   205a4:	e0bfdc04 	addi	r2,fp,-144
   205a8:	e13fff17 	ldw	r4,-4(fp)
   205ac:	e1400317 	ldw	r5,12(fp)
   205b0:	100d883a 	mov	r6,r2
   205b4:	01c01004 	movi	r7,64
   205b8:	0021a700 	call	21a70 <fifo_write_block>
    // Open a host-side dump for Stage 1 reference comparison
    FILE *f_stage1 = fopen("/mnt/host/files/hw_stage1_ycbcr.bin", "wb");
    
    int row, col, x, y;
    for (row = 0; row < mcus_y; row++) {
        for (col = 0; col < mcus_x; col++) {
   205bc:	e0bf8c17 	ldw	r2,-464(fp)
   205c0:	10800044 	addi	r2,r2,1
   205c4:	e0bf8c15 	stw	r2,-464(fp)
   205c8:	e0ff8c17 	ldw	r3,-464(fp)
   205cc:	e0bf9217 	ldw	r2,-440(fp)
   205d0:	18bf2716 	blt	r3,r2,20270 <encode_image_stage1+0x7c>

    // Open a host-side dump for Stage 1 reference comparison
    FILE *f_stage1 = fopen("/mnt/host/files/hw_stage1_ycbcr.bin", "wb");
    
    int row, col, x, y;
    for (row = 0; row < mcus_y; row++) {
   205d4:	e0bf8b17 	ldw	r2,-468(fp)
   205d8:	10800044 	addi	r2,r2,1
   205dc:	e0bf8b15 	stw	r2,-468(fp)
   205e0:	e0ff8b17 	ldw	r3,-468(fp)
   205e4:	e0bf9317 	ldw	r2,-436(fp)
   205e8:	18bf1f16 	blt	r3,r2,20268 <encode_image_stage1+0x74>
            fifo_write_block(fifo_base, fifo_csr, Cb_block, 64);
            fifo_write_block(fifo_base, fifo_csr, Cr_block, 64);
        }
    }

    if (f_stage1) {
   205ec:	e0bf9417 	ldw	r2,-432(fp)
   205f0:	10000226 	beq	r2,zero,205fc <encode_image_stage1+0x408>
        fclose(f_stage1);
   205f4:	e13f9417 	ldw	r4,-432(fp)
   205f8:	00220140 	call	22014 <fclose>
    }
}
   205fc:	e037883a 	mov	sp,fp
   20600:	dfc00217 	ldw	ra,8(sp)
   20604:	df000117 	ldw	fp,4(sp)
   20608:	dc000017 	ldw	r16,0(sp)
   2060c:	dec00304 	addi	sp,sp,12
   20610:	f800283a 	ret

00020614 <init_chroma_ac_tables>:
UINT16 luminance_ac_code_table[256];
UINT16 luminance_ac_size_table[256];
UINT16 chrominance_ac_code_table[256];
UINT16 chrominance_ac_size_table[256];

void init_chroma_ac_tables() {
   20614:	deffa004 	addi	sp,sp,-384
   20618:	dfc05f15 	stw	ra,380(sp)
   2061c:	df005e15 	stw	fp,376(sp)
   20620:	df005e04 	addi	fp,sp,376
    int k;
    for(k = 0; k < 256; k++) {
   20624:	e03fa215 	stw	zero,-376(fp)
   20628:	00001b06 	br	20698 <init_chroma_ac_tables+0x84>
        luminance_ac_code_table[k] = 0;
   2062c:	00c000f4 	movhi	r3,3
   20630:	18c4a104 	addi	r3,r3,4740
   20634:	e0bfa217 	ldw	r2,-376(fp)
   20638:	1085883a 	add	r2,r2,r2
   2063c:	1885883a 	add	r2,r3,r2
   20640:	1000000d 	sth	zero,0(r2)
        luminance_ac_size_table[k] = 0;
   20644:	00c000f4 	movhi	r3,3
   20648:	18c42104 	addi	r3,r3,4228
   2064c:	e0bfa217 	ldw	r2,-376(fp)
   20650:	1085883a 	add	r2,r2,r2
   20654:	1885883a 	add	r2,r3,r2
   20658:	1000000d 	sth	zero,0(r2)
        chrominance_ac_code_table[k] = 0;
   2065c:	00c000f4 	movhi	r3,3
   20660:	18c32104 	addi	r3,r3,3204
   20664:	e0bfa217 	ldw	r2,-376(fp)
   20668:	1085883a 	add	r2,r2,r2
   2066c:	1885883a 	add	r2,r3,r2
   20670:	1000000d 	sth	zero,0(r2)
        chrominance_ac_size_table[k] = 0;
   20674:	00c000f4 	movhi	r3,3
   20678:	18c3a104 	addi	r3,r3,3716
   2067c:	e0bfa217 	ldw	r2,-376(fp)
   20680:	1085883a 	add	r2,r2,r2
   20684:	1885883a 	add	r2,r3,r2
   20688:	1000000d 	sth	zero,0(r2)
UINT16 chrominance_ac_code_table[256];
UINT16 chrominance_ac_size_table[256];

void init_chroma_ac_tables() {
    int k;
    for(k = 0; k < 256; k++) {
   2068c:	e0bfa217 	ldw	r2,-376(fp)
   20690:	10800044 	addi	r2,r2,1
   20694:	e0bfa215 	stw	r2,-376(fp)
   20698:	e0bfa217 	ldw	r2,-376(fp)
   2069c:	10804010 	cmplti	r2,r2,256
   206a0:	103fe21e 	bne	r2,zero,2062c <init_chroma_ac_tables+0x18>
        chrominance_ac_code_table[k] = 0;
        chrominance_ac_size_table[k] = 0;
    }

    // --- GENERATE LUMA AC DICTIONARY ---
    UINT8 luma_len[16] = {0, 2, 1, 3, 3, 2, 4, 3, 5, 5, 4, 4, 0, 0, 1, 0x7D};
   206a4:	008000f4 	movhi	r2,3
   206a8:	10ba9604 	addi	r2,r2,-5544
   206ac:	e13fa704 	addi	r4,fp,-356
   206b0:	1007883a 	mov	r3,r2
   206b4:	00800404 	movi	r2,16
   206b8:	180b883a 	mov	r5,r3
   206bc:	100d883a 	mov	r6,r2
   206c0:	0023da40 	call	23da4 <memcpy>
    UINT8 luma_sym[162] = {
   206c4:	008000f4 	movhi	r2,3
   206c8:	10ba9a04 	addi	r2,r2,-5528
   206cc:	e13fab04 	addi	r4,fp,-340
   206d0:	1007883a 	mov	r3,r2
   206d4:	00802884 	movi	r2,162
   206d8:	180b883a 	mov	r5,r3
   206dc:	100d883a 	mov	r6,r2
   206e0:	0023da40 	call	23da4 <memcpy>
        0xC6, 0xC7, 0xC8, 0xC9, 0xCA, 0xD2, 0xD3, 0xD4, 0xD5, 0xD6, 0xD7, 0xD8, 0xD9, 0xDA, 0xE1, 0xE2,
        0xE3, 0xE4, 0xE5, 0xE6, 0xE7, 0xE8, 0xE9, 0xEA, 0xF1, 0xF2, 0xF3, 0xF4, 0xF5, 0xF6, 0xF7, 0xF8,
        0xF9, 0xFA
    };

    int p = 0, l, i;
   206e4:	e03fa315 	stw	zero,-372(fp)
    UINT16 code = 0;
   206e8:	e03fa60d 	sth	zero,-360(fp)
    for (l = 1; l <= 16; l++) {
   206ec:	00800044 	movi	r2,1
   206f0:	e0bfa415 	stw	r2,-368(fp)
   206f4:	00002c06 	br	207a8 <init_chroma_ac_tables+0x194>
        for (i = 0; i < luma_len[l-1]; i++) {
   206f8:	e03fa515 	stw	zero,-364(fp)
   206fc:	00001c06 	br	20770 <init_chroma_ac_tables+0x15c>
            UINT8 sym = luma_sym[p++];
   20700:	e0ffab04 	addi	r3,fp,-340
   20704:	e0bfa317 	ldw	r2,-372(fp)
   20708:	1885883a 	add	r2,r3,r2
   2070c:	10800003 	ldbu	r2,0(r2)
   20710:	e0bfa685 	stb	r2,-358(fp)
   20714:	e0bfa317 	ldw	r2,-372(fp)
   20718:	10800044 	addi	r2,r2,1
   2071c:	e0bfa315 	stw	r2,-372(fp)
            luminance_ac_code_table[sym] = code;
   20720:	e0bfa683 	ldbu	r2,-358(fp)
   20724:	00c000f4 	movhi	r3,3
   20728:	18c4a104 	addi	r3,r3,4740
   2072c:	1085883a 	add	r2,r2,r2
   20730:	1885883a 	add	r2,r3,r2
   20734:	e0ffa60b 	ldhu	r3,-360(fp)
   20738:	10c0000d 	sth	r3,0(r2)
            luminance_ac_size_table[sym] = (UINT16)l;
   2073c:	e0bfa683 	ldbu	r2,-358(fp)
   20740:	e0ffa417 	ldw	r3,-368(fp)
   20744:	010000f4 	movhi	r4,3
   20748:	21042104 	addi	r4,r4,4228
   2074c:	1085883a 	add	r2,r2,r2
   20750:	2085883a 	add	r2,r4,r2
   20754:	10c0000d 	sth	r3,0(r2)
            code++;
   20758:	e0bfa60b 	ldhu	r2,-360(fp)
   2075c:	10800044 	addi	r2,r2,1
   20760:	e0bfa60d 	sth	r2,-360(fp)
    };

    int p = 0, l, i;
    UINT16 code = 0;
    for (l = 1; l <= 16; l++) {
        for (i = 0; i < luma_len[l-1]; i++) {
   20764:	e0bfa517 	ldw	r2,-364(fp)
   20768:	10800044 	addi	r2,r2,1
   2076c:	e0bfa515 	stw	r2,-364(fp)
   20770:	e0bfa417 	ldw	r2,-368(fp)
   20774:	10bfffc4 	addi	r2,r2,-1
   20778:	e0ffa704 	addi	r3,fp,-356
   2077c:	1885883a 	add	r2,r3,r2
   20780:	10800003 	ldbu	r2,0(r2)
   20784:	10803fcc 	andi	r2,r2,255
   20788:	e0ffa517 	ldw	r3,-364(fp)
   2078c:	18bfdc16 	blt	r3,r2,20700 <init_chroma_ac_tables+0xec>
            UINT8 sym = luma_sym[p++];
            luminance_ac_code_table[sym] = code;
            luminance_ac_size_table[sym] = (UINT16)l;
            code++;
        }
        code <<= 1;
   20790:	e0bfa60b 	ldhu	r2,-360(fp)
   20794:	1085883a 	add	r2,r2,r2
   20798:	e0bfa60d 	sth	r2,-360(fp)
        0xF9, 0xFA
    };

    int p = 0, l, i;
    UINT16 code = 0;
    for (l = 1; l <= 16; l++) {
   2079c:	e0bfa417 	ldw	r2,-368(fp)
   207a0:	10800044 	addi	r2,r2,1
   207a4:	e0bfa415 	stw	r2,-368(fp)
   207a8:	e0bfa417 	ldw	r2,-368(fp)
   207ac:	10800450 	cmplti	r2,r2,17
   207b0:	103fd11e 	bne	r2,zero,206f8 <init_chroma_ac_tables+0xe4>
        }
        code <<= 1;
    }

    // --- GENERATE CHROMA AC DICTIONARY ---
    UINT8 chroma_len[16] = {0, 2, 1, 2, 4, 4, 3, 4, 7, 5, 4, 4, 0, 1, 2, 0x77};
   207b4:	008000f4 	movhi	r2,3
   207b8:	10bac284 	addi	r2,r2,-5366
   207bc:	e13fd384 	addi	r4,fp,-178
   207c0:	1007883a 	mov	r3,r2
   207c4:	00800404 	movi	r2,16
   207c8:	180b883a 	mov	r5,r3
   207cc:	100d883a 	mov	r6,r2
   207d0:	0023da40 	call	23da4 <memcpy>
    UINT8 chroma_sym[162] = {
   207d4:	008000f4 	movhi	r2,3
   207d8:	10bac684 	addi	r2,r2,-5350
   207dc:	e13fd784 	addi	r4,fp,-162
   207e0:	1007883a 	mov	r3,r2
   207e4:	00802884 	movi	r2,162
   207e8:	180b883a 	mov	r5,r3
   207ec:	100d883a 	mov	r6,r2
   207f0:	0023da40 	call	23da4 <memcpy>
        0xC4, 0xC5, 0xC6, 0xC7, 0xC8, 0xC9, 0xCA, 0xD2, 0xD3, 0xD4, 0xD5, 0xD6, 0xD7, 0xD8, 0xD9, 0xDA,
        0xE2, 0xE3, 0xE4, 0xE5, 0xE6, 0xE7, 0xE8, 0xE9, 0xEA, 0xF2, 0xF3, 0xF4, 0xF5, 0xF6, 0xF7, 0xF8,
        0xF9, 0xFA
    };

    p = 0;
   207f4:	e03fa315 	stw	zero,-372(fp)
    code = 0;
   207f8:	e03fa60d 	sth	zero,-360(fp)
    for (l = 1; l <= 16; l++) {
   207fc:	00800044 	movi	r2,1
   20800:	e0bfa415 	stw	r2,-368(fp)
   20804:	00002c06 	br	208b8 <init_chroma_ac_tables+0x2a4>
        for (i = 0; i < chroma_len[l-1]; i++) {
   20808:	e03fa515 	stw	zero,-364(fp)
   2080c:	00001c06 	br	20880 <init_chroma_ac_tables+0x26c>
            UINT8 sym = chroma_sym[p++];
   20810:	e0ffd784 	addi	r3,fp,-162
   20814:	e0bfa317 	ldw	r2,-372(fp)
   20818:	1885883a 	add	r2,r3,r2
   2081c:	10800003 	ldbu	r2,0(r2)
   20820:	e0bfa6c5 	stb	r2,-357(fp)
   20824:	e0bfa317 	ldw	r2,-372(fp)
   20828:	10800044 	addi	r2,r2,1
   2082c:	e0bfa315 	stw	r2,-372(fp)
            chrominance_ac_code_table[sym] = code;
   20830:	e0bfa6c3 	ldbu	r2,-357(fp)
   20834:	00c000f4 	movhi	r3,3
   20838:	18c32104 	addi	r3,r3,3204
   2083c:	1085883a 	add	r2,r2,r2
   20840:	1885883a 	add	r2,r3,r2
   20844:	e0ffa60b 	ldhu	r3,-360(fp)
   20848:	10c0000d 	sth	r3,0(r2)
            chrominance_ac_size_table[sym] = (UINT16)l;
   2084c:	e0bfa6c3 	ldbu	r2,-357(fp)
   20850:	e0ffa417 	ldw	r3,-368(fp)
   20854:	010000f4 	movhi	r4,3
   20858:	2103a104 	addi	r4,r4,3716
   2085c:	1085883a 	add	r2,r2,r2
   20860:	2085883a 	add	r2,r4,r2
   20864:	10c0000d 	sth	r3,0(r2)
            code++;
   20868:	e0bfa60b 	ldhu	r2,-360(fp)
   2086c:	10800044 	addi	r2,r2,1
   20870:	e0bfa60d 	sth	r2,-360(fp)
    };

    p = 0;
    code = 0;
    for (l = 1; l <= 16; l++) {
        for (i = 0; i < chroma_len[l-1]; i++) {
   20874:	e0bfa517 	ldw	r2,-364(fp)
   20878:	10800044 	addi	r2,r2,1
   2087c:	e0bfa515 	stw	r2,-364(fp)
   20880:	e0bfa417 	ldw	r2,-368(fp)
   20884:	10bfffc4 	addi	r2,r2,-1
   20888:	e0ffd384 	addi	r3,fp,-178
   2088c:	1885883a 	add	r2,r3,r2
   20890:	10800003 	ldbu	r2,0(r2)
   20894:	10803fcc 	andi	r2,r2,255
   20898:	e0ffa517 	ldw	r3,-364(fp)
   2089c:	18bfdc16 	blt	r3,r2,20810 <init_chroma_ac_tables+0x1fc>
            UINT8 sym = chroma_sym[p++];
            chrominance_ac_code_table[sym] = code;
            chrominance_ac_size_table[sym] = (UINT16)l;
            code++;
        }
        code <<= 1;
   208a0:	e0bfa60b 	ldhu	r2,-360(fp)
   208a4:	1085883a 	add	r2,r2,r2
   208a8:	e0bfa60d 	sth	r2,-360(fp)
        0xF9, 0xFA
    };

    p = 0;
    code = 0;
    for (l = 1; l <= 16; l++) {
   208ac:	e0bfa417 	ldw	r2,-368(fp)
   208b0:	10800044 	addi	r2,r2,1
   208b4:	e0bfa415 	stw	r2,-368(fp)
   208b8:	e0bfa417 	ldw	r2,-368(fp)
   208bc:	10800450 	cmplti	r2,r2,17
   208c0:	103fd11e 	bne	r2,zero,20808 <init_chroma_ac_tables+0x1f4>
            chrominance_ac_size_table[sym] = (UINT16)l;
            code++;
        }
        code <<= 1;
    }
}
   208c4:	e037883a 	mov	sp,fp
   208c8:	dfc00117 	ldw	ra,4(sp)
   208cc:	df000017 	ldw	fp,0(sp)
   208d0:	dec00204 	addi	sp,sp,8
   208d4:	f800283a 	ret

000208d8 <get_vli_size>:
int bit_count = 0;
UINT8 byte_buffer = 0;
int has_odd_byte = 0;

// Calculates the bit-size (category) of a value for JPEG VLI encoding
static int get_vli_size(INT16 val) {
   208d8:	defffd04 	addi	sp,sp,-12
   208dc:	df000215 	stw	fp,8(sp)
   208e0:	df000204 	addi	fp,sp,8
   208e4:	2005883a 	mov	r2,r4
   208e8:	e0bfff0d 	sth	r2,-4(fp)
    if (val == 0) return 0;
   208ec:	e0bfff0f 	ldh	r2,-4(fp)
   208f0:	1000021e 	bne	r2,zero,208fc <get_vli_size+0x24>
   208f4:	0005883a 	mov	r2,zero
   208f8:	00001006 	br	2093c <get_vli_size+0x64>
    if (val < 0) val = -val; // absolute value
   208fc:	e0bfff0f 	ldh	r2,-4(fp)
   20900:	1000030e 	bge	r2,zero,20910 <get_vli_size+0x38>
   20904:	e0bfff0b 	ldhu	r2,-4(fp)
   20908:	0085c83a 	sub	r2,zero,r2
   2090c:	e0bfff0d 	sth	r2,-4(fp)
    int size = 0;
   20910:	e03ffe15 	stw	zero,-8(fp)
    while (val > 0) {
   20914:	00000606 	br	20930 <get_vli_size+0x58>
        size++;
   20918:	e0bffe17 	ldw	r2,-8(fp)
   2091c:	10800044 	addi	r2,r2,1
   20920:	e0bffe15 	stw	r2,-8(fp)
        val >>= 1;
   20924:	e0bfff0f 	ldh	r2,-4(fp)
   20928:	1005d07a 	srai	r2,r2,1
   2092c:	e0bfff0d 	sth	r2,-4(fp)
// Calculates the bit-size (category) of a value for JPEG VLI encoding
static int get_vli_size(INT16 val) {
    if (val == 0) return 0;
    if (val < 0) val = -val; // absolute value
    int size = 0;
    while (val > 0) {
   20930:	e0bfff0f 	ldh	r2,-4(fp)
   20934:	00bff816 	blt	zero,r2,20918 <get_vli_size+0x40>
        size++;
        val >>= 1;
    }
    return size;
   20938:	e0bffe17 	ldw	r2,-8(fp)
}
   2093c:	e037883a 	mov	sp,fp
   20940:	df000017 	ldw	fp,0(sp)
   20944:	dec00104 	addi	sp,sp,4
   20948:	f800283a 	ret

0002094c <write_bits>:

// Writes bits, packs them into bytes, applies 0xFF byte stuffing,
// and bundles them into 16-bit words for the hardware FIFO.
int write_bits(UINT16 code, int size, INT16 *out_buffer) {
   2094c:	defffa04 	addi	sp,sp,-24
   20950:	df000515 	stw	fp,20(sp)
   20954:	df000504 	addi	fp,sp,20
   20958:	2005883a 	mov	r2,r4
   2095c:	e17ffe15 	stw	r5,-8(fp)
   20960:	e1bfff15 	stw	r6,-4(fp)
   20964:	e0bffd0d 	sth	r2,-12(fp)
    int words_written = 0;
   20968:	e03ffb15 	stw	zero,-20(fp)
    if (size == 0) return 0;
   2096c:	e0bffe17 	ldw	r2,-8(fp)
   20970:	1000021e 	bne	r2,zero,2097c <write_bits+0x30>
   20974:	0005883a 	mov	r2,zero
   20978:	00004606 	br	20a94 <write_bits+0x148>

    // Push new bits into the buffer
    bit_buffer = (bit_buffer << size) | (code & ((1 << size) - 1));
   2097c:	d0e2de17 	ldw	r3,-29832(gp)
   20980:	e0bffe17 	ldw	r2,-8(fp)
   20984:	1886983a 	sll	r3,r3,r2
   20988:	e13ffd0b 	ldhu	r4,-12(fp)
   2098c:	01400044 	movi	r5,1
   20990:	e0bffe17 	ldw	r2,-8(fp)
   20994:	2884983a 	sll	r2,r5,r2
   20998:	10bfffc4 	addi	r2,r2,-1
   2099c:	2084703a 	and	r2,r4,r2
   209a0:	1884b03a 	or	r2,r3,r2
   209a4:	d0a2de15 	stw	r2,-29832(gp)
    bit_count += size;
   209a8:	d0e2df17 	ldw	r3,-29828(gp)
   209ac:	e0bffe17 	ldw	r2,-8(fp)
   209b0:	1885883a 	add	r2,r3,r2
   209b4:	d0a2df15 	stw	r2,-29828(gp)

    // Extract complete 8-bit bytes whenever we have enough bits
    while (bit_count >= 8) {
   209b8:	00003206 	br	20a84 <write_bits+0x138>
        bit_count -= 8;
   209bc:	d0a2df17 	ldw	r2,-29828(gp)
   209c0:	10bffe04 	addi	r2,r2,-8
   209c4:	d0a2df15 	stw	r2,-29828(gp)
        UINT8 out_byte = (bit_buffer >> bit_count) & 0xFF;
   209c8:	d0e2de17 	ldw	r3,-29832(gp)
   209cc:	d0a2df17 	ldw	r2,-29828(gp)
   209d0:	1884d83a 	srl	r2,r3,r2
   209d4:	e0bffc05 	stb	r2,-16(fp)

        if (!has_odd_byte) {
   209d8:	d0a2e117 	ldw	r2,-29820(gp)
   209dc:	1000051e 	bne	r2,zero,209f4 <write_bits+0xa8>
            byte_buffer = out_byte;
   209e0:	e0bffc03 	ldbu	r2,-16(fp)
   209e4:	d0a2e005 	stb	r2,-29824(gp)
            has_odd_byte = 1;
   209e8:	00800044 	movi	r2,1
   209ec:	d0a2e115 	stw	r2,-29820(gp)
   209f0:	00000f06 	br	20a30 <write_bits+0xe4>
        } else {
            // Pair the previous byte and current byte into a 16-bit word
            out_buffer[words_written++] = (INT16)((byte_buffer << 8) | out_byte);
   209f4:	e0bffb17 	ldw	r2,-20(fp)
   209f8:	1085883a 	add	r2,r2,r2
   209fc:	e0ffff17 	ldw	r3,-4(fp)
   20a00:	1885883a 	add	r2,r3,r2
   20a04:	d0e2e003 	ldbu	r3,-29824(gp)
   20a08:	18c03fcc 	andi	r3,r3,255
   20a0c:	1806923a 	slli	r3,r3,8
   20a10:	1809883a 	mov	r4,r3
   20a14:	e0fffc03 	ldbu	r3,-16(fp)
   20a18:	20c6b03a 	or	r3,r4,r3
   20a1c:	10c0000d 	sth	r3,0(r2)
   20a20:	e0bffb17 	ldw	r2,-20(fp)
   20a24:	10800044 	addi	r2,r2,1
   20a28:	e0bffb15 	stw	r2,-20(fp)
            has_odd_byte = 0;
   20a2c:	d022e115 	stw	zero,-29820(gp)
        }

        // JPEG Standard: If we emit 0xFF, the VERY NEXT byte MUST be 0x00
        if (out_byte == 0xFF) {
   20a30:	e0bffc03 	ldbu	r2,-16(fp)
   20a34:	10803fd8 	cmpnei	r2,r2,255
   20a38:	1000121e 	bne	r2,zero,20a84 <write_bits+0x138>
            if (!has_odd_byte) {
   20a3c:	d0a2e117 	ldw	r2,-29820(gp)
   20a40:	1000041e 	bne	r2,zero,20a54 <write_bits+0x108>
                byte_buffer = 0x00;
   20a44:	d022e005 	stb	zero,-29824(gp)
                has_odd_byte = 1;
   20a48:	00800044 	movi	r2,1
   20a4c:	d0a2e115 	stw	r2,-29820(gp)
   20a50:	00000c06 	br	20a84 <write_bits+0x138>
            } else {
                out_buffer[words_written++] = (INT16)((byte_buffer << 8) | 0x00);
   20a54:	e0bffb17 	ldw	r2,-20(fp)
   20a58:	1085883a 	add	r2,r2,r2
   20a5c:	e0ffff17 	ldw	r3,-4(fp)
   20a60:	1885883a 	add	r2,r3,r2
   20a64:	d0e2e003 	ldbu	r3,-29824(gp)
   20a68:	18c03fcc 	andi	r3,r3,255
   20a6c:	1806923a 	slli	r3,r3,8
   20a70:	10c0000d 	sth	r3,0(r2)
   20a74:	e0bffb17 	ldw	r2,-20(fp)
   20a78:	10800044 	addi	r2,r2,1
   20a7c:	e0bffb15 	stw	r2,-20(fp)
                has_odd_byte = 0;
   20a80:	d022e115 	stw	zero,-29820(gp)
    // Push new bits into the buffer
    bit_buffer = (bit_buffer << size) | (code & ((1 << size) - 1));
    bit_count += size;

    // Extract complete 8-bit bytes whenever we have enough bits
    while (bit_count >= 8) {
   20a84:	d0a2df17 	ldw	r2,-29828(gp)
   20a88:	10800208 	cmpgei	r2,r2,8
   20a8c:	103fcb1e 	bne	r2,zero,209bc <write_bits+0x70>
                out_buffer[words_written++] = (INT16)((byte_buffer << 8) | 0x00);
                has_odd_byte = 0;
            }
        }
    }
    return words_written;
   20a90:	e0bffb17 	ldw	r2,-20(fp)
}
   20a94:	e037883a 	mov	sp,fp
   20a98:	df000017 	ldw	fp,0(sp)
   20a9c:	dec00104 	addi	sp,sp,4
   20aa0:	f800283a 	ret

00020aa4 <huffman_flush>:

// Flushes any remaining bits in the buffer at the end of the image
int huffman_flush(INT16 *out_buffer) {
   20aa4:	defffb04 	addi	sp,sp,-20
   20aa8:	dfc00415 	stw	ra,16(sp)
   20aac:	df000315 	stw	fp,12(sp)
   20ab0:	df000304 	addi	fp,sp,12
   20ab4:	e13fff15 	stw	r4,-4(fp)
    int words_written = 0;
   20ab8:	e03ffd15 	stw	zero,-12(fp)

    // If there are leftover bits, pad the rest of the byte with 1s
    if (bit_count > 0) {
   20abc:	d0a2df17 	ldw	r2,-29828(gp)
   20ac0:	0080140e 	bge	zero,r2,20b14 <huffman_flush+0x70>
        int pad_size = 8 - bit_count;
   20ac4:	d0a2df17 	ldw	r2,-29828(gp)
   20ac8:	00c00204 	movi	r3,8
   20acc:	1885c83a 	sub	r2,r3,r2
   20ad0:	e0bffe15 	stw	r2,-8(fp)
        words_written += write_bits((1 << pad_size) - 1, pad_size, out_buffer + words_written);
   20ad4:	00c00044 	movi	r3,1
   20ad8:	e0bffe17 	ldw	r2,-8(fp)
   20adc:	1884983a 	sll	r2,r3,r2
   20ae0:	10bfffc4 	addi	r2,r2,-1
   20ae4:	10ffffcc 	andi	r3,r2,65535
   20ae8:	e0bffd17 	ldw	r2,-12(fp)
   20aec:	1085883a 	add	r2,r2,r2
   20af0:	e13fff17 	ldw	r4,-4(fp)
   20af4:	2085883a 	add	r2,r4,r2
   20af8:	1809883a 	mov	r4,r3
   20afc:	e17ffe17 	ldw	r5,-8(fp)
   20b00:	100d883a 	mov	r6,r2
   20b04:	002094c0 	call	2094c <write_bits>
   20b08:	e0fffd17 	ldw	r3,-12(fp)
   20b0c:	1885883a 	add	r2,r3,r2
   20b10:	e0bffd15 	stw	r2,-12(fp)
    }
    
    // If we have an odd byte waiting to be paired into a 16-bit word, pad it with 0xFF
    if (has_odd_byte) {
   20b14:	d0a2e117 	ldw	r2,-29820(gp)
   20b18:	10000d26 	beq	r2,zero,20b50 <huffman_flush+0xac>
        out_buffer[words_written++] = (INT16)((byte_buffer << 8) | 0xFF);
   20b1c:	e0bffd17 	ldw	r2,-12(fp)
   20b20:	1085883a 	add	r2,r2,r2
   20b24:	e0ffff17 	ldw	r3,-4(fp)
   20b28:	1885883a 	add	r2,r3,r2
   20b2c:	d0e2e003 	ldbu	r3,-29824(gp)
   20b30:	18c03fcc 	andi	r3,r3,255
   20b34:	1806923a 	slli	r3,r3,8
   20b38:	18c03fd4 	ori	r3,r3,255
   20b3c:	10c0000d 	sth	r3,0(r2)
   20b40:	e0bffd17 	ldw	r2,-12(fp)
   20b44:	10800044 	addi	r2,r2,1
   20b48:	e0bffd15 	stw	r2,-12(fp)
        has_odd_byte = 0;
   20b4c:	d022e115 	stw	zero,-29820(gp)
    }

    return words_written;
   20b50:	e0bffd17 	ldw	r2,-12(fp)
}
   20b54:	e037883a 	mov	sp,fp
   20b58:	dfc00117 	ldw	ra,4(sp)
   20b5c:	df000017 	ldw	fp,0(sp)
   20b60:	dec00204 	addi	sp,sp,8
   20b64:	f800283a 	ret

00020b68 <huffman_encode_block>:

// The core Huffman compressor
int huffman_encode_block(INT16 *block, INT16 *prev_dc, int is_chroma, INT16 *out_fifo_buffer) {
   20b68:	deffed04 	addi	sp,sp,-76
   20b6c:	dfc01215 	stw	ra,72(sp)
   20b70:	df001115 	stw	fp,68(sp)
   20b74:	df001104 	addi	fp,sp,68
   20b78:	e13ffc15 	stw	r4,-16(fp)
   20b7c:	e17ffd15 	stw	r5,-12(fp)
   20b80:	e1bffe15 	stw	r6,-8(fp)
   20b84:	e1ffff15 	stw	r7,-4(fp)
    int words_generated = 0;
   20b88:	e03fef15 	stw	zero,-68(fp)
    
    // Select the correct tables based on Luminance vs. Chrominance
    UINT16 *dc_codes = is_chroma ? chrominance_dc_code_table : luminance_dc_code_table;
   20b8c:	e0bffe17 	ldw	r2,-8(fp)
   20b90:	10000326 	beq	r2,zero,20ba0 <huffman_encode_block+0x38>
   20b94:	008000f4 	movhi	r2,3
   20b98:	10bd9804 	addi	r2,r2,-2464
   20b9c:	00000206 	br	20ba8 <huffman_encode_block+0x40>
   20ba0:	008000f4 	movhi	r2,3
   20ba4:	10bd8c04 	addi	r2,r2,-2512
   20ba8:	e0bff215 	stw	r2,-56(fp)
    UINT16 *dc_sizes = is_chroma ? chrominance_dc_size_table : luminance_dc_size_table;
   20bac:	e0bffe17 	ldw	r2,-8(fp)
   20bb0:	10000326 	beq	r2,zero,20bc0 <huffman_encode_block+0x58>
   20bb4:	008000f4 	movhi	r2,3
   20bb8:	10bd9e04 	addi	r2,r2,-2440
   20bbc:	00000206 	br	20bc8 <huffman_encode_block+0x60>
   20bc0:	008000f4 	movhi	r2,3
   20bc4:	10bd9204 	addi	r2,r2,-2488
   20bc8:	e0bff315 	stw	r2,-52(fp)
    UINT16 *ac_codes = is_chroma ? chrominance_ac_code_table : luminance_ac_code_table;
   20bcc:	e0bffe17 	ldw	r2,-8(fp)
   20bd0:	10000326 	beq	r2,zero,20be0 <huffman_encode_block+0x78>
   20bd4:	008000f4 	movhi	r2,3
   20bd8:	10832104 	addi	r2,r2,3204
   20bdc:	00000206 	br	20be8 <huffman_encode_block+0x80>
   20be0:	008000f4 	movhi	r2,3
   20be4:	1084a104 	addi	r2,r2,4740
   20be8:	e0bff415 	stw	r2,-48(fp)
    UINT16 *ac_sizes = is_chroma ? chrominance_ac_size_table : luminance_ac_size_table;
   20bec:	e0bffe17 	ldw	r2,-8(fp)
   20bf0:	10000326 	beq	r2,zero,20c00 <huffman_encode_block+0x98>
   20bf4:	008000f4 	movhi	r2,3
   20bf8:	1083a104 	addi	r2,r2,3716
   20bfc:	00000206 	br	20c08 <huffman_encode_block+0xa0>
   20c00:	008000f4 	movhi	r2,3
   20c04:	10842104 	addi	r2,r2,4228
   20c08:	e0bff515 	stw	r2,-44(fp)

    // 1. DPCM Encode the DC Coefficient
    INT16 dc_diff = block[0] - *prev_dc;
   20c0c:	e0bffc17 	ldw	r2,-16(fp)
   20c10:	1080000b 	ldhu	r2,0(r2)
   20c14:	1007883a 	mov	r3,r2
   20c18:	e0bffd17 	ldw	r2,-12(fp)
   20c1c:	1080000b 	ldhu	r2,0(r2)
   20c20:	1885c83a 	sub	r2,r3,r2
   20c24:	e0bff60d 	sth	r2,-40(fp)
    *prev_dc = block[0];
   20c28:	e0bffc17 	ldw	r2,-16(fp)
   20c2c:	10c0000b 	ldhu	r3,0(r2)
   20c30:	e0bffd17 	ldw	r2,-12(fp)
   20c34:	10c0000d 	sth	r3,0(r2)
    
    int dc_size = get_vli_size(dc_diff);
   20c38:	e0bff60f 	ldh	r2,-40(fp)
   20c3c:	1009883a 	mov	r4,r2
   20c40:	00208d80 	call	208d8 <get_vli_size>
   20c44:	e0bff715 	stw	r2,-36(fp)
    // Standard JPEG 1s complement for negative values
    UINT16 dc_vli = (dc_diff < 0) ? (dc_diff - 1) & ((1 << dc_size) - 1) : dc_diff;
   20c48:	e0bff60f 	ldh	r2,-40(fp)
   20c4c:	1000090e 	bge	r2,zero,20c74 <huffman_encode_block+0x10c>
   20c50:	e0bff60b 	ldhu	r2,-40(fp)
   20c54:	10bfffc4 	addi	r2,r2,-1
   20c58:	1007883a 	mov	r3,r2
   20c5c:	01000044 	movi	r4,1
   20c60:	e0bff717 	ldw	r2,-36(fp)
   20c64:	2084983a 	sll	r2,r4,r2
   20c68:	10bfffc4 	addi	r2,r2,-1
   20c6c:	1884703a 	and	r2,r3,r2
   20c70:	00000106 	br	20c78 <huffman_encode_block+0x110>
   20c74:	e0bff60b 	ldhu	r2,-40(fp)
   20c78:	e0bff80d 	sth	r2,-32(fp)

    words_generated += write_bits(dc_codes[dc_size], dc_sizes[dc_size], out_fifo_buffer + words_generated);
   20c7c:	e0bff717 	ldw	r2,-36(fp)
   20c80:	1085883a 	add	r2,r2,r2
   20c84:	e0fff217 	ldw	r3,-56(fp)
   20c88:	1885883a 	add	r2,r3,r2
   20c8c:	1080000b 	ldhu	r2,0(r2)
   20c90:	113fffcc 	andi	r4,r2,65535
   20c94:	e0bff717 	ldw	r2,-36(fp)
   20c98:	1085883a 	add	r2,r2,r2
   20c9c:	e0fff317 	ldw	r3,-52(fp)
   20ca0:	1885883a 	add	r2,r3,r2
   20ca4:	1080000b 	ldhu	r2,0(r2)
   20ca8:	10ffffcc 	andi	r3,r2,65535
   20cac:	e0bfef17 	ldw	r2,-68(fp)
   20cb0:	1085883a 	add	r2,r2,r2
   20cb4:	e17fff17 	ldw	r5,-4(fp)
   20cb8:	2885883a 	add	r2,r5,r2
   20cbc:	180b883a 	mov	r5,r3
   20cc0:	100d883a 	mov	r6,r2
   20cc4:	002094c0 	call	2094c <write_bits>
   20cc8:	e0ffef17 	ldw	r3,-68(fp)
   20ccc:	1885883a 	add	r2,r3,r2
   20cd0:	e0bfef15 	stw	r2,-68(fp)
    if (dc_size > 0) {
   20cd4:	e0bff717 	ldw	r2,-36(fp)
   20cd8:	00800c0e 	bge	zero,r2,20d0c <huffman_encode_block+0x1a4>
        words_generated += write_bits(dc_vli, dc_size, out_fifo_buffer + words_generated);
   20cdc:	e0fff80b 	ldhu	r3,-32(fp)
   20ce0:	e0bfef17 	ldw	r2,-68(fp)
   20ce4:	1085883a 	add	r2,r2,r2
   20ce8:	e13fff17 	ldw	r4,-4(fp)
   20cec:	2085883a 	add	r2,r4,r2
   20cf0:	1809883a 	mov	r4,r3
   20cf4:	e17ff717 	ldw	r5,-36(fp)
   20cf8:	100d883a 	mov	r6,r2
   20cfc:	002094c0 	call	2094c <write_bits>
   20d00:	e0ffef17 	ldw	r3,-68(fp)
   20d04:	1885883a 	add	r2,r3,r2
   20d08:	e0bfef15 	stw	r2,-68(fp)
    }
    
    // 2. Run-Length Encode the AC Coefficients
    int zero_run = 0;
   20d0c:	e03ff015 	stw	zero,-64(fp)
    int i;
    for (i = 1; i < 64; i++) {
   20d10:	00800044 	movi	r2,1
   20d14:	e0bff115 	stw	r2,-60(fp)
   20d18:	00007706 	br	20ef8 <huffman_encode_block+0x390>
        if (block[i] == 0) {
   20d1c:	e0bff117 	ldw	r2,-60(fp)
   20d20:	1085883a 	add	r2,r2,r2
   20d24:	e0fffc17 	ldw	r3,-16(fp)
   20d28:	1885883a 	add	r2,r3,r2
   20d2c:	1080000b 	ldhu	r2,0(r2)
   20d30:	10bfffcc 	andi	r2,r2,65535
   20d34:	10a0001c 	xori	r2,r2,32768
   20d38:	10a00004 	addi	r2,r2,-32768
   20d3c:	1000191e 	bne	r2,zero,20da4 <huffman_encode_block+0x23c>
            zero_run++;
   20d40:	e0bff017 	ldw	r2,-64(fp)
   20d44:	10800044 	addi	r2,r2,1
   20d48:	e0bff015 	stw	r2,-64(fp)
   20d4c:	00006706 	br	20eec <huffman_encode_block+0x384>
        } else {
            // Write ZRL (Zero Run Length) markers for every 16 consecutive zeros
            while (zero_run >= 16) {
                words_generated += write_bits(ac_codes[0xF0], ac_sizes[0xF0], out_fifo_buffer + words_generated);
   20d50:	e0bff417 	ldw	r2,-48(fp)
   20d54:	10807804 	addi	r2,r2,480
   20d58:	1080000b 	ldhu	r2,0(r2)
   20d5c:	113fffcc 	andi	r4,r2,65535
   20d60:	e0bff517 	ldw	r2,-44(fp)
   20d64:	10807804 	addi	r2,r2,480
   20d68:	1080000b 	ldhu	r2,0(r2)
   20d6c:	10ffffcc 	andi	r3,r2,65535
   20d70:	e0bfef17 	ldw	r2,-68(fp)
   20d74:	1085883a 	add	r2,r2,r2
   20d78:	e17fff17 	ldw	r5,-4(fp)
   20d7c:	2885883a 	add	r2,r5,r2
   20d80:	180b883a 	mov	r5,r3
   20d84:	100d883a 	mov	r6,r2
   20d88:	002094c0 	call	2094c <write_bits>
   20d8c:	e0ffef17 	ldw	r3,-68(fp)
   20d90:	1885883a 	add	r2,r3,r2
   20d94:	e0bfef15 	stw	r2,-68(fp)
                zero_run -= 16;
   20d98:	e0bff017 	ldw	r2,-64(fp)
   20d9c:	10bffc04 	addi	r2,r2,-16
   20da0:	e0bff015 	stw	r2,-64(fp)
    for (i = 1; i < 64; i++) {
        if (block[i] == 0) {
            zero_run++;
        } else {
            // Write ZRL (Zero Run Length) markers for every 16 consecutive zeros
            while (zero_run >= 16) {
   20da4:	e0bff017 	ldw	r2,-64(fp)
   20da8:	10800408 	cmpgei	r2,r2,16
   20dac:	103fe81e 	bne	r2,zero,20d50 <huffman_encode_block+0x1e8>
                words_generated += write_bits(ac_codes[0xF0], ac_sizes[0xF0], out_fifo_buffer + words_generated);
                zero_run -= 16;
            }

            int ac_size = get_vli_size(block[i]);
   20db0:	e0bff117 	ldw	r2,-60(fp)
   20db4:	1085883a 	add	r2,r2,r2
   20db8:	e0fffc17 	ldw	r3,-16(fp)
   20dbc:	1885883a 	add	r2,r3,r2
   20dc0:	1080000b 	ldhu	r2,0(r2)
   20dc4:	10bfffcc 	andi	r2,r2,65535
   20dc8:	10a0001c 	xori	r2,r2,32768
   20dcc:	10a00004 	addi	r2,r2,-32768
   20dd0:	1009883a 	mov	r4,r2
   20dd4:	00208d80 	call	208d8 <get_vli_size>
   20dd8:	e0bff915 	stw	r2,-28(fp)
            UINT16 ac_vli = (block[i] < 0) ? (block[i] - 1) & ((1 << ac_size) - 1) : block[i];
   20ddc:	e0bff117 	ldw	r2,-60(fp)
   20de0:	1085883a 	add	r2,r2,r2
   20de4:	e0fffc17 	ldw	r3,-16(fp)
   20de8:	1885883a 	add	r2,r3,r2
   20dec:	1080000b 	ldhu	r2,0(r2)
   20df0:	10bfffcc 	andi	r2,r2,65535
   20df4:	10a0001c 	xori	r2,r2,32768
   20df8:	10a00004 	addi	r2,r2,-32768
   20dfc:	10000d0e 	bge	r2,zero,20e34 <huffman_encode_block+0x2cc>
   20e00:	e0bff117 	ldw	r2,-60(fp)
   20e04:	1085883a 	add	r2,r2,r2
   20e08:	e0fffc17 	ldw	r3,-16(fp)
   20e0c:	1885883a 	add	r2,r3,r2
   20e10:	1080000b 	ldhu	r2,0(r2)
   20e14:	10bfffc4 	addi	r2,r2,-1
   20e18:	1007883a 	mov	r3,r2
   20e1c:	01000044 	movi	r4,1
   20e20:	e0bff917 	ldw	r2,-28(fp)
   20e24:	2084983a 	sll	r2,r4,r2
   20e28:	10bfffc4 	addi	r2,r2,-1
   20e2c:	1884703a 	and	r2,r3,r2
   20e30:	00000506 	br	20e48 <huffman_encode_block+0x2e0>
   20e34:	e0bff117 	ldw	r2,-60(fp)
   20e38:	1085883a 	add	r2,r2,r2
   20e3c:	e0fffc17 	ldw	r3,-16(fp)
   20e40:	1885883a 	add	r2,r3,r2
   20e44:	1080000b 	ldhu	r2,0(r2)
   20e48:	e0bffa0d 	sth	r2,-24(fp)

            // The high nibble is the run length, the low nibble is the size
            int symbol = (zero_run << 4) | ac_size;
   20e4c:	e0bff017 	ldw	r2,-64(fp)
   20e50:	1006913a 	slli	r3,r2,4
   20e54:	e0bff917 	ldw	r2,-28(fp)
   20e58:	1884b03a 	or	r2,r3,r2
   20e5c:	e0bffb15 	stw	r2,-20(fp)

            words_generated += write_bits(ac_codes[symbol], ac_sizes[symbol], out_fifo_buffer + words_generated);
   20e60:	e0bffb17 	ldw	r2,-20(fp)
   20e64:	1085883a 	add	r2,r2,r2
   20e68:	e0fff417 	ldw	r3,-48(fp)
   20e6c:	1885883a 	add	r2,r3,r2
   20e70:	1080000b 	ldhu	r2,0(r2)
   20e74:	113fffcc 	andi	r4,r2,65535
   20e78:	e0bffb17 	ldw	r2,-20(fp)
   20e7c:	1085883a 	add	r2,r2,r2
   20e80:	e0fff517 	ldw	r3,-44(fp)
   20e84:	1885883a 	add	r2,r3,r2
   20e88:	1080000b 	ldhu	r2,0(r2)
   20e8c:	10ffffcc 	andi	r3,r2,65535
   20e90:	e0bfef17 	ldw	r2,-68(fp)
   20e94:	1085883a 	add	r2,r2,r2
   20e98:	e17fff17 	ldw	r5,-4(fp)
   20e9c:	2885883a 	add	r2,r5,r2
   20ea0:	180b883a 	mov	r5,r3
   20ea4:	100d883a 	mov	r6,r2
   20ea8:	002094c0 	call	2094c <write_bits>
   20eac:	e0ffef17 	ldw	r3,-68(fp)
   20eb0:	1885883a 	add	r2,r3,r2
   20eb4:	e0bfef15 	stw	r2,-68(fp)
            words_generated += write_bits(ac_vli, ac_size, out_fifo_buffer + words_generated);
   20eb8:	e0fffa0b 	ldhu	r3,-24(fp)
   20ebc:	e0bfef17 	ldw	r2,-68(fp)
   20ec0:	1085883a 	add	r2,r2,r2
   20ec4:	e13fff17 	ldw	r4,-4(fp)
   20ec8:	2085883a 	add	r2,r4,r2
   20ecc:	1809883a 	mov	r4,r3
   20ed0:	e17ff917 	ldw	r5,-28(fp)
   20ed4:	100d883a 	mov	r6,r2
   20ed8:	002094c0 	call	2094c <write_bits>
   20edc:	e0ffef17 	ldw	r3,-68(fp)
   20ee0:	1885883a 	add	r2,r3,r2
   20ee4:	e0bfef15 	stw	r2,-68(fp)
            zero_run = 0;
   20ee8:	e03ff015 	stw	zero,-64(fp)
    }
    
    // 2. Run-Length Encode the AC Coefficients
    int zero_run = 0;
    int i;
    for (i = 1; i < 64; i++) {
   20eec:	e0bff117 	ldw	r2,-60(fp)
   20ef0:	10800044 	addi	r2,r2,1
   20ef4:	e0bff115 	stw	r2,-60(fp)
   20ef8:	e0bff117 	ldw	r2,-60(fp)
   20efc:	10801010 	cmplti	r2,r2,64
   20f00:	103f861e 	bne	r2,zero,20d1c <huffman_encode_block+0x1b4>
            zero_run = 0;
        }
    }
    
    // 3. Write End of Block (EOB) if block ends with zeros
    if (zero_run > 0) {
   20f04:	e0bff017 	ldw	r2,-64(fp)
   20f08:	0080100e 	bge	zero,r2,20f4c <huffman_encode_block+0x3e4>
        words_generated += write_bits(ac_codes[0x00], ac_sizes[0x00], out_fifo_buffer + words_generated);
   20f0c:	e0bff417 	ldw	r2,-48(fp)
   20f10:	1080000b 	ldhu	r2,0(r2)
   20f14:	113fffcc 	andi	r4,r2,65535
   20f18:	e0bff517 	ldw	r2,-44(fp)
   20f1c:	1080000b 	ldhu	r2,0(r2)
   20f20:	10ffffcc 	andi	r3,r2,65535
   20f24:	e0bfef17 	ldw	r2,-68(fp)
   20f28:	1085883a 	add	r2,r2,r2
   20f2c:	e17fff17 	ldw	r5,-4(fp)
   20f30:	2885883a 	add	r2,r5,r2
   20f34:	180b883a 	mov	r5,r3
   20f38:	100d883a 	mov	r6,r2
   20f3c:	002094c0 	call	2094c <write_bits>
   20f40:	e0ffef17 	ldw	r3,-68(fp)
   20f44:	1885883a 	add	r2,r3,r2
   20f48:	e0bfef15 	stw	r2,-68(fp)
    }
    
    return words_generated;
   20f4c:	e0bfef17 	ldw	r2,-68(fp)
}
   20f50:	e037883a 	mov	sp,fp
   20f54:	dfc00117 	ldw	ra,4(sp)
   20f58:	df000017 	ldw	fp,0(sp)
   20f5c:	dec00204 	addi	sp,sp,8
   20f60:	f800283a 	ret

00020f64 <parse_image_header>:
};

// --- AUTO-DETECTION PARSER ---

// Peeks at the file header. Returns 1 if BMP, 0 if RAW.
int parse_image_header(FILE *file, int *width, int *height, int *pixel_offset, int *bpp) {
   20f64:	deffec04 	addi	sp,sp,-80
   20f68:	dfc01315 	stw	ra,76(sp)
   20f6c:	df001215 	stw	fp,72(sp)
   20f70:	df001204 	addi	fp,sp,72
   20f74:	e13ffc15 	stw	r4,-16(fp)
   20f78:	e17ffd15 	stw	r5,-12(fp)
   20f7c:	e1bffe15 	stw	r6,-8(fp)
   20f80:	e1ffff15 	stw	r7,-4(fp)
    unsigned char header[54];

    // Read the first 54 bytes
    if (fread(header, 1, 54, file) < 54) {
   20f84:	e13fee04 	addi	r4,fp,-72
   20f88:	01400044 	movi	r5,1
   20f8c:	01800d84 	movi	r6,54
   20f90:	e1fffc17 	ldw	r7,-16(fp)
   20f94:	00228b40 	call	228b4 <fread>
   20f98:	10800da8 	cmpgeui	r2,r2,54
   20f9c:	1000041e 	bne	r2,zero,20fb0 <parse_image_header+0x4c>
        rewind(file);
   20fa0:	e13ffc17 	ldw	r4,-16(fp)
   20fa4:	00243900 	call	24390 <rewind>
        return 0; // Too small to be a BMP
   20fa8:	0005883a 	mov	r2,zero
   20fac:	00004506 	br	210c4 <parse_image_header+0x160>
    }

    // Check for 'B' (0x42) and 'M' (0x4D)
    if (header[0] == 'B' && header[1] == 'M') {
   20fb0:	e0bfee03 	ldbu	r2,-72(fp)
   20fb4:	10803fcc 	andi	r2,r2,255
   20fb8:	10801098 	cmpnei	r2,r2,66
   20fbc:	10003e1e 	bne	r2,zero,210b8 <parse_image_header+0x154>
   20fc0:	e0bfee43 	ldbu	r2,-71(fp)
   20fc4:	10803fcc 	andi	r2,r2,255
   20fc8:	10801358 	cmpnei	r2,r2,77
   20fcc:	10003a1e 	bne	r2,zero,210b8 <parse_image_header+0x154>
        // Extract little-endian width, height, data offset, and bits per pixel
        *width  = header[18] | (header[19] << 8) | (header[20] << 16) | (header[21] << 24);
   20fd0:	e0bff283 	ldbu	r2,-54(fp)
   20fd4:	10c03fcc 	andi	r3,r2,255
   20fd8:	e0bff2c3 	ldbu	r2,-53(fp)
   20fdc:	10803fcc 	andi	r2,r2,255
   20fe0:	1004923a 	slli	r2,r2,8
   20fe4:	1886b03a 	or	r3,r3,r2
   20fe8:	e0bff303 	ldbu	r2,-52(fp)
   20fec:	10803fcc 	andi	r2,r2,255
   20ff0:	1004943a 	slli	r2,r2,16
   20ff4:	1886b03a 	or	r3,r3,r2
   20ff8:	e0bff343 	ldbu	r2,-51(fp)
   20ffc:	10803fcc 	andi	r2,r2,255
   21000:	1004963a 	slli	r2,r2,24
   21004:	1886b03a 	or	r3,r3,r2
   21008:	e0bffd17 	ldw	r2,-12(fp)
   2100c:	10c00015 	stw	r3,0(r2)
        *height = header[22] | (header[23] << 8) | (header[24] << 16) | (header[25] << 24);
   21010:	e0bff383 	ldbu	r2,-50(fp)
   21014:	10c03fcc 	andi	r3,r2,255
   21018:	e0bff3c3 	ldbu	r2,-49(fp)
   2101c:	10803fcc 	andi	r2,r2,255
   21020:	1004923a 	slli	r2,r2,8
   21024:	1886b03a 	or	r3,r3,r2
   21028:	e0bff403 	ldbu	r2,-48(fp)
   2102c:	10803fcc 	andi	r2,r2,255
   21030:	1004943a 	slli	r2,r2,16
   21034:	1886b03a 	or	r3,r3,r2
   21038:	e0bff443 	ldbu	r2,-47(fp)
   2103c:	10803fcc 	andi	r2,r2,255
   21040:	1004963a 	slli	r2,r2,24
   21044:	1886b03a 	or	r3,r3,r2
   21048:	e0bffe17 	ldw	r2,-8(fp)
   2104c:	10c00015 	stw	r3,0(r2)
        *pixel_offset = header[10] | (header[11] << 8) | (header[12] << 16) | (header[13] << 24);
   21050:	e0bff083 	ldbu	r2,-62(fp)
   21054:	10c03fcc 	andi	r3,r2,255
   21058:	e0bff0c3 	ldbu	r2,-61(fp)
   2105c:	10803fcc 	andi	r2,r2,255
   21060:	1004923a 	slli	r2,r2,8
   21064:	1886b03a 	or	r3,r3,r2
   21068:	e0bff103 	ldbu	r2,-60(fp)
   2106c:	10803fcc 	andi	r2,r2,255
   21070:	1004943a 	slli	r2,r2,16
   21074:	1886b03a 	or	r3,r3,r2
   21078:	e0bff143 	ldbu	r2,-59(fp)
   2107c:	10803fcc 	andi	r2,r2,255
   21080:	1004963a 	slli	r2,r2,24
   21084:	1886b03a 	or	r3,r3,r2
   21088:	e0bfff17 	ldw	r2,-4(fp)
   2108c:	10c00015 	stw	r3,0(r2)
        *bpp = header[28] | (header[29] << 8); // Extract Bits Per Pixel!
   21090:	e0bff503 	ldbu	r2,-44(fp)
   21094:	10c03fcc 	andi	r3,r2,255
   21098:	e0bff543 	ldbu	r2,-43(fp)
   2109c:	10803fcc 	andi	r2,r2,255
   210a0:	1004923a 	slli	r2,r2,8
   210a4:	1886b03a 	or	r3,r3,r2
   210a8:	e0800217 	ldw	r2,8(fp)
   210ac:	10c00015 	stw	r3,0(r2)
        return 1;
   210b0:	00800044 	movi	r2,1
   210b4:	00000306 	br	210c4 <parse_image_header+0x160>
    }

    rewind(file);
   210b8:	e13ffc17 	ldw	r4,-16(fp)
   210bc:	00243900 	call	24390 <rewind>
    return 0;
   210c0:	0005883a 	mov	r2,zero
}
   210c4:	e037883a 	mov	sp,fp
   210c8:	dfc00117 	ldw	ra,4(sp)
   210cc:	df000017 	ldw	fp,0(sp)
   210d0:	dec00204 	addi	sp,sp,8
   210d4:	f800283a 	ret

000210d8 <send_dqt_to_stage4>:

// --- DATA DISPATCH FUNCTIONS ---

void send_dqt_to_stage4() {
   210d8:	defffc04 	addi	sp,sp,-16
   210dc:	dfc00315 	stw	ra,12(sp)
   210e0:	df000215 	stw	fp,8(sp)
   210e4:	df000204 	addi	fp,sp,8
    printf("Stage 1: Sending Quantization Tables to Stage 4...\n");
   210e8:	010000f4 	movhi	r4,3
   210ec:	213bab04 	addi	r4,r4,-4436
   210f0:	002413c0 	call	2413c <puts>
    INT16 send_buffer[1];
    int i;

    for (i = 0; i < 64; i++) {
   210f4:	e03ffe15 	stw	zero,-8(fp)
   210f8:	00001206 	br	21144 <send_dqt_to_stage4+0x6c>
        send_buffer[0] = (INT16)q_table_luma[i];
   210fc:	00c000f4 	movhi	r3,3
   21100:	18fb8ac4 	addi	r3,r3,-4565
   21104:	e0bffe17 	ldw	r2,-8(fp)
   21108:	1885883a 	add	r2,r3,r2
   2110c:	10800003 	ldbu	r2,0(r2)
   21110:	10803fcc 	andi	r2,r2,255
   21114:	e0bfff0d 	sth	r2,-4(fp)
        fifo_write_block(FIFO_OUT_TO_4_BASE, FIFO_OUT_TO_4_CSR_BASE, send_buffer, 1);
   21118:	e0bfff04 	addi	r2,fp,-4
   2111c:	01000134 	movhi	r4,4
   21120:	21042d04 	addi	r4,r4,4276
   21124:	01400134 	movhi	r5,4
   21128:	29440804 	addi	r5,r5,4128
   2112c:	100d883a 	mov	r6,r2
   21130:	01c00044 	movi	r7,1
   21134:	0021a700 	call	21a70 <fifo_write_block>
void send_dqt_to_stage4() {
    printf("Stage 1: Sending Quantization Tables to Stage 4...\n");
    INT16 send_buffer[1];
    int i;

    for (i = 0; i < 64; i++) {
   21138:	e0bffe17 	ldw	r2,-8(fp)
   2113c:	10800044 	addi	r2,r2,1
   21140:	e0bffe15 	stw	r2,-8(fp)
   21144:	e0bffe17 	ldw	r2,-8(fp)
   21148:	10801010 	cmplti	r2,r2,64
   2114c:	103feb1e 	bne	r2,zero,210fc <send_dqt_to_stage4+0x24>
        send_buffer[0] = (INT16)q_table_luma[i];
        fifo_write_block(FIFO_OUT_TO_4_BASE, FIFO_OUT_TO_4_CSR_BASE, send_buffer, 1);
    }

    for (i = 0; i < 64; i++) {
   21150:	e03ffe15 	stw	zero,-8(fp)
   21154:	00001206 	br	211a0 <send_dqt_to_stage4+0xc8>
        send_buffer[0] = (INT16)q_table_chroma[i];
   21158:	00c000f4 	movhi	r3,3
   2115c:	18fb9ac4 	addi	r3,r3,-4501
   21160:	e0bffe17 	ldw	r2,-8(fp)
   21164:	1885883a 	add	r2,r3,r2
   21168:	10800003 	ldbu	r2,0(r2)
   2116c:	10803fcc 	andi	r2,r2,255
   21170:	e0bfff0d 	sth	r2,-4(fp)
        fifo_write_block(FIFO_OUT_TO_4_BASE, FIFO_OUT_TO_4_CSR_BASE, send_buffer, 1);
   21174:	e0bfff04 	addi	r2,fp,-4
   21178:	01000134 	movhi	r4,4
   2117c:	21042d04 	addi	r4,r4,4276
   21180:	01400134 	movhi	r5,4
   21184:	29440804 	addi	r5,r5,4128
   21188:	100d883a 	mov	r6,r2
   2118c:	01c00044 	movi	r7,1
   21190:	0021a700 	call	21a70 <fifo_write_block>
    for (i = 0; i < 64; i++) {
        send_buffer[0] = (INT16)q_table_luma[i];
        fifo_write_block(FIFO_OUT_TO_4_BASE, FIFO_OUT_TO_4_CSR_BASE, send_buffer, 1);
    }

    for (i = 0; i < 64; i++) {
   21194:	e0bffe17 	ldw	r2,-8(fp)
   21198:	10800044 	addi	r2,r2,1
   2119c:	e0bffe15 	stw	r2,-8(fp)
   211a0:	e0bffe17 	ldw	r2,-8(fp)
   211a4:	10801010 	cmplti	r2,r2,64
   211a8:	103feb1e 	bne	r2,zero,21158 <send_dqt_to_stage4+0x80>
        send_buffer[0] = (INT16)q_table_chroma[i];
        fifo_write_block(FIFO_OUT_TO_4_BASE, FIFO_OUT_TO_4_CSR_BASE, send_buffer, 1);
    }
}
   211ac:	e037883a 	mov	sp,fp
   211b0:	dfc00117 	ldw	ra,4(sp)
   211b4:	df000017 	ldw	fp,0(sp)
   211b8:	dec00204 	addi	sp,sp,8
   211bc:	f800283a 	ret

000211c0 <send_dht_to_stage5>:

void send_dht_to_stage5() {
   211c0:	defffe04 	addi	sp,sp,-8
   211c4:	dfc00115 	stw	ra,4(sp)
   211c8:	df000015 	stw	fp,0(sp)
   211cc:	d839883a 	mov	fp,sp
    printf("Stage 1: Sending Huffman Dictionaries to Stage 5...\n");
   211d0:	010000f4 	movhi	r4,3
   211d4:	213bb804 	addi	r4,r4,-4384
   211d8:	002413c0 	call	2413c <puts>
    fifo_write_block(FIFO_OUT_TO_5_BASE, FIFO_OUT_TO_5_CSR_BASE, luminance_dc_code_table, 12);
   211dc:	01000134 	movhi	r4,4
   211e0:	21042c04 	addi	r4,r4,4272
   211e4:	01400134 	movhi	r5,4
   211e8:	29440004 	addi	r5,r5,4096
   211ec:	018000f4 	movhi	r6,3
   211f0:	31bd8c04 	addi	r6,r6,-2512
   211f4:	01c00304 	movi	r7,12
   211f8:	0021a700 	call	21a70 <fifo_write_block>
    fifo_write_block(FIFO_OUT_TO_5_BASE, FIFO_OUT_TO_5_CSR_BASE, luminance_dc_size_table, 12);
   211fc:	01000134 	movhi	r4,4
   21200:	21042c04 	addi	r4,r4,4272
   21204:	01400134 	movhi	r5,4
   21208:	29440004 	addi	r5,r5,4096
   2120c:	018000f4 	movhi	r6,3
   21210:	31bd9204 	addi	r6,r6,-2488
   21214:	01c00304 	movi	r7,12
   21218:	0021a700 	call	21a70 <fifo_write_block>
    fifo_write_block(FIFO_OUT_TO_5_BASE, FIFO_OUT_TO_5_CSR_BASE, chrominance_dc_code_table, 12);
   2121c:	01000134 	movhi	r4,4
   21220:	21042c04 	addi	r4,r4,4272
   21224:	01400134 	movhi	r5,4
   21228:	29440004 	addi	r5,r5,4096
   2122c:	018000f4 	movhi	r6,3
   21230:	31bd9804 	addi	r6,r6,-2464
   21234:	01c00304 	movi	r7,12
   21238:	0021a700 	call	21a70 <fifo_write_block>
    fifo_write_block(FIFO_OUT_TO_5_BASE, FIFO_OUT_TO_5_CSR_BASE, chrominance_dc_size_table, 12);
   2123c:	01000134 	movhi	r4,4
   21240:	21042c04 	addi	r4,r4,4272
   21244:	01400134 	movhi	r5,4
   21248:	29440004 	addi	r5,r5,4096
   2124c:	018000f4 	movhi	r6,3
   21250:	31bd9e04 	addi	r6,r6,-2440
   21254:	01c00304 	movi	r7,12
   21258:	0021a700 	call	21a70 <fifo_write_block>
    fifo_write_block(FIFO_OUT_TO_5_BASE, FIFO_OUT_TO_5_CSR_BASE, luminance_ac_code_table, 256);
   2125c:	01000134 	movhi	r4,4
   21260:	21042c04 	addi	r4,r4,4272
   21264:	01400134 	movhi	r5,4
   21268:	29440004 	addi	r5,r5,4096
   2126c:	018000f4 	movhi	r6,3
   21270:	3184a104 	addi	r6,r6,4740
   21274:	01c04004 	movi	r7,256
   21278:	0021a700 	call	21a70 <fifo_write_block>
    fifo_write_block(FIFO_OUT_TO_5_BASE, FIFO_OUT_TO_5_CSR_BASE, luminance_ac_size_table, 256);
   2127c:	01000134 	movhi	r4,4
   21280:	21042c04 	addi	r4,r4,4272
   21284:	01400134 	movhi	r5,4
   21288:	29440004 	addi	r5,r5,4096
   2128c:	018000f4 	movhi	r6,3
   21290:	31842104 	addi	r6,r6,4228
   21294:	01c04004 	movi	r7,256
   21298:	0021a700 	call	21a70 <fifo_write_block>
    fifo_write_block(FIFO_OUT_TO_5_BASE, FIFO_OUT_TO_5_CSR_BASE, chrominance_ac_code_table, 256);
   2129c:	01000134 	movhi	r4,4
   212a0:	21042c04 	addi	r4,r4,4272
   212a4:	01400134 	movhi	r5,4
   212a8:	29440004 	addi	r5,r5,4096
   212ac:	018000f4 	movhi	r6,3
   212b0:	31832104 	addi	r6,r6,3204
   212b4:	01c04004 	movi	r7,256
   212b8:	0021a700 	call	21a70 <fifo_write_block>
    fifo_write_block(FIFO_OUT_TO_5_BASE, FIFO_OUT_TO_5_CSR_BASE, chrominance_ac_size_table, 256);
   212bc:	01000134 	movhi	r4,4
   212c0:	21042c04 	addi	r4,r4,4272
   212c4:	01400134 	movhi	r5,4
   212c8:	29440004 	addi	r5,r5,4096
   212cc:	018000f4 	movhi	r6,3
   212d0:	3183a104 	addi	r6,r6,3716
   212d4:	01c04004 	movi	r7,256
   212d8:	0021a700 	call	21a70 <fifo_write_block>
}
   212dc:	e037883a 	mov	sp,fp
   212e0:	dfc00117 	ldw	ra,4(sp)
   212e4:	df000017 	ldw	fp,0(sp)
   212e8:	dec00204 	addi	sp,sp,8
   212ec:	f800283a 	ret

000212f0 <send_dynamic_header>:

void send_dynamic_header(int width, int height) {
   212f0:	deff5d04 	addi	sp,sp,-652
   212f4:	dfc0a215 	stw	ra,648(sp)
   212f8:	df00a115 	stw	fp,644(sp)
   212fc:	df00a104 	addi	fp,sp,644
   21300:	e13ffe15 	stw	r4,-8(fp)
   21304:	e17fff15 	stw	r5,-4(fp)
    printf("Stage 1: Generating dynamic headers for %dx%d image...\n", width, height);
   21308:	010000f4 	movhi	r4,3
   2130c:	213bc504 	addi	r4,r4,-4332
   21310:	e17ffe17 	ldw	r5,-8(fp)
   21314:	e1bfff17 	ldw	r6,-4(fp)
   21318:	00240580 	call	24058 <printf>

    UINT8 dynamic_header[623];
    memcpy(dynamic_header, full_jpeg_headers_template, 623);
   2131c:	008000f4 	movhi	r2,3
   21320:	10baef04 	addi	r2,r2,-5188
   21324:	e13f6104 	addi	r4,fp,-636
   21328:	1007883a 	mov	r3,r2
   2132c:	00809bc4 	movi	r2,623
   21330:	180b883a 	mov	r5,r3
   21334:	100d883a 	mov	r6,r2
   21338:	0023da40 	call	23da4 <memcpy>

    int sof_offset = 158;
   2133c:	00802784 	movi	r2,158
   21340:	e0bf6015 	stw	r2,-640(fp)

    // Patch Height and Width (Big Endian)
    dynamic_header[sof_offset + 5] = (height >> 8) & 0xFF;
   21344:	e0bf6017 	ldw	r2,-640(fp)
   21348:	10800144 	addi	r2,r2,5
   2134c:	e0ffff17 	ldw	r3,-4(fp)
   21350:	1807d23a 	srai	r3,r3,8
   21354:	e13f6104 	addi	r4,fp,-636
   21358:	2085883a 	add	r2,r4,r2
   2135c:	10c00005 	stb	r3,0(r2)
    dynamic_header[sof_offset + 6] = height & 0xFF;
   21360:	e0bf6017 	ldw	r2,-640(fp)
   21364:	10800184 	addi	r2,r2,6
   21368:	e0ffff17 	ldw	r3,-4(fp)
   2136c:	e13f6104 	addi	r4,fp,-636
   21370:	2085883a 	add	r2,r4,r2
   21374:	10c00005 	stb	r3,0(r2)
    dynamic_header[sof_offset + 7] = (width >> 8) & 0xFF;
   21378:	e0bf6017 	ldw	r2,-640(fp)
   2137c:	108001c4 	addi	r2,r2,7
   21380:	e0fffe17 	ldw	r3,-8(fp)
   21384:	1807d23a 	srai	r3,r3,8
   21388:	e13f6104 	addi	r4,fp,-636
   2138c:	2085883a 	add	r2,r4,r2
   21390:	10c00005 	stb	r3,0(r2)
    dynamic_header[sof_offset + 8] = width & 0xFF;
   21394:	e0bf6017 	ldw	r2,-640(fp)
   21398:	10800204 	addi	r2,r2,8
   2139c:	e0fffe17 	ldw	r3,-8(fp)
   213a0:	e13f6104 	addi	r4,fp,-636
   213a4:	2085883a 	add	r2,r4,r2
   213a8:	10c00005 	stb	r3,0(r2)

    printf("Stage 1: Sending headers to Stage 6 via FIFO...\n");
   213ac:	010000f4 	movhi	r4,3
   213b0:	213bd304 	addi	r4,r4,-4276
   213b4:	002413c0 	call	2413c <puts>

    INT16 header_size = 623;
   213b8:	00809bc4 	movi	r2,623
   213bc:	e0bffd0d 	sth	r2,-12(fp)
    fifo_write_block(FIFO_OUT_TO_6_BASE, FIFO_OUT_TO_6_CSR_BASE, &header_size, 1);
   213c0:	e0bffd04 	addi	r2,fp,-12
   213c4:	01000134 	movhi	r4,4
   213c8:	21042e04 	addi	r4,r4,4280
   213cc:	01400134 	movhi	r5,4
   213d0:	29441004 	addi	r5,r5,4160
   213d4:	100d883a 	mov	r6,r2
   213d8:	01c00044 	movi	r7,1
   213dc:	0021a700 	call	21a70 <fifo_write_block>

    INT16 send_buffer[1];
    int i;
    for (i = 0; i < header_size; i++) {
   213e0:	e03f5f15 	stw	zero,-644(fp)
   213e4:	00001106 	br	2142c <send_dynamic_header+0x13c>
        send_buffer[0] = (INT16)dynamic_header[i];
   213e8:	e0ff6104 	addi	r3,fp,-636
   213ec:	e0bf5f17 	ldw	r2,-644(fp)
   213f0:	1885883a 	add	r2,r3,r2
   213f4:	10800003 	ldbu	r2,0(r2)
   213f8:	10803fcc 	andi	r2,r2,255
   213fc:	e0bffd8d 	sth	r2,-10(fp)
        fifo_write_block(FIFO_OUT_TO_6_BASE, FIFO_OUT_TO_6_CSR_BASE, send_buffer, 1);
   21400:	e0bffd84 	addi	r2,fp,-10
   21404:	01000134 	movhi	r4,4
   21408:	21042e04 	addi	r4,r4,4280
   2140c:	01400134 	movhi	r5,4
   21410:	29441004 	addi	r5,r5,4160
   21414:	100d883a 	mov	r6,r2
   21418:	01c00044 	movi	r7,1
   2141c:	0021a700 	call	21a70 <fifo_write_block>
    INT16 header_size = 623;
    fifo_write_block(FIFO_OUT_TO_6_BASE, FIFO_OUT_TO_6_CSR_BASE, &header_size, 1);

    INT16 send_buffer[1];
    int i;
    for (i = 0; i < header_size; i++) {
   21420:	e0bf5f17 	ldw	r2,-644(fp)
   21424:	10800044 	addi	r2,r2,1
   21428:	e0bf5f15 	stw	r2,-644(fp)
   2142c:	e0bffd0b 	ldhu	r2,-12(fp)
   21430:	10bfffcc 	andi	r2,r2,65535
   21434:	10a0001c 	xori	r2,r2,32768
   21438:	10a00004 	addi	r2,r2,-32768
   2143c:	e0ff5f17 	ldw	r3,-644(fp)
   21440:	18bfe916 	blt	r3,r2,213e8 <send_dynamic_header+0xf8>
        send_buffer[0] = (INT16)dynamic_header[i];
        fifo_write_block(FIFO_OUT_TO_6_BASE, FIFO_OUT_TO_6_CSR_BASE, send_buffer, 1);
    }
    printf("Stage 1: Header sent successfully.\n");
   21444:	010000f4 	movhi	r4,3
   21448:	213bdf04 	addi	r4,r4,-4228
   2144c:	002413c0 	call	2413c <puts>
}
   21450:	e037883a 	mov	sp,fp
   21454:	dfc00117 	ldw	ra,4(sp)
   21458:	df000017 	ldw	fp,0(sp)
   2145c:	dec00204 	addi	sp,sp,8
   21460:	f800283a 	ret

00021464 <main>:

// --- MAIN FUNCTION ---

extern void encode_image_stage1(UINT8* rgb_buffer, int width, int height, int fifo_base, int fifo_csr);

int main() {
   21464:	deffeb04 	addi	sp,sp,-84
   21468:	dfc01415 	stw	ra,80(sp)
   2146c:	df001315 	stw	fp,76(sp)
   21470:	df001304 	addi	fp,sp,76
    printf("--- Nios II: Stage 1 (Master Controller & RGB) ---\n");
   21474:	010000f4 	movhi	r4,3
   21478:	213be804 	addi	r4,r4,-4192
   2147c:	002413c0 	call	2413c <puts>
    
    // Initialize ALL outgoing FIFOs
    fifo_init(FIFO_OUT_CSR_BASE);      // Main pipeline to Stage 2
   21480:	01000134 	movhi	r4,4
   21484:	21041804 	addi	r4,r4,4192
   21488:	00219c00 	call	219c0 <fifo_init>
    fifo_init(FIFO_OUT_TO_4_CSR_BASE); // Side channel to Stage 4
   2148c:	01000134 	movhi	r4,4
   21490:	21040804 	addi	r4,r4,4128
   21494:	00219c00 	call	219c0 <fifo_init>
    fifo_init(FIFO_OUT_TO_5_CSR_BASE); // Side channel to Stage 5
   21498:	01000134 	movhi	r4,4
   2149c:	21040004 	addi	r4,r4,4096
   214a0:	00219c00 	call	219c0 <fifo_init>
    fifo_init(FIFO_OUT_TO_6_CSR_BASE); // Side channel to Stage 6
   214a4:	01000134 	movhi	r4,4
   214a8:	21041004 	addi	r4,r4,4160
   214ac:	00219c00 	call	219c0 <fifo_init>
    
    // We open the file FIRST before doing anything else
    printf("Attempting to open file (/mnt/host/files/test.bmp)...\n");
   214b0:	010000f4 	movhi	r4,3
   214b4:	213bf504 	addi	r4,r4,-4140
   214b8:	002413c0 	call	2413c <puts>
    FILE *f_in = fopen("/mnt/host/files/test.bmp", "rb");
   214bc:	010000f4 	movhi	r4,3
   214c0:	213c0304 	addi	r4,r4,-4084
   214c4:	014000f4 	movhi	r5,3
   214c8:	297c0a04 	addi	r5,r5,-4056
   214cc:	002265c0 	call	2265c <fopen>
   214d0:	e0bff515 	stw	r2,-44(fp)

    if (f_in == NULL) {
   214d4:	e0bff517 	ldw	r2,-44(fp)
   214d8:	1000081e 	bne	r2,zero,214fc <main+0x98>
        printf("ERROR: fopen returned NULL. File not found!\n");
   214dc:	010000f4 	movhi	r4,3
   214e0:	213c0b04 	addi	r4,r4,-4052
   214e4:	002413c0 	call	2413c <puts>
        printf("HALTING PROCESSOR.\n");
   214e8:	010000f4 	movhi	r4,3
   214ec:	213c1604 	addi	r4,r4,-4008
   214f0:	002413c0 	call	2413c <puts>
        return -1;
   214f4:	00bfffc4 	movi	r2,-1
   214f8:	00012c06 	br	219ac <main+0x548>
    }
    printf("SUCCESS: File opened!\n");
   214fc:	010000f4 	movhi	r4,3
   21500:	213c1b04 	addi	r4,r4,-3988
   21504:	002413c0 	call	2413c <puts>

    // Default dimensions for .raw files
    int width = 24, height = 24, pixel_offset = 0, bpp = 24;
   21508:	00800604 	movi	r2,24
   2150c:	e0bffb15 	stw	r2,-20(fp)
   21510:	00800604 	movi	r2,24
   21514:	e0bffc15 	stw	r2,-16(fp)
   21518:	e03ffd15 	stw	zero,-12(fp)
   2151c:	00800604 	movi	r2,24
   21520:	e0bffe15 	stw	r2,-8(fp)

    // Run the Auto-Detector
    int is_bmp = parse_image_header(f_in, &width, &height, &pixel_offset, &bpp);
   21524:	e17ffb04 	addi	r5,fp,-20
   21528:	e0fffc04 	addi	r3,fp,-16
   2152c:	e0bffd04 	addi	r2,fp,-12
   21530:	e13ffe04 	addi	r4,fp,-8
   21534:	d9000015 	stw	r4,0(sp)
   21538:	e13ff517 	ldw	r4,-44(fp)
   2153c:	180d883a 	mov	r6,r3
   21540:	100f883a 	mov	r7,r2
   21544:	0020f640 	call	20f64 <parse_image_header>
   21548:	e0bff615 	stw	r2,-40(fp)

    if (is_bmp) {
   2154c:	e0bff617 	ldw	r2,-40(fp)
   21550:	10001a26 	beq	r2,zero,215bc <main+0x158>
        printf("Stage 1: Detected BMP Header! Auto-extracted Width: %d, Height: %d, BPP: %d\n", width, height, bpp);
   21554:	e17ffb17 	ldw	r5,-20(fp)
   21558:	e0fffc17 	ldw	r3,-16(fp)
   2155c:	e0bffe17 	ldw	r2,-8(fp)
   21560:	010000f4 	movhi	r4,3
   21564:	213c2104 	addi	r4,r4,-3964
   21568:	180d883a 	mov	r6,r3
   2156c:	100f883a 	mov	r7,r2
   21570:	00240580 	call	24058 <printf>

        // --- CRITICAL BPP CHECK ---
        if (bpp != 24) {
   21574:	e0bffe17 	ldw	r2,-8(fp)
   21578:	10800620 	cmpeqi	r2,r2,24
   2157c:	1000161e 	bne	r2,zero,215d8 <main+0x174>
            printf("\n>>> FATAL ERROR: Your BMP is %d-bit! <<<\n", bpp);
   21580:	e0bffe17 	ldw	r2,-8(fp)
   21584:	010000f4 	movhi	r4,3
   21588:	213c3504 	addi	r4,r4,-3884
   2158c:	100b883a 	mov	r5,r2
   21590:	00240580 	call	24058 <printf>
            printf("This pipeline expects a 24-bit RGB BMP format.\n");
   21594:	010000f4 	movhi	r4,3
   21598:	213c4004 	addi	r4,r4,-3840
   2159c:	002413c0 	call	2413c <puts>
            printf("Please re-save your image in MS Paint or Photoshop as '24-bit Bitmap'.\n");
   215a0:	010000f4 	movhi	r4,3
   215a4:	213c4c04 	addi	r4,r4,-3792
   215a8:	002413c0 	call	2413c <puts>
            fclose(f_in);
   215ac:	e13ff517 	ldw	r4,-44(fp)
   215b0:	00220140 	call	22014 <fclose>
            return -1; // Stop the pipeline
   215b4:	00bfffc4 	movi	r2,-1
   215b8:	0000fc06 	br	219ac <main+0x548>
        }

    } else {
        printf("Stage 1: No BMP Header detected. Assuming pure .raw format at %dx%d\n", width, height);
   215bc:	e0fffb17 	ldw	r3,-20(fp)
   215c0:	e0bffc17 	ldw	r2,-16(fp)
   215c4:	010000f4 	movhi	r4,3
   215c8:	213c5e04 	addi	r4,r4,-3720
   215cc:	180b883a 	mov	r5,r3
   215d0:	100d883a 	mov	r6,r2
   215d4:	00240580 	call	24058 <printf>
    }

    // Allocate memory based on the final determined size
    int raw_size = width * height * 3;
   215d8:	e0fffb17 	ldw	r3,-20(fp)
   215dc:	e0bffc17 	ldw	r2,-16(fp)
   215e0:	1809883a 	mov	r4,r3
   215e4:	100b883a 	mov	r5,r2
   215e8:	0021dc80 	call	21dc8 <__mulsi3>
   215ec:	1007883a 	mov	r3,r2
   215f0:	1805883a 	mov	r2,r3
   215f4:	1085883a 	add	r2,r2,r2
   215f8:	10c5883a 	add	r2,r2,r3
   215fc:	e0bff715 	stw	r2,-36(fp)
    UINT8 *rgb_buffer = (UINT8*)calloc(raw_size, sizeof(UINT8));
   21600:	e0bff717 	ldw	r2,-36(fp)
   21604:	1009883a 	mov	r4,r2
   21608:	01400044 	movi	r5,1
   2160c:	0021df00 	call	21df0 <calloc>
   21610:	e0bff815 	stw	r2,-32(fp)

    // --- CRITICAL MEMORY CHECK MOVED HERE ---
    if (rgb_buffer == NULL) {
   21614:	e0bff817 	ldw	r2,-32(fp)
   21618:	10000b1e 	bne	r2,zero,21648 <main+0x1e4>
        printf("Stage 1 ERROR: Malloc failed! Not enough memory for %dx%d image.\n", width, height);
   2161c:	e0fffb17 	ldw	r3,-20(fp)
   21620:	e0bffc17 	ldw	r2,-16(fp)
   21624:	010000f4 	movhi	r4,3
   21628:	213c7004 	addi	r4,r4,-3648
   2162c:	180b883a 	mov	r5,r3
   21630:	100d883a 	mov	r6,r2
   21634:	00240580 	call	24058 <printf>
        fclose(f_in);
   21638:	e13ff517 	ldw	r4,-44(fp)
   2163c:	00220140 	call	22014 <fclose>
        return -1; // Stop BEFORE trying to write!
   21640:	00bfffc4 	movi	r2,-1
   21644:	0000d906 	br	219ac <main+0x548>
    }

    // NOW we send configurations down the pipeline
    init_chroma_ac_tables();
   21648:	00206140 	call	20614 <init_chroma_ac_tables>
    send_dqt_to_stage4();
   2164c:	00210d80 	call	210d8 <send_dqt_to_stage4>
    send_dht_to_stage5();
   21650:	00211c00 	call	211c0 <send_dht_to_stage5>
    send_dynamic_header(width, height);
   21654:	e0fffb17 	ldw	r3,-20(fp)
   21658:	e0bffc17 	ldw	r2,-16(fp)
   2165c:	1809883a 	mov	r4,r3
   21660:	100b883a 	mov	r5,r2
   21664:	00212f00 	call	212f0 <send_dynamic_header>

    // Smart Pixel Reader
    if (is_bmp) {
   21668:	e0bff617 	ldw	r2,-40(fp)
   2166c:	10007626 	beq	r2,zero,21848 <main+0x3e4>
        // Fast-forward to where the actual pixels start
        fseek(f_in, pixel_offset, SEEK_SET);
   21670:	e0bffd17 	ldw	r2,-12(fp)
   21674:	e13ff517 	ldw	r4,-44(fp)
   21678:	100b883a 	mov	r5,r2
   2167c:	000d883a 	mov	r6,zero
   21680:	00231740 	call	23174 <fseek>

        // BMP rows are mathematically padded to a multiple of 4 bytes
        int row_padded = (width * 3 + 3) & (~3);
   21684:	e0bffb17 	ldw	r2,-20(fp)
   21688:	10c00044 	addi	r3,r2,1
   2168c:	1805883a 	mov	r2,r3
   21690:	1085883a 	add	r2,r2,r2
   21694:	10c7883a 	add	r3,r2,r3
   21698:	00bfff04 	movi	r2,-4
   2169c:	1884703a 	and	r2,r3,r2
   216a0:	e0bff915 	stw	r2,-28(fp)
        UINT8* row_data = (UINT8*)malloc(row_padded);
   216a4:	e0bff917 	ldw	r2,-28(fp)
   216a8:	1009883a 	mov	r4,r2
   216ac:	00235f80 	call	235f8 <malloc>
   216b0:	e0bffa15 	stw	r2,-24(fp)

        if (row_data == NULL) {
   216b4:	e0bffa17 	ldw	r2,-24(fp)
   216b8:	1000091e 	bne	r2,zero,216e0 <main+0x27c>
            printf("Stage 1 ERROR: Could not allocate row padding buffer.\n");
   216bc:	010000f4 	movhi	r4,3
   216c0:	213c8104 	addi	r4,r4,-3580
   216c4:	002413c0 	call	2413c <puts>
            free(rgb_buffer);
   216c8:	e13ff817 	ldw	r4,-32(fp)
   216cc:	002360c0 	call	2360c <free>
            fclose(f_in);
   216d0:	e13ff517 	ldw	r4,-44(fp)
   216d4:	00220140 	call	22014 <fclose>
            return -1;
   216d8:	00bfffc4 	movi	r2,-1
   216dc:	0000b306 	br	219ac <main+0x548>
        }

        // Read the image BOTTOM-UP
        int r, c;
        for(r = height - 1; r >= 0; r--) {
   216e0:	e0bffc17 	ldw	r2,-16(fp)
   216e4:	10bfffc4 	addi	r2,r2,-1
   216e8:	e0bff315 	stw	r2,-52(fp)
   216ec:	00005106 	br	21834 <main+0x3d0>
            fread(row_data, 1, row_padded, f_in);
   216f0:	e0bff917 	ldw	r2,-28(fp)
   216f4:	e13ffa17 	ldw	r4,-24(fp)
   216f8:	01400044 	movi	r5,1
   216fc:	100d883a 	mov	r6,r2
   21700:	e1fff517 	ldw	r7,-44(fp)
   21704:	00228b40 	call	228b4 <fread>
            for(c = 0; c < width; c++) {
   21708:	e03ff415 	stw	zero,-48(fp)
   2170c:	00004306 	br	2181c <main+0x3b8>
            	// Put the BGR flip back! This restores the true eye colors.
            	rgb_buffer[(r * width + c) * 3 + 0] = row_data[c * 3 + 2]; // R
   21710:	e0bffb17 	ldw	r2,-20(fp)
   21714:	1009883a 	mov	r4,r2
   21718:	e17ff317 	ldw	r5,-52(fp)
   2171c:	0021dc80 	call	21dc8 <__mulsi3>
   21720:	1007883a 	mov	r3,r2
   21724:	e0bff417 	ldw	r2,-48(fp)
   21728:	1887883a 	add	r3,r3,r2
   2172c:	1805883a 	mov	r2,r3
   21730:	1085883a 	add	r2,r2,r2
   21734:	10c5883a 	add	r2,r2,r3
   21738:	e0fff817 	ldw	r3,-32(fp)
   2173c:	1889883a 	add	r4,r3,r2
   21740:	e0fff417 	ldw	r3,-48(fp)
   21744:	1805883a 	mov	r2,r3
   21748:	1085883a 	add	r2,r2,r2
   2174c:	10c5883a 	add	r2,r2,r3
   21750:	10800084 	addi	r2,r2,2
   21754:	e0fffa17 	ldw	r3,-24(fp)
   21758:	1885883a 	add	r2,r3,r2
   2175c:	10800003 	ldbu	r2,0(r2)
   21760:	20800005 	stb	r2,0(r4)
            	rgb_buffer[(r * width + c) * 3 + 1] = row_data[c * 3 + 1]; // G
   21764:	e0bffb17 	ldw	r2,-20(fp)
   21768:	1009883a 	mov	r4,r2
   2176c:	e17ff317 	ldw	r5,-52(fp)
   21770:	0021dc80 	call	21dc8 <__mulsi3>
   21774:	1007883a 	mov	r3,r2
   21778:	e0bff417 	ldw	r2,-48(fp)
   2177c:	1887883a 	add	r3,r3,r2
   21780:	1805883a 	mov	r2,r3
   21784:	1085883a 	add	r2,r2,r2
   21788:	10c5883a 	add	r2,r2,r3
   2178c:	10800044 	addi	r2,r2,1
   21790:	e0fff817 	ldw	r3,-32(fp)
   21794:	1889883a 	add	r4,r3,r2
   21798:	e0fff417 	ldw	r3,-48(fp)
   2179c:	1805883a 	mov	r2,r3
   217a0:	1085883a 	add	r2,r2,r2
   217a4:	10c5883a 	add	r2,r2,r3
   217a8:	10800044 	addi	r2,r2,1
   217ac:	e0fffa17 	ldw	r3,-24(fp)
   217b0:	1885883a 	add	r2,r3,r2
   217b4:	10800003 	ldbu	r2,0(r2)
   217b8:	20800005 	stb	r2,0(r4)
            	rgb_buffer[(r * width + c) * 3 + 2] = row_data[c * 3 + 0]; // B
   217bc:	e0bffb17 	ldw	r2,-20(fp)
   217c0:	1009883a 	mov	r4,r2
   217c4:	e17ff317 	ldw	r5,-52(fp)
   217c8:	0021dc80 	call	21dc8 <__mulsi3>
   217cc:	1007883a 	mov	r3,r2
   217d0:	e0bff417 	ldw	r2,-48(fp)
   217d4:	1887883a 	add	r3,r3,r2
   217d8:	1805883a 	mov	r2,r3
   217dc:	1085883a 	add	r2,r2,r2
   217e0:	10c5883a 	add	r2,r2,r3
   217e4:	10800084 	addi	r2,r2,2
   217e8:	e0fff817 	ldw	r3,-32(fp)
   217ec:	1889883a 	add	r4,r3,r2
   217f0:	e0fff417 	ldw	r3,-48(fp)
   217f4:	1805883a 	mov	r2,r3
   217f8:	1085883a 	add	r2,r2,r2
   217fc:	10c5883a 	add	r2,r2,r3
   21800:	e0fffa17 	ldw	r3,-24(fp)
   21804:	1885883a 	add	r2,r3,r2
   21808:	10800003 	ldbu	r2,0(r2)
   2180c:	20800005 	stb	r2,0(r4)

        // Read the image BOTTOM-UP
        int r, c;
        for(r = height - 1; r >= 0; r--) {
            fread(row_data, 1, row_padded, f_in);
            for(c = 0; c < width; c++) {
   21810:	e0bff417 	ldw	r2,-48(fp)
   21814:	10800044 	addi	r2,r2,1
   21818:	e0bff415 	stw	r2,-48(fp)
   2181c:	e0bffb17 	ldw	r2,-20(fp)
   21820:	e0fff417 	ldw	r3,-48(fp)
   21824:	18bfba16 	blt	r3,r2,21710 <main+0x2ac>
            return -1;
        }

        // Read the image BOTTOM-UP
        int r, c;
        for(r = height - 1; r >= 0; r--) {
   21828:	e0bff317 	ldw	r2,-52(fp)
   2182c:	10bfffc4 	addi	r2,r2,-1
   21830:	e0bff315 	stw	r2,-52(fp)
   21834:	e0bff317 	ldw	r2,-52(fp)
   21838:	103fad0e 	bge	r2,zero,216f0 <main+0x28c>
            	rgb_buffer[(r * width + c) * 3 + 0] = row_data[c * 3 + 2]; // R
            	rgb_buffer[(r * width + c) * 3 + 1] = row_data[c * 3 + 1]; // G
            	rgb_buffer[(r * width + c) * 3 + 2] = row_data[c * 3 + 0]; // B
            }
        }
        free(row_data);
   2183c:	e13ffa17 	ldw	r4,-24(fp)
   21840:	002360c0 	call	2360c <free>
   21844:	00000606 	br	21860 <main+0x3fc>
    } else {
        // Standard RAW reading
        fread(rgb_buffer, 1, raw_size, f_in);
   21848:	e0bff717 	ldw	r2,-36(fp)
   2184c:	e13ff817 	ldw	r4,-32(fp)
   21850:	01400044 	movi	r5,1
   21854:	100d883a 	mov	r6,r2
   21858:	e1fff517 	ldw	r7,-44(fp)
   2185c:	00228b40 	call	228b4 <fread>
    }
    fclose(f_in);
   21860:	e13ff517 	ldw	r4,-44(fp)
   21864:	00220140 	call	22014 <fclose>

    printf("Raw RGB Pixels 0-2: [%d, %d, %d] [%d, %d, %d] [%d, %d, %d]\n",
            rgb_buffer[0], rgb_buffer[1], rgb_buffer[2],
   21868:	e0bff817 	ldw	r2,-32(fp)
   2186c:	10800003 	ldbu	r2,0(r2)
        // Standard RAW reading
        fread(rgb_buffer, 1, raw_size, f_in);
    }
    fclose(f_in);

    printf("Raw RGB Pixels 0-2: [%d, %d, %d] [%d, %d, %d] [%d, %d, %d]\n",
   21870:	11403fcc 	andi	r5,r2,255
            rgb_buffer[0], rgb_buffer[1], rgb_buffer[2],
   21874:	e0bff817 	ldw	r2,-32(fp)
   21878:	10800044 	addi	r2,r2,1
   2187c:	10800003 	ldbu	r2,0(r2)
        // Standard RAW reading
        fread(rgb_buffer, 1, raw_size, f_in);
    }
    fclose(f_in);

    printf("Raw RGB Pixels 0-2: [%d, %d, %d] [%d, %d, %d] [%d, %d, %d]\n",
   21880:	10c03fcc 	andi	r3,r2,255
            rgb_buffer[0], rgb_buffer[1], rgb_buffer[2],
   21884:	e0bff817 	ldw	r2,-32(fp)
   21888:	10800084 	addi	r2,r2,2
   2188c:	10800003 	ldbu	r2,0(r2)
        // Standard RAW reading
        fread(rgb_buffer, 1, raw_size, f_in);
    }
    fclose(f_in);

    printf("Raw RGB Pixels 0-2: [%d, %d, %d] [%d, %d, %d] [%d, %d, %d]\n",
   21890:	10803fcc 	andi	r2,r2,255
            rgb_buffer[0], rgb_buffer[1], rgb_buffer[2],
            rgb_buffer[3], rgb_buffer[4], rgb_buffer[5],
   21894:	e13ff817 	ldw	r4,-32(fp)
   21898:	210000c4 	addi	r4,r4,3
   2189c:	21000003 	ldbu	r4,0(r4)
        // Standard RAW reading
        fread(rgb_buffer, 1, raw_size, f_in);
    }
    fclose(f_in);

    printf("Raw RGB Pixels 0-2: [%d, %d, %d] [%d, %d, %d] [%d, %d, %d]\n",
   218a0:	22803fcc 	andi	r10,r4,255
            rgb_buffer[0], rgb_buffer[1], rgb_buffer[2],
            rgb_buffer[3], rgb_buffer[4], rgb_buffer[5],
   218a4:	e13ff817 	ldw	r4,-32(fp)
   218a8:	21000104 	addi	r4,r4,4
   218ac:	21000003 	ldbu	r4,0(r4)
        // Standard RAW reading
        fread(rgb_buffer, 1, raw_size, f_in);
    }
    fclose(f_in);

    printf("Raw RGB Pixels 0-2: [%d, %d, %d] [%d, %d, %d] [%d, %d, %d]\n",
   218b0:	22403fcc 	andi	r9,r4,255
            rgb_buffer[0], rgb_buffer[1], rgb_buffer[2],
            rgb_buffer[3], rgb_buffer[4], rgb_buffer[5],
   218b4:	e13ff817 	ldw	r4,-32(fp)
   218b8:	21000144 	addi	r4,r4,5
   218bc:	21000003 	ldbu	r4,0(r4)
        // Standard RAW reading
        fread(rgb_buffer, 1, raw_size, f_in);
    }
    fclose(f_in);

    printf("Raw RGB Pixels 0-2: [%d, %d, %d] [%d, %d, %d] [%d, %d, %d]\n",
   218c0:	22003fcc 	andi	r8,r4,255
            rgb_buffer[0], rgb_buffer[1], rgb_buffer[2],
            rgb_buffer[3], rgb_buffer[4], rgb_buffer[5],
            rgb_buffer[6], rgb_buffer[7], rgb_buffer[8]);
   218c4:	e13ff817 	ldw	r4,-32(fp)
   218c8:	21000184 	addi	r4,r4,6
   218cc:	21000003 	ldbu	r4,0(r4)
        // Standard RAW reading
        fread(rgb_buffer, 1, raw_size, f_in);
    }
    fclose(f_in);

    printf("Raw RGB Pixels 0-2: [%d, %d, %d] [%d, %d, %d] [%d, %d, %d]\n",
   218d0:	21c03fcc 	andi	r7,r4,255
            rgb_buffer[0], rgb_buffer[1], rgb_buffer[2],
            rgb_buffer[3], rgb_buffer[4], rgb_buffer[5],
            rgb_buffer[6], rgb_buffer[7], rgb_buffer[8]);
   218d4:	e13ff817 	ldw	r4,-32(fp)
   218d8:	210001c4 	addi	r4,r4,7
   218dc:	21000003 	ldbu	r4,0(r4)
        // Standard RAW reading
        fread(rgb_buffer, 1, raw_size, f_in);
    }
    fclose(f_in);

    printf("Raw RGB Pixels 0-2: [%d, %d, %d] [%d, %d, %d] [%d, %d, %d]\n",
   218e0:	21803fcc 	andi	r6,r4,255
            rgb_buffer[0], rgb_buffer[1], rgb_buffer[2],
            rgb_buffer[3], rgb_buffer[4], rgb_buffer[5],
            rgb_buffer[6], rgb_buffer[7], rgb_buffer[8]);
   218e4:	e13ff817 	ldw	r4,-32(fp)
   218e8:	21000204 	addi	r4,r4,8
   218ec:	21000003 	ldbu	r4,0(r4)
        // Standard RAW reading
        fread(rgb_buffer, 1, raw_size, f_in);
    }
    fclose(f_in);

    printf("Raw RGB Pixels 0-2: [%d, %d, %d] [%d, %d, %d] [%d, %d, %d]\n",
   218f0:	21003fcc 	andi	r4,r4,255
   218f4:	da800015 	stw	r10,0(sp)
   218f8:	da400115 	stw	r9,4(sp)
   218fc:	da000215 	stw	r8,8(sp)
   21900:	d9c00315 	stw	r7,12(sp)
   21904:	d9800415 	stw	r6,16(sp)
   21908:	d9000515 	stw	r4,20(sp)
   2190c:	010000f4 	movhi	r4,3
   21910:	213c8f04 	addi	r4,r4,-3524
   21914:	180d883a 	mov	r6,r3
   21918:	100f883a 	mov	r7,r2
   2191c:	00240580 	call	24058 <printf>
            rgb_buffer[0], rgb_buffer[1], rgb_buffer[2],
            rgb_buffer[3], rgb_buffer[4], rgb_buffer[5],
            rgb_buffer[6], rgb_buffer[7], rgb_buffer[8]);

    printf("Stage 1: Pumping image dimensions into main pipeline...\n");
   21920:	010000f4 	movhi	r4,3
   21924:	213c9e04 	addi	r4,r4,-3464
   21928:	002413c0 	call	2413c <puts>
    // Send the width and height down the main data path to Stage 2
    INT16 dimension_packet[2] = {(INT16)width, (INT16)height};
   2192c:	e0bffb17 	ldw	r2,-20(fp)
   21930:	e0bfff0d 	sth	r2,-4(fp)
   21934:	e0bffc17 	ldw	r2,-16(fp)
   21938:	e0bfff8d 	sth	r2,-2(fp)
    fifo_write_block(FIFO_OUT_BASE, FIFO_OUT_CSR_BASE, dimension_packet, 2);
   2193c:	e0bfff04 	addi	r2,fp,-4
   21940:	01000134 	movhi	r4,4
   21944:	21042f04 	addi	r4,r4,4284
   21948:	01400134 	movhi	r5,4
   2194c:	29441804 	addi	r5,r5,4192
   21950:	100d883a 	mov	r6,r2
   21954:	01c00084 	movi	r7,2
   21958:	0021a700 	call	21a70 <fifo_write_block>

    printf("Stage 1: Pumping image data into FIFO...\n");
   2195c:	010000f4 	movhi	r4,3
   21960:	213cac04 	addi	r4,r4,-3408
   21964:	002413c0 	call	2413c <puts>
    // Pump actual image pixels to Stage 2
    encode_image_stage1(rgb_buffer, width, height, FIFO_OUT_BASE, FIFO_OUT_CSR_BASE);
   21968:	e0fffb17 	ldw	r3,-20(fp)
   2196c:	e0bffc17 	ldw	r2,-16(fp)
   21970:	01000134 	movhi	r4,4
   21974:	21041804 	addi	r4,r4,4192
   21978:	d9000015 	stw	r4,0(sp)
   2197c:	e13ff817 	ldw	r4,-32(fp)
   21980:	180b883a 	mov	r5,r3
   21984:	100d883a 	mov	r6,r2
   21988:	01c00134 	movhi	r7,4
   2198c:	39c42f04 	addi	r7,r7,4284
   21990:	00201f40 	call	201f4 <encode_image_stage1>
    
    printf("Stage 1: Finished pumping data.\n");
   21994:	010000f4 	movhi	r4,3
   21998:	213cb704 	addi	r4,r4,-3364
   2199c:	002413c0 	call	2413c <puts>
    free(rgb_buffer);
   219a0:	e13ff817 	ldw	r4,-32(fp)
   219a4:	002360c0 	call	2360c <free>
    return 0;
   219a8:	0005883a 	mov	r2,zero
}
   219ac:	e037883a 	mov	sp,fp
   219b0:	dfc00117 	ldw	ra,4(sp)
   219b4:	df000017 	ldw	fp,0(sp)
   219b8:	dec00204 	addi	sp,sp,8
   219bc:	f800283a 	ret

000219c0 <fifo_init>:
#if defined(__nios2__) || defined(__NIOS2__)
// --- HARDWARE IMPLEMENTATION (Altera Nios II) ---
#include <io.h>
#include "altera_avalon_fifo_regs.h"

void fifo_init(unsigned int fifo_csr_base) {
   219c0:	defffe04 	addi	sp,sp,-8
   219c4:	df000115 	stw	fp,4(sp)
   219c8:	df000104 	addi	fp,sp,4
   219cc:	e13fff15 	stw	r4,-4(fp)
    // Clear the FIFO event register to reset any lingering interrupt/error states
    IOWR_ALTERA_AVALON_FIFO_EVENT(fifo_csr_base, 0x0);
   219d0:	e0bfff17 	ldw	r2,-4(fp)
   219d4:	10800204 	addi	r2,r2,8
   219d8:	0007883a 	mov	r3,zero
   219dc:	10c00035 	stwio	r3,0(r2)
}
   219e0:	e037883a 	mov	sp,fp
   219e4:	df000017 	ldw	fp,0(sp)
   219e8:	dec00104 	addi	sp,sp,4
   219ec:	f800283a 	ret

000219f0 <fifo_read_block>:

void fifo_read_block(unsigned int fifo_base, unsigned int fifo_csr, INT16 *buffer, int length) {
   219f0:	defffa04 	addi	sp,sp,-24
   219f4:	df000515 	stw	fp,20(sp)
   219f8:	df000504 	addi	fp,sp,20
   219fc:	e13ffc15 	stw	r4,-16(fp)
   21a00:	e17ffd15 	stw	r5,-12(fp)
   21a04:	e1bffe15 	stw	r6,-8(fp)
   21a08:	e1ffff15 	stw	r7,-4(fp)
    int i;
    for(i = 0; i < length; i++) {
   21a0c:	e03ffb15 	stw	zero,-20(fp)
   21a10:	00001006 	br	21a54 <fifo_read_block+0x64>
        // Spin-lock (block) while the FIFO Status Register says it is EMPTY
        // This is much safer than checking FIFO_LEVEL across dual-clock domains
        while (IORD_ALTERA_AVALON_FIFO_STATUS(fifo_csr) & ALTERA_AVALON_FIFO_STATUS_E_MSK) { }
   21a14:	0001883a 	nop
   21a18:	e0bffd17 	ldw	r2,-12(fp)
   21a1c:	10800104 	addi	r2,r2,4
   21a20:	10800037 	ldwio	r2,0(r2)
   21a24:	1080008c 	andi	r2,r2,2
   21a28:	103ffb1e 	bne	r2,zero,21a18 <fifo_read_block+0x28>
        
        // Read 16-bit word from the FIFO data port
        buffer[i] = (INT16)IORD_ALTERA_AVALON_FIFO_DATA(fifo_base);
   21a2c:	e0bffb17 	ldw	r2,-20(fp)
   21a30:	1085883a 	add	r2,r2,r2
   21a34:	e0fffe17 	ldw	r3,-8(fp)
   21a38:	1885883a 	add	r2,r3,r2
   21a3c:	e0fffc17 	ldw	r3,-16(fp)
   21a40:	18c00037 	ldwio	r3,0(r3)
   21a44:	10c0000d 	sth	r3,0(r2)
    IOWR_ALTERA_AVALON_FIFO_EVENT(fifo_csr_base, 0x0);
}

void fifo_read_block(unsigned int fifo_base, unsigned int fifo_csr, INT16 *buffer, int length) {
    int i;
    for(i = 0; i < length; i++) {
   21a48:	e0bffb17 	ldw	r2,-20(fp)
   21a4c:	10800044 	addi	r2,r2,1
   21a50:	e0bffb15 	stw	r2,-20(fp)
   21a54:	e0fffb17 	ldw	r3,-20(fp)
   21a58:	e0bfff17 	ldw	r2,-4(fp)
   21a5c:	18bfed16 	blt	r3,r2,21a14 <fifo_read_block+0x24>
        while (IORD_ALTERA_AVALON_FIFO_STATUS(fifo_csr) & ALTERA_AVALON_FIFO_STATUS_E_MSK) { }
        
        // Read 16-bit word from the FIFO data port
        buffer[i] = (INT16)IORD_ALTERA_AVALON_FIFO_DATA(fifo_base);
    }
}
   21a60:	e037883a 	mov	sp,fp
   21a64:	df000017 	ldw	fp,0(sp)
   21a68:	dec00104 	addi	sp,sp,4
   21a6c:	f800283a 	ret

00021a70 <fifo_write_block>:

void fifo_write_block(unsigned int fifo_base, unsigned int fifo_csr, INT16 *buffer, int length) {
   21a70:	defffa04 	addi	sp,sp,-24
   21a74:	df000515 	stw	fp,20(sp)
   21a78:	df000504 	addi	fp,sp,20
   21a7c:	e13ffc15 	stw	r4,-16(fp)
   21a80:	e17ffd15 	stw	r5,-12(fp)
   21a84:	e1bffe15 	stw	r6,-8(fp)
   21a88:	e1ffff15 	stw	r7,-4(fp)
    int i;
    for(i = 0; i < length; i++) {
   21a8c:	e03ffb15 	stw	zero,-20(fp)
   21a90:	00001306 	br	21ae0 <fifo_write_block+0x70>
        // Spin-lock (block) while the FIFO is completely FULL
        while (IORD_ALTERA_AVALON_FIFO_STATUS(fifo_csr) & ALTERA_AVALON_FIFO_STATUS_F_MSK) { }
   21a94:	0001883a 	nop
   21a98:	e0bffd17 	ldw	r2,-12(fp)
   21a9c:	10800104 	addi	r2,r2,4
   21aa0:	10800037 	ldwio	r2,0(r2)
   21aa4:	1080004c 	andi	r2,r2,1
   21aa8:	103ffb1e 	bne	r2,zero,21a98 <fifo_write_block+0x28>
        
        // Write 16-bit word to the FIFO data port
        IOWR_ALTERA_AVALON_FIFO_DATA(fifo_base, buffer[i]);
   21aac:	e0fffc17 	ldw	r3,-16(fp)
   21ab0:	e0bffb17 	ldw	r2,-20(fp)
   21ab4:	1085883a 	add	r2,r2,r2
   21ab8:	e13ffe17 	ldw	r4,-8(fp)
   21abc:	2085883a 	add	r2,r4,r2
   21ac0:	1080000b 	ldhu	r2,0(r2)
   21ac4:	10bfffcc 	andi	r2,r2,65535
   21ac8:	10a0001c 	xori	r2,r2,32768
   21acc:	10a00004 	addi	r2,r2,-32768
   21ad0:	18800035 	stwio	r2,0(r3)
    }
}

void fifo_write_block(unsigned int fifo_base, unsigned int fifo_csr, INT16 *buffer, int length) {
    int i;
    for(i = 0; i < length; i++) {
   21ad4:	e0bffb17 	ldw	r2,-20(fp)
   21ad8:	10800044 	addi	r2,r2,1
   21adc:	e0bffb15 	stw	r2,-20(fp)
   21ae0:	e0fffb17 	ldw	r3,-20(fp)
   21ae4:	e0bfff17 	ldw	r2,-4(fp)
   21ae8:	18bfea16 	blt	r3,r2,21a94 <fifo_write_block+0x24>
        while (IORD_ALTERA_AVALON_FIFO_STATUS(fifo_csr) & ALTERA_AVALON_FIFO_STATUS_F_MSK) { }
        
        // Write 16-bit word to the FIFO data port
        IOWR_ALTERA_AVALON_FIFO_DATA(fifo_base, buffer[i]);
    }
}
   21aec:	e037883a 	mov	sp,fp
   21af0:	df000017 	ldw	fp,0(sp)
   21af4:	dec00104 	addi	sp,sp,4
   21af8:	f800283a 	ret

00021afc <clamp>:
#include "nios2_common/datatype.h"
#include "nios2_common/jdatatype.h"

static inline INT16 clamp(INT16 val) {
   21afc:	defffe04 	addi	sp,sp,-8
   21b00:	df000115 	stw	fp,4(sp)
   21b04:	df000104 	addi	fp,sp,4
   21b08:	2005883a 	mov	r2,r4
   21b0c:	e0bfff0d 	sth	r2,-4(fp)
    if (val < 0) return 0;
   21b10:	e0bfff0f 	ldh	r2,-4(fp)
   21b14:	1000020e 	bge	r2,zero,21b20 <clamp+0x24>
   21b18:	0005883a 	mov	r2,zero
   21b1c:	00000606 	br	21b38 <clamp+0x3c>
    if (val > 255) return 255;
   21b20:	e0bfff0f 	ldh	r2,-4(fp)
   21b24:	10804010 	cmplti	r2,r2,256
   21b28:	1000021e 	bne	r2,zero,21b34 <clamp+0x38>
   21b2c:	00803fc4 	movi	r2,255
   21b30:	00000106 	br	21b38 <clamp+0x3c>
    return val;
   21b34:	e0bfff0b 	ldhu	r2,-4(fp)
}
   21b38:	e037883a 	mov	sp,fp
   21b3c:	df000017 	ldw	fp,0(sp)
   21b40:	dec00104 	addi	sp,sp,4
   21b44:	f800283a 	ret

00021b48 <read_444_format>:

void read_444_format(UINT8 *input_ptr, int width, int height, INT16 *Y1, INT16 *CB, INT16 *CR, int mcu_col, int mcu_row) {
   21b48:	defff004 	addi	sp,sp,-64
   21b4c:	dfc00f15 	stw	ra,60(sp)
   21b50:	df000e15 	stw	fp,56(sp)
   21b54:	dc000d15 	stw	r16,52(sp)
   21b58:	df000d04 	addi	fp,sp,52
   21b5c:	e13ffc15 	stw	r4,-16(fp)
   21b60:	e17ffd15 	stw	r5,-12(fp)
   21b64:	e1bffe15 	stw	r6,-8(fp)
   21b68:	e1ffff15 	stw	r7,-4(fp)
    int i, j;
    
    for (i = 0; i < 8; i++) {
   21b6c:	e03ff315 	stw	zero,-52(fp)
   21b70:	00008c06 	br	21da4 <read_444_format+0x25c>
        for (j = 0; j < 8; j++) {
   21b74:	e03ff415 	stw	zero,-48(fp)
   21b78:	00008406 	br	21d8c <read_444_format+0x244>
            int img_x = mcu_col * 8 + j;
   21b7c:	e0800517 	ldw	r2,20(fp)
   21b80:	100690fa 	slli	r3,r2,3
   21b84:	e0bff417 	ldw	r2,-48(fp)
   21b88:	1885883a 	add	r2,r3,r2
   21b8c:	e0bff515 	stw	r2,-44(fp)
            int img_y = mcu_row * 8 + i;
   21b90:	e0800617 	ldw	r2,24(fp)
   21b94:	100690fa 	slli	r3,r2,3
   21b98:	e0bff317 	ldw	r2,-52(fp)
   21b9c:	1885883a 	add	r2,r3,r2
   21ba0:	e0bff615 	stw	r2,-40(fp)
            if (img_x >= width) img_x = width - 1;
   21ba4:	e0fff517 	ldw	r3,-44(fp)
   21ba8:	e0bffd17 	ldw	r2,-12(fp)
   21bac:	18800316 	blt	r3,r2,21bbc <read_444_format+0x74>
   21bb0:	e0bffd17 	ldw	r2,-12(fp)
   21bb4:	10bfffc4 	addi	r2,r2,-1
   21bb8:	e0bff515 	stw	r2,-44(fp)
            if (img_y >= height) img_y = height - 1;
   21bbc:	e0fff617 	ldw	r3,-40(fp)
   21bc0:	e0bffe17 	ldw	r2,-8(fp)
   21bc4:	18800316 	blt	r3,r2,21bd4 <read_444_format+0x8c>
   21bc8:	e0bffe17 	ldw	r2,-8(fp)
   21bcc:	10bfffc4 	addi	r2,r2,-1
   21bd0:	e0bff615 	stw	r2,-40(fp)
            
            int pixel_idx = (img_y * width + img_x) * 3;
   21bd4:	e13ff617 	ldw	r4,-40(fp)
   21bd8:	e17ffd17 	ldw	r5,-12(fp)
   21bdc:	0021dc80 	call	21dc8 <__mulsi3>
   21be0:	1007883a 	mov	r3,r2
   21be4:	e0bff517 	ldw	r2,-44(fp)
   21be8:	1887883a 	add	r3,r3,r2
   21bec:	1805883a 	mov	r2,r3
   21bf0:	1085883a 	add	r2,r2,r2
   21bf4:	10c5883a 	add	r2,r2,r3
   21bf8:	e0bff715 	stw	r2,-36(fp)
            INT16 r = input_ptr[pixel_idx];
   21bfc:	e0bff717 	ldw	r2,-36(fp)
   21c00:	e0fffc17 	ldw	r3,-16(fp)
   21c04:	1885883a 	add	r2,r3,r2
   21c08:	10800003 	ldbu	r2,0(r2)
   21c0c:	10803fcc 	andi	r2,r2,255
   21c10:	e0bff80d 	sth	r2,-32(fp)
            INT16 g = input_ptr[pixel_idx + 1];
   21c14:	e0bff717 	ldw	r2,-36(fp)
   21c18:	10800044 	addi	r2,r2,1
   21c1c:	e0fffc17 	ldw	r3,-16(fp)
   21c20:	1885883a 	add	r2,r3,r2
   21c24:	10800003 	ldbu	r2,0(r2)
   21c28:	10803fcc 	andi	r2,r2,255
   21c2c:	e0bff88d 	sth	r2,-30(fp)
            INT16 b = input_ptr[pixel_idx + 2];
   21c30:	e0bff717 	ldw	r2,-36(fp)
   21c34:	10800084 	addi	r2,r2,2
   21c38:	e0fffc17 	ldw	r3,-16(fp)
   21c3c:	1885883a 	add	r2,r3,r2
   21c40:	10800003 	ldbu	r2,0(r2)
   21c44:	10803fcc 	andi	r2,r2,255
   21c48:	e0bff90d 	sth	r2,-28(fp)
            
            // RGB to YCbCr
            INT16 y  = (( 77 * r + 150 * g +  29 * b) >> 8);
   21c4c:	e0bff80f 	ldh	r2,-32(fp)
   21c50:	1009883a 	mov	r4,r2
   21c54:	01401344 	movi	r5,77
   21c58:	0021dc80 	call	21dc8 <__mulsi3>
   21c5c:	1021883a 	mov	r16,r2
   21c60:	e0bff88f 	ldh	r2,-30(fp)
   21c64:	1009883a 	mov	r4,r2
   21c68:	01402584 	movi	r5,150
   21c6c:	0021dc80 	call	21dc8 <__mulsi3>
   21c70:	80a1883a 	add	r16,r16,r2
   21c74:	e0bff90f 	ldh	r2,-28(fp)
   21c78:	1009883a 	mov	r4,r2
   21c7c:	01400744 	movi	r5,29
   21c80:	0021dc80 	call	21dc8 <__mulsi3>
   21c84:	8085883a 	add	r2,r16,r2
   21c88:	1005d23a 	srai	r2,r2,8
   21c8c:	e0bff98d 	sth	r2,-26(fp)
            INT16 cb = ((-43 * r -  85 * g + 128 * b) >> 8) + 128;
   21c90:	e0bff80f 	ldh	r2,-32(fp)
   21c94:	1009883a 	mov	r4,r2
   21c98:	017ff544 	movi	r5,-43
   21c9c:	0021dc80 	call	21dc8 <__mulsi3>
   21ca0:	1021883a 	mov	r16,r2
   21ca4:	e0bff88f 	ldh	r2,-30(fp)
   21ca8:	1009883a 	mov	r4,r2
   21cac:	017feac4 	movi	r5,-85
   21cb0:	0021dc80 	call	21dc8 <__mulsi3>
   21cb4:	8087883a 	add	r3,r16,r2
   21cb8:	e0bff90f 	ldh	r2,-28(fp)
   21cbc:	100491fa 	slli	r2,r2,7
   21cc0:	1885883a 	add	r2,r3,r2
   21cc4:	1005d23a 	srai	r2,r2,8
   21cc8:	10802004 	addi	r2,r2,128
   21ccc:	e0bffa0d 	sth	r2,-24(fp)
            INT16 cr = ((128 * r - 107 * g -  21 * b) >> 8) + 128;
   21cd0:	e0bff80f 	ldh	r2,-32(fp)
   21cd4:	102091fa 	slli	r16,r2,7
   21cd8:	e0bff88f 	ldh	r2,-30(fp)
   21cdc:	1009883a 	mov	r4,r2
   21ce0:	017fe544 	movi	r5,-107
   21ce4:	0021dc80 	call	21dc8 <__mulsi3>
   21ce8:	80a1883a 	add	r16,r16,r2
   21cec:	e0bff90f 	ldh	r2,-28(fp)
   21cf0:	1009883a 	mov	r4,r2
   21cf4:	017ffac4 	movi	r5,-21
   21cf8:	0021dc80 	call	21dc8 <__mulsi3>
   21cfc:	8085883a 	add	r2,r16,r2
   21d00:	1005d23a 	srai	r2,r2,8
   21d04:	10802004 	addi	r2,r2,128
   21d08:	e0bffa8d 	sth	r2,-22(fp)
            
            int block_idx = i * 8 + j;
   21d0c:	e0bff317 	ldw	r2,-52(fp)
   21d10:	100690fa 	slli	r3,r2,3
   21d14:	e0bff417 	ldw	r2,-48(fp)
   21d18:	1885883a 	add	r2,r3,r2
   21d1c:	e0bffb15 	stw	r2,-20(fp)
            Y1[block_idx] = clamp(y);
   21d20:	e0bffb17 	ldw	r2,-20(fp)
   21d24:	1085883a 	add	r2,r2,r2
   21d28:	e0ffff17 	ldw	r3,-4(fp)
   21d2c:	18a1883a 	add	r16,r3,r2
   21d30:	e0bff98f 	ldh	r2,-26(fp)
   21d34:	1009883a 	mov	r4,r2
   21d38:	0021afc0 	call	21afc <clamp>
   21d3c:	8080000d 	sth	r2,0(r16)
            CB[block_idx] = clamp(cb);
   21d40:	e0bffb17 	ldw	r2,-20(fp)
   21d44:	1085883a 	add	r2,r2,r2
   21d48:	e0c00317 	ldw	r3,12(fp)
   21d4c:	18a1883a 	add	r16,r3,r2
   21d50:	e0bffa0f 	ldh	r2,-24(fp)
   21d54:	1009883a 	mov	r4,r2
   21d58:	0021afc0 	call	21afc <clamp>
   21d5c:	8080000d 	sth	r2,0(r16)
            CR[block_idx] = clamp(cr);
   21d60:	e0bffb17 	ldw	r2,-20(fp)
   21d64:	1085883a 	add	r2,r2,r2
   21d68:	e0c00417 	ldw	r3,16(fp)
   21d6c:	18a1883a 	add	r16,r3,r2
   21d70:	e0bffa8f 	ldh	r2,-22(fp)
   21d74:	1009883a 	mov	r4,r2
   21d78:	0021afc0 	call	21afc <clamp>
   21d7c:	8080000d 	sth	r2,0(r16)

void read_444_format(UINT8 *input_ptr, int width, int height, INT16 *Y1, INT16 *CB, INT16 *CR, int mcu_col, int mcu_row) {
    int i, j;
    
    for (i = 0; i < 8; i++) {
        for (j = 0; j < 8; j++) {
   21d80:	e0bff417 	ldw	r2,-48(fp)
   21d84:	10800044 	addi	r2,r2,1
   21d88:	e0bff415 	stw	r2,-48(fp)
   21d8c:	e0bff417 	ldw	r2,-48(fp)
   21d90:	10800210 	cmplti	r2,r2,8
   21d94:	103f791e 	bne	r2,zero,21b7c <read_444_format+0x34>
}

void read_444_format(UINT8 *input_ptr, int width, int height, INT16 *Y1, INT16 *CB, INT16 *CR, int mcu_col, int mcu_row) {
    int i, j;
    
    for (i = 0; i < 8; i++) {
   21d98:	e0bff317 	ldw	r2,-52(fp)
   21d9c:	10800044 	addi	r2,r2,1
   21da0:	e0bff315 	stw	r2,-52(fp)
   21da4:	e0bff317 	ldw	r2,-52(fp)
   21da8:	10800210 	cmplti	r2,r2,8
   21dac:	103f711e 	bne	r2,zero,21b74 <read_444_format+0x2c>
            Y1[block_idx] = clamp(y);
            CB[block_idx] = clamp(cb);
            CR[block_idx] = clamp(cr);
        }
    }
}
   21db0:	e037883a 	mov	sp,fp
   21db4:	dfc00217 	ldw	ra,8(sp)
   21db8:	df000117 	ldw	fp,4(sp)
   21dbc:	dc000017 	ldw	r16,0(sp)
   21dc0:	dec00304 	addi	sp,sp,12
   21dc4:	f800283a 	ret

00021dc8 <__mulsi3>:
   21dc8:	0005883a 	mov	r2,zero
   21dcc:	20000726 	beq	r4,zero,21dec <__mulsi3+0x24>
   21dd0:	20c0004c 	andi	r3,r4,1
   21dd4:	2008d07a 	srli	r4,r4,1
   21dd8:	18000126 	beq	r3,zero,21de0 <__mulsi3+0x18>
   21ddc:	1145883a 	add	r2,r2,r5
   21de0:	294b883a 	add	r5,r5,r5
   21de4:	203ffa1e 	bne	r4,zero,21dd0 <__mulsi3+0x8>
   21de8:	f800283a 	ret
   21dec:	f800283a 	ret

00021df0 <calloc>:
   21df0:	00c000f4 	movhi	r3,3
   21df4:	18c02904 	addi	r3,r3,164
   21df8:	2005883a 	mov	r2,r4
   21dfc:	19000017 	ldw	r4,0(r3)
   21e00:	280d883a 	mov	r6,r5
   21e04:	100b883a 	mov	r5,r2
   21e08:	0021e0c1 	jmpi	21e0c <_calloc_r>

00021e0c <_calloc_r>:
   21e0c:	defffe04 	addi	sp,sp,-8
   21e10:	dc000015 	stw	r16,0(sp)
   21e14:	2021883a 	mov	r16,r4
   21e18:	3009883a 	mov	r4,r6
   21e1c:	dfc00115 	stw	ra,4(sp)
   21e20:	0021dc80 	call	21dc8 <__mulsi3>
   21e24:	8009883a 	mov	r4,r16
   21e28:	100b883a 	mov	r5,r2
   21e2c:	00236200 	call	23620 <_malloc_r>
   21e30:	1021883a 	mov	r16,r2
   21e34:	10000c26 	beq	r2,zero,21e68 <_calloc_r+0x5c>
   21e38:	11bfff17 	ldw	r6,-4(r2)
   21e3c:	00ffff04 	movi	r3,-4
   21e40:	00800904 	movi	r2,36
   21e44:	30cc703a 	and	r6,r6,r3
   21e48:	30cd883a 	add	r6,r6,r3
   21e4c:	11801436 	bltu	r2,r6,21ea0 <_calloc_r+0x94>
   21e50:	00c004c4 	movi	r3,19
   21e54:	19800936 	bltu	r3,r6,21e7c <_calloc_r+0x70>
   21e58:	8005883a 	mov	r2,r16
   21e5c:	10000015 	stw	zero,0(r2)
   21e60:	10000115 	stw	zero,4(r2)
   21e64:	10000215 	stw	zero,8(r2)
   21e68:	8005883a 	mov	r2,r16
   21e6c:	dfc00117 	ldw	ra,4(sp)
   21e70:	dc000017 	ldw	r16,0(sp)
   21e74:	dec00204 	addi	sp,sp,8
   21e78:	f800283a 	ret
   21e7c:	80000015 	stw	zero,0(r16)
   21e80:	80000115 	stw	zero,4(r16)
   21e84:	00c006c4 	movi	r3,27
   21e88:	19800d2e 	bgeu	r3,r6,21ec0 <_calloc_r+0xb4>
   21e8c:	80000215 	stw	zero,8(r16)
   21e90:	80000315 	stw	zero,12(r16)
   21e94:	30800c26 	beq	r6,r2,21ec8 <_calloc_r+0xbc>
   21e98:	80800404 	addi	r2,r16,16
   21e9c:	003fef06 	br	21e5c <_calloc_r+0x50>
   21ea0:	8009883a 	mov	r4,r16
   21ea4:	000b883a 	mov	r5,zero
   21ea8:	0023ee40 	call	23ee4 <memset>
   21eac:	8005883a 	mov	r2,r16
   21eb0:	dfc00117 	ldw	ra,4(sp)
   21eb4:	dc000017 	ldw	r16,0(sp)
   21eb8:	dec00204 	addi	sp,sp,8
   21ebc:	f800283a 	ret
   21ec0:	80800204 	addi	r2,r16,8
   21ec4:	003fe506 	br	21e5c <_calloc_r+0x50>
   21ec8:	80000415 	stw	zero,16(r16)
   21ecc:	80000515 	stw	zero,20(r16)
   21ed0:	80800604 	addi	r2,r16,24
   21ed4:	003fe106 	br	21e5c <_calloc_r+0x50>

00021ed8 <_fclose_r>:
   21ed8:	defffc04 	addi	sp,sp,-16
   21edc:	dc400115 	stw	r17,4(sp)
   21ee0:	dc000015 	stw	r16,0(sp)
   21ee4:	dfc00315 	stw	ra,12(sp)
   21ee8:	dc800215 	stw	r18,8(sp)
   21eec:	2821883a 	mov	r16,r5
   21ef0:	2023883a 	mov	r17,r4
   21ef4:	28003426 	beq	r5,zero,21fc8 <_fclose_r+0xf0>
   21ef8:	00224ec0 	call	224ec <__sfp_lock_acquire>
   21efc:	88000226 	beq	r17,zero,21f08 <_fclose_r+0x30>
   21f00:	88800e17 	ldw	r2,56(r17)
   21f04:	10003826 	beq	r2,zero,21fe8 <_fclose_r+0x110>
   21f08:	8080030f 	ldh	r2,12(r16)
   21f0c:	10002526 	beq	r2,zero,21fa4 <_fclose_r+0xcc>
   21f10:	8809883a 	mov	r4,r17
   21f14:	800b883a 	mov	r5,r16
   21f18:	00220280 	call	22028 <_fflush_r>
   21f1c:	1025883a 	mov	r18,r2
   21f20:	80800b17 	ldw	r2,44(r16)
   21f24:	10000426 	beq	r2,zero,21f38 <_fclose_r+0x60>
   21f28:	81400717 	ldw	r5,28(r16)
   21f2c:	8809883a 	mov	r4,r17
   21f30:	103ee83a 	callr	r2
   21f34:	10003516 	blt	r2,zero,2200c <_fclose_r+0x134>
   21f38:	8080030b 	ldhu	r2,12(r16)
   21f3c:	1080200c 	andi	r2,r2,128
   21f40:	10bfffcc 	andi	r2,r2,65535
   21f44:	10a0001c 	xori	r2,r2,32768
   21f48:	10a00004 	addi	r2,r2,-32768
   21f4c:	10002b1e 	bne	r2,zero,21ffc <_fclose_r+0x124>
   21f50:	81400c17 	ldw	r5,48(r16)
   21f54:	28000526 	beq	r5,zero,21f6c <_fclose_r+0x94>
   21f58:	80801004 	addi	r2,r16,64
   21f5c:	28800226 	beq	r5,r2,21f68 <_fclose_r+0x90>
   21f60:	8809883a 	mov	r4,r17
   21f64:	0022a300 	call	22a30 <_free_r>
   21f68:	80000c15 	stw	zero,48(r16)
   21f6c:	81401117 	ldw	r5,68(r16)
   21f70:	28000326 	beq	r5,zero,21f80 <_fclose_r+0xa8>
   21f74:	8809883a 	mov	r4,r17
   21f78:	0022a300 	call	22a30 <_free_r>
   21f7c:	80001115 	stw	zero,68(r16)
   21f80:	8000030d 	sth	zero,12(r16)
   21f84:	00224f00 	call	224f0 <__sfp_lock_release>
   21f88:	9005883a 	mov	r2,r18
   21f8c:	dfc00317 	ldw	ra,12(sp)
   21f90:	dc800217 	ldw	r18,8(sp)
   21f94:	dc400117 	ldw	r17,4(sp)
   21f98:	dc000017 	ldw	r16,0(sp)
   21f9c:	dec00404 	addi	sp,sp,16
   21fa0:	f800283a 	ret
   21fa4:	00224f00 	call	224f0 <__sfp_lock_release>
   21fa8:	0025883a 	mov	r18,zero
   21fac:	9005883a 	mov	r2,r18
   21fb0:	dfc00317 	ldw	ra,12(sp)
   21fb4:	dc800217 	ldw	r18,8(sp)
   21fb8:	dc400117 	ldw	r17,4(sp)
   21fbc:	dc000017 	ldw	r16,0(sp)
   21fc0:	dec00404 	addi	sp,sp,16
   21fc4:	f800283a 	ret
   21fc8:	0025883a 	mov	r18,zero
   21fcc:	9005883a 	mov	r2,r18
   21fd0:	dfc00317 	ldw	ra,12(sp)
   21fd4:	dc800217 	ldw	r18,8(sp)
   21fd8:	dc400117 	ldw	r17,4(sp)
   21fdc:	dc000017 	ldw	r16,0(sp)
   21fe0:	dec00404 	addi	sp,sp,16
   21fe4:	f800283a 	ret
   21fe8:	8809883a 	mov	r4,r17
   21fec:	00222e40 	call	222e4 <__sinit>
   21ff0:	8080030f 	ldh	r2,12(r16)
   21ff4:	103fc61e 	bne	r2,zero,21f10 <_fclose_r+0x38>
   21ff8:	003fea06 	br	21fa4 <_fclose_r+0xcc>
   21ffc:	81400417 	ldw	r5,16(r16)
   22000:	8809883a 	mov	r4,r17
   22004:	0022a300 	call	22a30 <_free_r>
   22008:	003fd106 	br	21f50 <_fclose_r+0x78>
   2200c:	04bfffc4 	movi	r18,-1
   22010:	003fc906 	br	21f38 <_fclose_r+0x60>

00022014 <fclose>:
   22014:	008000f4 	movhi	r2,3
   22018:	10802904 	addi	r2,r2,164
   2201c:	200b883a 	mov	r5,r4
   22020:	11000017 	ldw	r4,0(r2)
   22024:	0021ed81 	jmpi	21ed8 <_fclose_r>

00022028 <_fflush_r>:
   22028:	defffb04 	addi	sp,sp,-20
   2202c:	dcc00315 	stw	r19,12(sp)
   22030:	dc400115 	stw	r17,4(sp)
   22034:	dfc00415 	stw	ra,16(sp)
   22038:	dc800215 	stw	r18,8(sp)
   2203c:	dc000015 	stw	r16,0(sp)
   22040:	2027883a 	mov	r19,r4
   22044:	2823883a 	mov	r17,r5
   22048:	20000226 	beq	r4,zero,22054 <_fflush_r+0x2c>
   2204c:	20800e17 	ldw	r2,56(r4)
   22050:	10005726 	beq	r2,zero,221b0 <_fflush_r+0x188>
   22054:	8880030b 	ldhu	r2,12(r17)
   22058:	10c0020c 	andi	r3,r2,8
   2205c:	18ffffcc 	andi	r3,r3,65535
   22060:	18e0001c 	xori	r3,r3,32768
   22064:	18e00004 	addi	r3,r3,-32768
   22068:	1800311e 	bne	r3,zero,22130 <_fflush_r+0x108>
   2206c:	89000117 	ldw	r4,4(r17)
   22070:	10c20014 	ori	r3,r2,2048
   22074:	88c0030d 	sth	r3,12(r17)
   22078:	180b883a 	mov	r5,r3
   2207c:	0100520e 	bge	zero,r4,221c8 <_fflush_r+0x1a0>
   22080:	88c00a17 	ldw	r3,40(r17)
   22084:	18002226 	beq	r3,zero,22110 <_fflush_r+0xe8>
   22088:	1084000c 	andi	r2,r2,4096
   2208c:	10bfffcc 	andi	r2,r2,65535
   22090:	10a0001c 	xori	r2,r2,32768
   22094:	10a00004 	addi	r2,r2,-32768
   22098:	10004e26 	beq	r2,zero,221d4 <_fflush_r+0x1ac>
   2209c:	8c001417 	ldw	r16,80(r17)
   220a0:	2940010c 	andi	r5,r5,4
   220a4:	297fffcc 	andi	r5,r5,65535
   220a8:	2960001c 	xori	r5,r5,32768
   220ac:	29600004 	addi	r5,r5,-32768
   220b0:	28000626 	beq	r5,zero,220cc <_fflush_r+0xa4>
   220b4:	89000117 	ldw	r4,4(r17)
   220b8:	88800c17 	ldw	r2,48(r17)
   220bc:	8121c83a 	sub	r16,r16,r4
   220c0:	10000226 	beq	r2,zero,220cc <_fflush_r+0xa4>
   220c4:	88800f17 	ldw	r2,60(r17)
   220c8:	80a1c83a 	sub	r16,r16,r2
   220cc:	89400717 	ldw	r5,28(r17)
   220d0:	9809883a 	mov	r4,r19
   220d4:	800d883a 	mov	r6,r16
   220d8:	000f883a 	mov	r7,zero
   220dc:	183ee83a 	callr	r3
   220e0:	8080281e 	bne	r16,r2,22184 <_fflush_r+0x15c>
   220e4:	8880030b 	ldhu	r2,12(r17)
   220e8:	88c00417 	ldw	r3,16(r17)
   220ec:	88000115 	stw	zero,4(r17)
   220f0:	113dffcc 	andi	r4,r2,63487
   220f4:	1084000c 	andi	r2,r2,4096
   220f8:	10bfffcc 	andi	r2,r2,65535
   220fc:	10a0001c 	xori	r2,r2,32768
   22100:	8900030d 	sth	r4,12(r17)
   22104:	88c00015 	stw	r3,0(r17)
   22108:	10a00004 	addi	r2,r2,-32768
   2210c:	10002c1e 	bne	r2,zero,221c0 <_fflush_r+0x198>
   22110:	0005883a 	mov	r2,zero
   22114:	dfc00417 	ldw	ra,16(sp)
   22118:	dcc00317 	ldw	r19,12(sp)
   2211c:	dc800217 	ldw	r18,8(sp)
   22120:	dc400117 	ldw	r17,4(sp)
   22124:	dc000017 	ldw	r16,0(sp)
   22128:	dec00504 	addi	sp,sp,20
   2212c:	f800283a 	ret
   22130:	8c800417 	ldw	r18,16(r17)
   22134:	903ff626 	beq	r18,zero,22110 <_fflush_r+0xe8>
   22138:	8c000017 	ldw	r16,0(r17)
   2213c:	108000cc 	andi	r2,r2,3
   22140:	8c800015 	stw	r18,0(r17)
   22144:	84a1c83a 	sub	r16,r16,r18
   22148:	10001b1e 	bne	r2,zero,221b8 <_fflush_r+0x190>
   2214c:	88800517 	ldw	r2,20(r17)
   22150:	88800215 	stw	r2,8(r17)
   22154:	04000316 	blt	zero,r16,22164 <_fflush_r+0x13c>
   22158:	003fed06 	br	22110 <_fflush_r+0xe8>
   2215c:	90a5883a 	add	r18,r18,r2
   22160:	043feb0e 	bge	zero,r16,22110 <_fflush_r+0xe8>
   22164:	88800917 	ldw	r2,36(r17)
   22168:	89400717 	ldw	r5,28(r17)
   2216c:	800f883a 	mov	r7,r16
   22170:	900d883a 	mov	r6,r18
   22174:	9809883a 	mov	r4,r19
   22178:	103ee83a 	callr	r2
   2217c:	80a1c83a 	sub	r16,r16,r2
   22180:	00bff616 	blt	zero,r2,2215c <_fflush_r+0x134>
   22184:	88c0030b 	ldhu	r3,12(r17)
   22188:	00bfffc4 	movi	r2,-1
   2218c:	18c01014 	ori	r3,r3,64
   22190:	88c0030d 	sth	r3,12(r17)
   22194:	dfc00417 	ldw	ra,16(sp)
   22198:	dcc00317 	ldw	r19,12(sp)
   2219c:	dc800217 	ldw	r18,8(sp)
   221a0:	dc400117 	ldw	r17,4(sp)
   221a4:	dc000017 	ldw	r16,0(sp)
   221a8:	dec00504 	addi	sp,sp,20
   221ac:	f800283a 	ret
   221b0:	00222e40 	call	222e4 <__sinit>
   221b4:	003fa706 	br	22054 <_fflush_r+0x2c>
   221b8:	0005883a 	mov	r2,zero
   221bc:	003fe406 	br	22150 <_fflush_r+0x128>
   221c0:	8c001415 	stw	r16,80(r17)
   221c4:	003fd206 	br	22110 <_fflush_r+0xe8>
   221c8:	88c00f17 	ldw	r3,60(r17)
   221cc:	00ffac16 	blt	zero,r3,22080 <_fflush_r+0x58>
   221d0:	003fcf06 	br	22110 <_fflush_r+0xe8>
   221d4:	89400717 	ldw	r5,28(r17)
   221d8:	9809883a 	mov	r4,r19
   221dc:	000d883a 	mov	r6,zero
   221e0:	01c00044 	movi	r7,1
   221e4:	183ee83a 	callr	r3
   221e8:	1021883a 	mov	r16,r2
   221ec:	00bfffc4 	movi	r2,-1
   221f0:	80800326 	beq	r16,r2,22200 <_fflush_r+0x1d8>
   221f4:	8940030b 	ldhu	r5,12(r17)
   221f8:	88c00a17 	ldw	r3,40(r17)
   221fc:	003fa806 	br	220a0 <_fflush_r+0x78>
   22200:	98c00017 	ldw	r3,0(r19)
   22204:	00800744 	movi	r2,29
   22208:	18bfde1e 	bne	r3,r2,22184 <_fflush_r+0x15c>
   2220c:	003fc006 	br	22110 <_fflush_r+0xe8>

00022210 <fflush>:
   22210:	200b883a 	mov	r5,r4
   22214:	20000426 	beq	r4,zero,22228 <fflush+0x18>
   22218:	008000f4 	movhi	r2,3
   2221c:	10802904 	addi	r2,r2,164
   22220:	11000017 	ldw	r4,0(r2)
   22224:	00220281 	jmpi	22028 <_fflush_r>
   22228:	008000f4 	movhi	r2,3
   2222c:	10802804 	addi	r2,r2,160
   22230:	11000017 	ldw	r4,0(r2)
   22234:	014000b4 	movhi	r5,2
   22238:	29480a04 	addi	r5,r5,8232
   2223c:	00232a81 	jmpi	232a8 <_fwalk_reent>

00022240 <__fp_lock>:
   22240:	0005883a 	mov	r2,zero
   22244:	f800283a 	ret

00022248 <__fp_unlock>:
   22248:	0005883a 	mov	r2,zero
   2224c:	f800283a 	ret

00022250 <_cleanup_r>:
   22250:	014000b4 	movhi	r5,2
   22254:	29480504 	addi	r5,r5,8212
   22258:	00232001 	jmpi	23200 <_fwalk>

0002225c <__sfmoreglue>:
   2225c:	defffc04 	addi	sp,sp,-16
   22260:	dc800215 	stw	r18,8(sp)
   22264:	2825883a 	mov	r18,r5
   22268:	dc000015 	stw	r16,0(sp)
   2226c:	01401704 	movi	r5,92
   22270:	2021883a 	mov	r16,r4
   22274:	9009883a 	mov	r4,r18
   22278:	dfc00315 	stw	ra,12(sp)
   2227c:	dc400115 	stw	r17,4(sp)
   22280:	0021dc80 	call	21dc8 <__mulsi3>
   22284:	8009883a 	mov	r4,r16
   22288:	11400304 	addi	r5,r2,12
   2228c:	1023883a 	mov	r17,r2
   22290:	00236200 	call	23620 <_malloc_r>
   22294:	1021883a 	mov	r16,r2
   22298:	10000726 	beq	r2,zero,222b8 <__sfmoreglue+0x5c>
   2229c:	11000304 	addi	r4,r2,12
   222a0:	10000015 	stw	zero,0(r2)
   222a4:	14800115 	stw	r18,4(r2)
   222a8:	11000215 	stw	r4,8(r2)
   222ac:	000b883a 	mov	r5,zero
   222b0:	880d883a 	mov	r6,r17
   222b4:	0023ee40 	call	23ee4 <memset>
   222b8:	8005883a 	mov	r2,r16
   222bc:	dfc00317 	ldw	ra,12(sp)
   222c0:	dc800217 	ldw	r18,8(sp)
   222c4:	dc400117 	ldw	r17,4(sp)
   222c8:	dc000017 	ldw	r16,0(sp)
   222cc:	dec00404 	addi	sp,sp,16
   222d0:	f800283a 	ret

000222d4 <_cleanup>:
   222d4:	008000f4 	movhi	r2,3
   222d8:	10802804 	addi	r2,r2,160
   222dc:	11000017 	ldw	r4,0(r2)
   222e0:	00222501 	jmpi	22250 <_cleanup_r>

000222e4 <__sinit>:
   222e4:	20800e17 	ldw	r2,56(r4)
   222e8:	1000401e 	bne	r2,zero,223ec <__sinit+0x108>
   222ec:	21400117 	ldw	r5,4(r4)
   222f0:	018000b4 	movhi	r6,2
   222f4:	31889404 	addi	r6,r6,8784
   222f8:	20c00217 	ldw	r3,8(r4)
   222fc:	21800f15 	stw	r6,60(r4)
   22300:	2080bb04 	addi	r2,r4,748
   22304:	02400044 	movi	r9,1
   22308:	018000c4 	movi	r6,3
   2230c:	2180b915 	stw	r6,740(r4)
   22310:	2080ba15 	stw	r2,744(r4)
   22314:	22400e15 	stw	r9,56(r4)
   22318:	20800317 	ldw	r2,12(r4)
   2231c:	2000b815 	stw	zero,736(r4)
   22320:	020000b4 	movhi	r8,2
   22324:	42110204 	addi	r8,r8,17416
   22328:	01c000b4 	movhi	r7,2
   2232c:	39d11704 	addi	r7,r7,17500
   22330:	018000b4 	movhi	r6,2
   22334:	31913904 	addi	r6,r6,17636
   22338:	010000b4 	movhi	r4,2
   2233c:	21115004 	addi	r4,r4,17728
   22340:	02800104 	movi	r10,4
   22344:	28000015 	stw	zero,0(r5)
   22348:	28000115 	stw	zero,4(r5)
   2234c:	28000215 	stw	zero,8(r5)
   22350:	2a80030d 	sth	r10,12(r5)
   22354:	2800038d 	sth	zero,14(r5)
   22358:	28000415 	stw	zero,16(r5)
   2235c:	28000515 	stw	zero,20(r5)
   22360:	28000615 	stw	zero,24(r5)
   22364:	29400715 	stw	r5,28(r5)
   22368:	2a000815 	stw	r8,32(r5)
   2236c:	29c00915 	stw	r7,36(r5)
   22370:	29800a15 	stw	r6,40(r5)
   22374:	29000b15 	stw	r4,44(r5)
   22378:	01400284 	movi	r5,10
   2237c:	18000015 	stw	zero,0(r3)
   22380:	18000115 	stw	zero,4(r3)
   22384:	18000215 	stw	zero,8(r3)
   22388:	1940030d 	sth	r5,12(r3)
   2238c:	1a40038d 	sth	r9,14(r3)
   22390:	18000415 	stw	zero,16(r3)
   22394:	18000515 	stw	zero,20(r3)
   22398:	18000615 	stw	zero,24(r3)
   2239c:	18c00715 	stw	r3,28(r3)
   223a0:	1a000815 	stw	r8,32(r3)
   223a4:	19c00915 	stw	r7,36(r3)
   223a8:	19800a15 	stw	r6,40(r3)
   223ac:	19000b15 	stw	r4,44(r3)
   223b0:	00c00484 	movi	r3,18
   223b4:	10c0030d 	sth	r3,12(r2)
   223b8:	00c00084 	movi	r3,2
   223bc:	10000015 	stw	zero,0(r2)
   223c0:	10000115 	stw	zero,4(r2)
   223c4:	10000215 	stw	zero,8(r2)
   223c8:	10c0038d 	sth	r3,14(r2)
   223cc:	10000415 	stw	zero,16(r2)
   223d0:	10000515 	stw	zero,20(r2)
   223d4:	10000615 	stw	zero,24(r2)
   223d8:	10800715 	stw	r2,28(r2)
   223dc:	12000815 	stw	r8,32(r2)
   223e0:	11c00915 	stw	r7,36(r2)
   223e4:	11800a15 	stw	r6,40(r2)
   223e8:	11000b15 	stw	r4,44(r2)
   223ec:	f800283a 	ret

000223f0 <__sfp>:
   223f0:	defffc04 	addi	sp,sp,-16
   223f4:	008000f4 	movhi	r2,3
   223f8:	10802804 	addi	r2,r2,160
   223fc:	dc400115 	stw	r17,4(sp)
   22400:	14400017 	ldw	r17,0(r2)
   22404:	dc800215 	stw	r18,8(sp)
   22408:	dfc00315 	stw	ra,12(sp)
   2240c:	88800e17 	ldw	r2,56(r17)
   22410:	dc000015 	stw	r16,0(sp)
   22414:	2025883a 	mov	r18,r4
   22418:	10002826 	beq	r2,zero,224bc <__sfp+0xcc>
   2241c:	8c40b804 	addi	r17,r17,736
   22420:	043fffc4 	movi	r16,-1
   22424:	89400117 	ldw	r5,4(r17)
   22428:	88800217 	ldw	r2,8(r17)
   2242c:	297fffc4 	addi	r5,r5,-1
   22430:	28000a16 	blt	r5,zero,2245c <__sfp+0x6c>
   22434:	10c0030f 	ldh	r3,12(r2)
   22438:	18000c26 	beq	r3,zero,2246c <__sfp+0x7c>
   2243c:	10c01a04 	addi	r3,r2,104
   22440:	00000206 	br	2244c <__sfp+0x5c>
   22444:	19bfe90f 	ldh	r6,-92(r3)
   22448:	30000826 	beq	r6,zero,2246c <__sfp+0x7c>
   2244c:	297fffc4 	addi	r5,r5,-1
   22450:	18bffd04 	addi	r2,r3,-12
   22454:	18c01704 	addi	r3,r3,92
   22458:	2c3ffa1e 	bne	r5,r16,22444 <__sfp+0x54>
   2245c:	88800017 	ldw	r2,0(r17)
   22460:	10001926 	beq	r2,zero,224c8 <__sfp+0xd8>
   22464:	1023883a 	mov	r17,r2
   22468:	003fee06 	br	22424 <__sfp+0x34>
   2246c:	00ffffc4 	movi	r3,-1
   22470:	10c0038d 	sth	r3,14(r2)
   22474:	00c00044 	movi	r3,1
   22478:	10c0030d 	sth	r3,12(r2)
   2247c:	10000015 	stw	zero,0(r2)
   22480:	10000215 	stw	zero,8(r2)
   22484:	10000115 	stw	zero,4(r2)
   22488:	10000415 	stw	zero,16(r2)
   2248c:	10000515 	stw	zero,20(r2)
   22490:	10000615 	stw	zero,24(r2)
   22494:	10000c15 	stw	zero,48(r2)
   22498:	10000d15 	stw	zero,52(r2)
   2249c:	10001115 	stw	zero,68(r2)
   224a0:	10001215 	stw	zero,72(r2)
   224a4:	dfc00317 	ldw	ra,12(sp)
   224a8:	dc800217 	ldw	r18,8(sp)
   224ac:	dc400117 	ldw	r17,4(sp)
   224b0:	dc000017 	ldw	r16,0(sp)
   224b4:	dec00404 	addi	sp,sp,16
   224b8:	f800283a 	ret
   224bc:	8809883a 	mov	r4,r17
   224c0:	00222e40 	call	222e4 <__sinit>
   224c4:	003fd506 	br	2241c <__sfp+0x2c>
   224c8:	9009883a 	mov	r4,r18
   224cc:	01400104 	movi	r5,4
   224d0:	002225c0 	call	2225c <__sfmoreglue>
   224d4:	88800015 	stw	r2,0(r17)
   224d8:	103fe21e 	bne	r2,zero,22464 <__sfp+0x74>
   224dc:	00800304 	movi	r2,12
   224e0:	90800015 	stw	r2,0(r18)
   224e4:	0005883a 	mov	r2,zero
   224e8:	003fee06 	br	224a4 <__sfp+0xb4>

000224ec <__sfp_lock_acquire>:
   224ec:	f800283a 	ret

000224f0 <__sfp_lock_release>:
   224f0:	f800283a 	ret

000224f4 <__sinit_lock_acquire>:
   224f4:	f800283a 	ret

000224f8 <__sinit_lock_release>:
   224f8:	f800283a 	ret

000224fc <__fp_lock_all>:
   224fc:	008000f4 	movhi	r2,3
   22500:	10802904 	addi	r2,r2,164
   22504:	11000017 	ldw	r4,0(r2)
   22508:	014000b4 	movhi	r5,2
   2250c:	29489004 	addi	r5,r5,8768
   22510:	00232001 	jmpi	23200 <_fwalk>

00022514 <__fp_unlock_all>:
   22514:	008000f4 	movhi	r2,3
   22518:	10802904 	addi	r2,r2,164
   2251c:	11000017 	ldw	r4,0(r2)
   22520:	014000b4 	movhi	r5,2
   22524:	29489204 	addi	r5,r5,8776
   22528:	00232001 	jmpi	23200 <_fwalk>

0002252c <_fopen_r>:
   2252c:	defffa04 	addi	sp,sp,-24
   22530:	dcc00415 	stw	r19,16(sp)
   22534:	2827883a 	mov	r19,r5
   22538:	300b883a 	mov	r5,r6
   2253c:	d80d883a 	mov	r6,sp
   22540:	dc800315 	stw	r18,12(sp)
   22544:	dc400215 	stw	r17,8(sp)
   22548:	dfc00515 	stw	ra,20(sp)
   2254c:	dc000115 	stw	r16,4(sp)
   22550:	2025883a 	mov	r18,r4
   22554:	0027f440 	call	27f44 <__sflags>
   22558:	1023883a 	mov	r17,r2
   2255c:	10002926 	beq	r2,zero,22604 <_fopen_r+0xd8>
   22560:	9009883a 	mov	r4,r18
   22564:	00223f00 	call	223f0 <__sfp>
   22568:	1021883a 	mov	r16,r2
   2256c:	10002526 	beq	r2,zero,22604 <_fopen_r+0xd8>
   22570:	d9800017 	ldw	r6,0(sp)
   22574:	9009883a 	mov	r4,r18
   22578:	980b883a 	mov	r5,r19
   2257c:	01c06d84 	movi	r7,438
   22580:	0023fc00 	call	23fc0 <_open_r>
   22584:	10001c16 	blt	r2,zero,225f8 <_fopen_r+0xcc>
   22588:	8080038d 	sth	r2,14(r16)
   2258c:	008000b4 	movhi	r2,2
   22590:	10910204 	addi	r2,r2,17416
   22594:	80800815 	stw	r2,32(r16)
   22598:	008000b4 	movhi	r2,2
   2259c:	10911704 	addi	r2,r2,17500
   225a0:	80800915 	stw	r2,36(r16)
   225a4:	008000b4 	movhi	r2,2
   225a8:	10913904 	addi	r2,r2,17636
   225ac:	88c0400c 	andi	r3,r17,256
   225b0:	80800a15 	stw	r2,40(r16)
   225b4:	008000b4 	movhi	r2,2
   225b8:	10915004 	addi	r2,r2,17728
   225bc:	80800b15 	stw	r2,44(r16)
   225c0:	18bfffcc 	andi	r2,r3,65535
   225c4:	10a0001c 	xori	r2,r2,32768
   225c8:	8440030d 	sth	r17,12(r16)
   225cc:	84000715 	stw	r16,28(r16)
   225d0:	10a00004 	addi	r2,r2,-32768
   225d4:	1000141e 	bne	r2,zero,22628 <_fopen_r+0xfc>
   225d8:	8005883a 	mov	r2,r16
   225dc:	dfc00517 	ldw	ra,20(sp)
   225e0:	dcc00417 	ldw	r19,16(sp)
   225e4:	dc800317 	ldw	r18,12(sp)
   225e8:	dc400217 	ldw	r17,8(sp)
   225ec:	dc000117 	ldw	r16,4(sp)
   225f0:	dec00604 	addi	sp,sp,24
   225f4:	f800283a 	ret
   225f8:	00224ec0 	call	224ec <__sfp_lock_acquire>
   225fc:	8000030d 	sth	zero,12(r16)
   22600:	00224f00 	call	224f0 <__sfp_lock_release>
   22604:	0021883a 	mov	r16,zero
   22608:	8005883a 	mov	r2,r16
   2260c:	dfc00517 	ldw	ra,20(sp)
   22610:	dcc00417 	ldw	r19,16(sp)
   22614:	dc800317 	ldw	r18,12(sp)
   22618:	dc400217 	ldw	r17,8(sp)
   2261c:	dc000117 	ldw	r16,4(sp)
   22620:	dec00604 	addi	sp,sp,24
   22624:	f800283a 	ret
   22628:	9009883a 	mov	r4,r18
   2262c:	800b883a 	mov	r5,r16
   22630:	000d883a 	mov	r6,zero
   22634:	01c00084 	movi	r7,2
   22638:	0022d000 	call	22d00 <_fseek_r>
   2263c:	8005883a 	mov	r2,r16
   22640:	dfc00517 	ldw	ra,20(sp)
   22644:	dcc00417 	ldw	r19,16(sp)
   22648:	dc800317 	ldw	r18,12(sp)
   2264c:	dc400217 	ldw	r17,8(sp)
   22650:	dc000117 	ldw	r16,4(sp)
   22654:	dec00604 	addi	sp,sp,24
   22658:	f800283a 	ret

0002265c <fopen>:
   2265c:	00c000f4 	movhi	r3,3
   22660:	18c02904 	addi	r3,r3,164
   22664:	2005883a 	mov	r2,r4
   22668:	19000017 	ldw	r4,0(r3)
   2266c:	280d883a 	mov	r6,r5
   22670:	100b883a 	mov	r5,r2
   22674:	002252c1 	jmpi	2252c <_fopen_r>

00022678 <_fread_r>:
   22678:	defff504 	addi	sp,sp,-44
   2267c:	dd000515 	stw	r20,20(sp)
   22680:	dcc00415 	stw	r19,16(sp)
   22684:	2029883a 	mov	r20,r4
   22688:	2827883a 	mov	r19,r5
   2268c:	3809883a 	mov	r4,r7
   22690:	300b883a 	mov	r5,r6
   22694:	ddc00815 	stw	r23,32(sp)
   22698:	dd800715 	stw	r22,28(sp)
   2269c:	dd400615 	stw	r21,24(sp)
   226a0:	dc000115 	stw	r16,4(sp)
   226a4:	dfc00a15 	stw	ra,40(sp)
   226a8:	df000915 	stw	fp,36(sp)
   226ac:	dc800315 	stw	r18,12(sp)
   226b0:	dc400215 	stw	r17,8(sp)
   226b4:	302f883a 	mov	r23,r6
   226b8:	382b883a 	mov	r21,r7
   226bc:	0021dc80 	call	21dc8 <__mulsi3>
   226c0:	102d883a 	mov	r22,r2
   226c4:	dc000b17 	ldw	r16,44(sp)
   226c8:	10002e26 	beq	r2,zero,22784 <_fread_r+0x10c>
   226cc:	a0000226 	beq	r20,zero,226d8 <_fread_r+0x60>
   226d0:	a0800e17 	ldw	r2,56(r20)
   226d4:	10006726 	beq	r2,zero,22874 <_fread_r+0x1fc>
   226d8:	84400117 	ldw	r17,4(r16)
   226dc:	88002b16 	blt	r17,zero,2278c <_fread_r+0x114>
   226e0:	8080030b 	ldhu	r2,12(r16)
   226e4:	8807883a 	mov	r3,r17
   226e8:	1080008c 	andi	r2,r2,2
   226ec:	10bfffcc 	andi	r2,r2,65535
   226f0:	10a0001c 	xori	r2,r2,32768
   226f4:	10a00004 	addi	r2,r2,-32768
   226f8:	10002d1e 	bne	r2,zero,227b0 <_fread_r+0x138>
   226fc:	b025883a 	mov	r18,r22
   22700:	00000106 	br	22708 <_fread_r+0x90>
   22704:	84400117 	ldw	r17,4(r16)
   22708:	9809883a 	mov	r4,r19
   2270c:	880d883a 	mov	r6,r17
   22710:	81400017 	ldw	r5,0(r16)
   22714:	8c805c2e 	bgeu	r17,r18,22888 <_fread_r+0x210>
   22718:	0023da40 	call	23da4 <memcpy>
   2271c:	80800017 	ldw	r2,0(r16)
   22720:	9c67883a 	add	r19,r19,r17
   22724:	9465c83a 	sub	r18,r18,r17
   22728:	1463883a 	add	r17,r2,r17
   2272c:	a009883a 	mov	r4,r20
   22730:	800b883a 	mov	r5,r16
   22734:	84400015 	stw	r17,0(r16)
   22738:	002416c0 	call	2416c <__srefill_r>
   2273c:	103ff126 	beq	r2,zero,22704 <_fread_r+0x8c>
   22740:	b489c83a 	sub	r4,r22,r18
   22744:	b80b883a 	mov	r5,r23
   22748:	002be8c0 	call	2be8c <__udivsi3>
   2274c:	102b883a 	mov	r21,r2
   22750:	a805883a 	mov	r2,r21
   22754:	dfc00a17 	ldw	ra,40(sp)
   22758:	df000917 	ldw	fp,36(sp)
   2275c:	ddc00817 	ldw	r23,32(sp)
   22760:	dd800717 	ldw	r22,28(sp)
   22764:	dd400617 	ldw	r21,24(sp)
   22768:	dd000517 	ldw	r20,20(sp)
   2276c:	dcc00417 	ldw	r19,16(sp)
   22770:	dc800317 	ldw	r18,12(sp)
   22774:	dc400217 	ldw	r17,8(sp)
   22778:	dc000117 	ldw	r16,4(sp)
   2277c:	dec00b04 	addi	sp,sp,44
   22780:	f800283a 	ret
   22784:	002b883a 	mov	r21,zero
   22788:	003ff106 	br	22750 <_fread_r+0xd8>
   2278c:	8080030b 	ldhu	r2,12(r16)
   22790:	80000115 	stw	zero,4(r16)
   22794:	0007883a 	mov	r3,zero
   22798:	1080008c 	andi	r2,r2,2
   2279c:	10bfffcc 	andi	r2,r2,65535
   227a0:	10a0001c 	xori	r2,r2,32768
   227a4:	10a00004 	addi	r2,r2,-32768
   227a8:	0023883a 	mov	r17,zero
   227ac:	103fd326 	beq	r2,zero,226fc <_fread_r+0x84>
   227b0:	1823883a 	mov	r17,r3
   227b4:	b0c0012e 	bgeu	r22,r3,227bc <_fread_r+0x144>
   227b8:	b023883a 	mov	r17,r22
   227bc:	81400017 	ldw	r5,0(r16)
   227c0:	9809883a 	mov	r4,r19
   227c4:	880d883a 	mov	r6,r17
   227c8:	0023da40 	call	23da4 <memcpy>
   227cc:	80800117 	ldw	r2,4(r16)
   227d0:	84800017 	ldw	r18,0(r16)
   227d4:	81400c17 	ldw	r5,48(r16)
   227d8:	1445c83a 	sub	r2,r2,r17
   227dc:	9465883a 	add	r18,r18,r17
   227e0:	84800015 	stw	r18,0(r16)
   227e4:	80800115 	stw	r2,4(r16)
   227e8:	9c67883a 	add	r19,r19,r17
   227ec:	b463c83a 	sub	r17,r22,r17
   227f0:	28002e26 	beq	r5,zero,228ac <_fread_r+0x234>
   227f4:	883fd626 	beq	r17,zero,22750 <_fread_r+0xd8>
   227f8:	80801004 	addi	r2,r16,64
   227fc:	28800326 	beq	r5,r2,2280c <_fread_r+0x194>
   22800:	a009883a 	mov	r4,r20
   22804:	0022a300 	call	22a30 <_free_r>
   22808:	84800017 	ldw	r18,0(r16)
   2280c:	80000c15 	stw	zero,48(r16)
   22810:	80c00517 	ldw	r3,20(r16)
   22814:	87000417 	ldw	fp,16(r16)
   22818:	d8c00015 	stw	r3,0(sp)
   2281c:	00000106 	br	22824 <_fread_r+0x1ac>
   22820:	883fcb26 	beq	r17,zero,22750 <_fread_r+0xd8>
   22824:	84c00415 	stw	r19,16(r16)
   22828:	84400515 	stw	r17,20(r16)
   2282c:	84c00015 	stw	r19,0(r16)
   22830:	a009883a 	mov	r4,r20
   22834:	800b883a 	mov	r5,r16
   22838:	002416c0 	call	2416c <__srefill_r>
   2283c:	d8c00017 	ldw	r3,0(sp)
   22840:	81000117 	ldw	r4,4(r16)
   22844:	87000415 	stw	fp,16(r16)
   22848:	80c00515 	stw	r3,20(r16)
   2284c:	84800015 	stw	r18,0(r16)
   22850:	80000115 	stw	zero,4(r16)
   22854:	8923c83a 	sub	r17,r17,r4
   22858:	9927883a 	add	r19,r19,r4
   2285c:	103ff026 	beq	r2,zero,22820 <_fread_r+0x1a8>
   22860:	b449c83a 	sub	r4,r22,r17
   22864:	b80b883a 	mov	r5,r23
   22868:	002be8c0 	call	2be8c <__udivsi3>
   2286c:	102b883a 	mov	r21,r2
   22870:	003fb706 	br	22750 <_fread_r+0xd8>
   22874:	a009883a 	mov	r4,r20
   22878:	00222e40 	call	222e4 <__sinit>
   2287c:	84400117 	ldw	r17,4(r16)
   22880:	883f970e 	bge	r17,zero,226e0 <_fread_r+0x68>
   22884:	003fc106 	br	2278c <_fread_r+0x114>
   22888:	900d883a 	mov	r6,r18
   2288c:	0023da40 	call	23da4 <memcpy>
   22890:	80800117 	ldw	r2,4(r16)
   22894:	80c00017 	ldw	r3,0(r16)
   22898:	1485c83a 	sub	r2,r2,r18
   2289c:	1ca5883a 	add	r18,r3,r18
   228a0:	80800115 	stw	r2,4(r16)
   228a4:	84800015 	stw	r18,0(r16)
   228a8:	003fa906 	br	22750 <_fread_r+0xd8>
   228ac:	883fd81e 	bne	r17,zero,22810 <_fread_r+0x198>
   228b0:	003fa706 	br	22750 <_fread_r+0xd8>

000228b4 <fread>:
   228b4:	008000f4 	movhi	r2,3
   228b8:	10802904 	addi	r2,r2,164
   228bc:	2011883a 	mov	r8,r4
   228c0:	11000017 	ldw	r4,0(r2)
   228c4:	defffe04 	addi	sp,sp,-8
   228c8:	2807883a 	mov	r3,r5
   228cc:	3005883a 	mov	r2,r6
   228d0:	d9c00015 	stw	r7,0(sp)
   228d4:	400b883a 	mov	r5,r8
   228d8:	180d883a 	mov	r6,r3
   228dc:	100f883a 	mov	r7,r2
   228e0:	dfc00115 	stw	ra,4(sp)
   228e4:	00226780 	call	22678 <_fread_r>
   228e8:	dfc00117 	ldw	ra,4(sp)
   228ec:	dec00204 	addi	sp,sp,8
   228f0:	f800283a 	ret

000228f4 <_malloc_trim_r>:
   228f4:	defffb04 	addi	sp,sp,-20
   228f8:	dcc00315 	stw	r19,12(sp)
   228fc:	dc800215 	stw	r18,8(sp)
   22900:	dc400115 	stw	r17,4(sp)
   22904:	dc000015 	stw	r16,0(sp)
   22908:	2827883a 	mov	r19,r5
   2290c:	dfc00415 	stw	ra,16(sp)
   22910:	044000f4 	movhi	r17,3
   22914:	8c7ea404 	addi	r17,r17,-1392
   22918:	2021883a 	mov	r16,r4
   2291c:	002ca9c0 	call	2ca9c <__malloc_lock>
   22920:	88800217 	ldw	r2,8(r17)
   22924:	14800117 	ldw	r18,4(r2)
   22928:	00bfff04 	movi	r2,-4
   2292c:	90a4703a 	and	r18,r18,r2
   22930:	9083fbc4 	addi	r2,r18,4079
   22934:	14e7c83a 	sub	r19,r2,r19
   22938:	9826d33a 	srli	r19,r19,12
   2293c:	0083ffc4 	movi	r2,4095
   22940:	9cffffc4 	addi	r19,r19,-1
   22944:	9826933a 	slli	r19,r19,12
   22948:	14c0060e 	bge	r2,r19,22964 <_malloc_trim_r+0x70>
   2294c:	8009883a 	mov	r4,r16
   22950:	000b883a 	mov	r5,zero
   22954:	00243a40 	call	243a4 <_sbrk_r>
   22958:	88c00217 	ldw	r3,8(r17)
   2295c:	1c87883a 	add	r3,r3,r18
   22960:	10c00a26 	beq	r2,r3,2298c <_malloc_trim_r+0x98>
   22964:	8009883a 	mov	r4,r16
   22968:	002cabc0 	call	2cabc <__malloc_unlock>
   2296c:	0005883a 	mov	r2,zero
   22970:	dfc00417 	ldw	ra,16(sp)
   22974:	dcc00317 	ldw	r19,12(sp)
   22978:	dc800217 	ldw	r18,8(sp)
   2297c:	dc400117 	ldw	r17,4(sp)
   22980:	dc000017 	ldw	r16,0(sp)
   22984:	dec00504 	addi	sp,sp,20
   22988:	f800283a 	ret
   2298c:	8009883a 	mov	r4,r16
   22990:	04cbc83a 	sub	r5,zero,r19
   22994:	00243a40 	call	243a4 <_sbrk_r>
   22998:	00ffffc4 	movi	r3,-1
   2299c:	10c01326 	beq	r2,r3,229ec <_malloc_trim_r+0xf8>
   229a0:	008000f4 	movhi	r2,3
   229a4:	10831704 	addi	r2,r2,3164
   229a8:	11000017 	ldw	r4,0(r2)
   229ac:	88c00217 	ldw	r3,8(r17)
   229b0:	94e5c83a 	sub	r18,r18,r19
   229b4:	94800054 	ori	r18,r18,1
   229b8:	24e7c83a 	sub	r19,r4,r19
   229bc:	1c800115 	stw	r18,4(r3)
   229c0:	8009883a 	mov	r4,r16
   229c4:	14c00015 	stw	r19,0(r2)
   229c8:	002cabc0 	call	2cabc <__malloc_unlock>
   229cc:	00800044 	movi	r2,1
   229d0:	dfc00417 	ldw	ra,16(sp)
   229d4:	dcc00317 	ldw	r19,12(sp)
   229d8:	dc800217 	ldw	r18,8(sp)
   229dc:	dc400117 	ldw	r17,4(sp)
   229e0:	dc000017 	ldw	r16,0(sp)
   229e4:	dec00504 	addi	sp,sp,20
   229e8:	f800283a 	ret
   229ec:	8009883a 	mov	r4,r16
   229f0:	000b883a 	mov	r5,zero
   229f4:	00243a40 	call	243a4 <_sbrk_r>
   229f8:	88c00217 	ldw	r3,8(r17)
   229fc:	014003c4 	movi	r5,15
   22a00:	10c9c83a 	sub	r4,r2,r3
   22a04:	293fd70e 	bge	r5,r4,22964 <_malloc_trim_r+0x70>
   22a08:	014000f4 	movhi	r5,3
   22a0c:	29402a04 	addi	r5,r5,168
   22a10:	29400017 	ldw	r5,0(r5)
   22a14:	21000054 	ori	r4,r4,1
   22a18:	19000115 	stw	r4,4(r3)
   22a1c:	1145c83a 	sub	r2,r2,r5
   22a20:	014000f4 	movhi	r5,3
   22a24:	29431704 	addi	r5,r5,3164
   22a28:	28800015 	stw	r2,0(r5)
   22a2c:	003fcd06 	br	22964 <_malloc_trim_r+0x70>

00022a30 <_free_r>:
   22a30:	defffd04 	addi	sp,sp,-12
   22a34:	dc400115 	stw	r17,4(sp)
   22a38:	dc000015 	stw	r16,0(sp)
   22a3c:	dfc00215 	stw	ra,8(sp)
   22a40:	2821883a 	mov	r16,r5
   22a44:	2023883a 	mov	r17,r4
   22a48:	28004b26 	beq	r5,zero,22b78 <_free_r+0x148>
   22a4c:	002ca9c0 	call	2ca9c <__malloc_lock>
   22a50:	823fff17 	ldw	r8,-4(r16)
   22a54:	00bfff84 	movi	r2,-2
   22a58:	81bffe04 	addi	r6,r16,-8
   22a5c:	4084703a 	and	r2,r8,r2
   22a60:	3087883a 	add	r3,r6,r2
   22a64:	014000f4 	movhi	r5,3
   22a68:	297ea404 	addi	r5,r5,-1392
   22a6c:	1a400117 	ldw	r9,4(r3)
   22a70:	29000217 	ldw	r4,8(r5)
   22a74:	01ffff04 	movi	r7,-4
   22a78:	49ce703a 	and	r7,r9,r7
   22a7c:	20c06526 	beq	r4,r3,22c14 <_free_r+0x1e4>
   22a80:	19c00115 	stw	r7,4(r3)
   22a84:	4200004c 	andi	r8,r8,1
   22a88:	40003026 	beq	r8,zero,22b4c <_free_r+0x11c>
   22a8c:	0009883a 	mov	r4,zero
   22a90:	19d1883a 	add	r8,r3,r7
   22a94:	42000117 	ldw	r8,4(r8)
   22a98:	4200004c 	andi	r8,r8,1
   22a9c:	4000061e 	bne	r8,zero,22ab8 <_free_r+0x88>
   22aa0:	11c5883a 	add	r2,r2,r7
   22aa4:	19c00217 	ldw	r7,8(r3)
   22aa8:	20004e26 	beq	r4,zero,22be4 <_free_r+0x1b4>
   22aac:	18c00317 	ldw	r3,12(r3)
   22ab0:	38c00315 	stw	r3,12(r7)
   22ab4:	19c00215 	stw	r7,8(r3)
   22ab8:	11c00054 	ori	r7,r2,1
   22abc:	3087883a 	add	r3,r6,r2
   22ac0:	31c00115 	stw	r7,4(r6)
   22ac4:	18800015 	stw	r2,0(r3)
   22ac8:	20001a1e 	bne	r4,zero,22b34 <_free_r+0x104>
   22acc:	00c07fc4 	movi	r3,511
   22ad0:	18802e2e 	bgeu	r3,r2,22b8c <_free_r+0x15c>
   22ad4:	1006d27a 	srli	r3,r2,9
   22ad8:	01000104 	movi	r4,4
   22adc:	20c06636 	bltu	r4,r3,22c78 <_free_r+0x248>
   22ae0:	1008d1ba 	srli	r4,r2,6
   22ae4:	21000e04 	addi	r4,r4,56
   22ae8:	210f883a 	add	r7,r4,r4
   22aec:	39cf883a 	add	r7,r7,r7
   22af0:	39cf883a 	add	r7,r7,r7
   22af4:	29cf883a 	add	r7,r5,r7
   22af8:	38c00217 	ldw	r3,8(r7)
   22afc:	014000f4 	movhi	r5,3
   22b00:	297ea404 	addi	r5,r5,-1392
   22b04:	19c06126 	beq	r3,r7,22c8c <_free_r+0x25c>
   22b08:	013fff04 	movi	r4,-4
   22b0c:	19400117 	ldw	r5,4(r3)
   22b10:	290a703a 	and	r5,r5,r4
   22b14:	1140022e 	bgeu	r2,r5,22b20 <_free_r+0xf0>
   22b18:	18c00217 	ldw	r3,8(r3)
   22b1c:	38fffb1e 	bne	r7,r3,22b0c <_free_r+0xdc>
   22b20:	18800317 	ldw	r2,12(r3)
   22b24:	30800315 	stw	r2,12(r6)
   22b28:	30c00215 	stw	r3,8(r6)
   22b2c:	11800215 	stw	r6,8(r2)
   22b30:	19800315 	stw	r6,12(r3)
   22b34:	8809883a 	mov	r4,r17
   22b38:	dfc00217 	ldw	ra,8(sp)
   22b3c:	dc400117 	ldw	r17,4(sp)
   22b40:	dc000017 	ldw	r16,0(sp)
   22b44:	dec00304 	addi	sp,sp,12
   22b48:	002cabc1 	jmpi	2cabc <__malloc_unlock>
   22b4c:	813ffe17 	ldw	r4,-8(r16)
   22b50:	2a400204 	addi	r9,r5,8
   22b54:	310dc83a 	sub	r6,r6,r4
   22b58:	32000217 	ldw	r8,8(r6)
   22b5c:	1105883a 	add	r2,r2,r4
   22b60:	42404326 	beq	r8,r9,22c70 <_free_r+0x240>
   22b64:	32400317 	ldw	r9,12(r6)
   22b68:	0009883a 	mov	r4,zero
   22b6c:	42400315 	stw	r9,12(r8)
   22b70:	4a000215 	stw	r8,8(r9)
   22b74:	003fc606 	br	22a90 <_free_r+0x60>
   22b78:	dfc00217 	ldw	ra,8(sp)
   22b7c:	dc400117 	ldw	r17,4(sp)
   22b80:	dc000017 	ldw	r16,0(sp)
   22b84:	dec00304 	addi	sp,sp,12
   22b88:	f800283a 	ret
   22b8c:	1004d0fa 	srli	r2,r2,3
   22b90:	02000044 	movi	r8,1
   22b94:	29c00117 	ldw	r7,4(r5)
   22b98:	1087883a 	add	r3,r2,r2
   22b9c:	18c7883a 	add	r3,r3,r3
   22ba0:	1005d0ba 	srai	r2,r2,2
   22ba4:	18c7883a 	add	r3,r3,r3
   22ba8:	28c7883a 	add	r3,r5,r3
   22bac:	19000217 	ldw	r4,8(r3)
   22bb0:	4084983a 	sll	r2,r8,r2
   22bb4:	30c00315 	stw	r3,12(r6)
   22bb8:	31000215 	stw	r4,8(r6)
   22bbc:	11c4b03a 	or	r2,r2,r7
   22bc0:	21800315 	stw	r6,12(r4)
   22bc4:	8809883a 	mov	r4,r17
   22bc8:	28800115 	stw	r2,4(r5)
   22bcc:	19800215 	stw	r6,8(r3)
   22bd0:	dfc00217 	ldw	ra,8(sp)
   22bd4:	dc400117 	ldw	r17,4(sp)
   22bd8:	dc000017 	ldw	r16,0(sp)
   22bdc:	dec00304 	addi	sp,sp,12
   22be0:	002cabc1 	jmpi	2cabc <__malloc_unlock>
   22be4:	020000f4 	movhi	r8,3
   22be8:	423ea604 	addi	r8,r8,-1384
   22bec:	3a3faf1e 	bne	r7,r8,22aac <_free_r+0x7c>
   22bf0:	29800515 	stw	r6,20(r5)
   22bf4:	29800415 	stw	r6,16(r5)
   22bf8:	11000054 	ori	r4,r2,1
   22bfc:	3087883a 	add	r3,r6,r2
   22c00:	31c00315 	stw	r7,12(r6)
   22c04:	31c00215 	stw	r7,8(r6)
   22c08:	31000115 	stw	r4,4(r6)
   22c0c:	18800015 	stw	r2,0(r3)
   22c10:	003fc806 	br	22b34 <_free_r+0x104>
   22c14:	4200004c 	andi	r8,r8,1
   22c18:	3885883a 	add	r2,r7,r2
   22c1c:	4000071e 	bne	r8,zero,22c3c <_free_r+0x20c>
   22c20:	81fffe17 	ldw	r7,-8(r16)
   22c24:	31cdc83a 	sub	r6,r6,r7
   22c28:	30c00317 	ldw	r3,12(r6)
   22c2c:	31000217 	ldw	r4,8(r6)
   22c30:	11c5883a 	add	r2,r2,r7
   22c34:	20c00315 	stw	r3,12(r4)
   22c38:	19000215 	stw	r4,8(r3)
   22c3c:	00c000f4 	movhi	r3,3
   22c40:	18c02b04 	addi	r3,r3,172
   22c44:	18c00017 	ldw	r3,0(r3)
   22c48:	11000054 	ori	r4,r2,1
   22c4c:	31000115 	stw	r4,4(r6)
   22c50:	29800215 	stw	r6,8(r5)
   22c54:	10ffb736 	bltu	r2,r3,22b34 <_free_r+0x104>
   22c58:	008000f4 	movhi	r2,3
   22c5c:	10830d04 	addi	r2,r2,3124
   22c60:	11400017 	ldw	r5,0(r2)
   22c64:	8809883a 	mov	r4,r17
   22c68:	00228f40 	call	228f4 <_malloc_trim_r>
   22c6c:	003fb106 	br	22b34 <_free_r+0x104>
   22c70:	01000044 	movi	r4,1
   22c74:	003f8606 	br	22a90 <_free_r+0x60>
   22c78:	01000504 	movi	r4,20
   22c7c:	20c00b36 	bltu	r4,r3,22cac <_free_r+0x27c>
   22c80:	190016c4 	addi	r4,r3,91
   22c84:	210f883a 	add	r7,r4,r4
   22c88:	003f9806 	br	22aec <_free_r+0xbc>
   22c8c:	2009d0ba 	srai	r4,r4,2
   22c90:	00800044 	movi	r2,1
   22c94:	29c00117 	ldw	r7,4(r5)
   22c98:	1108983a 	sll	r4,r2,r4
   22c9c:	1805883a 	mov	r2,r3
   22ca0:	21c8b03a 	or	r4,r4,r7
   22ca4:	29000115 	stw	r4,4(r5)
   22ca8:	003f9e06 	br	22b24 <_free_r+0xf4>
   22cac:	01001504 	movi	r4,84
   22cb0:	20c00436 	bltu	r4,r3,22cc4 <_free_r+0x294>
   22cb4:	1008d33a 	srli	r4,r2,12
   22cb8:	21001b84 	addi	r4,r4,110
   22cbc:	210f883a 	add	r7,r4,r4
   22cc0:	003f8a06 	br	22aec <_free_r+0xbc>
   22cc4:	01005504 	movi	r4,340
   22cc8:	20c00436 	bltu	r4,r3,22cdc <_free_r+0x2ac>
   22ccc:	1008d3fa 	srli	r4,r2,15
   22cd0:	21001dc4 	addi	r4,r4,119
   22cd4:	210f883a 	add	r7,r4,r4
   22cd8:	003f8406 	br	22aec <_free_r+0xbc>
   22cdc:	01015504 	movi	r4,1364
   22ce0:	20c00436 	bltu	r4,r3,22cf4 <_free_r+0x2c4>
   22ce4:	1008d4ba 	srli	r4,r2,18
   22ce8:	21001f04 	addi	r4,r4,124
   22cec:	210f883a 	add	r7,r4,r4
   22cf0:	003f7e06 	br	22aec <_free_r+0xbc>
   22cf4:	01c03f04 	movi	r7,252
   22cf8:	01001f84 	movi	r4,126
   22cfc:	003f7b06 	br	22aec <_free_r+0xbc>

00022d00 <_fseek_r>:
   22d00:	deffe804 	addi	sp,sp,-96
   22d04:	dd001315 	stw	r20,76(sp)
   22d08:	dc801115 	stw	r18,68(sp)
   22d0c:	dc401015 	stw	r17,64(sp)
   22d10:	dc000f15 	stw	r16,60(sp)
   22d14:	dfc01715 	stw	ra,92(sp)
   22d18:	ddc01615 	stw	r23,88(sp)
   22d1c:	dd801515 	stw	r22,84(sp)
   22d20:	dd401415 	stw	r21,80(sp)
   22d24:	dcc01215 	stw	r19,72(sp)
   22d28:	2023883a 	mov	r17,r4
   22d2c:	2821883a 	mov	r16,r5
   22d30:	3029883a 	mov	r20,r6
   22d34:	3825883a 	mov	r18,r7
   22d38:	20000226 	beq	r4,zero,22d44 <_fseek_r+0x44>
   22d3c:	20800e17 	ldw	r2,56(r4)
   22d40:	10006226 	beq	r2,zero,22ecc <_fseek_r+0x1cc>
   22d44:	80c0030b 	ldhu	r3,12(r16)
   22d48:	00804204 	movi	r2,264
   22d4c:	18c0420c 	andi	r3,r3,264
   22d50:	18806326 	beq	r3,r2,22ee0 <_fseek_r+0x1e0>
   22d54:	84c00a17 	ldw	r19,40(r16)
   22d58:	98010226 	beq	r19,zero,23164 <_fseek_r+0x464>
   22d5c:	00800044 	movi	r2,1
   22d60:	90803d26 	beq	r18,r2,22e58 <_fseek_r+0x158>
   22d64:	00800084 	movi	r2,2
   22d68:	90800126 	beq	r18,r2,22d70 <_fseek_r+0x70>
   22d6c:	90002c1e 	bne	r18,zero,22e20 <_fseek_r+0x120>
   22d70:	80800417 	ldw	r2,16(r16)
   22d74:	002d883a 	mov	r22,zero
   22d78:	002b883a 	mov	r21,zero
   22d7c:	1000e526 	beq	r2,zero,23114 <_fseek_r+0x414>
   22d80:	80c0030b 	ldhu	r3,12(r16)
   22d84:	1882068c 	andi	r2,r3,2074
   22d88:	1809883a 	mov	r4,r3
   22d8c:	10000a1e 	bne	r2,zero,22db8 <_fseek_r+0xb8>
   22d90:	1881000c 	andi	r2,r3,1024
   22d94:	10bfffcc 	andi	r2,r2,65535
   22d98:	10a0001c 	xori	r2,r2,32768
   22d9c:	10a00004 	addi	r2,r2,-32768
   22da0:	1000631e 	bne	r2,zero,22f30 <_fseek_r+0x230>
   22da4:	008000b4 	movhi	r2,2
   22da8:	10913904 	addi	r2,r2,17636
   22dac:	98805026 	beq	r19,r2,22ef0 <_fseek_r+0x1f0>
   22db0:	18c20014 	ori	r3,r3,2048
   22db4:	80c0030d 	sth	r3,12(r16)
   22db8:	8809883a 	mov	r4,r17
   22dbc:	800b883a 	mov	r5,r16
   22dc0:	00220280 	call	22028 <_fflush_r>
   22dc4:	1000181e 	bne	r2,zero,22e28 <_fseek_r+0x128>
   22dc8:	81400717 	ldw	r5,28(r16)
   22dcc:	8809883a 	mov	r4,r17
   22dd0:	a00d883a 	mov	r6,r20
   22dd4:	900f883a 	mov	r7,r18
   22dd8:	983ee83a 	callr	r19
   22ddc:	00ffffc4 	movi	r3,-1
   22de0:	10c01126 	beq	r2,r3,22e28 <_fseek_r+0x128>
   22de4:	81400c17 	ldw	r5,48(r16)
   22de8:	28000526 	beq	r5,zero,22e00 <_fseek_r+0x100>
   22dec:	80801004 	addi	r2,r16,64
   22df0:	28800226 	beq	r5,r2,22dfc <_fseek_r+0xfc>
   22df4:	8809883a 	mov	r4,r17
   22df8:	0022a300 	call	22a30 <_free_r>
   22dfc:	80000c15 	stw	zero,48(r16)
   22e00:	8080030b 	ldhu	r2,12(r16)
   22e04:	80c00417 	ldw	r3,16(r16)
   22e08:	80000115 	stw	zero,4(r16)
   22e0c:	10bdf7cc 	andi	r2,r2,63455
   22e10:	8080030d 	sth	r2,12(r16)
   22e14:	80c00015 	stw	r3,0(r16)
   22e18:	0005883a 	mov	r2,zero
   22e1c:	00000306 	br	22e2c <_fseek_r+0x12c>
   22e20:	00800584 	movi	r2,22
   22e24:	88800015 	stw	r2,0(r17)
   22e28:	00bfffc4 	movi	r2,-1
   22e2c:	dfc01717 	ldw	ra,92(sp)
   22e30:	ddc01617 	ldw	r23,88(sp)
   22e34:	dd801517 	ldw	r22,84(sp)
   22e38:	dd401417 	ldw	r21,80(sp)
   22e3c:	dd001317 	ldw	r20,76(sp)
   22e40:	dcc01217 	ldw	r19,72(sp)
   22e44:	dc801117 	ldw	r18,68(sp)
   22e48:	dc401017 	ldw	r17,64(sp)
   22e4c:	dc000f17 	ldw	r16,60(sp)
   22e50:	dec01804 	addi	sp,sp,96
   22e54:	f800283a 	ret
   22e58:	8809883a 	mov	r4,r17
   22e5c:	800b883a 	mov	r5,r16
   22e60:	00220280 	call	22028 <_fflush_r>
   22e64:	8080030b 	ldhu	r2,12(r16)
   22e68:	10c4000c 	andi	r3,r2,4096
   22e6c:	18ffffcc 	andi	r3,r3,65535
   22e70:	18e0001c 	xori	r3,r3,32768
   22e74:	18e00004 	addi	r3,r3,-32768
   22e78:	18007d26 	beq	r3,zero,23070 <_fseek_r+0x370>
   22e7c:	85401417 	ldw	r21,80(r16)
   22e80:	10c0010c 	andi	r3,r2,4
   22e84:	18ffffcc 	andi	r3,r3,65535
   22e88:	18e0001c 	xori	r3,r3,32768
   22e8c:	18e00004 	addi	r3,r3,-32768
   22e90:	18005f1e 	bne	r3,zero,23010 <_fseek_r+0x310>
   22e94:	1080020c 	andi	r2,r2,8
   22e98:	10bfffcc 	andi	r2,r2,65535
   22e9c:	10a0001c 	xori	r2,r2,32768
   22ea0:	10a00004 	addi	r2,r2,-32768
   22ea4:	10007026 	beq	r2,zero,23068 <_fseek_r+0x368>
   22ea8:	80c00017 	ldw	r3,0(r16)
   22eac:	80800417 	ldw	r2,16(r16)
   22eb0:	18000226 	beq	r3,zero,22ebc <_fseek_r+0x1bc>
   22eb4:	1887c83a 	sub	r3,r3,r2
   22eb8:	a8eb883a 	add	r21,r21,r3
   22ebc:	a569883a 	add	r20,r20,r21
   22ec0:	05800044 	movi	r22,1
   22ec4:	0025883a 	mov	r18,zero
   22ec8:	003fac06 	br	22d7c <_fseek_r+0x7c>
   22ecc:	00222e40 	call	222e4 <__sinit>
   22ed0:	80c0030b 	ldhu	r3,12(r16)
   22ed4:	00804204 	movi	r2,264
   22ed8:	18c0420c 	andi	r3,r3,264
   22edc:	18bf9d1e 	bne	r3,r2,22d54 <_fseek_r+0x54>
   22ee0:	8809883a 	mov	r4,r17
   22ee4:	800b883a 	mov	r5,r16
   22ee8:	00220280 	call	22028 <_fflush_r>
   22eec:	003f9906 	br	22d54 <_fseek_r+0x54>
   22ef0:	8140038f 	ldh	r5,14(r16)
   22ef4:	283fae16 	blt	r5,zero,22db0 <_fseek_r+0xb0>
   22ef8:	8809883a 	mov	r4,r17
   22efc:	d80d883a 	mov	r6,sp
   22f00:	00231980 	call	23198 <_fstat_r>
   22f04:	1000741e 	bne	r2,zero,230d8 <_fseek_r+0x3d8>
   22f08:	d8c00117 	ldw	r3,4(sp)
   22f0c:	00a00014 	movui	r2,32768
   22f10:	18fc000c 	andi	r3,r3,61440
   22f14:	1880701e 	bne	r3,r2,230d8 <_fseek_r+0x3d8>
   22f18:	8100030b 	ldhu	r4,12(r16)
   22f1c:	00810004 	movi	r2,1024
   22f20:	80801315 	stw	r2,76(r16)
   22f24:	2084b03a 	or	r2,r4,r2
   22f28:	1009883a 	mov	r4,r2
   22f2c:	8080030d 	sth	r2,12(r16)
   22f30:	90003f1e 	bne	r18,zero,23030 <_fseek_r+0x330>
   22f34:	a02f883a 	mov	r23,r20
   22f38:	b000461e 	bne	r22,zero,23054 <_fseek_r+0x354>
   22f3c:	2084000c 	andi	r2,r4,4096
   22f40:	10bfffcc 	andi	r2,r2,65535
   22f44:	10a0001c 	xori	r2,r2,32768
   22f48:	10a00004 	addi	r2,r2,-32768
   22f4c:	10007526 	beq	r2,zero,23124 <_fseek_r+0x424>
   22f50:	80801417 	ldw	r2,80(r16)
   22f54:	80c00117 	ldw	r3,4(r16)
   22f58:	81400c17 	ldw	r5,48(r16)
   22f5c:	10ebc83a 	sub	r21,r2,r3
   22f60:	28007926 	beq	r5,zero,23148 <_fseek_r+0x448>
   22f64:	81c00f17 	ldw	r7,60(r16)
   22f68:	a9ebc83a 	sub	r21,r21,r7
   22f6c:	80800e17 	ldw	r2,56(r16)
   22f70:	81800417 	ldw	r6,16(r16)
   22f74:	a8eb883a 	add	r21,r21,r3
   22f78:	1185c83a 	sub	r2,r2,r6
   22f7c:	a8abc83a 	sub	r21,r21,r2
   22f80:	3885883a 	add	r2,r7,r2
   22f84:	2208000c 	andi	r8,r4,8192
   22f88:	423fffcc 	andi	r8,r8,65535
   22f8c:	4220001c 	xori	r8,r8,32768
   22f90:	42200004 	addi	r8,r8,-32768
   22f94:	4000031e 	bne	r8,zero,22fa4 <_fseek_r+0x2a4>
   22f98:	bd400216 	blt	r23,r21,22fa4 <_fseek_r+0x2a4>
   22f9c:	a887883a 	add	r3,r21,r2
   22fa0:	b8c03d36 	bltu	r23,r3,23098 <_fseek_r+0x398>
   22fa4:	85401317 	ldw	r21,76(r16)
   22fa8:	81400717 	ldw	r5,28(r16)
   22fac:	8809883a 	mov	r4,r17
   22fb0:	056bc83a 	sub	r21,zero,r21
   22fb4:	bd6a703a 	and	r21,r23,r21
   22fb8:	a80d883a 	mov	r6,r21
   22fbc:	000f883a 	mov	r7,zero
   22fc0:	983ee83a 	callr	r19
   22fc4:	00ffffc4 	movi	r3,-1
   22fc8:	10ff7b26 	beq	r2,r3,22db8 <_fseek_r+0xb8>
   22fcc:	80800417 	ldw	r2,16(r16)
   22fd0:	81400c17 	ldw	r5,48(r16)
   22fd4:	80000115 	stw	zero,4(r16)
   22fd8:	80800015 	stw	r2,0(r16)
   22fdc:	28000526 	beq	r5,zero,22ff4 <_fseek_r+0x2f4>
   22fe0:	80801004 	addi	r2,r16,64
   22fe4:	28800226 	beq	r5,r2,22ff0 <_fseek_r+0x2f0>
   22fe8:	8809883a 	mov	r4,r17
   22fec:	0022a300 	call	22a30 <_free_r>
   22ff0:	80000c15 	stw	zero,48(r16)
   22ff4:	8080030b 	ldhu	r2,12(r16)
   22ff8:	bd6fc83a 	sub	r23,r23,r21
   22ffc:	10bff7cc 	andi	r2,r2,65503
   23000:	8080030d 	sth	r2,12(r16)
   23004:	b800361e 	bne	r23,zero,230e0 <_fseek_r+0x3e0>
   23008:	0005883a 	mov	r2,zero
   2300c:	003f8706 	br	22e2c <_fseek_r+0x12c>
   23010:	80c00117 	ldw	r3,4(r16)
   23014:	80800c17 	ldw	r2,48(r16)
   23018:	a8ebc83a 	sub	r21,r21,r3
   2301c:	10001226 	beq	r2,zero,23068 <_fseek_r+0x368>
   23020:	80c00f17 	ldw	r3,60(r16)
   23024:	80800417 	ldw	r2,16(r16)
   23028:	a8ebc83a 	sub	r21,r21,r3
   2302c:	003fa306 	br	22ebc <_fseek_r+0x1bc>
   23030:	8140038f 	ldh	r5,14(r16)
   23034:	8809883a 	mov	r4,r17
   23038:	d80d883a 	mov	r6,sp
   2303c:	00231980 	call	23198 <_fstat_r>
   23040:	103f5d1e 	bne	r2,zero,22db8 <_fseek_r+0xb8>
   23044:	ddc00417 	ldw	r23,16(sp)
   23048:	8100030b 	ldhu	r4,12(r16)
   2304c:	a5ef883a 	add	r23,r20,r23
   23050:	b03fba26 	beq	r22,zero,22f3c <_fseek_r+0x23c>
   23054:	81400c17 	ldw	r5,48(r16)
   23058:	80c00117 	ldw	r3,4(r16)
   2305c:	28003a26 	beq	r5,zero,23148 <_fseek_r+0x448>
   23060:	81c00f17 	ldw	r7,60(r16)
   23064:	003fc106 	br	22f6c <_fseek_r+0x26c>
   23068:	80800417 	ldw	r2,16(r16)
   2306c:	003f9306 	br	22ebc <_fseek_r+0x1bc>
   23070:	81400717 	ldw	r5,28(r16)
   23074:	8809883a 	mov	r4,r17
   23078:	000d883a 	mov	r6,zero
   2307c:	900f883a 	mov	r7,r18
   23080:	983ee83a 	callr	r19
   23084:	102b883a 	mov	r21,r2
   23088:	00bfffc4 	movi	r2,-1
   2308c:	a8bf6626 	beq	r21,r2,22e28 <_fseek_r+0x128>
   23090:	8080030b 	ldhu	r2,12(r16)
   23094:	003f7a06 	br	22e80 <_fseek_r+0x180>
   23098:	bd6bc83a 	sub	r21,r23,r21
   2309c:	354d883a 	add	r6,r6,r21
   230a0:	1545c83a 	sub	r2,r2,r21
   230a4:	81800015 	stw	r6,0(r16)
   230a8:	80800115 	stw	r2,4(r16)
   230ac:	28000626 	beq	r5,zero,230c8 <_fseek_r+0x3c8>
   230b0:	80801004 	addi	r2,r16,64
   230b4:	28800326 	beq	r5,r2,230c4 <_fseek_r+0x3c4>
   230b8:	8809883a 	mov	r4,r17
   230bc:	0022a300 	call	22a30 <_free_r>
   230c0:	8100030b 	ldhu	r4,12(r16)
   230c4:	80000c15 	stw	zero,48(r16)
   230c8:	213ff7cc 	andi	r4,r4,65503
   230cc:	8100030d 	sth	r4,12(r16)
   230d0:	0005883a 	mov	r2,zero
   230d4:	003f5506 	br	22e2c <_fseek_r+0x12c>
   230d8:	80c0030b 	ldhu	r3,12(r16)
   230dc:	003f3406 	br	22db0 <_fseek_r+0xb0>
   230e0:	8809883a 	mov	r4,r17
   230e4:	800b883a 	mov	r5,r16
   230e8:	002416c0 	call	2416c <__srefill_r>
   230ec:	103f321e 	bne	r2,zero,22db8 <_fseek_r+0xb8>
   230f0:	80800117 	ldw	r2,4(r16)
   230f4:	15ff3036 	bltu	r2,r23,22db8 <_fseek_r+0xb8>
   230f8:	80c00017 	ldw	r3,0(r16)
   230fc:	15c5c83a 	sub	r2,r2,r23
   23100:	80800115 	stw	r2,4(r16)
   23104:	1def883a 	add	r23,r3,r23
   23108:	85c00015 	stw	r23,0(r16)
   2310c:	0005883a 	mov	r2,zero
   23110:	003f4606 	br	22e2c <_fseek_r+0x12c>
   23114:	8809883a 	mov	r4,r17
   23118:	800b883a 	mov	r5,r16
   2311c:	00234500 	call	23450 <__smakebuf_r>
   23120:	003f1706 	br	22d80 <_fseek_r+0x80>
   23124:	81400717 	ldw	r5,28(r16)
   23128:	8809883a 	mov	r4,r17
   2312c:	000d883a 	mov	r6,zero
   23130:	01c00044 	movi	r7,1
   23134:	983ee83a 	callr	r19
   23138:	00ffffc4 	movi	r3,-1
   2313c:	10ff1e26 	beq	r2,r3,22db8 <_fseek_r+0xb8>
   23140:	8100030b 	ldhu	r4,12(r16)
   23144:	003f8306 	br	22f54 <_fseek_r+0x254>
   23148:	80800017 	ldw	r2,0(r16)
   2314c:	81800417 	ldw	r6,16(r16)
   23150:	000b883a 	mov	r5,zero
   23154:	1185c83a 	sub	r2,r2,r6
   23158:	a8abc83a 	sub	r21,r21,r2
   2315c:	1885883a 	add	r2,r3,r2
   23160:	003f8806 	br	22f84 <_fseek_r+0x284>
   23164:	00800744 	movi	r2,29
   23168:	88800015 	stw	r2,0(r17)
   2316c:	00bfffc4 	movi	r2,-1
   23170:	003f2e06 	br	22e2c <_fseek_r+0x12c>

00023174 <fseek>:
   23174:	008000f4 	movhi	r2,3
   23178:	10802904 	addi	r2,r2,164
   2317c:	2007883a 	mov	r3,r4
   23180:	11000017 	ldw	r4,0(r2)
   23184:	2805883a 	mov	r2,r5
   23188:	300f883a 	mov	r7,r6
   2318c:	180b883a 	mov	r5,r3
   23190:	100d883a 	mov	r6,r2
   23194:	0022d001 	jmpi	22d00 <_fseek_r>

00023198 <_fstat_r>:
   23198:	defffd04 	addi	sp,sp,-12
   2319c:	dc400115 	stw	r17,4(sp)
   231a0:	dc000015 	stw	r16,0(sp)
   231a4:	2023883a 	mov	r17,r4
   231a8:	040000f4 	movhi	r16,3
   231ac:	84030a04 	addi	r16,r16,3112
   231b0:	2809883a 	mov	r4,r5
   231b4:	300b883a 	mov	r5,r6
   231b8:	dfc00215 	stw	ra,8(sp)
   231bc:	80000015 	stw	zero,0(r16)
   231c0:	002c6700 	call	2c670 <fstat>
   231c4:	00ffffc4 	movi	r3,-1
   231c8:	10c00526 	beq	r2,r3,231e0 <_fstat_r+0x48>
   231cc:	dfc00217 	ldw	ra,8(sp)
   231d0:	dc400117 	ldw	r17,4(sp)
   231d4:	dc000017 	ldw	r16,0(sp)
   231d8:	dec00304 	addi	sp,sp,12
   231dc:	f800283a 	ret
   231e0:	80c00017 	ldw	r3,0(r16)
   231e4:	183ff926 	beq	r3,zero,231cc <_fstat_r+0x34>
   231e8:	88c00015 	stw	r3,0(r17)
   231ec:	dfc00217 	ldw	ra,8(sp)
   231f0:	dc400117 	ldw	r17,4(sp)
   231f4:	dc000017 	ldw	r16,0(sp)
   231f8:	dec00304 	addi	sp,sp,12
   231fc:	f800283a 	ret

00023200 <_fwalk>:
   23200:	defff904 	addi	sp,sp,-28
   23204:	dcc00315 	stw	r19,12(sp)
   23208:	24c0b804 	addi	r19,r4,736
   2320c:	dd400515 	stw	r21,20(sp)
   23210:	dd000415 	stw	r20,16(sp)
   23214:	dfc00615 	stw	ra,24(sp)
   23218:	dc800215 	stw	r18,8(sp)
   2321c:	dc400115 	stw	r17,4(sp)
   23220:	dc000015 	stw	r16,0(sp)
   23224:	282b883a 	mov	r21,r5
   23228:	0029883a 	mov	r20,zero
   2322c:	00224ec0 	call	224ec <__sfp_lock_acquire>
   23230:	98001226 	beq	r19,zero,2327c <_fwalk+0x7c>
   23234:	04bfffc4 	movi	r18,-1
   23238:	9c400117 	ldw	r17,4(r19)
   2323c:	9c000217 	ldw	r16,8(r19)
   23240:	8c7fffc4 	addi	r17,r17,-1
   23244:	88000b16 	blt	r17,zero,23274 <_fwalk+0x74>
   23248:	84000304 	addi	r16,r16,12
   2324c:	80c0000f 	ldh	r3,0(r16)
   23250:	8c7fffc4 	addi	r17,r17,-1
   23254:	813ffd04 	addi	r4,r16,-12
   23258:	18000426 	beq	r3,zero,2326c <_fwalk+0x6c>
   2325c:	80c0008f 	ldh	r3,2(r16)
   23260:	1c800226 	beq	r3,r18,2326c <_fwalk+0x6c>
   23264:	a83ee83a 	callr	r21
   23268:	a0a8b03a 	or	r20,r20,r2
   2326c:	84001704 	addi	r16,r16,92
   23270:	8cbff61e 	bne	r17,r18,2324c <_fwalk+0x4c>
   23274:	9cc00017 	ldw	r19,0(r19)
   23278:	983fef1e 	bne	r19,zero,23238 <_fwalk+0x38>
   2327c:	00224f00 	call	224f0 <__sfp_lock_release>
   23280:	a005883a 	mov	r2,r20
   23284:	dfc00617 	ldw	ra,24(sp)
   23288:	dd400517 	ldw	r21,20(sp)
   2328c:	dd000417 	ldw	r20,16(sp)
   23290:	dcc00317 	ldw	r19,12(sp)
   23294:	dc800217 	ldw	r18,8(sp)
   23298:	dc400117 	ldw	r17,4(sp)
   2329c:	dc000017 	ldw	r16,0(sp)
   232a0:	dec00704 	addi	sp,sp,28
   232a4:	f800283a 	ret

000232a8 <_fwalk_reent>:
   232a8:	defff804 	addi	sp,sp,-32
   232ac:	dcc00315 	stw	r19,12(sp)
   232b0:	24c0b804 	addi	r19,r4,736
   232b4:	dd800615 	stw	r22,24(sp)
   232b8:	dd400515 	stw	r21,20(sp)
   232bc:	dd000415 	stw	r20,16(sp)
   232c0:	dfc00715 	stw	ra,28(sp)
   232c4:	dc800215 	stw	r18,8(sp)
   232c8:	dc400115 	stw	r17,4(sp)
   232cc:	dc000015 	stw	r16,0(sp)
   232d0:	2029883a 	mov	r20,r4
   232d4:	282b883a 	mov	r21,r5
   232d8:	002d883a 	mov	r22,zero
   232dc:	00224ec0 	call	224ec <__sfp_lock_acquire>
   232e0:	98001326 	beq	r19,zero,23330 <_fwalk_reent+0x88>
   232e4:	04bfffc4 	movi	r18,-1
   232e8:	9c400117 	ldw	r17,4(r19)
   232ec:	9c000217 	ldw	r16,8(r19)
   232f0:	8c7fffc4 	addi	r17,r17,-1
   232f4:	88000c16 	blt	r17,zero,23328 <_fwalk_reent+0x80>
   232f8:	84000304 	addi	r16,r16,12
   232fc:	80c0000f 	ldh	r3,0(r16)
   23300:	8c7fffc4 	addi	r17,r17,-1
   23304:	817ffd04 	addi	r5,r16,-12
   23308:	18000526 	beq	r3,zero,23320 <_fwalk_reent+0x78>
   2330c:	80c0008f 	ldh	r3,2(r16)
   23310:	a009883a 	mov	r4,r20
   23314:	1c800226 	beq	r3,r18,23320 <_fwalk_reent+0x78>
   23318:	a83ee83a 	callr	r21
   2331c:	b0acb03a 	or	r22,r22,r2
   23320:	84001704 	addi	r16,r16,92
   23324:	8cbff51e 	bne	r17,r18,232fc <_fwalk_reent+0x54>
   23328:	9cc00017 	ldw	r19,0(r19)
   2332c:	983fee1e 	bne	r19,zero,232e8 <_fwalk_reent+0x40>
   23330:	00224f00 	call	224f0 <__sfp_lock_release>
   23334:	b005883a 	mov	r2,r22
   23338:	dfc00717 	ldw	ra,28(sp)
   2333c:	dd800617 	ldw	r22,24(sp)
   23340:	dd400517 	ldw	r21,20(sp)
   23344:	dd000417 	ldw	r20,16(sp)
   23348:	dcc00317 	ldw	r19,12(sp)
   2334c:	dc800217 	ldw	r18,8(sp)
   23350:	dc400117 	ldw	r17,4(sp)
   23354:	dc000017 	ldw	r16,0(sp)
   23358:	dec00804 	addi	sp,sp,32
   2335c:	f800283a 	ret

00023360 <_fwrite_r>:
   23360:	defff604 	addi	sp,sp,-40
   23364:	dc000515 	stw	r16,20(sp)
   23368:	d9400315 	stw	r5,12(sp)
   2336c:	2021883a 	mov	r16,r4
   23370:	300b883a 	mov	r5,r6
   23374:	3809883a 	mov	r4,r7
   23378:	dcc00815 	stw	r19,32(sp)
   2337c:	dc800715 	stw	r18,28(sp)
   23380:	dc400615 	stw	r17,24(sp)
   23384:	dfc00915 	stw	ra,36(sp)
   23388:	3027883a 	mov	r19,r6
   2338c:	3823883a 	mov	r17,r7
   23390:	0021dc80 	call	21dc8 <__mulsi3>
   23394:	1025883a 	mov	r18,r2
   23398:	d8800415 	stw	r2,16(sp)
   2339c:	d8800215 	stw	r2,8(sp)
   233a0:	d8800304 	addi	r2,sp,12
   233a4:	d8800015 	stw	r2,0(sp)
   233a8:	00800044 	movi	r2,1
   233ac:	d8800115 	stw	r2,4(sp)
   233b0:	80000226 	beq	r16,zero,233bc <_fwrite_r+0x5c>
   233b4:	80800e17 	ldw	r2,56(r16)
   233b8:	10001226 	beq	r2,zero,23404 <_fwrite_r+0xa4>
   233bc:	d9400a17 	ldw	r5,40(sp)
   233c0:	8009883a 	mov	r4,r16
   233c4:	d80d883a 	mov	r6,sp
   233c8:	0027fdc0 	call	27fdc <__sfvwrite_r>
   233cc:	10000526 	beq	r2,zero,233e4 <_fwrite_r+0x84>
   233d0:	d9000217 	ldw	r4,8(sp)
   233d4:	980b883a 	mov	r5,r19
   233d8:	9109c83a 	sub	r4,r18,r4
   233dc:	002be8c0 	call	2be8c <__udivsi3>
   233e0:	1023883a 	mov	r17,r2
   233e4:	8805883a 	mov	r2,r17
   233e8:	dfc00917 	ldw	ra,36(sp)
   233ec:	dcc00817 	ldw	r19,32(sp)
   233f0:	dc800717 	ldw	r18,28(sp)
   233f4:	dc400617 	ldw	r17,24(sp)
   233f8:	dc000517 	ldw	r16,20(sp)
   233fc:	dec00a04 	addi	sp,sp,40
   23400:	f800283a 	ret
   23404:	8009883a 	mov	r4,r16
   23408:	00222e40 	call	222e4 <__sinit>
   2340c:	003feb06 	br	233bc <_fwrite_r+0x5c>

00023410 <fwrite>:
   23410:	008000f4 	movhi	r2,3
   23414:	10802904 	addi	r2,r2,164
   23418:	2011883a 	mov	r8,r4
   2341c:	11000017 	ldw	r4,0(r2)
   23420:	defffe04 	addi	sp,sp,-8
   23424:	2807883a 	mov	r3,r5
   23428:	3005883a 	mov	r2,r6
   2342c:	d9c00015 	stw	r7,0(sp)
   23430:	400b883a 	mov	r5,r8
   23434:	180d883a 	mov	r6,r3
   23438:	100f883a 	mov	r7,r2
   2343c:	dfc00115 	stw	ra,4(sp)
   23440:	00233600 	call	23360 <_fwrite_r>
   23444:	dfc00117 	ldw	ra,4(sp)
   23448:	dec00204 	addi	sp,sp,8
   2344c:	f800283a 	ret

00023450 <__smakebuf_r>:
   23450:	2880030b 	ldhu	r2,12(r5)
   23454:	deffed04 	addi	sp,sp,-76
   23458:	dc401015 	stw	r17,64(sp)
   2345c:	10c0008c 	andi	r3,r2,2
   23460:	18ffffcc 	andi	r3,r3,65535
   23464:	18e0001c 	xori	r3,r3,32768
   23468:	dc000f15 	stw	r16,60(sp)
   2346c:	dfc01215 	stw	ra,72(sp)
   23470:	dc801115 	stw	r18,68(sp)
   23474:	18e00004 	addi	r3,r3,-32768
   23478:	2821883a 	mov	r16,r5
   2347c:	2023883a 	mov	r17,r4
   23480:	1800381e 	bne	r3,zero,23564 <__smakebuf_r+0x114>
   23484:	2940038f 	ldh	r5,14(r5)
   23488:	28002d16 	blt	r5,zero,23540 <__smakebuf_r+0xf0>
   2348c:	d80d883a 	mov	r6,sp
   23490:	00231980 	call	23198 <_fstat_r>
   23494:	10002916 	blt	r2,zero,2353c <__smakebuf_r+0xec>
   23498:	d8800117 	ldw	r2,4(sp)
   2349c:	00e00014 	movui	r3,32768
   234a0:	10bc000c 	andi	r2,r2,61440
   234a4:	10c03c26 	beq	r2,r3,23598 <__smakebuf_r+0x148>
   234a8:	80c0030b 	ldhu	r3,12(r16)
   234ac:	18c20014 	ori	r3,r3,2048
   234b0:	80c0030d 	sth	r3,12(r16)
   234b4:	00c80004 	movi	r3,8192
   234b8:	10c00c1e 	bne	r2,r3,234ec <__smakebuf_r+0x9c>
   234bc:	8140038f 	ldh	r5,14(r16)
   234c0:	8809883a 	mov	r4,r17
   234c4:	00284c00 	call	284c0 <_isatty_r>
   234c8:	10000826 	beq	r2,zero,234ec <__smakebuf_r+0x9c>
   234cc:	80c0030b 	ldhu	r3,12(r16)
   234d0:	808010c4 	addi	r2,r16,67
   234d4:	80800015 	stw	r2,0(r16)
   234d8:	18c00054 	ori	r3,r3,1
   234dc:	80800415 	stw	r2,16(r16)
   234e0:	00800044 	movi	r2,1
   234e4:	80c0030d 	sth	r3,12(r16)
   234e8:	80800515 	stw	r2,20(r16)
   234ec:	04810004 	movi	r18,1024
   234f0:	8809883a 	mov	r4,r17
   234f4:	900b883a 	mov	r5,r18
   234f8:	00236200 	call	23620 <_malloc_r>
   234fc:	10003026 	beq	r2,zero,235c0 <__smakebuf_r+0x170>
   23500:	80c0030b 	ldhu	r3,12(r16)
   23504:	010000b4 	movhi	r4,2
   23508:	21089404 	addi	r4,r4,8784
   2350c:	89000f15 	stw	r4,60(r17)
   23510:	18c02014 	ori	r3,r3,128
   23514:	80c0030d 	sth	r3,12(r16)
   23518:	80800015 	stw	r2,0(r16)
   2351c:	80800415 	stw	r2,16(r16)
   23520:	84800515 	stw	r18,20(r16)
   23524:	dfc01217 	ldw	ra,72(sp)
   23528:	dc801117 	ldw	r18,68(sp)
   2352c:	dc401017 	ldw	r17,64(sp)
   23530:	dc000f17 	ldw	r16,60(sp)
   23534:	dec01304 	addi	sp,sp,76
   23538:	f800283a 	ret
   2353c:	8080030b 	ldhu	r2,12(r16)
   23540:	10c0200c 	andi	r3,r2,128
   23544:	18ffffcc 	andi	r3,r3,65535
   23548:	18e0001c 	xori	r3,r3,32768
   2354c:	18e00004 	addi	r3,r3,-32768
   23550:	18000f1e 	bne	r3,zero,23590 <__smakebuf_r+0x140>
   23554:	04810004 	movi	r18,1024
   23558:	10820014 	ori	r2,r2,2048
   2355c:	8080030d 	sth	r2,12(r16)
   23560:	003fe306 	br	234f0 <__smakebuf_r+0xa0>
   23564:	288010c4 	addi	r2,r5,67
   23568:	28800015 	stw	r2,0(r5)
   2356c:	28800415 	stw	r2,16(r5)
   23570:	00800044 	movi	r2,1
   23574:	28800515 	stw	r2,20(r5)
   23578:	dfc01217 	ldw	ra,72(sp)
   2357c:	dc801117 	ldw	r18,68(sp)
   23580:	dc401017 	ldw	r17,64(sp)
   23584:	dc000f17 	ldw	r16,60(sp)
   23588:	dec01304 	addi	sp,sp,76
   2358c:	f800283a 	ret
   23590:	04801004 	movi	r18,64
   23594:	003ff006 	br	23558 <__smakebuf_r+0x108>
   23598:	81000a17 	ldw	r4,40(r16)
   2359c:	00c000b4 	movhi	r3,2
   235a0:	18d13904 	addi	r3,r3,17636
   235a4:	20ffc01e 	bne	r4,r3,234a8 <__smakebuf_r+0x58>
   235a8:	8080030b 	ldhu	r2,12(r16)
   235ac:	00c10004 	movi	r3,1024
   235b0:	80c01315 	stw	r3,76(r16)
   235b4:	10c4b03a 	or	r2,r2,r3
   235b8:	8080030d 	sth	r2,12(r16)
   235bc:	003fcb06 	br	234ec <__smakebuf_r+0x9c>
   235c0:	8080030b 	ldhu	r2,12(r16)
   235c4:	10c0800c 	andi	r3,r2,512
   235c8:	18ffffcc 	andi	r3,r3,65535
   235cc:	18e0001c 	xori	r3,r3,32768
   235d0:	18e00004 	addi	r3,r3,-32768
   235d4:	183fd31e 	bne	r3,zero,23524 <__smakebuf_r+0xd4>
   235d8:	10800094 	ori	r2,r2,2
   235dc:	80c010c4 	addi	r3,r16,67
   235e0:	8080030d 	sth	r2,12(r16)
   235e4:	00800044 	movi	r2,1
   235e8:	80c00015 	stw	r3,0(r16)
   235ec:	80c00415 	stw	r3,16(r16)
   235f0:	80800515 	stw	r2,20(r16)
   235f4:	003fcb06 	br	23524 <__smakebuf_r+0xd4>

000235f8 <malloc>:
   235f8:	008000f4 	movhi	r2,3
   235fc:	10802904 	addi	r2,r2,164
   23600:	200b883a 	mov	r5,r4
   23604:	11000017 	ldw	r4,0(r2)
   23608:	00236201 	jmpi	23620 <_malloc_r>

0002360c <free>:
   2360c:	008000f4 	movhi	r2,3
   23610:	10802904 	addi	r2,r2,164
   23614:	200b883a 	mov	r5,r4
   23618:	11000017 	ldw	r4,0(r2)
   2361c:	0022a301 	jmpi	22a30 <_free_r>

00023620 <_malloc_r>:
   23620:	defff604 	addi	sp,sp,-40
   23624:	dc800215 	stw	r18,8(sp)
   23628:	dfc00915 	stw	ra,36(sp)
   2362c:	df000815 	stw	fp,32(sp)
   23630:	ddc00715 	stw	r23,28(sp)
   23634:	dd800615 	stw	r22,24(sp)
   23638:	dd400515 	stw	r21,20(sp)
   2363c:	dd000415 	stw	r20,16(sp)
   23640:	dcc00315 	stw	r19,12(sp)
   23644:	dc400115 	stw	r17,4(sp)
   23648:	dc000015 	stw	r16,0(sp)
   2364c:	288002c4 	addi	r2,r5,11
   23650:	00c00584 	movi	r3,22
   23654:	2025883a 	mov	r18,r4
   23658:	18802b2e 	bgeu	r3,r2,23708 <_malloc_r+0xe8>
   2365c:	047ffe04 	movi	r17,-8
   23660:	1462703a 	and	r17,r2,r17
   23664:	88002a16 	blt	r17,zero,23710 <_malloc_r+0xf0>
   23668:	89402936 	bltu	r17,r5,23710 <_malloc_r+0xf0>
   2366c:	9009883a 	mov	r4,r18
   23670:	002ca9c0 	call	2ca9c <__malloc_lock>
   23674:	00807dc4 	movi	r2,503
   23678:	14402936 	bltu	r2,r17,23720 <_malloc_r+0x100>
   2367c:	8808d0fa 	srli	r4,r17,3
   23680:	04c000f4 	movhi	r19,3
   23684:	9cfea404 	addi	r19,r19,-1392
   23688:	2105883a 	add	r2,r4,r4
   2368c:	1085883a 	add	r2,r2,r2
   23690:	1085883a 	add	r2,r2,r2
   23694:	9885883a 	add	r2,r19,r2
   23698:	14000317 	ldw	r16,12(r2)
   2369c:	80815526 	beq	r16,r2,23bf4 <_malloc_r+0x5d4>
   236a0:	81000117 	ldw	r4,4(r16)
   236a4:	00bfff04 	movi	r2,-4
   236a8:	80c00317 	ldw	r3,12(r16)
   236ac:	2084703a 	and	r2,r4,r2
   236b0:	8085883a 	add	r2,r16,r2
   236b4:	11800117 	ldw	r6,4(r2)
   236b8:	81400217 	ldw	r5,8(r16)
   236bc:	9009883a 	mov	r4,r18
   236c0:	31800054 	ori	r6,r6,1
   236c4:	11800115 	stw	r6,4(r2)
   236c8:	28c00315 	stw	r3,12(r5)
   236cc:	19400215 	stw	r5,8(r3)
   236d0:	002cabc0 	call	2cabc <__malloc_unlock>
   236d4:	80800204 	addi	r2,r16,8
   236d8:	dfc00917 	ldw	ra,36(sp)
   236dc:	df000817 	ldw	fp,32(sp)
   236e0:	ddc00717 	ldw	r23,28(sp)
   236e4:	dd800617 	ldw	r22,24(sp)
   236e8:	dd400517 	ldw	r21,20(sp)
   236ec:	dd000417 	ldw	r20,16(sp)
   236f0:	dcc00317 	ldw	r19,12(sp)
   236f4:	dc800217 	ldw	r18,8(sp)
   236f8:	dc400117 	ldw	r17,4(sp)
   236fc:	dc000017 	ldw	r16,0(sp)
   23700:	dec00a04 	addi	sp,sp,40
   23704:	f800283a 	ret
   23708:	04400404 	movi	r17,16
   2370c:	897fd72e 	bgeu	r17,r5,2366c <_malloc_r+0x4c>
   23710:	00800304 	movi	r2,12
   23714:	90800015 	stw	r2,0(r18)
   23718:	0005883a 	mov	r2,zero
   2371c:	003fee06 	br	236d8 <_malloc_r+0xb8>
   23720:	8808d27a 	srli	r4,r17,9
   23724:	20007126 	beq	r4,zero,238ec <_malloc_r+0x2cc>
   23728:	00800104 	movi	r2,4
   2372c:	1100eb36 	bltu	r2,r4,23adc <_malloc_r+0x4bc>
   23730:	8808d1ba 	srli	r4,r17,6
   23734:	21000e04 	addi	r4,r4,56
   23738:	210b883a 	add	r5,r4,r4
   2373c:	294b883a 	add	r5,r5,r5
   23740:	294b883a 	add	r5,r5,r5
   23744:	04c000f4 	movhi	r19,3
   23748:	9cfea404 	addi	r19,r19,-1392
   2374c:	994b883a 	add	r5,r19,r5
   23750:	2c000317 	ldw	r16,12(r5)
   23754:	2c000e26 	beq	r5,r16,23790 <_malloc_r+0x170>
   23758:	80c00117 	ldw	r3,4(r16)
   2375c:	01ffff04 	movi	r7,-4
   23760:	018003c4 	movi	r6,15
   23764:	19c6703a 	and	r3,r3,r7
   23768:	1c45c83a 	sub	r2,r3,r17
   2376c:	30800716 	blt	r6,r2,2378c <_malloc_r+0x16c>
   23770:	1000610e 	bge	r2,zero,238f8 <_malloc_r+0x2d8>
   23774:	84000317 	ldw	r16,12(r16)
   23778:	2c000526 	beq	r5,r16,23790 <_malloc_r+0x170>
   2377c:	80c00117 	ldw	r3,4(r16)
   23780:	19c6703a 	and	r3,r3,r7
   23784:	1c45c83a 	sub	r2,r3,r17
   23788:	30bff90e 	bge	r6,r2,23770 <_malloc_r+0x150>
   2378c:	213fffc4 	addi	r4,r4,-1
   23790:	21000044 	addi	r4,r4,1
   23794:	9c000417 	ldw	r16,16(r19)
   23798:	00c000f4 	movhi	r3,3
   2379c:	18fea404 	addi	r3,r3,-1392
   237a0:	1a400204 	addi	r9,r3,8
   237a4:	8240ff26 	beq	r16,r9,23ba4 <_malloc_r+0x584>
   237a8:	81400117 	ldw	r5,4(r16)
   237ac:	00bfff04 	movi	r2,-4
   237b0:	018003c4 	movi	r6,15
   237b4:	2884703a 	and	r2,r5,r2
   237b8:	144bc83a 	sub	r5,r2,r17
   237bc:	3140ea16 	blt	r6,r5,23b68 <_malloc_r+0x548>
   237c0:	1a400515 	stw	r9,20(r3)
   237c4:	1a400415 	stw	r9,16(r3)
   237c8:	2800570e 	bge	r5,zero,23928 <_malloc_r+0x308>
   237cc:	01407fc4 	movi	r5,511
   237d0:	2880ca36 	bltu	r5,r2,23afc <_malloc_r+0x4dc>
   237d4:	1004d0fa 	srli	r2,r2,3
   237d8:	02000044 	movi	r8,1
   237dc:	19c00117 	ldw	r7,4(r3)
   237e0:	108b883a 	add	r5,r2,r2
   237e4:	294b883a 	add	r5,r5,r5
   237e8:	1005d0ba 	srai	r2,r2,2
   237ec:	294b883a 	add	r5,r5,r5
   237f0:	28cb883a 	add	r5,r5,r3
   237f4:	29800217 	ldw	r6,8(r5)
   237f8:	4084983a 	sll	r2,r8,r2
   237fc:	81400315 	stw	r5,12(r16)
   23800:	81800215 	stw	r6,8(r16)
   23804:	11c4b03a 	or	r2,r2,r7
   23808:	18800115 	stw	r2,4(r3)
   2380c:	2c000215 	stw	r16,8(r5)
   23810:	34000315 	stw	r16,12(r6)
   23814:	200bd0ba 	srai	r5,r4,2
   23818:	00c00044 	movi	r3,1
   2381c:	194a983a 	sll	r5,r3,r5
   23820:	11404936 	bltu	r2,r5,23948 <_malloc_r+0x328>
   23824:	1146703a 	and	r3,r2,r5
   23828:	18000a1e 	bne	r3,zero,23854 <_malloc_r+0x234>
   2382c:	00ffff04 	movi	r3,-4
   23830:	294b883a 	add	r5,r5,r5
   23834:	20c8703a 	and	r4,r4,r3
   23838:	1146703a 	and	r3,r2,r5
   2383c:	21000104 	addi	r4,r4,4
   23840:	1800041e 	bne	r3,zero,23854 <_malloc_r+0x234>
   23844:	294b883a 	add	r5,r5,r5
   23848:	1146703a 	and	r3,r2,r5
   2384c:	21000104 	addi	r4,r4,4
   23850:	183ffc26 	beq	r3,zero,23844 <_malloc_r+0x224>
   23854:	023fff04 	movi	r8,-4
   23858:	01c003c4 	movi	r7,15
   2385c:	2105883a 	add	r2,r4,r4
   23860:	1085883a 	add	r2,r2,r2
   23864:	1085883a 	add	r2,r2,r2
   23868:	9899883a 	add	r12,r19,r2
   2386c:	62800304 	addi	r10,r12,12
   23870:	2017883a 	mov	r11,r4
   23874:	54000017 	ldw	r16,0(r10)
   23878:	51bffd04 	addi	r6,r10,-12
   2387c:	8180041e 	bne	r16,r6,23890 <_malloc_r+0x270>
   23880:	0000ca06 	br	23bac <_malloc_r+0x58c>
   23884:	10001c0e 	bge	r2,zero,238f8 <_malloc_r+0x2d8>
   23888:	84000317 	ldw	r16,12(r16)
   2388c:	8180c726 	beq	r16,r6,23bac <_malloc_r+0x58c>
   23890:	80c00117 	ldw	r3,4(r16)
   23894:	1a06703a 	and	r3,r3,r8
   23898:	1c45c83a 	sub	r2,r3,r17
   2389c:	38bff90e 	bge	r7,r2,23884 <_malloc_r+0x264>
   238a0:	81000317 	ldw	r4,12(r16)
   238a4:	81400217 	ldw	r5,8(r16)
   238a8:	8447883a 	add	r3,r16,r17
   238ac:	8c400054 	ori	r17,r17,1
   238b0:	29000315 	stw	r4,12(r5)
   238b4:	21400215 	stw	r5,8(r4)
   238b8:	84400115 	stw	r17,4(r16)
   238bc:	1889883a 	add	r4,r3,r2
   238c0:	11400054 	ori	r5,r2,1
   238c4:	98c00515 	stw	r3,20(r19)
   238c8:	98c00415 	stw	r3,16(r19)
   238cc:	20800015 	stw	r2,0(r4)
   238d0:	1a400315 	stw	r9,12(r3)
   238d4:	1a400215 	stw	r9,8(r3)
   238d8:	19400115 	stw	r5,4(r3)
   238dc:	9009883a 	mov	r4,r18
   238e0:	002cabc0 	call	2cabc <__malloc_unlock>
   238e4:	80800204 	addi	r2,r16,8
   238e8:	003f7b06 	br	236d8 <_malloc_r+0xb8>
   238ec:	8808d0fa 	srli	r4,r17,3
   238f0:	210b883a 	add	r5,r4,r4
   238f4:	003f9106 	br	2373c <_malloc_r+0x11c>
   238f8:	80c7883a 	add	r3,r16,r3
   238fc:	19400117 	ldw	r5,4(r3)
   23900:	80800317 	ldw	r2,12(r16)
   23904:	81000217 	ldw	r4,8(r16)
   23908:	29400054 	ori	r5,r5,1
   2390c:	19400115 	stw	r5,4(r3)
   23910:	20800315 	stw	r2,12(r4)
   23914:	11000215 	stw	r4,8(r2)
   23918:	9009883a 	mov	r4,r18
   2391c:	002cabc0 	call	2cabc <__malloc_unlock>
   23920:	80800204 	addi	r2,r16,8
   23924:	003f6c06 	br	236d8 <_malloc_r+0xb8>
   23928:	8085883a 	add	r2,r16,r2
   2392c:	10c00117 	ldw	r3,4(r2)
   23930:	9009883a 	mov	r4,r18
   23934:	18c00054 	ori	r3,r3,1
   23938:	10c00115 	stw	r3,4(r2)
   2393c:	002cabc0 	call	2cabc <__malloc_unlock>
   23940:	80800204 	addi	r2,r16,8
   23944:	003f6406 	br	236d8 <_malloc_r+0xb8>
   23948:	9c000217 	ldw	r16,8(r19)
   2394c:	00bfff04 	movi	r2,-4
   23950:	85400117 	ldw	r21,4(r16)
   23954:	a8aa703a 	and	r21,r21,r2
   23958:	ac400336 	bltu	r21,r17,23968 <_malloc_r+0x348>
   2395c:	ac45c83a 	sub	r2,r21,r17
   23960:	00c003c4 	movi	r3,15
   23964:	18805316 	blt	r3,r2,23ab4 <_malloc_r+0x494>
   23968:	d5e2e517 	ldw	r23,-29804(gp)
   2396c:	d0e00217 	ldw	r3,-32760(gp)
   23970:	00bfffc4 	movi	r2,-1
   23974:	8579883a 	add	fp,r16,r21
   23978:	8def883a 	add	r23,r17,r23
   2397c:	1880d226 	beq	r3,r2,23cc8 <_malloc_r+0x6a8>
   23980:	bdc403c4 	addi	r23,r23,4111
   23984:	00bc0004 	movi	r2,-4096
   23988:	b8ae703a 	and	r23,r23,r2
   2398c:	9009883a 	mov	r4,r18
   23990:	b80b883a 	mov	r5,r23
   23994:	00243a40 	call	243a4 <_sbrk_r>
   23998:	1029883a 	mov	r20,r2
   2399c:	00bfffc4 	movi	r2,-1
   239a0:	a080d126 	beq	r20,r2,23ce8 <_malloc_r+0x6c8>
   239a4:	a7009f36 	bltu	r20,fp,23c24 <_malloc_r+0x604>
   239a8:	058000f4 	movhi	r22,3
   239ac:	b5831704 	addi	r22,r22,3164
   239b0:	b0800017 	ldw	r2,0(r22)
   239b4:	b885883a 	add	r2,r23,r2
   239b8:	b0800015 	stw	r2,0(r22)
   239bc:	e500cf26 	beq	fp,r20,23cfc <_malloc_r+0x6dc>
   239c0:	d1200217 	ldw	r4,-32760(gp)
   239c4:	00ffffc4 	movi	r3,-1
   239c8:	20c0e026 	beq	r4,r3,23d4c <_malloc_r+0x72c>
   239cc:	a739c83a 	sub	fp,r20,fp
   239d0:	1705883a 	add	r2,r2,fp
   239d4:	b0800015 	stw	r2,0(r22)
   239d8:	a08001cc 	andi	r2,r20,7
   239dc:	1000a526 	beq	r2,zero,23c74 <_malloc_r+0x654>
   239e0:	a0a9c83a 	sub	r20,r20,r2
   239e4:	00c40204 	movi	r3,4104
   239e8:	a5000204 	addi	r20,r20,8
   239ec:	1885c83a 	sub	r2,r3,r2
   239f0:	a5c7883a 	add	r3,r20,r23
   239f4:	18c3ffcc 	andi	r3,r3,4095
   239f8:	10efc83a 	sub	r23,r2,r3
   239fc:	9009883a 	mov	r4,r18
   23a00:	b80b883a 	mov	r5,r23
   23a04:	00243a40 	call	243a4 <_sbrk_r>
   23a08:	00ffffc4 	movi	r3,-1
   23a0c:	10c0cc26 	beq	r2,r3,23d40 <_malloc_r+0x720>
   23a10:	1505c83a 	sub	r2,r2,r20
   23a14:	b887883a 	add	r3,r23,r2
   23a18:	18c00054 	ori	r3,r3,1
   23a1c:	b0800017 	ldw	r2,0(r22)
   23a20:	9d000215 	stw	r20,8(r19)
   23a24:	a0c00115 	stw	r3,4(r20)
   23a28:	b885883a 	add	r2,r23,r2
   23a2c:	b0800015 	stw	r2,0(r22)
   23a30:	84c00e26 	beq	r16,r19,23a6c <_malloc_r+0x44c>
   23a34:	00c003c4 	movi	r3,15
   23a38:	1d40902e 	bgeu	r3,r21,23c7c <_malloc_r+0x65c>
   23a3c:	ad7ffd04 	addi	r21,r21,-12
   23a40:	013ffe04 	movi	r4,-8
   23a44:	a908703a 	and	r4,r21,r4
   23a48:	810b883a 	add	r5,r16,r4
   23a4c:	01800144 	movi	r6,5
   23a50:	29800115 	stw	r6,4(r5)
   23a54:	29800215 	stw	r6,8(r5)
   23a58:	81400117 	ldw	r5,4(r16)
   23a5c:	2940004c 	andi	r5,r5,1
   23a60:	214ab03a 	or	r5,r4,r5
   23a64:	81400115 	stw	r5,4(r16)
   23a68:	1900ae36 	bltu	r3,r4,23d24 <_malloc_r+0x704>
   23a6c:	d0e2e417 	ldw	r3,-29808(gp)
   23a70:	1880012e 	bgeu	r3,r2,23a78 <_malloc_r+0x458>
   23a74:	d0a2e415 	stw	r2,-29808(gp)
   23a78:	d0e2e317 	ldw	r3,-29812(gp)
   23a7c:	9c000217 	ldw	r16,8(r19)
   23a80:	1880012e 	bgeu	r3,r2,23a88 <_malloc_r+0x468>
   23a84:	d0a2e315 	stw	r2,-29812(gp)
   23a88:	80c00117 	ldw	r3,4(r16)
   23a8c:	00bfff04 	movi	r2,-4
   23a90:	1886703a 	and	r3,r3,r2
   23a94:	1c45c83a 	sub	r2,r3,r17
   23a98:	1c400236 	bltu	r3,r17,23aa4 <_malloc_r+0x484>
   23a9c:	00c003c4 	movi	r3,15
   23aa0:	18800416 	blt	r3,r2,23ab4 <_malloc_r+0x494>
   23aa4:	9009883a 	mov	r4,r18
   23aa8:	002cabc0 	call	2cabc <__malloc_unlock>
   23aac:	0005883a 	mov	r2,zero
   23ab0:	003f0906 	br	236d8 <_malloc_r+0xb8>
   23ab4:	88c00054 	ori	r3,r17,1
   23ab8:	10800054 	ori	r2,r2,1
   23abc:	80c00115 	stw	r3,4(r16)
   23ac0:	8463883a 	add	r17,r16,r17
   23ac4:	88800115 	stw	r2,4(r17)
   23ac8:	9009883a 	mov	r4,r18
   23acc:	9c400215 	stw	r17,8(r19)
   23ad0:	002cabc0 	call	2cabc <__malloc_unlock>
   23ad4:	80800204 	addi	r2,r16,8
   23ad8:	003eff06 	br	236d8 <_malloc_r+0xb8>
   23adc:	00800504 	movi	r2,20
   23ae0:	1100492e 	bgeu	r2,r4,23c08 <_malloc_r+0x5e8>
   23ae4:	00801504 	movi	r2,84
   23ae8:	11005c36 	bltu	r2,r4,23c5c <_malloc_r+0x63c>
   23aec:	8808d33a 	srli	r4,r17,12
   23af0:	21001b84 	addi	r4,r4,110
   23af4:	210b883a 	add	r5,r4,r4
   23af8:	003f1006 	br	2373c <_malloc_r+0x11c>
   23afc:	1006d27a 	srli	r3,r2,9
   23b00:	01400104 	movi	r5,4
   23b04:	28c0432e 	bgeu	r5,r3,23c14 <_malloc_r+0x5f4>
   23b08:	01400504 	movi	r5,20
   23b0c:	28c07036 	bltu	r5,r3,23cd0 <_malloc_r+0x6b0>
   23b10:	194016c4 	addi	r5,r3,91
   23b14:	294d883a 	add	r6,r5,r5
   23b18:	318d883a 	add	r6,r6,r6
   23b1c:	318d883a 	add	r6,r6,r6
   23b20:	998d883a 	add	r6,r19,r6
   23b24:	30c00217 	ldw	r3,8(r6)
   23b28:	01c000f4 	movhi	r7,3
   23b2c:	39fea404 	addi	r7,r7,-1392
   23b30:	19805726 	beq	r3,r6,23c90 <_malloc_r+0x670>
   23b34:	01ffff04 	movi	r7,-4
   23b38:	19400117 	ldw	r5,4(r3)
   23b3c:	29ca703a 	and	r5,r5,r7
   23b40:	1140022e 	bgeu	r2,r5,23b4c <_malloc_r+0x52c>
   23b44:	18c00217 	ldw	r3,8(r3)
   23b48:	30fffb1e 	bne	r6,r3,23b38 <_malloc_r+0x518>
   23b4c:	19400317 	ldw	r5,12(r3)
   23b50:	98800117 	ldw	r2,4(r19)
   23b54:	81400315 	stw	r5,12(r16)
   23b58:	80c00215 	stw	r3,8(r16)
   23b5c:	2c000215 	stw	r16,8(r5)
   23b60:	1c000315 	stw	r16,12(r3)
   23b64:	003f2b06 	br	23814 <_malloc_r+0x1f4>
   23b68:	8445883a 	add	r2,r16,r17
   23b6c:	8c400054 	ori	r17,r17,1
   23b70:	18800515 	stw	r2,20(r3)
   23b74:	18800415 	stw	r2,16(r3)
   23b78:	29000054 	ori	r4,r5,1
   23b7c:	1147883a 	add	r3,r2,r5
   23b80:	84400115 	stw	r17,4(r16)
   23b84:	11000115 	stw	r4,4(r2)
   23b88:	12400315 	stw	r9,12(r2)
   23b8c:	12400215 	stw	r9,8(r2)
   23b90:	19400015 	stw	r5,0(r3)
   23b94:	9009883a 	mov	r4,r18
   23b98:	002cabc0 	call	2cabc <__malloc_unlock>
   23b9c:	80800204 	addi	r2,r16,8
   23ba0:	003ecd06 	br	236d8 <_malloc_r+0xb8>
   23ba4:	18800117 	ldw	r2,4(r3)
   23ba8:	003f1a06 	br	23814 <_malloc_r+0x1f4>
   23bac:	5ac00044 	addi	r11,r11,1
   23bb0:	588000cc 	andi	r2,r11,3
   23bb4:	52800204 	addi	r10,r10,8
   23bb8:	103f2e1e 	bne	r2,zero,23874 <_malloc_r+0x254>
   23bbc:	20c000cc 	andi	r3,r4,3
   23bc0:	60bffe04 	addi	r2,r12,-8
   23bc4:	18006f26 	beq	r3,zero,23d84 <_malloc_r+0x764>
   23bc8:	63000017 	ldw	r12,0(r12)
   23bcc:	213fffc4 	addi	r4,r4,-1
   23bd0:	60bffa26 	beq	r12,r2,23bbc <_malloc_r+0x59c>
   23bd4:	98800117 	ldw	r2,4(r19)
   23bd8:	294b883a 	add	r5,r5,r5
   23bdc:	117f5a36 	bltu	r2,r5,23948 <_malloc_r+0x328>
   23be0:	283f5926 	beq	r5,zero,23948 <_malloc_r+0x328>
   23be4:	1146703a 	and	r3,r2,r5
   23be8:	18001626 	beq	r3,zero,23c44 <_malloc_r+0x624>
   23bec:	5809883a 	mov	r4,r11
   23bf0:	003f1a06 	br	2385c <_malloc_r+0x23c>
   23bf4:	80800204 	addi	r2,r16,8
   23bf8:	84000517 	ldw	r16,20(r16)
   23bfc:	143ea81e 	bne	r2,r16,236a0 <_malloc_r+0x80>
   23c00:	21000084 	addi	r4,r4,2
   23c04:	003ee306 	br	23794 <_malloc_r+0x174>
   23c08:	210016c4 	addi	r4,r4,91
   23c0c:	210b883a 	add	r5,r4,r4
   23c10:	003eca06 	br	2373c <_malloc_r+0x11c>
   23c14:	100ad1ba 	srli	r5,r2,6
   23c18:	29400e04 	addi	r5,r5,56
   23c1c:	294d883a 	add	r6,r5,r5
   23c20:	003fbd06 	br	23b18 <_malloc_r+0x4f8>
   23c24:	84ff6026 	beq	r16,r19,239a8 <_malloc_r+0x388>
   23c28:	008000f4 	movhi	r2,3
   23c2c:	10bea404 	addi	r2,r2,-1392
   23c30:	14000217 	ldw	r16,8(r2)
   23c34:	00bfff04 	movi	r2,-4
   23c38:	80c00117 	ldw	r3,4(r16)
   23c3c:	1886703a 	and	r3,r3,r2
   23c40:	003f9406 	br	23a94 <_malloc_r+0x474>
   23c44:	294b883a 	add	r5,r5,r5
   23c48:	1146703a 	and	r3,r2,r5
   23c4c:	5ac00104 	addi	r11,r11,4
   23c50:	183ffc26 	beq	r3,zero,23c44 <_malloc_r+0x624>
   23c54:	5809883a 	mov	r4,r11
   23c58:	003f0006 	br	2385c <_malloc_r+0x23c>
   23c5c:	00805504 	movi	r2,340
   23c60:	11001336 	bltu	r2,r4,23cb0 <_malloc_r+0x690>
   23c64:	8808d3fa 	srli	r4,r17,15
   23c68:	21001dc4 	addi	r4,r4,119
   23c6c:	210b883a 	add	r5,r4,r4
   23c70:	003eb206 	br	2373c <_malloc_r+0x11c>
   23c74:	00840004 	movi	r2,4096
   23c78:	003f5d06 	br	239f0 <_malloc_r+0x3d0>
   23c7c:	00800044 	movi	r2,1
   23c80:	a0800115 	stw	r2,4(r20)
   23c84:	a021883a 	mov	r16,r20
   23c88:	0007883a 	mov	r3,zero
   23c8c:	003f8106 	br	23a94 <_malloc_r+0x474>
   23c90:	280bd0ba 	srai	r5,r5,2
   23c94:	01800044 	movi	r6,1
   23c98:	38800117 	ldw	r2,4(r7)
   23c9c:	314c983a 	sll	r6,r6,r5
   23ca0:	180b883a 	mov	r5,r3
   23ca4:	3084b03a 	or	r2,r6,r2
   23ca8:	38800115 	stw	r2,4(r7)
   23cac:	003fa906 	br	23b54 <_malloc_r+0x534>
   23cb0:	00815504 	movi	r2,1364
   23cb4:	11001836 	bltu	r2,r4,23d18 <_malloc_r+0x6f8>
   23cb8:	8808d4ba 	srli	r4,r17,18
   23cbc:	21001f04 	addi	r4,r4,124
   23cc0:	210b883a 	add	r5,r4,r4
   23cc4:	003e9d06 	br	2373c <_malloc_r+0x11c>
   23cc8:	bdc00404 	addi	r23,r23,16
   23ccc:	003f2f06 	br	2398c <_malloc_r+0x36c>
   23cd0:	01401504 	movi	r5,84
   23cd4:	28c01f36 	bltu	r5,r3,23d54 <_malloc_r+0x734>
   23cd8:	100ad33a 	srli	r5,r2,12
   23cdc:	29401b84 	addi	r5,r5,110
   23ce0:	294d883a 	add	r6,r5,r5
   23ce4:	003f8c06 	br	23b18 <_malloc_r+0x4f8>
   23ce8:	9c000217 	ldw	r16,8(r19)
   23cec:	00bfff04 	movi	r2,-4
   23cf0:	80c00117 	ldw	r3,4(r16)
   23cf4:	1886703a 	and	r3,r3,r2
   23cf8:	003f6606 	br	23a94 <_malloc_r+0x474>
   23cfc:	e0c3ffcc 	andi	r3,fp,4095
   23d00:	183f2f1e 	bne	r3,zero,239c0 <_malloc_r+0x3a0>
   23d04:	98c00217 	ldw	r3,8(r19)
   23d08:	bd49883a 	add	r4,r23,r21
   23d0c:	21000054 	ori	r4,r4,1
   23d10:	19000115 	stw	r4,4(r3)
   23d14:	003f5506 	br	23a6c <_malloc_r+0x44c>
   23d18:	01403f04 	movi	r5,252
   23d1c:	01001f84 	movi	r4,126
   23d20:	003e8606 	br	2373c <_malloc_r+0x11c>
   23d24:	9009883a 	mov	r4,r18
   23d28:	81400204 	addi	r5,r16,8
   23d2c:	0022a300 	call	22a30 <_free_r>
   23d30:	008000f4 	movhi	r2,3
   23d34:	10831704 	addi	r2,r2,3164
   23d38:	10800017 	ldw	r2,0(r2)
   23d3c:	003f4b06 	br	23a6c <_malloc_r+0x44c>
   23d40:	00c00044 	movi	r3,1
   23d44:	002f883a 	mov	r23,zero
   23d48:	003f3406 	br	23a1c <_malloc_r+0x3fc>
   23d4c:	d5200215 	stw	r20,-32760(gp)
   23d50:	003f2106 	br	239d8 <_malloc_r+0x3b8>
   23d54:	01405504 	movi	r5,340
   23d58:	28c00436 	bltu	r5,r3,23d6c <_malloc_r+0x74c>
   23d5c:	100ad3fa 	srli	r5,r2,15
   23d60:	29401dc4 	addi	r5,r5,119
   23d64:	294d883a 	add	r6,r5,r5
   23d68:	003f6b06 	br	23b18 <_malloc_r+0x4f8>
   23d6c:	01415504 	movi	r5,1364
   23d70:	28c00936 	bltu	r5,r3,23d98 <_malloc_r+0x778>
   23d74:	100ad4ba 	srli	r5,r2,18
   23d78:	29401f04 	addi	r5,r5,124
   23d7c:	294d883a 	add	r6,r5,r5
   23d80:	003f6506 	br	23b18 <_malloc_r+0x4f8>
   23d84:	98800117 	ldw	r2,4(r19)
   23d88:	0146303a 	nor	r3,zero,r5
   23d8c:	1884703a 	and	r2,r3,r2
   23d90:	98800115 	stw	r2,4(r19)
   23d94:	003f9006 	br	23bd8 <_malloc_r+0x5b8>
   23d98:	01803f04 	movi	r6,252
   23d9c:	01401f84 	movi	r5,126
   23da0:	003f5d06 	br	23b18 <_malloc_r+0x4f8>

00023da4 <memcpy>:
   23da4:	defffb04 	addi	sp,sp,-20
   23da8:	dc000015 	stw	r16,0(sp)
   23dac:	dfc00415 	stw	ra,16(sp)
   23db0:	dcc00315 	stw	r19,12(sp)
   23db4:	dc800215 	stw	r18,8(sp)
   23db8:	dc400115 	stw	r17,4(sp)
   23dbc:	00c003c4 	movi	r3,15
   23dc0:	2021883a 	mov	r16,r4
   23dc4:	3005883a 	mov	r2,r6
   23dc8:	1980032e 	bgeu	r3,r6,23dd8 <memcpy+0x34>
   23dcc:	2906b03a 	or	r3,r5,r4
   23dd0:	18c000cc 	andi	r3,r3,3
   23dd4:	18001026 	beq	r3,zero,23e18 <memcpy+0x74>
   23dd8:	8007883a 	mov	r3,r16
   23ddc:	288f883a 	add	r7,r5,r2
   23de0:	10000526 	beq	r2,zero,23df8 <memcpy+0x54>
   23de4:	29800003 	ldbu	r6,0(r5)
   23de8:	18c00044 	addi	r3,r3,1
   23dec:	29400044 	addi	r5,r5,1
   23df0:	19bfffc5 	stb	r6,-1(r3)
   23df4:	29fffb1e 	bne	r5,r7,23de4 <memcpy+0x40>
   23df8:	8005883a 	mov	r2,r16
   23dfc:	dfc00417 	ldw	ra,16(sp)
   23e00:	dcc00317 	ldw	r19,12(sp)
   23e04:	dc800217 	ldw	r18,8(sp)
   23e08:	dc400117 	ldw	r17,4(sp)
   23e0c:	dc000017 	ldw	r16,0(sp)
   23e10:	dec00504 	addi	sp,sp,20
   23e14:	f800283a 	ret
   23e18:	32bffc04 	addi	r10,r6,-16
   23e1c:	5014d13a 	srli	r10,r10,4
   23e20:	20800404 	addi	r2,r4,16
   23e24:	2007883a 	mov	r3,r4
   23e28:	5008913a 	slli	r4,r10,4
   23e2c:	280f883a 	mov	r7,r5
   23e30:	1105883a 	add	r2,r2,r4
   23e34:	3a000017 	ldw	r8,0(r7)
   23e38:	18c00404 	addi	r3,r3,16
   23e3c:	39c00404 	addi	r7,r7,16
   23e40:	1a3ffc15 	stw	r8,-16(r3)
   23e44:	3a3ffd17 	ldw	r8,-12(r7)
   23e48:	1a3ffd15 	stw	r8,-12(r3)
   23e4c:	3a3ffe17 	ldw	r8,-8(r7)
   23e50:	1a3ffe15 	stw	r8,-8(r3)
   23e54:	3a3fff17 	ldw	r8,-4(r7)
   23e58:	1a3fff15 	stw	r8,-4(r3)
   23e5c:	18bff51e 	bne	r3,r2,23e34 <memcpy+0x90>
   23e60:	52800044 	addi	r10,r10,1
   23e64:	5014913a 	slli	r10,r10,4
   23e68:	308003cc 	andi	r2,r6,15
   23e6c:	010000c4 	movi	r4,3
   23e70:	8287883a 	add	r3,r16,r10
   23e74:	2a95883a 	add	r10,r5,r10
   23e78:	2080182e 	bgeu	r4,r2,23edc <memcpy+0x138>
   23e7c:	147fff04 	addi	r17,r2,-4
   23e80:	8808d0ba 	srli	r4,r17,2
   23e84:	1a400104 	addi	r9,r3,4
   23e88:	180d883a 	mov	r6,r3
   23e8c:	2105883a 	add	r2,r4,r4
   23e90:	1085883a 	add	r2,r2,r2
   23e94:	4893883a 	add	r9,r9,r2
   23e98:	500f883a 	mov	r7,r10
   23e9c:	3a000017 	ldw	r8,0(r7)
   23ea0:	31800104 	addi	r6,r6,4
   23ea4:	39c00104 	addi	r7,r7,4
   23ea8:	323fff15 	stw	r8,-4(r6)
   23eac:	327ffb1e 	bne	r6,r9,23e9c <memcpy+0xf8>
   23eb0:	20800044 	addi	r2,r4,1
   23eb4:	1085883a 	add	r2,r2,r2
   23eb8:	1085883a 	add	r2,r2,r2
   23ebc:	017fff04 	movi	r5,-4
   23ec0:	18a5883a 	add	r18,r3,r2
   23ec4:	50a7883a 	add	r19,r10,r2
   23ec8:	0021dc80 	call	21dc8 <__mulsi3>
   23ecc:	1445883a 	add	r2,r2,r17
   23ed0:	980b883a 	mov	r5,r19
   23ed4:	9007883a 	mov	r3,r18
   23ed8:	003fc006 	br	23ddc <memcpy+0x38>
   23edc:	500b883a 	mov	r5,r10
   23ee0:	003fbe06 	br	23ddc <memcpy+0x38>

00023ee4 <memset>:
   23ee4:	00c000c4 	movi	r3,3
   23ee8:	2005883a 	mov	r2,r4
   23eec:	29403fcc 	andi	r5,r5,255
   23ef0:	19802d2e 	bgeu	r3,r6,23fa8 <memset+0xc4>
   23ef4:	20c6703a 	and	r3,r4,r3
   23ef8:	18002e1e 	bne	r3,zero,23fb4 <memset+0xd0>
   23efc:	2806923a 	slli	r3,r5,8
   23f00:	010003c4 	movi	r4,15
   23f04:	3011883a 	mov	r8,r6
   23f08:	1946b03a 	or	r3,r3,r5
   23f0c:	180e943a 	slli	r7,r3,16
   23f10:	38ceb03a 	or	r7,r7,r3
   23f14:	1007883a 	mov	r3,r2
   23f18:	21800f2e 	bgeu	r4,r6,23f58 <memset+0x74>
   23f1c:	19c00015 	stw	r7,0(r3)
   23f20:	19c00115 	stw	r7,4(r3)
   23f24:	19c00215 	stw	r7,8(r3)
   23f28:	19c00315 	stw	r7,12(r3)
   23f2c:	423ffc04 	addi	r8,r8,-16
   23f30:	18c00404 	addi	r3,r3,16
   23f34:	223ff936 	bltu	r4,r8,23f1c <memset+0x38>
   23f38:	30fffc04 	addi	r3,r6,-16
   23f3c:	1806d13a 	srli	r3,r3,4
   23f40:	318003cc 	andi	r6,r6,15
   23f44:	010000c4 	movi	r4,3
   23f48:	18c00044 	addi	r3,r3,1
   23f4c:	1806913a 	slli	r3,r3,4
   23f50:	10c7883a 	add	r3,r2,r3
   23f54:	21800e2e 	bgeu	r4,r6,23f90 <memset+0xac>
   23f58:	1813883a 	mov	r9,r3
   23f5c:	3011883a 	mov	r8,r6
   23f60:	010000c4 	movi	r4,3
   23f64:	49c00015 	stw	r7,0(r9)
   23f68:	423fff04 	addi	r8,r8,-4
   23f6c:	4a400104 	addi	r9,r9,4
   23f70:	223ffc36 	bltu	r4,r8,23f64 <memset+0x80>
   23f74:	313fff04 	addi	r4,r6,-4
   23f78:	2008d0ba 	srli	r4,r4,2
   23f7c:	318000cc 	andi	r6,r6,3
   23f80:	21000044 	addi	r4,r4,1
   23f84:	2109883a 	add	r4,r4,r4
   23f88:	2109883a 	add	r4,r4,r4
   23f8c:	1907883a 	add	r3,r3,r4
   23f90:	30000a26 	beq	r6,zero,23fbc <memset+0xd8>
   23f94:	198d883a 	add	r6,r3,r6
   23f98:	19400005 	stb	r5,0(r3)
   23f9c:	18c00044 	addi	r3,r3,1
   23fa0:	19bffd1e 	bne	r3,r6,23f98 <memset+0xb4>
   23fa4:	f800283a 	ret
   23fa8:	2007883a 	mov	r3,r4
   23fac:	303ff91e 	bne	r6,zero,23f94 <memset+0xb0>
   23fb0:	00000206 	br	23fbc <memset+0xd8>
   23fb4:	2007883a 	mov	r3,r4
   23fb8:	003ff606 	br	23f94 <memset+0xb0>
   23fbc:	f800283a 	ret

00023fc0 <_open_r>:
   23fc0:	defffd04 	addi	sp,sp,-12
   23fc4:	dc400115 	stw	r17,4(sp)
   23fc8:	dc000015 	stw	r16,0(sp)
   23fcc:	2023883a 	mov	r17,r4
   23fd0:	040000f4 	movhi	r16,3
   23fd4:	84030a04 	addi	r16,r16,3112
   23fd8:	2809883a 	mov	r4,r5
   23fdc:	300b883a 	mov	r5,r6
   23fe0:	380d883a 	mov	r6,r7
   23fe4:	dfc00215 	stw	ra,8(sp)
   23fe8:	80000015 	stw	zero,0(r16)
   23fec:	002cc1c0 	call	2cc1c <open>
   23ff0:	00ffffc4 	movi	r3,-1
   23ff4:	10c00526 	beq	r2,r3,2400c <_open_r+0x4c>
   23ff8:	dfc00217 	ldw	ra,8(sp)
   23ffc:	dc400117 	ldw	r17,4(sp)
   24000:	dc000017 	ldw	r16,0(sp)
   24004:	dec00304 	addi	sp,sp,12
   24008:	f800283a 	ret
   2400c:	80c00017 	ldw	r3,0(r16)
   24010:	183ff926 	beq	r3,zero,23ff8 <_open_r+0x38>
   24014:	88c00015 	stw	r3,0(r17)
   24018:	dfc00217 	ldw	ra,8(sp)
   2401c:	dc400117 	ldw	r17,4(sp)
   24020:	dc000017 	ldw	r16,0(sp)
   24024:	dec00304 	addi	sp,sp,12
   24028:	f800283a 	ret

0002402c <_printf_r>:
   2402c:	defffd04 	addi	sp,sp,-12
   24030:	dfc00015 	stw	ra,0(sp)
   24034:	d9800115 	stw	r6,4(sp)
   24038:	d9c00215 	stw	r7,8(sp)
   2403c:	280d883a 	mov	r6,r5
   24040:	21400217 	ldw	r5,8(r4)
   24044:	d9c00104 	addi	r7,sp,4
   24048:	00246080 	call	24608 <___vfprintf_internal_r>
   2404c:	dfc00017 	ldw	ra,0(sp)
   24050:	dec00304 	addi	sp,sp,12
   24054:	f800283a 	ret

00024058 <printf>:
   24058:	defffc04 	addi	sp,sp,-16
   2405c:	dfc00015 	stw	ra,0(sp)
   24060:	d9400115 	stw	r5,4(sp)
   24064:	d9800215 	stw	r6,8(sp)
   24068:	d9c00315 	stw	r7,12(sp)
   2406c:	008000f4 	movhi	r2,3
   24070:	10802904 	addi	r2,r2,164
   24074:	10800017 	ldw	r2,0(r2)
   24078:	200b883a 	mov	r5,r4
   2407c:	d9800104 	addi	r6,sp,4
   24080:	11000217 	ldw	r4,8(r2)
   24084:	00264840 	call	26484 <__vfprintf_internal>
   24088:	dfc00017 	ldw	ra,0(sp)
   2408c:	dec00404 	addi	sp,sp,16
   24090:	f800283a 	ret

00024094 <_putchar_r>:
   24094:	21800217 	ldw	r6,8(r4)
   24098:	00299401 	jmpi	29940 <_putc_r>

0002409c <putchar>:
   2409c:	008000f4 	movhi	r2,3
   240a0:	10802904 	addi	r2,r2,164
   240a4:	10800017 	ldw	r2,0(r2)
   240a8:	200b883a 	mov	r5,r4
   240ac:	11800217 	ldw	r6,8(r2)
   240b0:	1009883a 	mov	r4,r2
   240b4:	00299401 	jmpi	29940 <_putc_r>

000240b8 <_puts_r>:
   240b8:	defff604 	addi	sp,sp,-40
   240bc:	dc400815 	stw	r17,32(sp)
   240c0:	2023883a 	mov	r17,r4
   240c4:	2809883a 	mov	r4,r5
   240c8:	dc000715 	stw	r16,28(sp)
   240cc:	dfc00915 	stw	ra,36(sp)
   240d0:	2821883a 	mov	r16,r5
   240d4:	00245480 	call	24548 <strlen>
   240d8:	10c00044 	addi	r3,r2,1
   240dc:	d8800115 	stw	r2,4(sp)
   240e0:	89400217 	ldw	r5,8(r17)
   240e4:	008000f4 	movhi	r2,3
   240e8:	10bcc004 	addi	r2,r2,-3328
   240ec:	d8800215 	stw	r2,8(sp)
   240f0:	00800044 	movi	r2,1
   240f4:	d8800315 	stw	r2,12(sp)
   240f8:	8809883a 	mov	r4,r17
   240fc:	00800084 	movi	r2,2
   24100:	d9800404 	addi	r6,sp,16
   24104:	dc000015 	stw	r16,0(sp)
   24108:	d8c00615 	stw	r3,24(sp)
   2410c:	dec00415 	stw	sp,16(sp)
   24110:	d8800515 	stw	r2,20(sp)
   24114:	0027fdc0 	call	27fdc <__sfvwrite_r>
   24118:	1000061e 	bne	r2,zero,24134 <_puts_r+0x7c>
   2411c:	00800284 	movi	r2,10
   24120:	dfc00917 	ldw	ra,36(sp)
   24124:	dc400817 	ldw	r17,32(sp)
   24128:	dc000717 	ldw	r16,28(sp)
   2412c:	dec00a04 	addi	sp,sp,40
   24130:	f800283a 	ret
   24134:	00bfffc4 	movi	r2,-1
   24138:	003ff906 	br	24120 <_puts_r+0x68>

0002413c <puts>:
   2413c:	008000f4 	movhi	r2,3
   24140:	10802904 	addi	r2,r2,164
   24144:	200b883a 	mov	r5,r4
   24148:	11000017 	ldw	r4,0(r2)
   2414c:	00240b81 	jmpi	240b8 <_puts_r>

00024150 <lflush>:
   24150:	20c0030b 	ldhu	r3,12(r4)
   24154:	00800244 	movi	r2,9
   24158:	18c0024c 	andi	r3,r3,9
   2415c:	18800226 	beq	r3,r2,24168 <lflush+0x18>
   24160:	0005883a 	mov	r2,zero
   24164:	f800283a 	ret
   24168:	00222101 	jmpi	22210 <fflush>

0002416c <__srefill_r>:
   2416c:	defffd04 	addi	sp,sp,-12
   24170:	dc400115 	stw	r17,4(sp)
   24174:	dc000015 	stw	r16,0(sp)
   24178:	dfc00215 	stw	ra,8(sp)
   2417c:	2023883a 	mov	r17,r4
   24180:	2821883a 	mov	r16,r5
   24184:	20000226 	beq	r4,zero,24190 <__srefill_r+0x24>
   24188:	20800e17 	ldw	r2,56(r4)
   2418c:	10004426 	beq	r2,zero,242a0 <__srefill_r+0x134>
   24190:	8080030b 	ldhu	r2,12(r16)
   24194:	80000115 	stw	zero,4(r16)
   24198:	10c0080c 	andi	r3,r2,32
   2419c:	18ffffcc 	andi	r3,r3,65535
   241a0:	18e0001c 	xori	r3,r3,32768
   241a4:	18e00004 	addi	r3,r3,-32768
   241a8:	1800371e 	bne	r3,zero,24288 <__srefill_r+0x11c>
   241ac:	10c0010c 	andi	r3,r2,4
   241b0:	18ffffcc 	andi	r3,r3,65535
   241b4:	18e0001c 	xori	r3,r3,32768
   241b8:	18e00004 	addi	r3,r3,-32768
   241bc:	18002226 	beq	r3,zero,24248 <__srefill_r+0xdc>
   241c0:	81400c17 	ldw	r5,48(r16)
   241c4:	28000826 	beq	r5,zero,241e8 <__srefill_r+0x7c>
   241c8:	80801004 	addi	r2,r16,64
   241cc:	28800226 	beq	r5,r2,241d8 <__srefill_r+0x6c>
   241d0:	8809883a 	mov	r4,r17
   241d4:	0022a300 	call	22a30 <_free_r>
   241d8:	80800f17 	ldw	r2,60(r16)
   241dc:	80000c15 	stw	zero,48(r16)
   241e0:	80800115 	stw	r2,4(r16)
   241e4:	1000401e 	bne	r2,zero,242e8 <__srefill_r+0x17c>
   241e8:	80800417 	ldw	r2,16(r16)
   241ec:	10005026 	beq	r2,zero,24330 <__srefill_r+0x1c4>
   241f0:	8080030b 	ldhu	r2,12(r16)
   241f4:	108000cc 	andi	r2,r2,3
   241f8:	10002b1e 	bne	r2,zero,242a8 <__srefill_r+0x13c>
   241fc:	81800417 	ldw	r6,16(r16)
   24200:	80800817 	ldw	r2,32(r16)
   24204:	81400717 	ldw	r5,28(r16)
   24208:	81c00517 	ldw	r7,20(r16)
   2420c:	8809883a 	mov	r4,r17
   24210:	81800015 	stw	r6,0(r16)
   24214:	103ee83a 	callr	r2
   24218:	8100030b 	ldhu	r4,12(r16)
   2421c:	00f7ffc4 	movi	r3,-8193
   24220:	80800115 	stw	r2,4(r16)
   24224:	20c6703a 	and	r3,r4,r3
   24228:	80c0030d 	sth	r3,12(r16)
   2422c:	0080130e 	bge	zero,r2,2427c <__srefill_r+0x110>
   24230:	0005883a 	mov	r2,zero
   24234:	dfc00217 	ldw	ra,8(sp)
   24238:	dc400117 	ldw	r17,4(sp)
   2423c:	dc000017 	ldw	r16,0(sp)
   24240:	dec00304 	addi	sp,sp,12
   24244:	f800283a 	ret
   24248:	10c0040c 	andi	r3,r2,16
   2424c:	18ffffcc 	andi	r3,r3,65535
   24250:	18e0001c 	xori	r3,r3,32768
   24254:	18e00004 	addi	r3,r3,-32768
   24258:	18003926 	beq	r3,zero,24340 <__srefill_r+0x1d4>
   2425c:	10c0020c 	andi	r3,r2,8
   24260:	18ffffcc 	andi	r3,r3,65535
   24264:	18e0001c 	xori	r3,r3,32768
   24268:	18e00004 	addi	r3,r3,-32768
   2426c:	1800261e 	bne	r3,zero,24308 <__srefill_r+0x19c>
   24270:	10800114 	ori	r2,r2,4
   24274:	8080030d 	sth	r2,12(r16)
   24278:	003fdb06 	br	241e8 <__srefill_r+0x7c>
   2427c:	1000111e 	bne	r2,zero,242c4 <__srefill_r+0x158>
   24280:	18c00814 	ori	r3,r3,32
   24284:	80c0030d 	sth	r3,12(r16)
   24288:	00bfffc4 	movi	r2,-1
   2428c:	dfc00217 	ldw	ra,8(sp)
   24290:	dc400117 	ldw	r17,4(sp)
   24294:	dc000017 	ldw	r16,0(sp)
   24298:	dec00304 	addi	sp,sp,12
   2429c:	f800283a 	ret
   242a0:	00222e40 	call	222e4 <__sinit>
   242a4:	003fba06 	br	24190 <__srefill_r+0x24>
   242a8:	008000f4 	movhi	r2,3
   242ac:	10802804 	addi	r2,r2,160
   242b0:	11000017 	ldw	r4,0(r2)
   242b4:	014000b4 	movhi	r5,2
   242b8:	29505404 	addi	r5,r5,16720
   242bc:	00232000 	call	23200 <_fwalk>
   242c0:	003fce06 	br	241fc <__srefill_r+0x90>
   242c4:	18c01014 	ori	r3,r3,64
   242c8:	00bfffc4 	movi	r2,-1
   242cc:	80000115 	stw	zero,4(r16)
   242d0:	80c0030d 	sth	r3,12(r16)
   242d4:	dfc00217 	ldw	ra,8(sp)
   242d8:	dc400117 	ldw	r17,4(sp)
   242dc:	dc000017 	ldw	r16,0(sp)
   242e0:	dec00304 	addi	sp,sp,12
   242e4:	f800283a 	ret
   242e8:	80c00e17 	ldw	r3,56(r16)
   242ec:	0005883a 	mov	r2,zero
   242f0:	80c00015 	stw	r3,0(r16)
   242f4:	dfc00217 	ldw	ra,8(sp)
   242f8:	dc400117 	ldw	r17,4(sp)
   242fc:	dc000017 	ldw	r16,0(sp)
   24300:	dec00304 	addi	sp,sp,12
   24304:	f800283a 	ret
   24308:	8809883a 	mov	r4,r17
   2430c:	800b883a 	mov	r5,r16
   24310:	00220280 	call	22028 <_fflush_r>
   24314:	103fdc1e 	bne	r2,zero,24288 <__srefill_r+0x11c>
   24318:	8080030b 	ldhu	r2,12(r16)
   2431c:	00fffdc4 	movi	r3,-9
   24320:	80000215 	stw	zero,8(r16)
   24324:	1884703a 	and	r2,r3,r2
   24328:	80000615 	stw	zero,24(r16)
   2432c:	003fd006 	br	24270 <__srefill_r+0x104>
   24330:	8809883a 	mov	r4,r17
   24334:	800b883a 	mov	r5,r16
   24338:	00234500 	call	23450 <__smakebuf_r>
   2433c:	003fac06 	br	241f0 <__srefill_r+0x84>
   24340:	00c00244 	movi	r3,9
   24344:	10801014 	ori	r2,r2,64
   24348:	88c00015 	stw	r3,0(r17)
   2434c:	8080030d 	sth	r2,12(r16)
   24350:	00bfffc4 	movi	r2,-1
   24354:	003fb706 	br	24234 <__srefill_r+0xc8>

00024358 <_rewind_r>:
   24358:	defffe04 	addi	sp,sp,-8
   2435c:	000d883a 	mov	r6,zero
   24360:	000f883a 	mov	r7,zero
   24364:	dc000015 	stw	r16,0(sp)
   24368:	dfc00115 	stw	ra,4(sp)
   2436c:	2821883a 	mov	r16,r5
   24370:	0022d000 	call	22d00 <_fseek_r>
   24374:	8080030b 	ldhu	r2,12(r16)
   24378:	10bfe7cc 	andi	r2,r2,65439
   2437c:	8080030d 	sth	r2,12(r16)
   24380:	dfc00117 	ldw	ra,4(sp)
   24384:	dc000017 	ldw	r16,0(sp)
   24388:	dec00204 	addi	sp,sp,8
   2438c:	f800283a 	ret

00024390 <rewind>:
   24390:	008000f4 	movhi	r2,3
   24394:	10802904 	addi	r2,r2,164
   24398:	200b883a 	mov	r5,r4
   2439c:	11000017 	ldw	r4,0(r2)
   243a0:	00243581 	jmpi	24358 <_rewind_r>

000243a4 <_sbrk_r>:
   243a4:	defffd04 	addi	sp,sp,-12
   243a8:	dc400115 	stw	r17,4(sp)
   243ac:	dc000015 	stw	r16,0(sp)
   243b0:	2023883a 	mov	r17,r4
   243b4:	040000f4 	movhi	r16,3
   243b8:	84030a04 	addi	r16,r16,3112
   243bc:	2809883a 	mov	r4,r5
   243c0:	dfc00215 	stw	ra,8(sp)
   243c4:	80000015 	stw	zero,0(r16)
   243c8:	002cf380 	call	2cf38 <sbrk>
   243cc:	00ffffc4 	movi	r3,-1
   243d0:	10c00526 	beq	r2,r3,243e8 <_sbrk_r+0x44>
   243d4:	dfc00217 	ldw	ra,8(sp)
   243d8:	dc400117 	ldw	r17,4(sp)
   243dc:	dc000017 	ldw	r16,0(sp)
   243e0:	dec00304 	addi	sp,sp,12
   243e4:	f800283a 	ret
   243e8:	80c00017 	ldw	r3,0(r16)
   243ec:	183ff926 	beq	r3,zero,243d4 <_sbrk_r+0x30>
   243f0:	88c00015 	stw	r3,0(r17)
   243f4:	dfc00217 	ldw	ra,8(sp)
   243f8:	dc400117 	ldw	r17,4(sp)
   243fc:	dc000017 	ldw	r16,0(sp)
   24400:	dec00304 	addi	sp,sp,12
   24404:	f800283a 	ret

00024408 <__sread>:
   24408:	defffe04 	addi	sp,sp,-8
   2440c:	dc000015 	stw	r16,0(sp)
   24410:	2821883a 	mov	r16,r5
   24414:	2940038f 	ldh	r5,14(r5)
   24418:	dfc00115 	stw	ra,4(sp)
   2441c:	0029aec0 	call	29aec <_read_r>
   24420:	10000716 	blt	r2,zero,24440 <__sread+0x38>
   24424:	80c01417 	ldw	r3,80(r16)
   24428:	1887883a 	add	r3,r3,r2
   2442c:	80c01415 	stw	r3,80(r16)
   24430:	dfc00117 	ldw	ra,4(sp)
   24434:	dc000017 	ldw	r16,0(sp)
   24438:	dec00204 	addi	sp,sp,8
   2443c:	f800283a 	ret
   24440:	80c0030b 	ldhu	r3,12(r16)
   24444:	18fbffcc 	andi	r3,r3,61439
   24448:	80c0030d 	sth	r3,12(r16)
   2444c:	dfc00117 	ldw	ra,4(sp)
   24450:	dc000017 	ldw	r16,0(sp)
   24454:	dec00204 	addi	sp,sp,8
   24458:	f800283a 	ret

0002445c <__swrite>:
   2445c:	2880030b 	ldhu	r2,12(r5)
   24460:	defffb04 	addi	sp,sp,-20
   24464:	dcc00315 	stw	r19,12(sp)
   24468:	10c0400c 	andi	r3,r2,256
   2446c:	18ffffcc 	andi	r3,r3,65535
   24470:	18e0001c 	xori	r3,r3,32768
   24474:	dc800215 	stw	r18,8(sp)
   24478:	dc400115 	stw	r17,4(sp)
   2447c:	dc000015 	stw	r16,0(sp)
   24480:	dfc00415 	stw	ra,16(sp)
   24484:	18e00004 	addi	r3,r3,-32768
   24488:	2821883a 	mov	r16,r5
   2448c:	2027883a 	mov	r19,r4
   24490:	3025883a 	mov	r18,r6
   24494:	3823883a 	mov	r17,r7
   24498:	18000526 	beq	r3,zero,244b0 <__swrite+0x54>
   2449c:	2940038f 	ldh	r5,14(r5)
   244a0:	000d883a 	mov	r6,zero
   244a4:	01c00084 	movi	r7,2
   244a8:	00286000 	call	28600 <_lseek_r>
   244ac:	8080030b 	ldhu	r2,12(r16)
   244b0:	8140038f 	ldh	r5,14(r16)
   244b4:	10bbffcc 	andi	r2,r2,61439
   244b8:	9809883a 	mov	r4,r19
   244bc:	900d883a 	mov	r6,r18
   244c0:	880f883a 	mov	r7,r17
   244c4:	8080030d 	sth	r2,12(r16)
   244c8:	dfc00417 	ldw	ra,16(sp)
   244cc:	dcc00317 	ldw	r19,12(sp)
   244d0:	dc800217 	ldw	r18,8(sp)
   244d4:	dc400117 	ldw	r17,4(sp)
   244d8:	dc000017 	ldw	r16,0(sp)
   244dc:	dec00504 	addi	sp,sp,20
   244e0:	00264a81 	jmpi	264a8 <_write_r>

000244e4 <__sseek>:
   244e4:	defffe04 	addi	sp,sp,-8
   244e8:	dc000015 	stw	r16,0(sp)
   244ec:	2821883a 	mov	r16,r5
   244f0:	2940038f 	ldh	r5,14(r5)
   244f4:	dfc00115 	stw	ra,4(sp)
   244f8:	00286000 	call	28600 <_lseek_r>
   244fc:	00ffffc4 	movi	r3,-1
   24500:	10c00826 	beq	r2,r3,24524 <__sseek+0x40>
   24504:	80c0030b 	ldhu	r3,12(r16)
   24508:	80801415 	stw	r2,80(r16)
   2450c:	18c40014 	ori	r3,r3,4096
   24510:	80c0030d 	sth	r3,12(r16)
   24514:	dfc00117 	ldw	ra,4(sp)
   24518:	dc000017 	ldw	r16,0(sp)
   2451c:	dec00204 	addi	sp,sp,8
   24520:	f800283a 	ret
   24524:	80c0030b 	ldhu	r3,12(r16)
   24528:	18fbffcc 	andi	r3,r3,61439
   2452c:	80c0030d 	sth	r3,12(r16)
   24530:	dfc00117 	ldw	ra,4(sp)
   24534:	dc000017 	ldw	r16,0(sp)
   24538:	dec00204 	addi	sp,sp,8
   2453c:	f800283a 	ret

00024540 <__sclose>:
   24540:	2940038f 	ldh	r5,14(r5)
   24544:	00266881 	jmpi	26688 <_close_r>

00024548 <strlen>:
   24548:	208000cc 	andi	r2,r4,3
   2454c:	10001f1e 	bne	r2,zero,245cc <strlen+0x84>
   24550:	20800017 	ldw	r2,0(r4)
   24554:	01ffbff4 	movhi	r7,65279
   24558:	39ffbfc4 	addi	r7,r7,-257
   2455c:	01a02074 	movhi	r6,32897
   24560:	31a02004 	addi	r6,r6,-32640
   24564:	11c7883a 	add	r3,r2,r7
   24568:	0084303a 	nor	r2,zero,r2
   2456c:	1886703a 	and	r3,r3,r2
   24570:	1986703a 	and	r3,r3,r6
   24574:	2005883a 	mov	r2,r4
   24578:	1800101e 	bne	r3,zero,245bc <strlen+0x74>
   2457c:	10800104 	addi	r2,r2,4
   24580:	10c00017 	ldw	r3,0(r2)
   24584:	19cb883a 	add	r5,r3,r7
   24588:	00c6303a 	nor	r3,zero,r3
   2458c:	28c6703a 	and	r3,r5,r3
   24590:	1986703a 	and	r3,r3,r6
   24594:	1800091e 	bne	r3,zero,245bc <strlen+0x74>
   24598:	10800104 	addi	r2,r2,4
   2459c:	10c00017 	ldw	r3,0(r2)
   245a0:	19cb883a 	add	r5,r3,r7
   245a4:	00c6303a 	nor	r3,zero,r3
   245a8:	28c6703a 	and	r3,r5,r3
   245ac:	1986703a 	and	r3,r3,r6
   245b0:	183ff226 	beq	r3,zero,2457c <strlen+0x34>
   245b4:	00000106 	br	245bc <strlen+0x74>
   245b8:	10800044 	addi	r2,r2,1
   245bc:	10c00007 	ldb	r3,0(r2)
   245c0:	183ffd1e 	bne	r3,zero,245b8 <strlen+0x70>
   245c4:	1105c83a 	sub	r2,r2,r4
   245c8:	f800283a 	ret
   245cc:	2005883a 	mov	r2,r4
   245d0:	003ffa06 	br	245bc <strlen+0x74>

000245d4 <__sprint_r>:
   245d4:	30800217 	ldw	r2,8(r6)
   245d8:	defffe04 	addi	sp,sp,-8
   245dc:	dc000015 	stw	r16,0(sp)
   245e0:	dfc00115 	stw	ra,4(sp)
   245e4:	3021883a 	mov	r16,r6
   245e8:	10000226 	beq	r2,zero,245f4 <__sprint_r+0x20>
   245ec:	0027fdc0 	call	27fdc <__sfvwrite_r>
   245f0:	80000215 	stw	zero,8(r16)
   245f4:	80000115 	stw	zero,4(r16)
   245f8:	dfc00117 	ldw	ra,4(sp)
   245fc:	dc000017 	ldw	r16,0(sp)
   24600:	dec00204 	addi	sp,sp,8
   24604:	f800283a 	ret

00024608 <___vfprintf_internal_r>:
   24608:	defeb904 	addi	sp,sp,-1308
   2460c:	dc013d15 	stw	r16,1268(sp)
   24610:	d9013015 	stw	r4,1216(sp)
   24614:	dfc14615 	stw	ra,1304(sp)
   24618:	df014515 	stw	fp,1300(sp)
   2461c:	ddc14415 	stw	r23,1296(sp)
   24620:	dd814315 	stw	r22,1292(sp)
   24624:	dd414215 	stw	r21,1288(sp)
   24628:	dd014115 	stw	r20,1284(sp)
   2462c:	dcc14015 	stw	r19,1280(sp)
   24630:	dc813f15 	stw	r18,1276(sp)
   24634:	dc413e15 	stw	r17,1272(sp)
   24638:	d9412915 	stw	r5,1188(sp)
   2463c:	3021883a 	mov	r16,r6
   24640:	d9c12d15 	stw	r7,1204(sp)
   24644:	00285cc0 	call	285cc <_localeconv_r>
   24648:	10800017 	ldw	r2,0(r2)
   2464c:	d9013017 	ldw	r4,1216(sp)
   24650:	d8013315 	stw	zero,1228(sp)
   24654:	d8813715 	stw	r2,1244(sp)
   24658:	d8013415 	stw	zero,1232(sp)
   2465c:	20000226 	beq	r4,zero,24668 <___vfprintf_internal_r+0x60>
   24660:	20800e17 	ldw	r2,56(r4)
   24664:	10014b26 	beq	r2,zero,24b94 <___vfprintf_internal_r+0x58c>
   24668:	d8c12917 	ldw	r3,1188(sp)
   2466c:	1880030b 	ldhu	r2,12(r3)
   24670:	10c0020c 	andi	r3,r2,8
   24674:	18ffffcc 	andi	r3,r3,65535
   24678:	18e0001c 	xori	r3,r3,32768
   2467c:	18e00004 	addi	r3,r3,-32768
   24680:	1800ed26 	beq	r3,zero,24a38 <___vfprintf_internal_r+0x430>
   24684:	d9012917 	ldw	r4,1188(sp)
   24688:	20c00417 	ldw	r3,16(r4)
   2468c:	1800ea26 	beq	r3,zero,24a38 <___vfprintf_internal_r+0x430>
   24690:	1100068c 	andi	r4,r2,26
   24694:	00c00284 	movi	r3,10
   24698:	20c0f026 	beq	r4,r3,24a5c <___vfprintf_internal_r+0x454>
   2469c:	d9010dc4 	addi	r4,sp,1079
   246a0:	d8810e04 	addi	r2,sp,1080
   246a4:	dc413017 	ldw	r17,1216(sp)
   246a8:	d8c00404 	addi	r3,sp,16
   246ac:	d9012615 	stw	r4,1176(sp)
   246b0:	1109c83a 	sub	r4,r2,r4
   246b4:	d8812715 	stw	r2,1180(sp)
   246b8:	d8c11b15 	stw	r3,1132(sp)
   246bc:	d8011d15 	stw	zero,1140(sp)
   246c0:	d8011c15 	stw	zero,1136(sp)
   246c4:	802b883a 	mov	r21,r16
   246c8:	d8013215 	stw	zero,1224(sp)
   246cc:	d8013615 	stw	zero,1240(sp)
   246d0:	d8013515 	stw	zero,1236(sp)
   246d4:	d8012c15 	stw	zero,1200(sp)
   246d8:	1813883a 	mov	r9,r3
   246dc:	d9013915 	stw	r4,1252(sp)
   246e0:	a8800007 	ldb	r2,0(r21)
   246e4:	1002f326 	beq	r2,zero,252b4 <___vfprintf_internal_r+0xcac>
   246e8:	00c00944 	movi	r3,37
   246ec:	a825883a 	mov	r18,r21
   246f0:	10c0021e 	bne	r2,r3,246fc <___vfprintf_internal_r+0xf4>
   246f4:	00001406 	br	24748 <___vfprintf_internal_r+0x140>
   246f8:	10c00326 	beq	r2,r3,24708 <___vfprintf_internal_r+0x100>
   246fc:	94800044 	addi	r18,r18,1
   24700:	90800007 	ldb	r2,0(r18)
   24704:	103ffc1e 	bne	r2,zero,246f8 <___vfprintf_internal_r+0xf0>
   24708:	9561c83a 	sub	r16,r18,r21
   2470c:	80000e26 	beq	r16,zero,24748 <___vfprintf_internal_r+0x140>
   24710:	da011d17 	ldw	r8,1140(sp)
   24714:	d8c11c17 	ldw	r3,1136(sp)
   24718:	4d400015 	stw	r21,0(r9)
   2471c:	4c000115 	stw	r16,4(r9)
   24720:	4411883a 	add	r8,r8,r16
   24724:	18c00044 	addi	r3,r3,1
   24728:	da011d15 	stw	r8,1140(sp)
   2472c:	d8c11c15 	stw	r3,1136(sp)
   24730:	008001c4 	movi	r2,7
   24734:	10c11016 	blt	r2,r3,24b78 <___vfprintf_internal_r+0x570>
   24738:	4a400204 	addi	r9,r9,8
   2473c:	d8812c17 	ldw	r2,1200(sp)
   24740:	1405883a 	add	r2,r2,r16
   24744:	d8812c15 	stw	r2,1200(sp)
   24748:	90800007 	ldb	r2,0(r18)
   2474c:	1000ee26 	beq	r2,zero,24b08 <___vfprintf_internal_r+0x500>
   24750:	95400044 	addi	r21,r18,1
   24754:	94800047 	ldb	r18,1(r18)
   24758:	073fffc4 	movi	fp,-1
   2475c:	e007883a 	mov	r3,fp
   24760:	d8012585 	stb	zero,1174(sp)
   24764:	d8012e15 	stw	zero,1208(sp)
   24768:	0021883a 	mov	r16,zero
   2476c:	05001604 	movi	r20,88
   24770:	04c00244 	movi	r19,9
   24774:	4839883a 	mov	fp,r9
   24778:	ad400044 	addi	r21,r21,1
   2477c:	90bff804 	addi	r2,r18,-32
   24780:	a080462e 	bgeu	r20,r2,2489c <___vfprintf_internal_r+0x294>
   24784:	e013883a 	mov	r9,fp
   24788:	9000df26 	beq	r18,zero,24b08 <___vfprintf_internal_r+0x500>
   2478c:	00c00044 	movi	r3,1
   24790:	d8c12815 	stw	r3,1184(sp)
   24794:	dc810405 	stb	r18,1040(sp)
   24798:	d8012585 	stb	zero,1174(sp)
   2479c:	d8c12b15 	stw	r3,1196(sp)
   247a0:	dcc10404 	addi	r19,sp,1040
   247a4:	d8013115 	stw	zero,1220(sp)
   247a8:	80c0008c 	andi	r3,r16,2
   247ac:	d8c12a15 	stw	r3,1192(sp)
   247b0:	18000326 	beq	r3,zero,247c0 <___vfprintf_internal_r+0x1b8>
   247b4:	d8c12817 	ldw	r3,1184(sp)
   247b8:	18c00084 	addi	r3,r3,2
   247bc:	d8c12815 	stw	r3,1184(sp)
   247c0:	80c0210c 	andi	r3,r16,132
   247c4:	d8c12f15 	stw	r3,1212(sp)
   247c8:	1802251e 	bne	r3,zero,25060 <___vfprintf_internal_r+0xa58>
   247cc:	d9012e17 	ldw	r4,1208(sp)
   247d0:	d8c12817 	ldw	r3,1184(sp)
   247d4:	20edc83a 	sub	r22,r4,r3
   247d8:	0582210e 	bge	zero,r22,25060 <___vfprintf_internal_r+0xa58>
   247dc:	02800404 	movi	r10,16
   247e0:	da011d17 	ldw	r8,1140(sp)
   247e4:	d8c11c17 	ldw	r3,1136(sp)
   247e8:	05c000f4 	movhi	r23,3
   247ec:	bdfcd184 	addi	r23,r23,-3258
   247f0:	5580200e 	bge	r10,r22,24874 <___vfprintf_internal_r+0x26c>
   247f4:	dc813815 	stw	r18,1248(sp)
   247f8:	5039883a 	mov	fp,r10
   247fc:	b825883a 	mov	r18,r23
   24800:	050001c4 	movi	r20,7
   24804:	b02f883a 	mov	r23,r22
   24808:	802d883a 	mov	r22,r16
   2480c:	dc012917 	ldw	r16,1188(sp)
   24810:	00000306 	br	24820 <___vfprintf_internal_r+0x218>
   24814:	bdfffc04 	addi	r23,r23,-16
   24818:	4a400204 	addi	r9,r9,8
   2481c:	e5c0110e 	bge	fp,r23,24864 <___vfprintf_internal_r+0x25c>
   24820:	4c800015 	stw	r18,0(r9)
   24824:	4f000115 	stw	fp,4(r9)
   24828:	42000404 	addi	r8,r8,16
   2482c:	18c00044 	addi	r3,r3,1
   24830:	da011d15 	stw	r8,1140(sp)
   24834:	d8c11c15 	stw	r3,1136(sp)
   24838:	a0fff60e 	bge	r20,r3,24814 <___vfprintf_internal_r+0x20c>
   2483c:	8809883a 	mov	r4,r17
   24840:	800b883a 	mov	r5,r16
   24844:	d9811b04 	addi	r6,sp,1132
   24848:	00245d40 	call	245d4 <__sprint_r>
   2484c:	1000b41e 	bne	r2,zero,24b20 <___vfprintf_internal_r+0x518>
   24850:	bdfffc04 	addi	r23,r23,-16
   24854:	da011d17 	ldw	r8,1140(sp)
   24858:	d8c11c17 	ldw	r3,1136(sp)
   2485c:	da400404 	addi	r9,sp,16
   24860:	e5ffef16 	blt	fp,r23,24820 <___vfprintf_internal_r+0x218>
   24864:	b021883a 	mov	r16,r22
   24868:	b82d883a 	mov	r22,r23
   2486c:	902f883a 	mov	r23,r18
   24870:	dc813817 	ldw	r18,1248(sp)
   24874:	4dc00015 	stw	r23,0(r9)
   24878:	4d800115 	stw	r22,4(r9)
   2487c:	4591883a 	add	r8,r8,r22
   24880:	18c00044 	addi	r3,r3,1
   24884:	da011d15 	stw	r8,1140(sp)
   24888:	d8c11c15 	stw	r3,1136(sp)
   2488c:	008001c4 	movi	r2,7
   24890:	10c3fe16 	blt	r2,r3,2588c <___vfprintf_internal_r+0x1284>
   24894:	4a400204 	addi	r9,r9,8
   24898:	0001f306 	br	25068 <___vfprintf_internal_r+0xa60>
   2489c:	1085883a 	add	r2,r2,r2
   248a0:	1085883a 	add	r2,r2,r2
   248a4:	010000b4 	movhi	r4,2
   248a8:	21122e04 	addi	r4,r4,18616
   248ac:	1105883a 	add	r2,r2,r4
   248b0:	10800017 	ldw	r2,0(r2)
   248b4:	1000683a 	jmp	r2
   248b8:	00024f94 	movui	zero,2366
   248bc:	00024784 	movi	zero,2334
   248c0:	00024784 	movi	zero,2334
   248c4:	00024fac 	andhi	zero,zero,2366
   248c8:	00024784 	movi	zero,2334
   248cc:	00024784 	movi	zero,2334
   248d0:	00024784 	movi	zero,2334
   248d4:	00024784 	movi	zero,2334
   248d8:	00024784 	movi	zero,2334
   248dc:	00024784 	movi	zero,2334
   248e0:	00024e64 	muli	zero,zero,2361
   248e4:	00024ff8 	rdprs	zero,zero,2367
   248e8:	00024784 	movi	zero,2334
   248ec:	00024a2c 	andhi	zero,zero,2344
   248f0:	00024dcc 	andi	zero,zero,2359
   248f4:	00024784 	movi	zero,2334
   248f8:	00024fb8 	rdprs	zero,zero,2366
   248fc:	00024fc4 	movi	zero,2367
   24900:	00024fc4 	movi	zero,2367
   24904:	00024fc4 	movi	zero,2367
   24908:	00024fc4 	movi	zero,2367
   2490c:	00024fc4 	movi	zero,2367
   24910:	00024fc4 	movi	zero,2367
   24914:	00024fc4 	movi	zero,2367
   24918:	00024fc4 	movi	zero,2367
   2491c:	00024fc4 	movi	zero,2367
   24920:	00024784 	movi	zero,2334
   24924:	00024784 	movi	zero,2334
   24928:	00024784 	movi	zero,2334
   2492c:	00024784 	movi	zero,2334
   24930:	00024784 	movi	zero,2334
   24934:	00024784 	movi	zero,2334
   24938:	00024784 	movi	zero,2334
   2493c:	00024784 	movi	zero,2334
   24940:	00024784 	movi	zero,2334
   24944:	00024784 	movi	zero,2334
   24948:	00024b9c 	xori	zero,zero,2350
   2494c:	00024c5c 	xori	zero,zero,2353
   24950:	00024784 	movi	zero,2334
   24954:	00024c5c 	xori	zero,zero,2353
   24958:	00024784 	movi	zero,2334
   2495c:	00024784 	movi	zero,2334
   24960:	00024784 	movi	zero,2334
   24964:	00024784 	movi	zero,2334
   24968:	00024cf0 	cmpltui	zero,zero,2355
   2496c:	00024784 	movi	zero,2334
   24970:	00024784 	movi	zero,2334
   24974:	00024cfc 	xorhi	zero,zero,2355
   24978:	00024784 	movi	zero,2334
   2497c:	00024784 	movi	zero,2334
   24980:	00024784 	movi	zero,2334
   24984:	00024784 	movi	zero,2334
   24988:	00024784 	movi	zero,2334
   2498c:	00024d34 	movhi	zero,2356
   24990:	00024784 	movi	zero,2334
   24994:	00024784 	movi	zero,2334
   24998:	00024d70 	cmpltui	zero,zero,2357
   2499c:	00024784 	movi	zero,2334
   249a0:	00024784 	movi	zero,2334
   249a4:	00024784 	movi	zero,2334
   249a8:	00024784 	movi	zero,2334
   249ac:	00024784 	movi	zero,2334
   249b0:	00024784 	movi	zero,2334
   249b4:	00024784 	movi	zero,2334
   249b8:	00024784 	movi	zero,2334
   249bc:	00024784 	movi	zero,2334
   249c0:	00024784 	movi	zero,2334
   249c4:	00025008 	cmpgei	zero,zero,2368
   249c8:	0002503c 	xorhi	zero,zero,2368
   249cc:	00024c5c 	xori	zero,zero,2353
   249d0:	00024c5c 	xori	zero,zero,2353
   249d4:	00024c5c 	xori	zero,zero,2353
   249d8:	00024f88 	cmpgei	zero,zero,2366
   249dc:	0002503c 	xorhi	zero,zero,2368
   249e0:	00024784 	movi	zero,2334
   249e4:	00024784 	movi	zero,2334
   249e8:	00024e14 	movui	zero,2360
   249ec:	00024784 	movi	zero,2334
   249f0:	00024e2c 	andhi	zero,zero,2360
   249f4:	00025048 	cmpgei	zero,zero,2369
   249f8:	00024e8c 	andi	zero,zero,2362
   249fc:	00024edc 	xori	zero,zero,2363
   24a00:	00024784 	movi	zero,2334
   24a04:	00024ee8 	cmpgeui	zero,zero,2363
   24a08:	00024784 	movi	zero,2334
   24a0c:	00025054 	movui	zero,2369
   24a10:	00024784 	movi	zero,2334
   24a14:	00024784 	movi	zero,2334
   24a18:	00024f4c 	andi	zero,zero,2365
   24a1c:	d9012e17 	ldw	r4,1208(sp)
   24a20:	d8812d15 	stw	r2,1204(sp)
   24a24:	0109c83a 	sub	r4,zero,r4
   24a28:	d9012e15 	stw	r4,1208(sp)
   24a2c:	84000114 	ori	r16,r16,4
   24a30:	ac800007 	ldb	r18,0(r21)
   24a34:	003f5006 	br	24778 <___vfprintf_internal_r+0x170>
   24a38:	d9013017 	ldw	r4,1216(sp)
   24a3c:	d9412917 	ldw	r5,1188(sp)
   24a40:	00265140 	call	26514 <__swsetup_r>
   24a44:	10003d1e 	bne	r2,zero,24b3c <___vfprintf_internal_r+0x534>
   24a48:	d8c12917 	ldw	r3,1188(sp)
   24a4c:	1880030b 	ldhu	r2,12(r3)
   24a50:	00c00284 	movi	r3,10
   24a54:	1100068c 	andi	r4,r2,26
   24a58:	20ff101e 	bne	r4,r3,2469c <___vfprintf_internal_r+0x94>
   24a5c:	d9012917 	ldw	r4,1188(sp)
   24a60:	20c0038b 	ldhu	r3,14(r4)
   24a64:	193fffcc 	andi	r4,r3,65535
   24a68:	2120001c 	xori	r4,r4,32768
   24a6c:	21200004 	addi	r4,r4,-32768
   24a70:	203f0a16 	blt	r4,zero,2469c <___vfprintf_internal_r+0x94>
   24a74:	d9012917 	ldw	r4,1188(sp)
   24a78:	d9c12d17 	ldw	r7,1204(sp)
   24a7c:	10bfff4c 	andi	r2,r2,65533
   24a80:	22800717 	ldw	r10,28(r4)
   24a84:	22400917 	ldw	r9,36(r4)
   24a88:	d9013017 	ldw	r4,1216(sp)
   24a8c:	02010004 	movi	r8,1024
   24a90:	d881070d 	sth	r2,1052(sp)
   24a94:	d9410404 	addi	r5,sp,1040
   24a98:	d8800404 	addi	r2,sp,16
   24a9c:	800d883a 	mov	r6,r16
   24aa0:	d8c1078d 	sth	r3,1054(sp)
   24aa4:	da810b15 	stw	r10,1068(sp)
   24aa8:	da410d15 	stw	r9,1076(sp)
   24aac:	d8810415 	stw	r2,1040(sp)
   24ab0:	d8810815 	stw	r2,1056(sp)
   24ab4:	da010615 	stw	r8,1048(sp)
   24ab8:	da010915 	stw	r8,1060(sp)
   24abc:	d8010a15 	stw	zero,1064(sp)
   24ac0:	00246080 	call	24608 <___vfprintf_internal_r>
   24ac4:	d8812c15 	stw	r2,1200(sp)
   24ac8:	10000416 	blt	r2,zero,24adc <___vfprintf_internal_r+0x4d4>
   24acc:	d9013017 	ldw	r4,1216(sp)
   24ad0:	d9410404 	addi	r5,sp,1040
   24ad4:	00220280 	call	22028 <_fflush_r>
   24ad8:	1006501e 	bne	r2,zero,2641c <___vfprintf_internal_r+0x1e14>
   24adc:	d881070b 	ldhu	r2,1052(sp)
   24ae0:	1080100c 	andi	r2,r2,64
   24ae4:	10bfffcc 	andi	r2,r2,65535
   24ae8:	10a0001c 	xori	r2,r2,32768
   24aec:	10a00004 	addi	r2,r2,-32768
   24af0:	10001426 	beq	r2,zero,24b44 <___vfprintf_internal_r+0x53c>
   24af4:	d8c12917 	ldw	r3,1188(sp)
   24af8:	1880030b 	ldhu	r2,12(r3)
   24afc:	10801014 	ori	r2,r2,64
   24b00:	1880030d 	sth	r2,12(r3)
   24b04:	00000f06 	br	24b44 <___vfprintf_internal_r+0x53c>
   24b08:	d8811d17 	ldw	r2,1140(sp)
   24b0c:	10000426 	beq	r2,zero,24b20 <___vfprintf_internal_r+0x518>
   24b10:	d9013017 	ldw	r4,1216(sp)
   24b14:	d9412917 	ldw	r5,1188(sp)
   24b18:	d9811b04 	addi	r6,sp,1132
   24b1c:	00245d40 	call	245d4 <__sprint_r>
   24b20:	d8c12917 	ldw	r3,1188(sp)
   24b24:	1880030b 	ldhu	r2,12(r3)
   24b28:	1080100c 	andi	r2,r2,64
   24b2c:	10bfffcc 	andi	r2,r2,65535
   24b30:	10a0001c 	xori	r2,r2,32768
   24b34:	10a00004 	addi	r2,r2,-32768
   24b38:	10000226 	beq	r2,zero,24b44 <___vfprintf_internal_r+0x53c>
   24b3c:	00bfffc4 	movi	r2,-1
   24b40:	d8812c15 	stw	r2,1200(sp)
   24b44:	d8812c17 	ldw	r2,1200(sp)
   24b48:	dfc14617 	ldw	ra,1304(sp)
   24b4c:	df014517 	ldw	fp,1300(sp)
   24b50:	ddc14417 	ldw	r23,1296(sp)
   24b54:	dd814317 	ldw	r22,1292(sp)
   24b58:	dd414217 	ldw	r21,1288(sp)
   24b5c:	dd014117 	ldw	r20,1284(sp)
   24b60:	dcc14017 	ldw	r19,1280(sp)
   24b64:	dc813f17 	ldw	r18,1276(sp)
   24b68:	dc413e17 	ldw	r17,1272(sp)
   24b6c:	dc013d17 	ldw	r16,1268(sp)
   24b70:	dec14704 	addi	sp,sp,1308
   24b74:	f800283a 	ret
   24b78:	d9412917 	ldw	r5,1188(sp)
   24b7c:	8809883a 	mov	r4,r17
   24b80:	d9811b04 	addi	r6,sp,1132
   24b84:	00245d40 	call	245d4 <__sprint_r>
   24b88:	103fe51e 	bne	r2,zero,24b20 <___vfprintf_internal_r+0x518>
   24b8c:	da400404 	addi	r9,sp,16
   24b90:	003eea06 	br	2473c <___vfprintf_internal_r+0x134>
   24b94:	00222e40 	call	222e4 <__sinit>
   24b98:	003eb306 	br	24668 <___vfprintf_internal_r+0x60>
   24b9c:	e013883a 	mov	r9,fp
   24ba0:	84000414 	ori	r16,r16,16
   24ba4:	1839883a 	mov	fp,r3
   24ba8:	8080080c 	andi	r2,r16,32
   24bac:	10034426 	beq	r2,zero,258c0 <___vfprintf_internal_r+0x12b8>
   24bb0:	d8c12d17 	ldw	r3,1204(sp)
   24bb4:	18800117 	ldw	r2,4(r3)
   24bb8:	1dc00017 	ldw	r23,0(r3)
   24bbc:	18c00204 	addi	r3,r3,8
   24bc0:	d8c12d15 	stw	r3,1204(sp)
   24bc4:	102d883a 	mov	r22,r2
   24bc8:	1003020e 	bge	r2,zero,257d4 <___vfprintf_internal_r+0x11cc>
   24bcc:	05efc83a 	sub	r23,zero,r23
   24bd0:	b804c03a 	cmpne	r2,r23,zero
   24bd4:	05adc83a 	sub	r22,zero,r22
   24bd8:	b0adc83a 	sub	r22,r22,r2
   24bdc:	00800b44 	movi	r2,45
   24be0:	d8812585 	stb	r2,1174(sp)
   24be4:	00c00044 	movi	r3,1
   24be8:	bd84b03a 	or	r2,r23,r22
   24bec:	e0000216 	blt	fp,zero,24bf8 <___vfprintf_internal_r+0x5f0>
   24bf0:	013fdfc4 	movi	r4,-129
   24bf4:	8120703a 	and	r16,r16,r4
   24bf8:	1001cc1e 	bne	r2,zero,2532c <___vfprintf_internal_r+0xd24>
   24bfc:	e001cb1e 	bne	fp,zero,2532c <___vfprintf_internal_r+0xd24>
   24c00:	18c03fcc 	andi	r3,r3,255
   24c04:	1802ca1e 	bne	r3,zero,25730 <___vfprintf_internal_r+0x1128>
   24c08:	8080004c 	andi	r2,r16,1
   24c0c:	1002c826 	beq	r2,zero,25730 <___vfprintf_internal_r+0x1128>
   24c10:	d8c13917 	ldw	r3,1252(sp)
   24c14:	00800c04 	movi	r2,48
   24c18:	d8810dc5 	stb	r2,1079(sp)
   24c1c:	d8c12b15 	stw	r3,1196(sp)
   24c20:	dcc10dc4 	addi	r19,sp,1079
   24c24:	d8812b17 	ldw	r2,1196(sp)
   24c28:	d8812815 	stw	r2,1184(sp)
   24c2c:	1700010e 	bge	r2,fp,24c34 <___vfprintf_internal_r+0x62c>
   24c30:	df012815 	stw	fp,1184(sp)
   24c34:	d8812583 	ldbu	r2,1174(sp)
   24c38:	df013115 	stw	fp,1220(sp)
   24c3c:	10803fcc 	andi	r2,r2,255
   24c40:	1080201c 	xori	r2,r2,128
   24c44:	10bfe004 	addi	r2,r2,-128
   24c48:	103ed726 	beq	r2,zero,247a8 <___vfprintf_internal_r+0x1a0>
   24c4c:	d8c12817 	ldw	r3,1184(sp)
   24c50:	18c00044 	addi	r3,r3,1
   24c54:	d8c12815 	stw	r3,1184(sp)
   24c58:	003ed306 	br	247a8 <___vfprintf_internal_r+0x1a0>
   24c5c:	8080020c 	andi	r2,r16,8
   24c60:	e013883a 	mov	r9,fp
   24c64:	1839883a 	mov	fp,r3
   24c68:	1003a626 	beq	r2,zero,25b04 <___vfprintf_internal_r+0x14fc>
   24c6c:	d9012d17 	ldw	r4,1204(sp)
   24c70:	25800017 	ldw	r22,0(r4)
   24c74:	25000117 	ldw	r20,4(r4)
   24c78:	21000204 	addi	r4,r4,8
   24c7c:	d9012d15 	stw	r4,1204(sp)
   24c80:	dd813315 	stw	r22,1228(sp)
   24c84:	dd013415 	stw	r20,1232(sp)
   24c88:	b009883a 	mov	r4,r22
   24c8c:	a00b883a 	mov	r5,r20
   24c90:	da413c15 	stw	r9,1264(sp)
   24c94:	002a1540 	call	2a154 <__isinfd>
   24c98:	da413c17 	ldw	r9,1264(sp)
   24c9c:	b009883a 	mov	r4,r22
   24ca0:	a00b883a 	mov	r5,r20
   24ca4:	10041d26 	beq	r2,zero,25d1c <___vfprintf_internal_r+0x1714>
   24ca8:	000d883a 	mov	r6,zero
   24cac:	000f883a 	mov	r7,zero
   24cb0:	002ba4c0 	call	2ba4c <__ltdf2>
   24cb4:	da413c17 	ldw	r9,1264(sp)
   24cb8:	1004da16 	blt	r2,zero,26024 <___vfprintf_internal_r+0x1a1c>
   24cbc:	d8812583 	ldbu	r2,1174(sp)
   24cc0:	00c011c4 	movi	r3,71
   24cc4:	1c83d116 	blt	r3,r18,25c0c <___vfprintf_internal_r+0x1604>
   24cc8:	04c000f4 	movhi	r19,3
   24ccc:	9cfcc104 	addi	r19,r19,-3324
   24cd0:	00c000c4 	movi	r3,3
   24cd4:	d8c12815 	stw	r3,1184(sp)
   24cd8:	00ffdfc4 	movi	r3,-129
   24cdc:	80e0703a 	and	r16,r16,r3
   24ce0:	d8c12817 	ldw	r3,1184(sp)
   24ce4:	d8013115 	stw	zero,1220(sp)
   24ce8:	d8c12b15 	stw	r3,1196(sp)
   24cec:	003fd306 	br	24c3c <___vfprintf_internal_r+0x634>
   24cf0:	84000214 	ori	r16,r16,8
   24cf4:	ac800007 	ldb	r18,0(r21)
   24cf8:	003e9f06 	br	24778 <___vfprintf_internal_r+0x170>
   24cfc:	e013883a 	mov	r9,fp
   24d00:	84000414 	ori	r16,r16,16
   24d04:	1839883a 	mov	fp,r3
   24d08:	8080080c 	andi	r2,r16,32
   24d0c:	10031d26 	beq	r2,zero,25984 <___vfprintf_internal_r+0x137c>
   24d10:	d8812d17 	ldw	r2,1204(sp)
   24d14:	0007883a 	mov	r3,zero
   24d18:	15c00017 	ldw	r23,0(r2)
   24d1c:	15800117 	ldw	r22,4(r2)
   24d20:	10800204 	addi	r2,r2,8
   24d24:	d8812d15 	stw	r2,1204(sp)
   24d28:	d8012585 	stb	zero,1174(sp)
   24d2c:	bd84b03a 	or	r2,r23,r22
   24d30:	003fae06 	br	24bec <___vfprintf_internal_r+0x5e4>
   24d34:	e013883a 	mov	r9,fp
   24d38:	84000414 	ori	r16,r16,16
   24d3c:	1839883a 	mov	fp,r3
   24d40:	8080080c 	andi	r2,r16,32
   24d44:	1002e726 	beq	r2,zero,258e4 <___vfprintf_internal_r+0x12dc>
   24d48:	d8c12d17 	ldw	r3,1204(sp)
   24d4c:	d9012d17 	ldw	r4,1204(sp)
   24d50:	1dc00017 	ldw	r23,0(r3)
   24d54:	1d800117 	ldw	r22,4(r3)
   24d58:	21000204 	addi	r4,r4,8
   24d5c:	00c00044 	movi	r3,1
   24d60:	d9012d15 	stw	r4,1204(sp)
   24d64:	bd84b03a 	or	r2,r23,r22
   24d68:	d8012585 	stb	zero,1174(sp)
   24d6c:	003f9f06 	br	24bec <___vfprintf_internal_r+0x5e4>
   24d70:	e013883a 	mov	r9,fp
   24d74:	1839883a 	mov	fp,r3
   24d78:	00c000f4 	movhi	r3,3
   24d7c:	18fcc504 	addi	r3,r3,-3308
   24d80:	d8c13615 	stw	r3,1240(sp)
   24d84:	8080080c 	andi	r2,r16,32
   24d88:	10007726 	beq	r2,zero,24f68 <___vfprintf_internal_r+0x960>
   24d8c:	d9012d17 	ldw	r4,1204(sp)
   24d90:	25c00017 	ldw	r23,0(r4)
   24d94:	25800117 	ldw	r22,4(r4)
   24d98:	21000204 	addi	r4,r4,8
   24d9c:	d9012d15 	stw	r4,1204(sp)
   24da0:	8080004c 	andi	r2,r16,1
   24da4:	1002c226 	beq	r2,zero,258b0 <___vfprintf_internal_r+0x12a8>
   24da8:	bd84b03a 	or	r2,r23,r22
   24dac:	10035d26 	beq	r2,zero,25b24 <___vfprintf_internal_r+0x151c>
   24db0:	00c00c04 	movi	r3,48
   24db4:	d8c12505 	stb	r3,1172(sp)
   24db8:	dc812545 	stb	r18,1173(sp)
   24dbc:	84000094 	ori	r16,r16,2
   24dc0:	00c00084 	movi	r3,2
   24dc4:	d8012585 	stb	zero,1174(sp)
   24dc8:	003f8806 	br	24bec <___vfprintf_internal_r+0x5e4>
   24dcc:	ac800007 	ldb	r18,0(r21)
   24dd0:	00c00a84 	movi	r3,42
   24dd4:	adc00044 	addi	r23,r21,1
   24dd8:	90c57526 	beq	r18,r3,263b0 <___vfprintf_internal_r+0x1da8>
   24ddc:	95bff404 	addi	r22,r18,-48
   24de0:	0009883a 	mov	r4,zero
   24de4:	9d84ff36 	bltu	r19,r22,261e4 <___vfprintf_internal_r+0x1bdc>
   24de8:	01400284 	movi	r5,10
   24dec:	0021dc80 	call	21dc8 <__mulsi3>
   24df0:	bc800007 	ldb	r18,0(r23)
   24df4:	b089883a 	add	r4,r22,r2
   24df8:	bdc00044 	addi	r23,r23,1
   24dfc:	95bff404 	addi	r22,r18,-48
   24e00:	9dbff92e 	bgeu	r19,r22,24de8 <___vfprintf_internal_r+0x7e0>
   24e04:	2007883a 	mov	r3,r4
   24e08:	20044316 	blt	r4,zero,25f18 <___vfprintf_internal_r+0x1910>
   24e0c:	b82b883a 	mov	r21,r23
   24e10:	003e5a06 	br	2477c <___vfprintf_internal_r+0x174>
   24e14:	ac800007 	ldb	r18,0(r21)
   24e18:	01001b04 	movi	r4,108
   24e1c:	a805883a 	mov	r2,r21
   24e20:	91045526 	beq	r18,r4,25f78 <___vfprintf_internal_r+0x1970>
   24e24:	84000414 	ori	r16,r16,16
   24e28:	003e5306 	br	24778 <___vfprintf_internal_r+0x170>
   24e2c:	8080080c 	andi	r2,r16,32
   24e30:	e013883a 	mov	r9,fp
   24e34:	10034026 	beq	r2,zero,25b38 <___vfprintf_internal_r+0x1530>
   24e38:	d9012d17 	ldw	r4,1204(sp)
   24e3c:	20800017 	ldw	r2,0(r4)
   24e40:	d9012c17 	ldw	r4,1200(sp)
   24e44:	2007d7fa 	srai	r3,r4,31
   24e48:	d9012d17 	ldw	r4,1204(sp)
   24e4c:	10c00115 	stw	r3,4(r2)
   24e50:	21000104 	addi	r4,r4,4
   24e54:	d9012d15 	stw	r4,1204(sp)
   24e58:	d9012c17 	ldw	r4,1200(sp)
   24e5c:	11000015 	stw	r4,0(r2)
   24e60:	003e1f06 	br	246e0 <___vfprintf_internal_r+0xd8>
   24e64:	d9012d17 	ldw	r4,1204(sp)
   24e68:	21000017 	ldw	r4,0(r4)
   24e6c:	d9012e15 	stw	r4,1208(sp)
   24e70:	d9012d17 	ldw	r4,1204(sp)
   24e74:	20800104 	addi	r2,r4,4
   24e78:	d9012e17 	ldw	r4,1208(sp)
   24e7c:	203ee716 	blt	r4,zero,24a1c <___vfprintf_internal_r+0x414>
   24e80:	d8812d15 	stw	r2,1204(sp)
   24e84:	ac800007 	ldb	r18,0(r21)
   24e88:	003e3b06 	br	24778 <___vfprintf_internal_r+0x170>
   24e8c:	e013883a 	mov	r9,fp
   24e90:	1839883a 	mov	fp,r3
   24e94:	d8c12d17 	ldw	r3,1204(sp)
   24e98:	00800c04 	movi	r2,48
   24e9c:	010000f4 	movhi	r4,3
   24ea0:	213cca04 	addi	r4,r4,-3288
   24ea4:	1dc00017 	ldw	r23,0(r3)
   24ea8:	18c00104 	addi	r3,r3,4
   24eac:	d8812505 	stb	r2,1172(sp)
   24eb0:	00801e04 	movi	r2,120
   24eb4:	d8812545 	stb	r2,1173(sp)
   24eb8:	d8c12d15 	stw	r3,1204(sp)
   24ebc:	002d883a 	mov	r22,zero
   24ec0:	84000094 	ori	r16,r16,2
   24ec4:	d9013615 	stw	r4,1240(sp)
   24ec8:	00c00084 	movi	r3,2
   24ecc:	04801e04 	movi	r18,120
   24ed0:	b805883a 	mov	r2,r23
   24ed4:	d8012585 	stb	zero,1174(sp)
   24ed8:	003f4406 	br	24bec <___vfprintf_internal_r+0x5e4>
   24edc:	84000814 	ori	r16,r16,32
   24ee0:	ac800007 	ldb	r18,0(r21)
   24ee4:	003e2406 	br	24778 <___vfprintf_internal_r+0x170>
   24ee8:	d8812d17 	ldw	r2,1204(sp)
   24eec:	d8012585 	stb	zero,1174(sp)
   24ef0:	e013883a 	mov	r9,fp
   24ef4:	14c00017 	ldw	r19,0(r2)
   24ef8:	1839883a 	mov	fp,r3
   24efc:	15c00104 	addi	r23,r2,4
   24f00:	98045526 	beq	r19,zero,26058 <___vfprintf_internal_r+0x1a50>
   24f04:	9809883a 	mov	r4,r19
   24f08:	18043116 	blt	r3,zero,25fd0 <___vfprintf_internal_r+0x19c8>
   24f0c:	000b883a 	mov	r5,zero
   24f10:	180d883a 	mov	r6,r3
   24f14:	da413c15 	stw	r9,1264(sp)
   24f18:	002866c0 	call	2866c <memchr>
   24f1c:	da413c17 	ldw	r9,1264(sp)
   24f20:	10047a26 	beq	r2,zero,2610c <___vfprintf_internal_r+0x1b04>
   24f24:	14c5c83a 	sub	r2,r2,r19
   24f28:	d8812b15 	stw	r2,1196(sp)
   24f2c:	e083d40e 	bge	fp,r2,25e80 <___vfprintf_internal_r+0x1878>
   24f30:	df012815 	stw	fp,1184(sp)
   24f34:	e004e416 	blt	fp,zero,262c8 <___vfprintf_internal_r+0x1cc0>
   24f38:	d8812583 	ldbu	r2,1174(sp)
   24f3c:	df012b15 	stw	fp,1196(sp)
   24f40:	ddc12d15 	stw	r23,1204(sp)
   24f44:	d8013115 	stw	zero,1220(sp)
   24f48:	003f3c06 	br	24c3c <___vfprintf_internal_r+0x634>
   24f4c:	008000f4 	movhi	r2,3
   24f50:	10bcca04 	addi	r2,r2,-3288
   24f54:	d8813615 	stw	r2,1240(sp)
   24f58:	8080080c 	andi	r2,r16,32
   24f5c:	e013883a 	mov	r9,fp
   24f60:	1839883a 	mov	fp,r3
   24f64:	103f891e 	bne	r2,zero,24d8c <___vfprintf_internal_r+0x784>
   24f68:	8080040c 	andi	r2,r16,16
   24f6c:	1002c326 	beq	r2,zero,25a7c <___vfprintf_internal_r+0x1474>
   24f70:	d8812d17 	ldw	r2,1204(sp)
   24f74:	002d883a 	mov	r22,zero
   24f78:	15c00017 	ldw	r23,0(r2)
   24f7c:	10800104 	addi	r2,r2,4
   24f80:	d8812d15 	stw	r2,1204(sp)
   24f84:	003f8606 	br	24da0 <___vfprintf_internal_r+0x798>
   24f88:	84001014 	ori	r16,r16,64
   24f8c:	ac800007 	ldb	r18,0(r21)
   24f90:	003df906 	br	24778 <___vfprintf_internal_r+0x170>
   24f94:	d8812587 	ldb	r2,1174(sp)
   24f98:	1002e51e 	bne	r2,zero,25b30 <___vfprintf_internal_r+0x1528>
   24f9c:	00800804 	movi	r2,32
   24fa0:	d8812585 	stb	r2,1174(sp)
   24fa4:	ac800007 	ldb	r18,0(r21)
   24fa8:	003df306 	br	24778 <___vfprintf_internal_r+0x170>
   24fac:	84000054 	ori	r16,r16,1
   24fb0:	ac800007 	ldb	r18,0(r21)
   24fb4:	003df006 	br	24778 <___vfprintf_internal_r+0x170>
   24fb8:	84002014 	ori	r16,r16,128
   24fbc:	ac800007 	ldb	r18,0(r21)
   24fc0:	003ded06 	br	24778 <___vfprintf_internal_r+0x170>
   24fc4:	0009883a 	mov	r4,zero
   24fc8:	95bff404 	addi	r22,r18,-48
   24fcc:	182f883a 	mov	r23,r3
   24fd0:	01400284 	movi	r5,10
   24fd4:	0021dc80 	call	21dc8 <__mulsi3>
   24fd8:	ac800007 	ldb	r18,0(r21)
   24fdc:	1589883a 	add	r4,r2,r22
   24fe0:	ad400044 	addi	r21,r21,1
   24fe4:	95bff404 	addi	r22,r18,-48
   24fe8:	9dbff92e 	bgeu	r19,r22,24fd0 <___vfprintf_internal_r+0x9c8>
   24fec:	b807883a 	mov	r3,r23
   24ff0:	d9012e15 	stw	r4,1208(sp)
   24ff4:	003de106 	br	2477c <___vfprintf_internal_r+0x174>
   24ff8:	00800ac4 	movi	r2,43
   24ffc:	d8812585 	stb	r2,1174(sp)
   25000:	ac800007 	ldb	r18,0(r21)
   25004:	003ddc06 	br	24778 <___vfprintf_internal_r+0x170>
   25008:	d8c12d17 	ldw	r3,1204(sp)
   2500c:	d9012d17 	ldw	r4,1204(sp)
   25010:	e013883a 	mov	r9,fp
   25014:	18800017 	ldw	r2,0(r3)
   25018:	21000104 	addi	r4,r4,4
   2501c:	00c00044 	movi	r3,1
   25020:	d8c12815 	stw	r3,1184(sp)
   25024:	d8012585 	stb	zero,1174(sp)
   25028:	d8810405 	stb	r2,1040(sp)
   2502c:	d9012d15 	stw	r4,1204(sp)
   25030:	d8c12b15 	stw	r3,1196(sp)
   25034:	dcc10404 	addi	r19,sp,1040
   25038:	003dda06 	br	247a4 <___vfprintf_internal_r+0x19c>
   2503c:	e013883a 	mov	r9,fp
   25040:	1839883a 	mov	fp,r3
   25044:	003ed806 	br	24ba8 <___vfprintf_internal_r+0x5a0>
   25048:	e013883a 	mov	r9,fp
   2504c:	1839883a 	mov	fp,r3
   25050:	003f2d06 	br	24d08 <___vfprintf_internal_r+0x700>
   25054:	e013883a 	mov	r9,fp
   25058:	1839883a 	mov	fp,r3
   2505c:	003f3806 	br	24d40 <___vfprintf_internal_r+0x738>
   25060:	da011d17 	ldw	r8,1140(sp)
   25064:	d8c11c17 	ldw	r3,1136(sp)
   25068:	d8812587 	ldb	r2,1174(sp)
   2506c:	10000b26 	beq	r2,zero,2509c <___vfprintf_internal_r+0xa94>
   25070:	d8812584 	addi	r2,sp,1174
   25074:	48800015 	stw	r2,0(r9)
   25078:	00800044 	movi	r2,1
   2507c:	48800115 	stw	r2,4(r9)
   25080:	4091883a 	add	r8,r8,r2
   25084:	1887883a 	add	r3,r3,r2
   25088:	da011d15 	stw	r8,1140(sp)
   2508c:	d8c11c15 	stw	r3,1136(sp)
   25090:	008001c4 	movi	r2,7
   25094:	10c18e16 	blt	r2,r3,256d0 <___vfprintf_internal_r+0x10c8>
   25098:	4a400204 	addi	r9,r9,8
   2509c:	d9012a17 	ldw	r4,1192(sp)
