
stage5.elf:     file format elf32-littlenios2
stage5.elf
architecture: nios2, flags 0x00000112:
EXEC_P, HAS_SYMS, D_PAGED
start address 0x00010020

Program Header:
    LOAD off    0x00001000 vaddr 0x00010000 paddr 0x00010000 align 2**12
         filesz 0x00000020 memsz 0x00000020 flags r-x
    LOAD off    0x00001020 vaddr 0x00010020 paddr 0x00010020 align 2**12
         filesz 0x0000412c memsz 0x0000412c flags r-x
    LOAD off    0x0000514c vaddr 0x0001414c paddr 0x00014624 align 2**12
         filesz 0x000004d8 memsz 0x000004d8 flags rw-
    LOAD off    0x00005afc vaddr 0x00014afc paddr 0x00014afc align 2**12
         filesz 0x00000000 memsz 0x00000ab4 flags rw-

Sections:
Idx Name          Size      VMA       LMA       File off  Algn
  0 .entry        00000020  00010000  00010000  00001000  2**5
                  CONTENTS, ALLOC, LOAD, READONLY, CODE
  1 .text         00003d64  00010020  00010020  00001020  2**2
                  CONTENTS, ALLOC, LOAD, READONLY, CODE
  2 .rodata       000003c8  00013d84  00013d84  00004d84  2**2
                  CONTENTS, ALLOC, LOAD, READONLY, DATA
  3 .rwdata       000004d8  0001414c  00014624  0000514c  2**2
                  CONTENTS, ALLOC, LOAD, DATA, SMALL_DATA
  4 .bss          00000ab4  00014afc  00014afc  00005afc  2**2
                  ALLOC, SMALL_DATA
  5 .comment      00000023  00000000  00000000  00005624  2**0
                  CONTENTS, READONLY
  6 .debug_aranges 00000790  00000000  00000000  00005648  2**3
                  CONTENTS, READONLY, DEBUGGING
  7 .debug_info   0000afbc  00000000  00000000  00005dd8  2**0
                  CONTENTS, READONLY, DEBUGGING
  8 .debug_abbrev 00003feb  00000000  00000000  00010d94  2**0
                  CONTENTS, READONLY, DEBUGGING
  9 .debug_line   00003db1  00000000  00000000  00014d7f  2**0
                  CONTENTS, READONLY, DEBUGGING
 10 .debug_frame  00000ba0  00000000  00000000  00018b30  2**2
                  CONTENTS, READONLY, DEBUGGING
 11 .debug_str    00001cc5  00000000  00000000  000196d0  2**0
                  CONTENTS, READONLY, DEBUGGING
 12 .debug_loc    000035da  00000000  00000000  0001b395  2**0
                  CONTENTS, READONLY, DEBUGGING
 13 .debug_alt_sim_info 00000010  00000000  00000000  0001e970  2**2
                  CONTENTS, READONLY, DEBUGGING
 14 .debug_ranges 000003d0  00000000  00000000  0001e980  2**3
                  CONTENTS, READONLY, DEBUGGING
 15 .thread_model 00000003  00000000  00000000  00020c22  2**0
                  CONTENTS, READONLY
 16 .cpu          00000005  00000000  00000000  00020c25  2**0
                  CONTENTS, READONLY
 17 .qsys         00000001  00000000  00000000  00020c2a  2**0
                  CONTENTS, READONLY
 18 .simulation_enabled 00000001  00000000  00000000  00020c2b  2**0
                  CONTENTS, READONLY
 19 .sysid_hash   00000004  00000000  00000000  00020c2c  2**0
                  CONTENTS, READONLY
 20 .sysid_base   00000004  00000000  00000000  00020c30  2**0
                  CONTENTS, READONLY
 21 .sysid_time   00000004  00000000  00000000  00020c34  2**0
                  CONTENTS, READONLY
 22 .stderr_dev   0000000b  00000000  00000000  00020c38  2**0
                  CONTENTS, READONLY
 23 .stdin_dev    0000000b  00000000  00000000  00020c43  2**0
                  CONTENTS, READONLY
 24 .stdout_dev   0000000b  00000000  00000000  00020c4e  2**0
                  CONTENTS, READONLY
 25 .sopc_system_name 00000005  00000000  00000000  00020c59  2**0
                  CONTENTS, READONLY
 26 .quartus_project_dir 0000001b  00000000  00000000  00020c5e  2**0
                  CONTENTS, READONLY
 27 .sopcinfo     0019f5fe  00000000  00000000  00020c79  2**0
                  CONTENTS, READONLY
SYMBOL TABLE:
00010000 l    d  .entry	00000000 .entry
00010020 l    d  .text	00000000 .text
00013d84 l    d  .rodata	00000000 .rodata
0001414c l    d  .rwdata	00000000 .rwdata
00014afc l    d  .bss	00000000 .bss
00000000 l    d  .comment	00000000 .comment
00000000 l    d  .debug_aranges	00000000 .debug_aranges
00000000 l    d  .debug_info	00000000 .debug_info
00000000 l    d  .debug_abbrev	00000000 .debug_abbrev
00000000 l    d  .debug_line	00000000 .debug_line
00000000 l    d  .debug_frame	00000000 .debug_frame
00000000 l    d  .debug_str	00000000 .debug_str
00000000 l    d  .debug_loc	00000000 .debug_loc
00000000 l    d  .debug_alt_sim_info	00000000 .debug_alt_sim_info
00000000 l    d  .debug_ranges	00000000 .debug_ranges
00000000 l    df *ABS*	00000000 ../stage5_bsp//obj/HAL/src/crt0.o
00010058 l       .text	00000000 alt_after_alt_main
00000000 l    df *ABS*	00000000 huffdata.c
00000000 l    df *ABS*	00000000 huffman.c
00010320 l     F .text	00000074 get_vli_size
00000000 l    df *ABS*	00000000 main.c
00000000 l    df *ABS*	00000000 markdata.c
00000000 l    df *ABS*	00000000 fifo_io.c
00000000 l    df *ABS*	00000000 libgcc2.c
00000000 l    df *ABS*	00000000 fp-bit.c
00011088 l     F .text	000001f4 _fpadd_parts
00000000 l    df *ABS*	00000000 fp-bit.c
00000000 l    df *ABS*	00000000 fp-bit.c
00000000 l    df *ABS*	00000000 fp-bit.c
00000000 l    df *ABS*	00000000 fp-bit.c
00000000 l    df *ABS*	00000000 fp-bit.c
00000000 l    df *ABS*	00000000 fp-bit.c
00000000 l    df *ABS*	00000000 fp-bit.c
00000000 l    df *ABS*	00000000 lib2-mul.c
00000000 l    df *ABS*	00000000 libgcc2.c
00000000 l    df *ABS*	00000000 libgcc2.c
00000000 l    df *ABS*	00000000 fp-bit.c
00000000 l    df *ABS*	00000000 fp-bit.c
00000000 l    df *ABS*	00000000 fp-bit.c
00000000 l    df *ABS*	00000000 libgcc2.c
00000000 l    df *ABS*	00000000 memcpy.c
00000000 l    df *ABS*	00000000 printf.c
00000000 l    df *ABS*	00000000 puts.c
00000000 l    df *ABS*	00000000 strlen.c
00000000 l    df *ABS*	00000000 vfprintf.c
00000000 l    df *ABS*	00000000 fvwrite_small_dev.c
00000000 l    df *ABS*	00000000 impure.c
00014350 l     O .rwdata	000000e0 impure_data
00000000 l    df *ABS*	00000000 writer.c
00000000 l    df *ABS*	00000000 int_errno.c
00000000 l    df *ABS*	00000000 lib2-divmod.c
00012708 l     F .text	00000074 udivmodsi4
00000000 l    df *ABS*	00000000 alt_load.c
00012838 l     F .text	0000006c alt_load_section
00000000 l    df *ABS*	00000000 alt_main.c
00000000 l    df *ABS*	00000000 alt_write.c
0001299c l     F .text	00000050 alt_get_errno
00000000 l    df *ABS*	00000000 alt_sys_init.c
00012adc l     F .text	00000038 alt_dev_reg
00014430 l     O .rwdata	0000002c jtag_uart_5
00000000 l    df *ABS*	00000000 altera_avalon_jtag_uart_fd.c
00000000 l    df *ABS*	00000000 altera_avalon_jtag_uart_read.c
00000000 l    df *ABS*	00000000 altera_avalon_jtag_uart_write.c
00000000 l    df *ABS*	00000000 altera_avalon_timer_ts.c
00000000 l    df *ABS*	00000000 altera_avalon_timer_vars.c
00000000 l    df *ABS*	00000000 alt_close.c
00012f3c l     F .text	00000050 alt_get_errno
00000000 l    df *ABS*	00000000 alt_dcache_flush_all.c
00000000 l    df *ABS*	00000000 alt_dev.c
00013074 l     F .text	0000002c alt_dev_null_write
00000000 l    df *ABS*	00000000 alt_dev_llist_insert.c
000130a0 l     F .text	00000050 alt_get_errno
00000000 l    df *ABS*	00000000 alt_do_ctors.c
00000000 l    df *ABS*	00000000 alt_do_dtors.c
00000000 l    df *ABS*	00000000 alt_errno.c
00000000 l    df *ABS*	00000000 alt_icache_flush_all.c
00000000 l    df *ABS*	00000000 alt_io_redirect.c
00013264 l     F .text	000000e0 alt_open_fd
00000000 l    df *ABS*	00000000 alt_open.c
000133bc l     F .text	00000050 alt_get_errno
0001340c l     F .text	000000f0 alt_file_locked
00000000 l    df *ABS*	00000000 alt_release_fd.c
00000000 l    df *ABS*	00000000 altera_nios2_qsys_irq.c
00000000 l    df *ABS*	00000000 alt_find_dev.c
00000000 l    df *ABS*	00000000 alt_find_file.c
00000000 l    df *ABS*	00000000 alt_get_fd.c
00000000 l    df *ABS*	00000000 atexit.c
00000000 l    df *ABS*	00000000 exit.c
00000000 l    df *ABS*	00000000 memcmp.c
00000000 l    df *ABS*	00000000 __atexit.c
00000000 l    df *ABS*	00000000 __call_atexit.c
00000000 l    df *ABS*	00000000 alt_exit.c
00000000 l    df *ABS*	00000000 
00010f8c g     F .text	0000008c fifo_write_block
00014b04 g     O .bss	00000001 byte_buffer
00012924 g     F .text	00000078 alt_main
00011da8 g     F .text	00000080 _puts_r
00014624 g       *ABS*	00000000 __flash_rwdata_start
00011d5c g     F .text	0000004c printf
0001414c g     O .rwdata	00000018 luminance_dc_code_table
000114b0 g     F .text	0000013c __divsf3
00014b20 g     O .bss	00000004 altera_avalon_timer_ts_freq
000116ec g     F .text	000000a4 __fixsfsi
00000000  w      *UND*	00000000 __errno
00010000 g     F .entry	0000000c __reset
00010020 g       *ABS*	00000000 __flash_exceptions_start
00014b0c g     O .bss	00000004 errno
00014b14 g     O .bss	00000004 alt_argv
0001c604 g       *ABS*	00000000 _gp
000112c8 g     F .text	00000058 __subsf3
00014484 g     O .rwdata	00000180 alt_fd_list
000136f4 g     F .text	00000090 alt_find_dev
00011cf8 g     F .text	00000028 memcpy
00013344 g     F .text	00000078 alt_io_redirect
00013d84 g       *ABS*	00000000 __DTOR_END__
00011e28 g     F .text	00000014 puts
00014b24 g     O .bss	00000200 chrominance_ac_code_table
000105b0 g     F .text	000003fc huffman_encode_block
00012c70 g     F .text	000000f4 altera_avalon_jtag_uart_read
00000000  w      *UND*	00000000 malloc
00011d20 g     F .text	0000003c _printf_r
00012828 g     F .text	00000008 __udivsi3
00010edc g     F .text	00000030 fifo_init
0001005c g     F .text	000002c4 init_chroma_ac_tables
0001461c g     O .rwdata	00000004 alt_max_fd
00014604 g     O .rwdata	00000004 _global_impure_ptr
000109ac g     F .text	00000124 receive_dht_from_stage1
000155b0 g       *ABS*	00000000 __bss_end
0001445c g     O .rwdata	00000028 alt_dev_null
00011b74 g     F .text	000000c8 __unpack_f
00013058 g     F .text	0000001c alt_dcache_flush_all
00014624 g       *ABS*	00000000 __ram_rwdata_end
00014614 g     O .rwdata	00000008 alt_dev_list
000129ec g     F .text	000000f0 write
00012f14 g     F .text	00000028 alt_timestamp_freq
0001414c g       *ABS*	00000000 __ram_rodata_end
00012830 g     F .text	00000008 __umodsi3
000155b0 g       *ABS*	00000000 end
00011a48 g     F .text	0000012c __pack_f
00013d84 g       *ABS*	00000000 __CTOR_LIST__
0001bb80 g       *ABS*	00000000 __alt_stack_pointer
0001199c g     F .text	000000ac __clzsi2
0001417c g     O .rwdata	00000018 chrominance_dc_code_table
00012d64 g     F .text	00000098 altera_avalon_jtag_uart_write
00011e64 g     F .text	00000734 ___vfprintf_internal_r
00010394 g     F .text	00000158 write_bits
00013b70 g     F .text	000001d8 __call_exitprocs
00010020 g     F .text	0000003c _start
00012b48 g     F .text	00000068 alt_sys_init
00011648 g     F .text	000000a4 __floatsisf
000139e8 g     F .text	00000188 __register_exitproc
000104ec g     F .text	000000c4 huffman_flush
00011864 g     F .text	00000028 __mulsi3
0001414c g       *ABS*	00000000 __ram_rwdata_start
00013d84 g       *ABS*	00000000 __ram_rodata_start
00014d24 g     O .bss	00000200 chrominance_ac_size_table
00012bb0 g     F .text	00000060 altera_avalon_jtag_uart_read_fd
00013898 g     F .text	000000d4 alt_get_fd
000139a0 g     F .text	00000048 memcmp
000155b0 g       *ABS*	00000000 __alt_stack_base
00014004 g     O .rodata	00000010 __thenan_sf
00013784 g     F .text	00000114 alt_find_file
000130f0 g     F .text	000000a0 alt_dev_llist_insert
000125bc g     F .text	000000e0 __sfvwrite_small_dev
00014afc g       *ABS*	00000000 __bss_start
00010ad0 g     F .text	0000040c main
00014b18 g     O .bss	00000004 alt_envp
00012c10 g     F .text	00000060 altera_avalon_jtag_uart_write_fd
00010f0c g     F .text	00000080 fifo_read_block
00012dfc g     F .text	00000088 alt_timestamp_start
00015524 g     O .bss	0000008c _atexit0
00015324 g     O .bss	00000200 stream_buffer
00014620 g     O .rwdata	00000004 alt_errno
00014b00 g     O .bss	00000004 bit_count
0001277c g     F .text	00000050 __divsi3
00013d84 g       *ABS*	00000000 __CTOR_END__
00011320 g     F .text	00000190 __mulsf3
00013d84 g       *ABS*	00000000 __flash_rodata_start
00013d84 g       *ABS*	00000000 __DTOR_LIST__
00012b14 g     F .text	00000034 alt_irq_init
00013654 g     F .text	00000080 alt_release_fd
00014014 g     O .rodata	00000100 __clz_tab
0001396c g     F .text	00000014 atexit
000115ec g     F .text	0000005c __gesf2
0001269c g     F .text	0000006c _write_r
00014afc g     O .bss	00000004 bit_buffer
00014608 g     O .rwdata	00000004 _impure_ptr
00014b10 g     O .bss	00000004 alt_argc
00014b1c g     O .bss	00000004 altera_avalon_timer_ts_base
000131ec g     F .text	0000005c _do_dtors
0001460c g     O .rwdata	00000008 alt_fs_list
00014b08 g     O .bss	00000004 has_odd_byte
00010020 g       *ABS*	00000000 __ram_exceptions_start
00012e84 g     F .text	00000090 alt_timestamp
00014624 g       *ABS*	00000000 _edata
000155b0 g       *ABS*	00000000 _end
00010020 g       *ABS*	00000000 __ram_exceptions_end
00014f24 g     O .bss	00000200 luminance_ac_size_table
000136d4 g     F .text	00000020 altera_nios2_qsys_irq_init
00013980 g     F .text	00000020 exit
000141ac g     O .rwdata	000001a4 markerdata
00011790 g     F .text	000000d4 __floatunsisf
000127cc g     F .text	0000005c __modsi3
0001bb80 g       *ABS*	00000000 __alt_data_end
00011018 g     F .text	00000070 __fixunssfsi
00011c3c g     F .text	000000bc __fpcmp_parts_f
00013d48 g     F .text	0000003c _exit
00014194 g     O .rwdata	00000018 chrominance_dc_size_table
00010000 g       *ABS*	00000000 __alt_mem_mem_5
0001188c g     F .text	00000110 __muldi3
00011e3c g     F .text	00000028 strlen
000134fc g     F .text	00000158 open
00013248 g     F .text	0000001c alt_icache_flush_all
00015124 g     O .bss	00000200 luminance_ac_code_table
00012598 g     F .text	00000024 __vfprintf_internal
00013190 g     F .text	0000005c _do_ctors
00014164 g     O .rwdata	00000018 luminance_dc_size_table
00012f8c g     F .text	000000cc close
0001127c g     F .text	0000004c __addsf3
000128a4 g     F .text	00000080 alt_load
00000000  w      *UND*	00000000 free



Disassembly of section .entry:

00010000 <__reset>:
 * Jump to the _start entry point in the .text section if reset code
 * is allowed or if optimizing for RTL simulation.
 */
#if defined(ALT_ALLOW_CODE_AT_RESET) || defined(ALT_SIM_OPTIMIZE)
    /* Jump to the _start entry point in the .text section. */
    movhi r1, %hi(_start)
   10000:	00400074 	movhi	at,1
    ori r1, r1, %lo(_start)
   10004:	08400814 	ori	at,at,32
    jmp r1
   10008:	0800683a 	jmp	at
	...

Disassembly of section .text:

00010020 <_start>:

    /*
     * Now that the caches are initialized, set up the stack pointer and global pointer.
     * The values provided by the linker are assumed to be correctly aligned.
     */
    movhi sp, %hi(__alt_stack_pointer)
   10020:	06c00074 	movhi	sp,1
    ori sp, sp, %lo(__alt_stack_pointer)
   10024:	deeee014 	ori	sp,sp,48000
    movhi gp, %hi(_gp)
   10028:	06800074 	movhi	gp,1
    ori gp, gp, %lo(_gp)
   1002c:	d6b18114 	ori	gp,gp,50692
 */
#ifndef ALT_SIM_OPTIMIZE
    /* Log that the BSS is about to be cleared. */
    ALT_LOG_PUTS(alt_log_msg_bss)

    movhi r2, %hi(__bss_start)
   10030:	00800074 	movhi	r2,1
    ori r2, r2, %lo(__bss_start)
   10034:	1092bf14 	ori	r2,r2,19196

    movhi r3, %hi(__bss_end)
   10038:	00c00074 	movhi	r3,1
    ori r3, r3, %lo(__bss_end)
   1003c:	18d56c14 	ori	r3,r3,21936

    beq r2, r3, 1f
   10040:	10c00326 	beq	r2,r3,10050 <_start+0x30>

0:
    stw zero, (r2)
   10044:	10000015 	stw	zero,0(r2)
    addi r2, r2, 4
   10048:	10800104 	addi	r2,r2,4
    bltu r2, r3, 0b
   1004c:	10fffd36 	bltu	r2,r3,10044 <_start+0x24>
     * section aren't defined until alt_load() has been called).
     */
    mov   et, zero
#endif

    call alt_load
   10050:	00128a40 	call	128a4 <alt_load>

    /* Log that alt_main is about to be called. */
    ALT_LOG_PUTS(alt_log_msg_alt_main)

    /* Call the C entry point. It should never return. */
    call alt_main
   10054:	00129240 	call	12924 <alt_main>

00010058 <alt_after_alt_main>:

    /* Wait in infinite loop in case alt_main does return. */
alt_after_alt_main:
    br alt_after_alt_main
   10058:	003fff06 	br	10058 <alt_after_alt_main>

0001005c <init_chroma_ac_tables>:
UINT16 luminance_ac_code_table[256];
UINT16 luminance_ac_size_table[256];
UINT16 chrominance_ac_code_table[256];
UINT16 chrominance_ac_size_table[256];

void init_chroma_ac_tables() {
   1005c:	deffa004 	addi	sp,sp,-384
   10060:	dfc05f15 	stw	ra,380(sp)
   10064:	df005e15 	stw	fp,376(sp)
   10068:	df005e04 	addi	fp,sp,376
    int k;
    for(k = 0; k < 256; k++) {
   1006c:	e03fa215 	stw	zero,-376(fp)
   10070:	00001b06 	br	100e0 <init_chroma_ac_tables+0x84>
        luminance_ac_code_table[k] = 0;
   10074:	00c00074 	movhi	r3,1
   10078:	18d44904 	addi	r3,r3,20772
   1007c:	e0bfa217 	ldw	r2,-376(fp)
   10080:	1085883a 	add	r2,r2,r2
   10084:	1885883a 	add	r2,r3,r2
   10088:	1000000d 	sth	zero,0(r2)
        luminance_ac_size_table[k] = 0;
   1008c:	00c00074 	movhi	r3,1
   10090:	18d3c904 	addi	r3,r3,20260
   10094:	e0bfa217 	ldw	r2,-376(fp)
   10098:	1085883a 	add	r2,r2,r2
   1009c:	1885883a 	add	r2,r3,r2
   100a0:	1000000d 	sth	zero,0(r2)
        chrominance_ac_code_table[k] = 0;
   100a4:	00c00074 	movhi	r3,1
   100a8:	18d2c904 	addi	r3,r3,19236
   100ac:	e0bfa217 	ldw	r2,-376(fp)
   100b0:	1085883a 	add	r2,r2,r2
   100b4:	1885883a 	add	r2,r3,r2
   100b8:	1000000d 	sth	zero,0(r2)
        chrominance_ac_size_table[k] = 0;
   100bc:	00c00074 	movhi	r3,1
   100c0:	18d34904 	addi	r3,r3,19748
   100c4:	e0bfa217 	ldw	r2,-376(fp)
   100c8:	1085883a 	add	r2,r2,r2
   100cc:	1885883a 	add	r2,r3,r2
   100d0:	1000000d 	sth	zero,0(r2)
UINT16 chrominance_ac_code_table[256];
UINT16 chrominance_ac_size_table[256];

void init_chroma_ac_tables() {
    int k;
    for(k = 0; k < 256; k++) {
   100d4:	e0bfa217 	ldw	r2,-376(fp)
   100d8:	10800044 	addi	r2,r2,1
   100dc:	e0bfa215 	stw	r2,-376(fp)
   100e0:	e0bfa217 	ldw	r2,-376(fp)
   100e4:	10804010 	cmplti	r2,r2,256
   100e8:	103fe21e 	bne	r2,zero,10074 <init_chroma_ac_tables+0x18>
        chrominance_ac_code_table[k] = 0;
        chrominance_ac_size_table[k] = 0;
    }

    // --- GENERATE LUMA AC DICTIONARY ---
    UINT8 luma_len[16] = {0, 2, 1, 3, 3, 2, 4, 3, 5, 5, 4, 4, 0, 0, 1, 0x7D};
   100ec:	00800074 	movhi	r2,1
   100f0:	108f6104 	addi	r2,r2,15748
   100f4:	e13fa704 	addi	r4,fp,-356
   100f8:	1007883a 	mov	r3,r2
   100fc:	00800404 	movi	r2,16
   10100:	180b883a 	mov	r5,r3
   10104:	100d883a 	mov	r6,r2
   10108:	0011cf80 	call	11cf8 <memcpy>
    UINT8 luma_sym[162] = {
   1010c:	00800074 	movhi	r2,1
   10110:	108f6504 	addi	r2,r2,15764
   10114:	e13fab04 	addi	r4,fp,-340
   10118:	1007883a 	mov	r3,r2
   1011c:	00802884 	movi	r2,162
   10120:	180b883a 	mov	r5,r3
   10124:	100d883a 	mov	r6,r2
   10128:	0011cf80 	call	11cf8 <memcpy>
        0xC6, 0xC7, 0xC8, 0xC9, 0xCA, 0xD2, 0xD3, 0xD4, 0xD5, 0xD6, 0xD7, 0xD8, 0xD9, 0xDA, 0xE1, 0xE2,
        0xE3, 0xE4, 0xE5, 0xE6, 0xE7, 0xE8, 0xE9, 0xEA, 0xF1, 0xF2, 0xF3, 0xF4, 0xF5, 0xF6, 0xF7, 0xF8,
        0xF9, 0xFA
    };

    int p = 0, l, i;
   1012c:	e03fa315 	stw	zero,-372(fp)
    UINT16 code = 0;
   10130:	e03fa60d 	sth	zero,-360(fp)
    for (l = 1; l <= 16; l++) {
   10134:	00800044 	movi	r2,1
   10138:	e0bfa415 	stw	r2,-368(fp)
   1013c:	00002c06 	br	101f0 <init_chroma_ac_tables+0x194>
        for (i = 0; i < luma_len[l-1]; i++) {
   10140:	e03fa515 	stw	zero,-364(fp)
   10144:	00001c06 	br	101b8 <init_chroma_ac_tables+0x15c>
            UINT8 sym = luma_sym[p++];
   10148:	e0ffab04 	addi	r3,fp,-340
   1014c:	e0bfa317 	ldw	r2,-372(fp)
   10150:	1885883a 	add	r2,r3,r2
   10154:	10800003 	ldbu	r2,0(r2)
   10158:	e0bfa685 	stb	r2,-358(fp)
   1015c:	e0bfa317 	ldw	r2,-372(fp)
   10160:	10800044 	addi	r2,r2,1
   10164:	e0bfa315 	stw	r2,-372(fp)
            luminance_ac_code_table[sym] = code;
   10168:	e0bfa683 	ldbu	r2,-358(fp)
   1016c:	00c00074 	movhi	r3,1
   10170:	18d44904 	addi	r3,r3,20772
   10174:	1085883a 	add	r2,r2,r2
   10178:	1885883a 	add	r2,r3,r2
   1017c:	e0ffa60b 	ldhu	r3,-360(fp)
   10180:	10c0000d 	sth	r3,0(r2)
            luminance_ac_size_table[sym] = (UINT16)l;
   10184:	e0bfa683 	ldbu	r2,-358(fp)
   10188:	e0ffa417 	ldw	r3,-368(fp)
   1018c:	01000074 	movhi	r4,1
   10190:	2113c904 	addi	r4,r4,20260
   10194:	1085883a 	add	r2,r2,r2
   10198:	2085883a 	add	r2,r4,r2
   1019c:	10c0000d 	sth	r3,0(r2)
            code++;
   101a0:	e0bfa60b 	ldhu	r2,-360(fp)
   101a4:	10800044 	addi	r2,r2,1
   101a8:	e0bfa60d 	sth	r2,-360(fp)
    };

    int p = 0, l, i;
    UINT16 code = 0;
    for (l = 1; l <= 16; l++) {
        for (i = 0; i < luma_len[l-1]; i++) {
   101ac:	e0bfa517 	ldw	r2,-364(fp)
   101b0:	10800044 	addi	r2,r2,1
   101b4:	e0bfa515 	stw	r2,-364(fp)
   101b8:	e0bfa417 	ldw	r2,-368(fp)
   101bc:	10bfffc4 	addi	r2,r2,-1
   101c0:	e0ffa704 	addi	r3,fp,-356
   101c4:	1885883a 	add	r2,r3,r2
   101c8:	10800003 	ldbu	r2,0(r2)
   101cc:	10803fcc 	andi	r2,r2,255
   101d0:	e0ffa517 	ldw	r3,-364(fp)
   101d4:	18bfdc16 	blt	r3,r2,10148 <init_chroma_ac_tables+0xec>
            UINT8 sym = luma_sym[p++];
            luminance_ac_code_table[sym] = code;
            luminance_ac_size_table[sym] = (UINT16)l;
            code++;
        }
        code <<= 1;
   101d8:	e0bfa60b 	ldhu	r2,-360(fp)
   101dc:	1085883a 	add	r2,r2,r2
   101e0:	e0bfa60d 	sth	r2,-360(fp)
        0xF9, 0xFA
    };

    int p = 0, l, i;
    UINT16 code = 0;
    for (l = 1; l <= 16; l++) {
   101e4:	e0bfa417 	ldw	r2,-368(fp)
   101e8:	10800044 	addi	r2,r2,1
   101ec:	e0bfa415 	stw	r2,-368(fp)
   101f0:	e0bfa417 	ldw	r2,-368(fp)
   101f4:	10800450 	cmplti	r2,r2,17
   101f8:	103fd11e 	bne	r2,zero,10140 <init_chroma_ac_tables+0xe4>
        }
        code <<= 1;
    }

    // --- GENERATE CHROMA AC DICTIONARY ---
    UINT8 chroma_len[16] = {0, 2, 1, 2, 4, 4, 3, 4, 7, 5, 4, 4, 0, 1, 2, 0x77};
   101fc:	00800074 	movhi	r2,1
   10200:	108f8d84 	addi	r2,r2,15926
   10204:	e13fd384 	addi	r4,fp,-178
   10208:	1007883a 	mov	r3,r2
   1020c:	00800404 	movi	r2,16
   10210:	180b883a 	mov	r5,r3
   10214:	100d883a 	mov	r6,r2
   10218:	0011cf80 	call	11cf8 <memcpy>
    UINT8 chroma_sym[162] = {
   1021c:	00800074 	movhi	r2,1
   10220:	108f9184 	addi	r2,r2,15942
   10224:	e13fd784 	addi	r4,fp,-162
   10228:	1007883a 	mov	r3,r2
   1022c:	00802884 	movi	r2,162
   10230:	180b883a 	mov	r5,r3
   10234:	100d883a 	mov	r6,r2
   10238:	0011cf80 	call	11cf8 <memcpy>
        0xC4, 0xC5, 0xC6, 0xC7, 0xC8, 0xC9, 0xCA, 0xD2, 0xD3, 0xD4, 0xD5, 0xD6, 0xD7, 0xD8, 0xD9, 0xDA,
        0xE2, 0xE3, 0xE4, 0xE5, 0xE6, 0xE7, 0xE8, 0xE9, 0xEA, 0xF2, 0xF3, 0xF4, 0xF5, 0xF6, 0xF7, 0xF8,
        0xF9, 0xFA
    };

    p = 0;
   1023c:	e03fa315 	stw	zero,-372(fp)
    code = 0;
   10240:	e03fa60d 	sth	zero,-360(fp)
    for (l = 1; l <= 16; l++) {
   10244:	00800044 	movi	r2,1
   10248:	e0bfa415 	stw	r2,-368(fp)
   1024c:	00002c06 	br	10300 <init_chroma_ac_tables+0x2a4>
        for (i = 0; i < chroma_len[l-1]; i++) {
   10250:	e03fa515 	stw	zero,-364(fp)
   10254:	00001c06 	br	102c8 <init_chroma_ac_tables+0x26c>
            UINT8 sym = chroma_sym[p++];
   10258:	e0ffd784 	addi	r3,fp,-162
   1025c:	e0bfa317 	ldw	r2,-372(fp)
   10260:	1885883a 	add	r2,r3,r2
   10264:	10800003 	ldbu	r2,0(r2)
   10268:	e0bfa6c5 	stb	r2,-357(fp)
   1026c:	e0bfa317 	ldw	r2,-372(fp)
   10270:	10800044 	addi	r2,r2,1
   10274:	e0bfa315 	stw	r2,-372(fp)
            chrominance_ac_code_table[sym] = code;
   10278:	e0bfa6c3 	ldbu	r2,-357(fp)
   1027c:	00c00074 	movhi	r3,1
   10280:	18d2c904 	addi	r3,r3,19236
   10284:	1085883a 	add	r2,r2,r2
   10288:	1885883a 	add	r2,r3,r2
   1028c:	e0ffa60b 	ldhu	r3,-360(fp)
   10290:	10c0000d 	sth	r3,0(r2)
            chrominance_ac_size_table[sym] = (UINT16)l;
   10294:	e0bfa6c3 	ldbu	r2,-357(fp)
   10298:	e0ffa417 	ldw	r3,-368(fp)
   1029c:	01000074 	movhi	r4,1
   102a0:	21134904 	addi	r4,r4,19748
   102a4:	1085883a 	add	r2,r2,r2
   102a8:	2085883a 	add	r2,r4,r2
   102ac:	10c0000d 	sth	r3,0(r2)
            code++;
   102b0:	e0bfa60b 	ldhu	r2,-360(fp)
   102b4:	10800044 	addi	r2,r2,1
   102b8:	e0bfa60d 	sth	r2,-360(fp)
    };

    p = 0;
    code = 0;
    for (l = 1; l <= 16; l++) {
        for (i = 0; i < chroma_len[l-1]; i++) {
   102bc:	e0bfa517 	ldw	r2,-364(fp)
   102c0:	10800044 	addi	r2,r2,1
   102c4:	e0bfa515 	stw	r2,-364(fp)
   102c8:	e0bfa417 	ldw	r2,-368(fp)
   102cc:	10bfffc4 	addi	r2,r2,-1
   102d0:	e0ffd384 	addi	r3,fp,-178
   102d4:	1885883a 	add	r2,r3,r2
   102d8:	10800003 	ldbu	r2,0(r2)
   102dc:	10803fcc 	andi	r2,r2,255
   102e0:	e0ffa517 	ldw	r3,-364(fp)
   102e4:	18bfdc16 	blt	r3,r2,10258 <init_chroma_ac_tables+0x1fc>
            UINT8 sym = chroma_sym[p++];
            chrominance_ac_code_table[sym] = code;
            chrominance_ac_size_table[sym] = (UINT16)l;
            code++;
        }
        code <<= 1;
   102e8:	e0bfa60b 	ldhu	r2,-360(fp)
   102ec:	1085883a 	add	r2,r2,r2
   102f0:	e0bfa60d 	sth	r2,-360(fp)
        0xF9, 0xFA
    };

    p = 0;
    code = 0;
    for (l = 1; l <= 16; l++) {
   102f4:	e0bfa417 	ldw	r2,-368(fp)
   102f8:	10800044 	addi	r2,r2,1
   102fc:	e0bfa415 	stw	r2,-368(fp)
   10300:	e0bfa417 	ldw	r2,-368(fp)
   10304:	10800450 	cmplti	r2,r2,17
   10308:	103fd11e 	bne	r2,zero,10250 <init_chroma_ac_tables+0x1f4>
            chrominance_ac_size_table[sym] = (UINT16)l;
            code++;
        }
        code <<= 1;
    }
}
   1030c:	e037883a 	mov	sp,fp
   10310:	dfc00117 	ldw	ra,4(sp)
   10314:	df000017 	ldw	fp,0(sp)
   10318:	dec00204 	addi	sp,sp,8
   1031c:	f800283a 	ret

00010320 <get_vli_size>:
int bit_count = 0;
UINT8 byte_buffer = 0;
int has_odd_byte = 0;

// Calculates the bit-size (category) of a value for JPEG VLI encoding
static int get_vli_size(INT16 val) {
   10320:	defffd04 	addi	sp,sp,-12
   10324:	df000215 	stw	fp,8(sp)
   10328:	df000204 	addi	fp,sp,8
   1032c:	2005883a 	mov	r2,r4
   10330:	e0bfff0d 	sth	r2,-4(fp)
    if (val == 0) return 0;
   10334:	e0bfff0f 	ldh	r2,-4(fp)
   10338:	1000021e 	bne	r2,zero,10344 <get_vli_size+0x24>
   1033c:	0005883a 	mov	r2,zero
   10340:	00001006 	br	10384 <get_vli_size+0x64>
    if (val < 0) val = -val; // absolute value
   10344:	e0bfff0f 	ldh	r2,-4(fp)
   10348:	1000030e 	bge	r2,zero,10358 <get_vli_size+0x38>
   1034c:	e0bfff0b 	ldhu	r2,-4(fp)
   10350:	0085c83a 	sub	r2,zero,r2
   10354:	e0bfff0d 	sth	r2,-4(fp)
    int size = 0;
   10358:	e03ffe15 	stw	zero,-8(fp)
    while (val > 0) {
   1035c:	00000606 	br	10378 <get_vli_size+0x58>
        size++;
   10360:	e0bffe17 	ldw	r2,-8(fp)
   10364:	10800044 	addi	r2,r2,1
   10368:	e0bffe15 	stw	r2,-8(fp)
        val >>= 1;
   1036c:	e0bfff0f 	ldh	r2,-4(fp)
   10370:	1005d07a 	srai	r2,r2,1
   10374:	e0bfff0d 	sth	r2,-4(fp)
// Calculates the bit-size (category) of a value for JPEG VLI encoding
static int get_vli_size(INT16 val) {
    if (val == 0) return 0;
    if (val < 0) val = -val; // absolute value
    int size = 0;
    while (val > 0) {
   10378:	e0bfff0f 	ldh	r2,-4(fp)
   1037c:	00bff816 	blt	zero,r2,10360 <get_vli_size+0x40>
        size++;
        val >>= 1;
    }
    return size;
   10380:	e0bffe17 	ldw	r2,-8(fp)
}
   10384:	e037883a 	mov	sp,fp
   10388:	df000017 	ldw	fp,0(sp)
   1038c:	dec00104 	addi	sp,sp,4
   10390:	f800283a 	ret

00010394 <write_bits>:

// Writes bits, packs them into bytes, applies 0xFF byte stuffing,
// and bundles them into 16-bit words for the hardware FIFO.
int write_bits(UINT16 code, int size, INT16 *out_buffer) {
   10394:	defffa04 	addi	sp,sp,-24
   10398:	df000515 	stw	fp,20(sp)
   1039c:	df000504 	addi	fp,sp,20
   103a0:	2005883a 	mov	r2,r4
   103a4:	e17ffe15 	stw	r5,-8(fp)
   103a8:	e1bfff15 	stw	r6,-4(fp)
   103ac:	e0bffd0d 	sth	r2,-12(fp)
    int words_written = 0;
   103b0:	e03ffb15 	stw	zero,-20(fp)
    if (size == 0) return 0;
   103b4:	e0bffe17 	ldw	r2,-8(fp)
   103b8:	1000021e 	bne	r2,zero,103c4 <write_bits+0x30>
   103bc:	0005883a 	mov	r2,zero
   103c0:	00004606 	br	104dc <write_bits+0x148>

    // Push new bits into the buffer
    bit_buffer = (bit_buffer << size) | (code & ((1 << size) - 1));
   103c4:	d0e13e17 	ldw	r3,-31496(gp)
   103c8:	e0bffe17 	ldw	r2,-8(fp)
   103cc:	1886983a 	sll	r3,r3,r2
   103d0:	e13ffd0b 	ldhu	r4,-12(fp)
   103d4:	01400044 	movi	r5,1
   103d8:	e0bffe17 	ldw	r2,-8(fp)
   103dc:	2884983a 	sll	r2,r5,r2
   103e0:	10bfffc4 	addi	r2,r2,-1
   103e4:	2084703a 	and	r2,r4,r2
   103e8:	1884b03a 	or	r2,r3,r2
   103ec:	d0a13e15 	stw	r2,-31496(gp)
    bit_count += size;
   103f0:	d0e13f17 	ldw	r3,-31492(gp)
   103f4:	e0bffe17 	ldw	r2,-8(fp)
   103f8:	1885883a 	add	r2,r3,r2
   103fc:	d0a13f15 	stw	r2,-31492(gp)

    // Extract complete 8-bit bytes whenever we have enough bits
    while (bit_count >= 8) {
   10400:	00003206 	br	104cc <write_bits+0x138>
        bit_count -= 8;
   10404:	d0a13f17 	ldw	r2,-31492(gp)
   10408:	10bffe04 	addi	r2,r2,-8
   1040c:	d0a13f15 	stw	r2,-31492(gp)
        UINT8 out_byte = (bit_buffer >> bit_count) & 0xFF;
   10410:	d0e13e17 	ldw	r3,-31496(gp)
   10414:	d0a13f17 	ldw	r2,-31492(gp)
   10418:	1884d83a 	srl	r2,r3,r2
   1041c:	e0bffc05 	stb	r2,-16(fp)

        if (!has_odd_byte) {
   10420:	d0a14117 	ldw	r2,-31484(gp)
   10424:	1000051e 	bne	r2,zero,1043c <write_bits+0xa8>
            byte_buffer = out_byte;
   10428:	e0bffc03 	ldbu	r2,-16(fp)
   1042c:	d0a14005 	stb	r2,-31488(gp)
            has_odd_byte = 1;
   10430:	00800044 	movi	r2,1
   10434:	d0a14115 	stw	r2,-31484(gp)
   10438:	00000f06 	br	10478 <write_bits+0xe4>
        } else {
            // Pair the previous byte and current byte into a 16-bit word
            out_buffer[words_written++] = (INT16)((byte_buffer << 8) | out_byte);
   1043c:	e0bffb17 	ldw	r2,-20(fp)
   10440:	1085883a 	add	r2,r2,r2
   10444:	e0ffff17 	ldw	r3,-4(fp)
   10448:	1885883a 	add	r2,r3,r2
   1044c:	d0e14003 	ldbu	r3,-31488(gp)
   10450:	18c03fcc 	andi	r3,r3,255
   10454:	1806923a 	slli	r3,r3,8
   10458:	1809883a 	mov	r4,r3
   1045c:	e0fffc03 	ldbu	r3,-16(fp)
   10460:	20c6b03a 	or	r3,r4,r3
   10464:	10c0000d 	sth	r3,0(r2)
   10468:	e0bffb17 	ldw	r2,-20(fp)
   1046c:	10800044 	addi	r2,r2,1
   10470:	e0bffb15 	stw	r2,-20(fp)
            has_odd_byte = 0;
   10474:	d0214115 	stw	zero,-31484(gp)
        }

        // JPEG Standard: If we emit 0xFF, the VERY NEXT byte MUST be 0x00
        if (out_byte == 0xFF) {
   10478:	e0bffc03 	ldbu	r2,-16(fp)
   1047c:	10803fd8 	cmpnei	r2,r2,255
   10480:	1000121e 	bne	r2,zero,104cc <write_bits+0x138>
            if (!has_odd_byte) {
   10484:	d0a14117 	ldw	r2,-31484(gp)
   10488:	1000041e 	bne	r2,zero,1049c <write_bits+0x108>
                byte_buffer = 0x00;
   1048c:	d0214005 	stb	zero,-31488(gp)
                has_odd_byte = 1;
   10490:	00800044 	movi	r2,1
   10494:	d0a14115 	stw	r2,-31484(gp)
   10498:	00000c06 	br	104cc <write_bits+0x138>
            } else {
                out_buffer[words_written++] = (INT16)((byte_buffer << 8) | 0x00);
   1049c:	e0bffb17 	ldw	r2,-20(fp)
   104a0:	1085883a 	add	r2,r2,r2
   104a4:	e0ffff17 	ldw	r3,-4(fp)
   104a8:	1885883a 	add	r2,r3,r2
   104ac:	d0e14003 	ldbu	r3,-31488(gp)
   104b0:	18c03fcc 	andi	r3,r3,255
   104b4:	1806923a 	slli	r3,r3,8
   104b8:	10c0000d 	sth	r3,0(r2)
   104bc:	e0bffb17 	ldw	r2,-20(fp)
   104c0:	10800044 	addi	r2,r2,1
   104c4:	e0bffb15 	stw	r2,-20(fp)
                has_odd_byte = 0;
   104c8:	d0214115 	stw	zero,-31484(gp)
    // Push new bits into the buffer
    bit_buffer = (bit_buffer << size) | (code & ((1 << size) - 1));
    bit_count += size;

    // Extract complete 8-bit bytes whenever we have enough bits
    while (bit_count >= 8) {
   104cc:	d0a13f17 	ldw	r2,-31492(gp)
   104d0:	10800208 	cmpgei	r2,r2,8
   104d4:	103fcb1e 	bne	r2,zero,10404 <write_bits+0x70>
                out_buffer[words_written++] = (INT16)((byte_buffer << 8) | 0x00);
                has_odd_byte = 0;
            }
        }
    }
    return words_written;
   104d8:	e0bffb17 	ldw	r2,-20(fp)
}
   104dc:	e037883a 	mov	sp,fp
   104e0:	df000017 	ldw	fp,0(sp)
   104e4:	dec00104 	addi	sp,sp,4
   104e8:	f800283a 	ret

000104ec <huffman_flush>:

// Flushes any remaining bits in the buffer at the end of the image
int huffman_flush(INT16 *out_buffer) {
   104ec:	defffb04 	addi	sp,sp,-20
   104f0:	dfc00415 	stw	ra,16(sp)
   104f4:	df000315 	stw	fp,12(sp)
   104f8:	df000304 	addi	fp,sp,12
   104fc:	e13fff15 	stw	r4,-4(fp)
    int words_written = 0;
   10500:	e03ffd15 	stw	zero,-12(fp)

    // If there are leftover bits, pad the rest of the byte with 1s
    if (bit_count > 0) {
   10504:	d0a13f17 	ldw	r2,-31492(gp)
   10508:	0080140e 	bge	zero,r2,1055c <huffman_flush+0x70>
        int pad_size = 8 - bit_count;
   1050c:	d0a13f17 	ldw	r2,-31492(gp)
   10510:	00c00204 	movi	r3,8
   10514:	1885c83a 	sub	r2,r3,r2
   10518:	e0bffe15 	stw	r2,-8(fp)
        words_written += write_bits((1 << pad_size) - 1, pad_size, out_buffer + words_written);
   1051c:	00c00044 	movi	r3,1
   10520:	e0bffe17 	ldw	r2,-8(fp)
   10524:	1884983a 	sll	r2,r3,r2
   10528:	10bfffc4 	addi	r2,r2,-1
   1052c:	10ffffcc 	andi	r3,r2,65535
   10530:	e0bffd17 	ldw	r2,-12(fp)
   10534:	1085883a 	add	r2,r2,r2
   10538:	e13fff17 	ldw	r4,-4(fp)
   1053c:	2085883a 	add	r2,r4,r2
   10540:	1809883a 	mov	r4,r3
   10544:	e17ffe17 	ldw	r5,-8(fp)
   10548:	100d883a 	mov	r6,r2
   1054c:	00103940 	call	10394 <write_bits>
   10550:	e0fffd17 	ldw	r3,-12(fp)
   10554:	1885883a 	add	r2,r3,r2
   10558:	e0bffd15 	stw	r2,-12(fp)
    }
    
    // If we have an odd byte waiting to be paired into a 16-bit word, pad it with 0xFF
    if (has_odd_byte) {
   1055c:	d0a14117 	ldw	r2,-31484(gp)
   10560:	10000d26 	beq	r2,zero,10598 <huffman_flush+0xac>
        out_buffer[words_written++] = (INT16)((byte_buffer << 8) | 0xFF);
   10564:	e0bffd17 	ldw	r2,-12(fp)
   10568:	1085883a 	add	r2,r2,r2
   1056c:	e0ffff17 	ldw	r3,-4(fp)
   10570:	1885883a 	add	r2,r3,r2
   10574:	d0e14003 	ldbu	r3,-31488(gp)
   10578:	18c03fcc 	andi	r3,r3,255
   1057c:	1806923a 	slli	r3,r3,8
   10580:	18c03fd4 	ori	r3,r3,255
   10584:	10c0000d 	sth	r3,0(r2)
   10588:	e0bffd17 	ldw	r2,-12(fp)
   1058c:	10800044 	addi	r2,r2,1
   10590:	e0bffd15 	stw	r2,-12(fp)
        has_odd_byte = 0;
   10594:	d0214115 	stw	zero,-31484(gp)
    }

    return words_written;
   10598:	e0bffd17 	ldw	r2,-12(fp)
}
   1059c:	e037883a 	mov	sp,fp
   105a0:	dfc00117 	ldw	ra,4(sp)
   105a4:	df000017 	ldw	fp,0(sp)
   105a8:	dec00204 	addi	sp,sp,8
   105ac:	f800283a 	ret

000105b0 <huffman_encode_block>:

// The core Huffman compressor
int huffman_encode_block(INT16 *block, INT16 *prev_dc, int is_chroma, INT16 *out_fifo_buffer) {
   105b0:	deffed04 	addi	sp,sp,-76
   105b4:	dfc01215 	stw	ra,72(sp)
   105b8:	df001115 	stw	fp,68(sp)
   105bc:	df001104 	addi	fp,sp,68
   105c0:	e13ffc15 	stw	r4,-16(fp)
   105c4:	e17ffd15 	stw	r5,-12(fp)
   105c8:	e1bffe15 	stw	r6,-8(fp)
   105cc:	e1ffff15 	stw	r7,-4(fp)
    int words_generated = 0;
   105d0:	e03fef15 	stw	zero,-68(fp)
    
    // Select the correct tables based on Luminance vs. Chrominance
    UINT16 *dc_codes = is_chroma ? chrominance_dc_code_table : luminance_dc_code_table;
   105d4:	e0bffe17 	ldw	r2,-8(fp)
   105d8:	10000326 	beq	r2,zero,105e8 <huffman_encode_block+0x38>
   105dc:	00800074 	movhi	r2,1
   105e0:	10905f04 	addi	r2,r2,16764
   105e4:	00000206 	br	105f0 <huffman_encode_block+0x40>
   105e8:	00800074 	movhi	r2,1
   105ec:	10905304 	addi	r2,r2,16716
   105f0:	e0bff215 	stw	r2,-56(fp)
    UINT16 *dc_sizes = is_chroma ? chrominance_dc_size_table : luminance_dc_size_table;
   105f4:	e0bffe17 	ldw	r2,-8(fp)
   105f8:	10000326 	beq	r2,zero,10608 <huffman_encode_block+0x58>
   105fc:	00800074 	movhi	r2,1
   10600:	10906504 	addi	r2,r2,16788
   10604:	00000206 	br	10610 <huffman_encode_block+0x60>
   10608:	00800074 	movhi	r2,1
   1060c:	10905904 	addi	r2,r2,16740
   10610:	e0bff315 	stw	r2,-52(fp)
    UINT16 *ac_codes = is_chroma ? chrominance_ac_code_table : luminance_ac_code_table;
   10614:	e0bffe17 	ldw	r2,-8(fp)
   10618:	10000326 	beq	r2,zero,10628 <huffman_encode_block+0x78>
   1061c:	00800074 	movhi	r2,1
   10620:	1092c904 	addi	r2,r2,19236
   10624:	00000206 	br	10630 <huffman_encode_block+0x80>
   10628:	00800074 	movhi	r2,1
   1062c:	10944904 	addi	r2,r2,20772
   10630:	e0bff415 	stw	r2,-48(fp)
    UINT16 *ac_sizes = is_chroma ? chrominance_ac_size_table : luminance_ac_size_table;
   10634:	e0bffe17 	ldw	r2,-8(fp)
   10638:	10000326 	beq	r2,zero,10648 <huffman_encode_block+0x98>
   1063c:	00800074 	movhi	r2,1
   10640:	10934904 	addi	r2,r2,19748
   10644:	00000206 	br	10650 <huffman_encode_block+0xa0>
   10648:	00800074 	movhi	r2,1
   1064c:	1093c904 	addi	r2,r2,20260
   10650:	e0bff515 	stw	r2,-44(fp)

    // 1. DPCM Encode the DC Coefficient
    INT16 dc_diff = block[0] - *prev_dc;
   10654:	e0bffc17 	ldw	r2,-16(fp)
   10658:	1080000b 	ldhu	r2,0(r2)
   1065c:	1007883a 	mov	r3,r2
   10660:	e0bffd17 	ldw	r2,-12(fp)
   10664:	1080000b 	ldhu	r2,0(r2)
   10668:	1885c83a 	sub	r2,r3,r2
   1066c:	e0bff60d 	sth	r2,-40(fp)
    *prev_dc = block[0];
   10670:	e0bffc17 	ldw	r2,-16(fp)
   10674:	10c0000b 	ldhu	r3,0(r2)
   10678:	e0bffd17 	ldw	r2,-12(fp)
   1067c:	10c0000d 	sth	r3,0(r2)
    
    int dc_size = get_vli_size(dc_diff);
   10680:	e0bff60f 	ldh	r2,-40(fp)
   10684:	1009883a 	mov	r4,r2
   10688:	00103200 	call	10320 <get_vli_size>
   1068c:	e0bff715 	stw	r2,-36(fp)
    // Standard JPEG 1s complement for negative values
    UINT16 dc_vli = (dc_diff < 0) ? (dc_diff - 1) & ((1 << dc_size) - 1) : dc_diff;
   10690:	e0bff60f 	ldh	r2,-40(fp)
   10694:	1000090e 	bge	r2,zero,106bc <huffman_encode_block+0x10c>
   10698:	e0bff60b 	ldhu	r2,-40(fp)
   1069c:	10bfffc4 	addi	r2,r2,-1
   106a0:	1007883a 	mov	r3,r2
   106a4:	01000044 	movi	r4,1
   106a8:	e0bff717 	ldw	r2,-36(fp)
   106ac:	2084983a 	sll	r2,r4,r2
   106b0:	10bfffc4 	addi	r2,r2,-1
   106b4:	1884703a 	and	r2,r3,r2
   106b8:	00000106 	br	106c0 <huffman_encode_block+0x110>
   106bc:	e0bff60b 	ldhu	r2,-40(fp)
   106c0:	e0bff80d 	sth	r2,-32(fp)

    words_generated += write_bits(dc_codes[dc_size], dc_sizes[dc_size], out_fifo_buffer + words_generated);
   106c4:	e0bff717 	ldw	r2,-36(fp)
   106c8:	1085883a 	add	r2,r2,r2
   106cc:	e0fff217 	ldw	r3,-56(fp)
   106d0:	1885883a 	add	r2,r3,r2
   106d4:	1080000b 	ldhu	r2,0(r2)
   106d8:	113fffcc 	andi	r4,r2,65535
   106dc:	e0bff717 	ldw	r2,-36(fp)
   106e0:	1085883a 	add	r2,r2,r2
   106e4:	e0fff317 	ldw	r3,-52(fp)
   106e8:	1885883a 	add	r2,r3,r2
   106ec:	1080000b 	ldhu	r2,0(r2)
   106f0:	10ffffcc 	andi	r3,r2,65535
   106f4:	e0bfef17 	ldw	r2,-68(fp)
   106f8:	1085883a 	add	r2,r2,r2
   106fc:	e17fff17 	ldw	r5,-4(fp)
   10700:	2885883a 	add	r2,r5,r2
   10704:	180b883a 	mov	r5,r3
   10708:	100d883a 	mov	r6,r2
   1070c:	00103940 	call	10394 <write_bits>
   10710:	e0ffef17 	ldw	r3,-68(fp)
   10714:	1885883a 	add	r2,r3,r2
   10718:	e0bfef15 	stw	r2,-68(fp)
    if (dc_size > 0) {
   1071c:	e0bff717 	ldw	r2,-36(fp)
   10720:	00800c0e 	bge	zero,r2,10754 <huffman_encode_block+0x1a4>
        words_generated += write_bits(dc_vli, dc_size, out_fifo_buffer + words_generated);
   10724:	e0fff80b 	ldhu	r3,-32(fp)
   10728:	e0bfef17 	ldw	r2,-68(fp)
   1072c:	1085883a 	add	r2,r2,r2
   10730:	e13fff17 	ldw	r4,-4(fp)
   10734:	2085883a 	add	r2,r4,r2
   10738:	1809883a 	mov	r4,r3
   1073c:	e17ff717 	ldw	r5,-36(fp)
   10740:	100d883a 	mov	r6,r2
   10744:	00103940 	call	10394 <write_bits>
   10748:	e0ffef17 	ldw	r3,-68(fp)
   1074c:	1885883a 	add	r2,r3,r2
   10750:	e0bfef15 	stw	r2,-68(fp)
    }
    
    // 2. Run-Length Encode the AC Coefficients
    int zero_run = 0;
   10754:	e03ff015 	stw	zero,-64(fp)
    int i;
    for (i = 1; i < 64; i++) {
   10758:	00800044 	movi	r2,1
   1075c:	e0bff115 	stw	r2,-60(fp)
   10760:	00007706 	br	10940 <huffman_encode_block+0x390>
        if (block[i] == 0) {
   10764:	e0bff117 	ldw	r2,-60(fp)
   10768:	1085883a 	add	r2,r2,r2
   1076c:	e0fffc17 	ldw	r3,-16(fp)
   10770:	1885883a 	add	r2,r3,r2
   10774:	1080000b 	ldhu	r2,0(r2)
   10778:	10bfffcc 	andi	r2,r2,65535
   1077c:	10a0001c 	xori	r2,r2,32768
   10780:	10a00004 	addi	r2,r2,-32768
   10784:	1000191e 	bne	r2,zero,107ec <huffman_encode_block+0x23c>
            zero_run++;
   10788:	e0bff017 	ldw	r2,-64(fp)
   1078c:	10800044 	addi	r2,r2,1
   10790:	e0bff015 	stw	r2,-64(fp)
   10794:	00006706 	br	10934 <huffman_encode_block+0x384>
        } else {
            // Write ZRL (Zero Run Length) markers for every 16 consecutive zeros
            while (zero_run >= 16) {
                words_generated += write_bits(ac_codes[0xF0], ac_sizes[0xF0], out_fifo_buffer + words_generated);
   10798:	e0bff417 	ldw	r2,-48(fp)
   1079c:	10807804 	addi	r2,r2,480
   107a0:	1080000b 	ldhu	r2,0(r2)
   107a4:	113fffcc 	andi	r4,r2,65535
   107a8:	e0bff517 	ldw	r2,-44(fp)
   107ac:	10807804 	addi	r2,r2,480
   107b0:	1080000b 	ldhu	r2,0(r2)
   107b4:	10ffffcc 	andi	r3,r2,65535
   107b8:	e0bfef17 	ldw	r2,-68(fp)
   107bc:	1085883a 	add	r2,r2,r2
   107c0:	e17fff17 	ldw	r5,-4(fp)
   107c4:	2885883a 	add	r2,r5,r2
   107c8:	180b883a 	mov	r5,r3
   107cc:	100d883a 	mov	r6,r2
   107d0:	00103940 	call	10394 <write_bits>
   107d4:	e0ffef17 	ldw	r3,-68(fp)
   107d8:	1885883a 	add	r2,r3,r2
   107dc:	e0bfef15 	stw	r2,-68(fp)
                zero_run -= 16;
   107e0:	e0bff017 	ldw	r2,-64(fp)
   107e4:	10bffc04 	addi	r2,r2,-16
   107e8:	e0bff015 	stw	r2,-64(fp)
    for (i = 1; i < 64; i++) {
        if (block[i] == 0) {
            zero_run++;
        } else {
            // Write ZRL (Zero Run Length) markers for every 16 consecutive zeros
            while (zero_run >= 16) {
   107ec:	e0bff017 	ldw	r2,-64(fp)
   107f0:	10800408 	cmpgei	r2,r2,16
   107f4:	103fe81e 	bne	r2,zero,10798 <huffman_encode_block+0x1e8>
                words_generated += write_bits(ac_codes[0xF0], ac_sizes[0xF0], out_fifo_buffer + words_generated);
                zero_run -= 16;
            }

            int ac_size = get_vli_size(block[i]);
   107f8:	e0bff117 	ldw	r2,-60(fp)
   107fc:	1085883a 	add	r2,r2,r2
   10800:	e0fffc17 	ldw	r3,-16(fp)
   10804:	1885883a 	add	r2,r3,r2
   10808:	1080000b 	ldhu	r2,0(r2)
   1080c:	10bfffcc 	andi	r2,r2,65535
   10810:	10a0001c 	xori	r2,r2,32768
   10814:	10a00004 	addi	r2,r2,-32768
   10818:	1009883a 	mov	r4,r2
   1081c:	00103200 	call	10320 <get_vli_size>
   10820:	e0bff915 	stw	r2,-28(fp)
            UINT16 ac_vli = (block[i] < 0) ? (block[i] - 1) & ((1 << ac_size) - 1) : block[i];
   10824:	e0bff117 	ldw	r2,-60(fp)
   10828:	1085883a 	add	r2,r2,r2
   1082c:	e0fffc17 	ldw	r3,-16(fp)
   10830:	1885883a 	add	r2,r3,r2
   10834:	1080000b 	ldhu	r2,0(r2)
   10838:	10bfffcc 	andi	r2,r2,65535
   1083c:	10a0001c 	xori	r2,r2,32768
   10840:	10a00004 	addi	r2,r2,-32768
   10844:	10000d0e 	bge	r2,zero,1087c <huffman_encode_block+0x2cc>
   10848:	e0bff117 	ldw	r2,-60(fp)
   1084c:	1085883a 	add	r2,r2,r2
   10850:	e0fffc17 	ldw	r3,-16(fp)
   10854:	1885883a 	add	r2,r3,r2
   10858:	1080000b 	ldhu	r2,0(r2)
   1085c:	10bfffc4 	addi	r2,r2,-1
   10860:	1007883a 	mov	r3,r2
   10864:	01000044 	movi	r4,1
   10868:	e0bff917 	ldw	r2,-28(fp)
   1086c:	2084983a 	sll	r2,r4,r2
   10870:	10bfffc4 	addi	r2,r2,-1
   10874:	1884703a 	and	r2,r3,r2
   10878:	00000506 	br	10890 <huffman_encode_block+0x2e0>
   1087c:	e0bff117 	ldw	r2,-60(fp)
   10880:	1085883a 	add	r2,r2,r2
   10884:	e0fffc17 	ldw	r3,-16(fp)
   10888:	1885883a 	add	r2,r3,r2
   1088c:	1080000b 	ldhu	r2,0(r2)
   10890:	e0bffa0d 	sth	r2,-24(fp)

            // The high nibble is the run length, the low nibble is the size
            int symbol = (zero_run << 4) | ac_size;
   10894:	e0bff017 	ldw	r2,-64(fp)
   10898:	1006913a 	slli	r3,r2,4
   1089c:	e0bff917 	ldw	r2,-28(fp)
   108a0:	1884b03a 	or	r2,r3,r2
   108a4:	e0bffb15 	stw	r2,-20(fp)

            words_generated += write_bits(ac_codes[symbol], ac_sizes[symbol], out_fifo_buffer + words_generated);
   108a8:	e0bffb17 	ldw	r2,-20(fp)
   108ac:	1085883a 	add	r2,r2,r2
   108b0:	e0fff417 	ldw	r3,-48(fp)
   108b4:	1885883a 	add	r2,r3,r2
   108b8:	1080000b 	ldhu	r2,0(r2)
   108bc:	113fffcc 	andi	r4,r2,65535
   108c0:	e0bffb17 	ldw	r2,-20(fp)
   108c4:	1085883a 	add	r2,r2,r2
   108c8:	e0fff517 	ldw	r3,-44(fp)
   108cc:	1885883a 	add	r2,r3,r2
   108d0:	1080000b 	ldhu	r2,0(r2)
   108d4:	10ffffcc 	andi	r3,r2,65535
   108d8:	e0bfef17 	ldw	r2,-68(fp)
   108dc:	1085883a 	add	r2,r2,r2
   108e0:	e17fff17 	ldw	r5,-4(fp)
   108e4:	2885883a 	add	r2,r5,r2
   108e8:	180b883a 	mov	r5,r3
   108ec:	100d883a 	mov	r6,r2
   108f0:	00103940 	call	10394 <write_bits>
   108f4:	e0ffef17 	ldw	r3,-68(fp)
   108f8:	1885883a 	add	r2,r3,r2
   108fc:	e0bfef15 	stw	r2,-68(fp)
            words_generated += write_bits(ac_vli, ac_size, out_fifo_buffer + words_generated);
   10900:	e0fffa0b 	ldhu	r3,-24(fp)
   10904:	e0bfef17 	ldw	r2,-68(fp)
   10908:	1085883a 	add	r2,r2,r2
   1090c:	e13fff17 	ldw	r4,-4(fp)
   10910:	2085883a 	add	r2,r4,r2
   10914:	1809883a 	mov	r4,r3
   10918:	e17ff917 	ldw	r5,-28(fp)
   1091c:	100d883a 	mov	r6,r2
   10920:	00103940 	call	10394 <write_bits>
   10924:	e0ffef17 	ldw	r3,-68(fp)
   10928:	1885883a 	add	r2,r3,r2
   1092c:	e0bfef15 	stw	r2,-68(fp)
            zero_run = 0;
   10930:	e03ff015 	stw	zero,-64(fp)
    }
    
    // 2. Run-Length Encode the AC Coefficients
    int zero_run = 0;
    int i;
    for (i = 1; i < 64; i++) {
   10934:	e0bff117 	ldw	r2,-60(fp)
   10938:	10800044 	addi	r2,r2,1
   1093c:	e0bff115 	stw	r2,-60(fp)
   10940:	e0bff117 	ldw	r2,-60(fp)
   10944:	10801010 	cmplti	r2,r2,64
   10948:	103f861e 	bne	r2,zero,10764 <huffman_encode_block+0x1b4>
            zero_run = 0;
        }
    }
    
    // 3. Write End of Block (EOB) if block ends with zeros
    if (zero_run > 0) {
   1094c:	e0bff017 	ldw	r2,-64(fp)
   10950:	0080100e 	bge	zero,r2,10994 <huffman_encode_block+0x3e4>
        words_generated += write_bits(ac_codes[0x00], ac_sizes[0x00], out_fifo_buffer + words_generated);
   10954:	e0bff417 	ldw	r2,-48(fp)
   10958:	1080000b 	ldhu	r2,0(r2)
   1095c:	113fffcc 	andi	r4,r2,65535
   10960:	e0bff517 	ldw	r2,-44(fp)
   10964:	1080000b 	ldhu	r2,0(r2)
   10968:	10ffffcc 	andi	r3,r2,65535
   1096c:	e0bfef17 	ldw	r2,-68(fp)
   10970:	1085883a 	add	r2,r2,r2
   10974:	e17fff17 	ldw	r5,-4(fp)
   10978:	2885883a 	add	r2,r5,r2
   1097c:	180b883a 	mov	r5,r3
   10980:	100d883a 	mov	r6,r2
   10984:	00103940 	call	10394 <write_bits>
   10988:	e0ffef17 	ldw	r3,-68(fp)
   1098c:	1885883a 	add	r2,r3,r2
   10990:	e0bfef15 	stw	r2,-68(fp)
    }
    
    return words_generated;
   10994:	e0bfef17 	ldw	r2,-68(fp)
}
   10998:	e037883a 	mov	sp,fp
   1099c:	dfc00117 	ldw	ra,4(sp)
   109a0:	df000017 	ldw	fp,0(sp)
   109a4:	dec00204 	addi	sp,sp,8
   109a8:	f800283a 	ret

000109ac <receive_dht_from_stage1>:
extern int huffman_encode_block(INT16 *block, INT16 *prev_dc, int is_chroma, INT16 *out_fifo_buffer);

// --- MOVED TO GLOBAL MEMORY TO PREVENT STACK OVERFLOW ---
INT16 stream_buffer[256];

void receive_dht_from_stage1() {
   109ac:	defffe04 	addi	sp,sp,-8
   109b0:	dfc00115 	stw	ra,4(sp)
   109b4:	df000015 	stw	fp,0(sp)
   109b8:	d839883a 	mov	fp,sp
    fifo_read_block(FIFO_1_IN_BASE, FIFO_1_IN_CSR_BASE, (INT16*)luminance_dc_code_table, 12);
   109bc:	010000b4 	movhi	r4,2
   109c0:	21042404 	addi	r4,r4,4240
   109c4:	014000b4 	movhi	r5,2
   109c8:	29440004 	addi	r5,r5,4096
   109cc:	01800074 	movhi	r6,1
   109d0:	31905304 	addi	r6,r6,16716
   109d4:	01c00304 	movi	r7,12
   109d8:	0010f0c0 	call	10f0c <fifo_read_block>
    fifo_read_block(FIFO_1_IN_BASE, FIFO_1_IN_CSR_BASE, (INT16*)luminance_dc_size_table, 12);
   109dc:	010000b4 	movhi	r4,2
   109e0:	21042404 	addi	r4,r4,4240
   109e4:	014000b4 	movhi	r5,2
   109e8:	29440004 	addi	r5,r5,4096
   109ec:	01800074 	movhi	r6,1
   109f0:	31905904 	addi	r6,r6,16740
   109f4:	01c00304 	movi	r7,12
   109f8:	0010f0c0 	call	10f0c <fifo_read_block>
    fifo_read_block(FIFO_1_IN_BASE, FIFO_1_IN_CSR_BASE, (INT16*)chrominance_dc_code_table, 12);
   109fc:	010000b4 	movhi	r4,2
   10a00:	21042404 	addi	r4,r4,4240
   10a04:	014000b4 	movhi	r5,2
   10a08:	29440004 	addi	r5,r5,4096
   10a0c:	01800074 	movhi	r6,1
   10a10:	31905f04 	addi	r6,r6,16764
   10a14:	01c00304 	movi	r7,12
   10a18:	0010f0c0 	call	10f0c <fifo_read_block>
    fifo_read_block(FIFO_1_IN_BASE, FIFO_1_IN_CSR_BASE, (INT16*)chrominance_dc_size_table, 12);
   10a1c:	010000b4 	movhi	r4,2
   10a20:	21042404 	addi	r4,r4,4240
   10a24:	014000b4 	movhi	r5,2
   10a28:	29440004 	addi	r5,r5,4096
   10a2c:	01800074 	movhi	r6,1
   10a30:	31906504 	addi	r6,r6,16788
   10a34:	01c00304 	movi	r7,12
   10a38:	0010f0c0 	call	10f0c <fifo_read_block>
    fifo_read_block(FIFO_1_IN_BASE, FIFO_1_IN_CSR_BASE, (INT16*)luminance_ac_code_table, 256);
   10a3c:	010000b4 	movhi	r4,2
   10a40:	21042404 	addi	r4,r4,4240
   10a44:	014000b4 	movhi	r5,2
   10a48:	29440004 	addi	r5,r5,4096
   10a4c:	01800074 	movhi	r6,1
   10a50:	31944904 	addi	r6,r6,20772
   10a54:	01c04004 	movi	r7,256
   10a58:	0010f0c0 	call	10f0c <fifo_read_block>
    fifo_read_block(FIFO_1_IN_BASE, FIFO_1_IN_CSR_BASE, (INT16*)luminance_ac_size_table, 256);
   10a5c:	010000b4 	movhi	r4,2
   10a60:	21042404 	addi	r4,r4,4240
   10a64:	014000b4 	movhi	r5,2
   10a68:	29440004 	addi	r5,r5,4096
   10a6c:	01800074 	movhi	r6,1
   10a70:	3193c904 	addi	r6,r6,20260
   10a74:	01c04004 	movi	r7,256
   10a78:	0010f0c0 	call	10f0c <fifo_read_block>
    fifo_read_block(FIFO_1_IN_BASE, FIFO_1_IN_CSR_BASE, (INT16*)chrominance_ac_code_table, 256);
   10a7c:	010000b4 	movhi	r4,2
   10a80:	21042404 	addi	r4,r4,4240
   10a84:	014000b4 	movhi	r5,2
   10a88:	29440004 	addi	r5,r5,4096
   10a8c:	01800074 	movhi	r6,1
   10a90:	3192c904 	addi	r6,r6,19236
   10a94:	01c04004 	movi	r7,256
   10a98:	0010f0c0 	call	10f0c <fifo_read_block>
    fifo_read_block(FIFO_1_IN_BASE, FIFO_1_IN_CSR_BASE, (INT16*)chrominance_ac_size_table, 256);
   10a9c:	010000b4 	movhi	r4,2
   10aa0:	21042404 	addi	r4,r4,4240
   10aa4:	014000b4 	movhi	r5,2
   10aa8:	29440004 	addi	r5,r5,4096
   10aac:	01800074 	movhi	r6,1
   10ab0:	31934904 	addi	r6,r6,19748
   10ab4:	01c04004 	movi	r7,256
   10ab8:	0010f0c0 	call	10f0c <fifo_read_block>
}
   10abc:	e037883a 	mov	sp,fp
   10ac0:	dfc00117 	ldw	ra,4(sp)
   10ac4:	df000017 	ldw	fp,0(sp)
   10ac8:	dec00204 	addi	sp,sp,8
   10acc:	f800283a 	ret

00010ad0 <main>:

int main() {
   10ad0:	deff8c04 	addi	sp,sp,-464
   10ad4:	dfc07315 	stw	ra,460(sp)
   10ad8:	df007215 	stw	fp,456(sp)
   10adc:	dc007115 	stw	r16,452(sp)
   10ae0:	df007104 	addi	fp,sp,452
    printf("--- Nios II: Stage 5 (Huffman Encoding) ---\n");
   10ae4:	01000074 	movhi	r4,1
   10ae8:	210fba04 	addi	r4,r4,16104
   10aec:	0011e280 	call	11e28 <puts>
    fifo_init(FIFO_IN_CSR_BASE);
   10af0:	010000b4 	movhi	r4,2
   10af4:	21040804 	addi	r4,r4,4128
   10af8:	0010edc0 	call	10edc <fifo_init>
    fifo_init(FIFO_OUT_CSR_BASE);
   10afc:	010000b4 	movhi	r4,2
   10b00:	21041004 	addi	r4,r4,4160
   10b04:	0010edc0 	call	10edc <fifo_init>
    fifo_init(FIFO_1_IN_CSR_BASE);
   10b08:	010000b4 	movhi	r4,2
   10b0c:	21040004 	addi	r4,r4,4096
   10b10:	0010edc0 	call	10edc <fifo_init>

    int image_counter = 1;
   10b14:	00800044 	movi	r2,1
   10b18:	e0bf8f15 	stw	r2,-452(fp)

    // --- INFINITE BATCH PROCESSING LOOP ---
    while (1) {
        printf("\nStage 5: Ready for Image #%d...\n", image_counter++);
   10b1c:	e0bf8f17 	ldw	r2,-452(fp)
   10b20:	e0ff8f17 	ldw	r3,-452(fp)
   10b24:	18c00044 	addi	r3,r3,1
   10b28:	e0ff8f15 	stw	r3,-452(fp)
   10b2c:	01000074 	movhi	r4,1
   10b30:	210fc504 	addi	r4,r4,16148
   10b34:	100b883a 	mov	r5,r2
   10b38:	0011d5c0 	call	11d5c <printf>

        // Grab fresh tables from Master Controller for this specific image
        receive_dht_from_stage1();
   10b3c:	00109ac0 	call	109ac <receive_dht_from_stage1>

        INT16 dimension_packet[2];
        fifo_read_block(FIFO_IN_BASE, FIFO_IN_CSR_BASE, dimension_packet, 2);
   10b40:	e0bf9d04 	addi	r2,fp,-396
   10b44:	010000b4 	movhi	r4,2
   10b48:	21042504 	addi	r4,r4,4244
   10b4c:	014000b4 	movhi	r5,2
   10b50:	29440804 	addi	r5,r5,4128
   10b54:	100d883a 	mov	r6,r2
   10b58:	01c00084 	movi	r7,2
   10b5c:	0010f0c0 	call	10f0c <fifo_read_block>
        int width = (int)dimension_packet[0];
   10b60:	e0bf9d0b 	ldhu	r2,-396(fp)
   10b64:	10bfffcc 	andi	r2,r2,65535
   10b68:	10a0001c 	xori	r2,r2,32768
   10b6c:	10a00004 	addi	r2,r2,-32768
   10b70:	e0bf9215 	stw	r2,-440(fp)
        int height = (int)dimension_packet[1];
   10b74:	e0bf9d8b 	ldhu	r2,-394(fp)
   10b78:	10bfffcc 	andi	r2,r2,65535
   10b7c:	10a0001c 	xori	r2,r2,32768
   10b80:	10a00004 	addi	r2,r2,-32768
   10b84:	e0bf9315 	stw	r2,-436(fp)

        // 4:4:4 format as dictated by readYUV.c
        int total_mcus = ((width + 7) / 8) * ((height + 7) / 8);
   10b88:	e0bf9217 	ldw	r2,-440(fp)
   10b8c:	108001c4 	addi	r2,r2,7
   10b90:	1000010e 	bge	r2,zero,10b98 <main+0xc8>
   10b94:	108001c4 	addi	r2,r2,7
   10b98:	1005d0fa 	srai	r2,r2,3
   10b9c:	1007883a 	mov	r3,r2
   10ba0:	e0bf9317 	ldw	r2,-436(fp)
   10ba4:	108001c4 	addi	r2,r2,7
   10ba8:	1000010e 	bge	r2,zero,10bb0 <main+0xe0>
   10bac:	108001c4 	addi	r2,r2,7
   10bb0:	1005d0fa 	srai	r2,r2,3
   10bb4:	1809883a 	mov	r4,r3
   10bb8:	100b883a 	mov	r5,r2
   10bbc:	00118640 	call	11864 <__mulsi3>
   10bc0:	e0bf9415 	stw	r2,-432(fp)

        INT16 Y_in[64], Cb_in[64], Cr_in[64];

        // --- CRITICAL: PREDICTORS MUST BE RESET TO 0 FOR EVERY NEW IMAGE ---
        INT16 prev_dc_y = 0, prev_dc_cb = 0, prev_dc_cr = 0;
   10bc4:	e03f9e0d 	sth	zero,-392(fp)
   10bc8:	e03f9e8d 	sth	zero,-390(fp)
   10bcc:	e03f9f0d 	sth	zero,-388(fp)

        // --- BENCHMARK VARIABLES ---
        alt_u32 start_time, end_time, ticks;

        printf("Stage 5: Starting MCU processing...\n");
   10bd0:	01000074 	movhi	r4,1
   10bd4:	210fce04 	addi	r4,r4,16184
   10bd8:	0011e280 	call	11e28 <puts>

        // --- START TIMER ---
        if (alt_timestamp_start() < 0) {
   10bdc:	0012dfc0 	call	12dfc <alt_timestamp_start>
   10be0:	1000030e 	bge	r2,zero,10bf0 <main+0x120>
            printf("Timer Error: Check BSP settings!\n");
   10be4:	01000074 	movhi	r4,1
   10be8:	210fd704 	addi	r4,r4,16220
   10bec:	0011e280 	call	11e28 <puts>
        }
        start_time = alt_timestamp();
   10bf0:	0012e840 	call	12e84 <alt_timestamp>
   10bf4:	e0bf9515 	stw	r2,-428(fp)

        int i, words_to_send;
        for (i = 0; i < total_mcus; i++) {
   10bf8:	e03f9115 	stw	zero,-444(fp)
   10bfc:	00005406 	br	10d50 <main+0x280>
            // Read the perfectly zig-zagged blocks directly from Stage 4
            fifo_read_block(FIFO_IN_BASE, FIFO_IN_CSR_BASE, Y_in, 64);
   10c00:	e0bfdf84 	addi	r2,fp,-130
   10c04:	010000b4 	movhi	r4,2
   10c08:	21042504 	addi	r4,r4,4244
   10c0c:	014000b4 	movhi	r5,2
   10c10:	29440804 	addi	r5,r5,4128
   10c14:	100d883a 	mov	r6,r2
   10c18:	01c01004 	movi	r7,64
   10c1c:	0010f0c0 	call	10f0c <fifo_read_block>
            fifo_read_block(FIFO_IN_BASE, FIFO_IN_CSR_BASE, Cb_in, 64);
   10c20:	e0bfbf84 	addi	r2,fp,-258
   10c24:	010000b4 	movhi	r4,2
   10c28:	21042504 	addi	r4,r4,4244
   10c2c:	014000b4 	movhi	r5,2
   10c30:	29440804 	addi	r5,r5,4128
   10c34:	100d883a 	mov	r6,r2
   10c38:	01c01004 	movi	r7,64
   10c3c:	0010f0c0 	call	10f0c <fifo_read_block>
            fifo_read_block(FIFO_IN_BASE, FIFO_IN_CSR_BASE, Cr_in, 64);
   10c40:	e0bf9f84 	addi	r2,fp,-386
   10c44:	010000b4 	movhi	r4,2
   10c48:	21042504 	addi	r4,r4,4244
   10c4c:	014000b4 	movhi	r5,2
   10c50:	29440804 	addi	r5,r5,4128
   10c54:	100d883a 	mov	r6,r2
   10c58:	01c01004 	movi	r7,64
   10c5c:	0010f0c0 	call	10f0c <fifo_read_block>

            // Pass them straight into the encoder!
            words_to_send = huffman_encode_block(Y_in, &prev_dc_y, 0, stream_buffer);
   10c60:	e0ffdf84 	addi	r3,fp,-130
   10c64:	e0bf9e04 	addi	r2,fp,-392
   10c68:	1809883a 	mov	r4,r3
   10c6c:	100b883a 	mov	r5,r2
   10c70:	000d883a 	mov	r6,zero
   10c74:	01c00074 	movhi	r7,1
   10c78:	39d4c904 	addi	r7,r7,21284
   10c7c:	00105b00 	call	105b0 <huffman_encode_block>
   10c80:	e0bf9615 	stw	r2,-424(fp)
            if (words_to_send > 0) fifo_write_block(FIFO_OUT_BASE, FIFO_OUT_CSR_BASE, stream_buffer, words_to_send);
   10c84:	e0bf9617 	ldw	r2,-424(fp)
   10c88:	0080080e 	bge	zero,r2,10cac <main+0x1dc>
   10c8c:	010000b4 	movhi	r4,2
   10c90:	21042604 	addi	r4,r4,4248
   10c94:	014000b4 	movhi	r5,2
   10c98:	29441004 	addi	r5,r5,4160
   10c9c:	01800074 	movhi	r6,1
   10ca0:	3194c904 	addi	r6,r6,21284
   10ca4:	e1ff9617 	ldw	r7,-424(fp)
   10ca8:	0010f8c0 	call	10f8c <fifo_write_block>

            words_to_send = huffman_encode_block(Cb_in, &prev_dc_cb, 1, stream_buffer);
   10cac:	e0ffbf84 	addi	r3,fp,-258
   10cb0:	e0bf9e84 	addi	r2,fp,-390
   10cb4:	1809883a 	mov	r4,r3
   10cb8:	100b883a 	mov	r5,r2
   10cbc:	01800044 	movi	r6,1
   10cc0:	01c00074 	movhi	r7,1
   10cc4:	39d4c904 	addi	r7,r7,21284
   10cc8:	00105b00 	call	105b0 <huffman_encode_block>
   10ccc:	e0bf9615 	stw	r2,-424(fp)
            if (words_to_send > 0) fifo_write_block(FIFO_OUT_BASE, FIFO_OUT_CSR_BASE, stream_buffer, words_to_send);
   10cd0:	e0bf9617 	ldw	r2,-424(fp)
   10cd4:	0080080e 	bge	zero,r2,10cf8 <main+0x228>
   10cd8:	010000b4 	movhi	r4,2
   10cdc:	21042604 	addi	r4,r4,4248
   10ce0:	014000b4 	movhi	r5,2
   10ce4:	29441004 	addi	r5,r5,4160
   10ce8:	01800074 	movhi	r6,1
   10cec:	3194c904 	addi	r6,r6,21284
   10cf0:	e1ff9617 	ldw	r7,-424(fp)
   10cf4:	0010f8c0 	call	10f8c <fifo_write_block>

            words_to_send = huffman_encode_block(Cr_in, &prev_dc_cr, 1, stream_buffer);
   10cf8:	e0ff9f84 	addi	r3,fp,-386
   10cfc:	e0bf9f04 	addi	r2,fp,-388
   10d00:	1809883a 	mov	r4,r3
   10d04:	100b883a 	mov	r5,r2
   10d08:	01800044 	movi	r6,1
   10d0c:	01c00074 	movhi	r7,1
   10d10:	39d4c904 	addi	r7,r7,21284
   10d14:	00105b00 	call	105b0 <huffman_encode_block>
   10d18:	e0bf9615 	stw	r2,-424(fp)
            if (words_to_send > 0) fifo_write_block(FIFO_OUT_BASE, FIFO_OUT_CSR_BASE, stream_buffer, words_to_send);
   10d1c:	e0bf9617 	ldw	r2,-424(fp)
   10d20:	0080080e 	bge	zero,r2,10d44 <main+0x274>
   10d24:	010000b4 	movhi	r4,2
   10d28:	21042604 	addi	r4,r4,4248
   10d2c:	014000b4 	movhi	r5,2
   10d30:	29441004 	addi	r5,r5,4160
   10d34:	01800074 	movhi	r6,1
   10d38:	3194c904 	addi	r6,r6,21284
   10d3c:	e1ff9617 	ldw	r7,-424(fp)
   10d40:	0010f8c0 	call	10f8c <fifo_write_block>
            printf("Timer Error: Check BSP settings!\n");
        }
        start_time = alt_timestamp();

        int i, words_to_send;
        for (i = 0; i < total_mcus; i++) {
   10d44:	e0bf9117 	ldw	r2,-444(fp)
   10d48:	10800044 	addi	r2,r2,1
   10d4c:	e0bf9115 	stw	r2,-444(fp)
   10d50:	e0ff9117 	ldw	r3,-444(fp)
   10d54:	e0bf9417 	ldw	r2,-432(fp)
   10d58:	18bfa916 	blt	r3,r2,10c00 <main+0x130>
            words_to_send = huffman_encode_block(Cr_in, &prev_dc_cr, 1, stream_buffer);
            if (words_to_send > 0) fifo_write_block(FIFO_OUT_BASE, FIFO_OUT_CSR_BASE, stream_buffer, words_to_send);
        }

        // Flush any remaining bits in the Huffman buffer
        int flush_words = huffman_flush(stream_buffer);
   10d5c:	01000074 	movhi	r4,1
   10d60:	2114c904 	addi	r4,r4,21284
   10d64:	00104ec0 	call	104ec <huffman_flush>
   10d68:	e0bf9715 	stw	r2,-420(fp)
        if (flush_words > 0) fifo_write_block(FIFO_OUT_BASE, FIFO_OUT_CSR_BASE, stream_buffer, flush_words);
   10d6c:	e0bf9717 	ldw	r2,-420(fp)
   10d70:	0080080e 	bge	zero,r2,10d94 <main+0x2c4>
   10d74:	010000b4 	movhi	r4,2
   10d78:	21042604 	addi	r4,r4,4248
   10d7c:	014000b4 	movhi	r5,2
   10d80:	29441004 	addi	r5,r5,4160
   10d84:	01800074 	movhi	r6,1
   10d88:	3194c904 	addi	r6,r6,21284
   10d8c:	e1ff9717 	ldw	r7,-420(fp)
   10d90:	0010f8c0 	call	10f8c <fifo_write_block>

        // --- STOP CLOCK ---
        end_time = alt_timestamp();
   10d94:	0012e840 	call	12e84 <alt_timestamp>
   10d98:	e0bf9815 	stw	r2,-416(fp)

        // --- SAFE MATH TO PREVENT OVERFLOW ---
        ticks = end_time - start_time;
   10d9c:	e0ff9817 	ldw	r3,-416(fp)
   10da0:	e0bf9517 	ldw	r2,-428(fp)
   10da4:	1885c83a 	sub	r2,r3,r2
   10da8:	e0bf9015 	stw	r2,-448(fp)
        if (ticks == 0) ticks = 1;
   10dac:	e0bf9017 	ldw	r2,-448(fp)
   10db0:	1000021e 	bne	r2,zero,10dbc <main+0x2ec>
   10db4:	00800044 	movi	r2,1
   10db8:	e0bf9015 	stw	r2,-448(fp)
        alt_u32 freq = alt_timestamp_freq();
   10dbc:	0012f140 	call	12f14 <alt_timestamp_freq>
   10dc0:	e0bf9915 	stw	r2,-412(fp)
        float secs = (float)ticks / (float)freq;
   10dc4:	e13f9017 	ldw	r4,-448(fp)
   10dc8:	00117900 	call	11790 <__floatunsisf>
   10dcc:	1021883a 	mov	r16,r2
   10dd0:	e13f9917 	ldw	r4,-412(fp)
   10dd4:	00117900 	call	11790 <__floatunsisf>
   10dd8:	1007883a 	mov	r3,r2
   10ddc:	8009883a 	mov	r4,r16
   10de0:	180b883a 	mov	r5,r3
   10de4:	00114b00 	call	114b0 <__divsf3>
   10de8:	1007883a 	mov	r3,r2
   10dec:	e0ff9a15 	stw	r3,-408(fp)
        alt_u32 time_ms = (alt_u32)(secs * 1000.0f);
   10df0:	e13f9a17 	ldw	r4,-408(fp)
   10df4:	01511eb4 	movhi	r5,17530
   10df8:	00113200 	call	11320 <__mulsf3>
   10dfc:	1007883a 	mov	r3,r2
   10e00:	1805883a 	mov	r2,r3
   10e04:	1009883a 	mov	r4,r2
   10e08:	00110180 	call	11018 <__fixunssfsi>
   10e0c:	e0bf9b15 	stw	r2,-404(fp)

        alt_u32 throughput = (alt_u32)((float)total_mcus / secs);
   10e10:	e13f9417 	ldw	r4,-432(fp)
   10e14:	00116480 	call	11648 <__floatsisf>
   10e18:	1007883a 	mov	r3,r2
   10e1c:	1809883a 	mov	r4,r3
   10e20:	e17f9a17 	ldw	r5,-408(fp)
   10e24:	00114b00 	call	114b0 <__divsf3>
   10e28:	1007883a 	mov	r3,r2
   10e2c:	1805883a 	mov	r2,r3
   10e30:	1009883a 	mov	r4,r2
   10e34:	00110180 	call	11018 <__fixunssfsi>
   10e38:	e0bf9c15 	stw	r2,-400(fp)

        printf("--- STAGE 5 (HUFFMAN) BENCHMARK ---\n");
   10e3c:	01000074 	movhi	r4,1
   10e40:	210fe004 	addi	r4,r4,16256
   10e44:	0011e280 	call	11e28 <puts>
        printf("Total Clock Cycles : %lu\n", ticks);
   10e48:	01000074 	movhi	r4,1
   10e4c:	210fe904 	addi	r4,r4,16292
   10e50:	e17f9017 	ldw	r5,-448(fp)
   10e54:	0011d5c0 	call	11d5c <printf>
        printf("Total Time         : %lu ms\n", time_ms);
   10e58:	01000074 	movhi	r4,1
   10e5c:	210ff004 	addi	r4,r4,16320
   10e60:	e17f9b17 	ldw	r5,-404(fp)
   10e64:	0011d5c0 	call	11d5c <printf>
        printf("Throughput         : %lu MCUs/sec\n", throughput); // Using Int format
   10e68:	01000074 	movhi	r4,1
   10e6c:	210ff804 	addi	r4,r4,16352
   10e70:	e17f9c17 	ldw	r5,-400(fp)
   10e74:	0011d5c0 	call	11d5c <printf>

        // Send EOI and Handshake to Stage 6
        stream_buffer[0] = 0xFFD9;
   10e78:	00800074 	movhi	r2,1
   10e7c:	1094c904 	addi	r2,r2,21284
   10e80:	00fff644 	movi	r3,-39
   10e84:	10c0000d 	sth	r3,0(r2)
        fifo_write_block(FIFO_OUT_BASE, FIFO_OUT_CSR_BASE, stream_buffer, 1);
   10e88:	010000b4 	movhi	r4,2
   10e8c:	21042604 	addi	r4,r4,4248
   10e90:	014000b4 	movhi	r5,2
   10e94:	29441004 	addi	r5,r5,4160
   10e98:	01800074 	movhi	r6,1
   10e9c:	3194c904 	addi	r6,r6,21284
   10ea0:	01c00044 	movi	r7,1
   10ea4:	0010f8c0 	call	10f8c <fifo_write_block>

        stream_buffer[0] = 0xAAAA;
   10ea8:	00800074 	movhi	r2,1
   10eac:	1094c904 	addi	r2,r2,21284
   10eb0:	00eaaa84 	movi	r3,-21846
   10eb4:	10c0000d 	sth	r3,0(r2)
        fifo_write_block(FIFO_OUT_BASE, FIFO_OUT_CSR_BASE, stream_buffer, 1);
   10eb8:	010000b4 	movhi	r4,2
   10ebc:	21042604 	addi	r4,r4,4248
   10ec0:	014000b4 	movhi	r5,2
   10ec4:	29441004 	addi	r5,r5,4160
   10ec8:	01800074 	movhi	r6,1
   10ecc:	3194c904 	addi	r6,r6,21284
   10ed0:	01c00044 	movi	r7,1
   10ed4:	0010f8c0 	call	10f8c <fifo_write_block>
    }
   10ed8:	003f1006 	br	10b1c <main+0x4c>

00010edc <fifo_init>:
#if defined(__nios2__) || defined(__NIOS2__)
// --- HARDWARE IMPLEMENTATION (Altera Nios II) ---
#include <io.h>
#include "altera_avalon_fifo_regs.h"

void fifo_init(unsigned int fifo_csr_base) {
   10edc:	defffe04 	addi	sp,sp,-8
   10ee0:	df000115 	stw	fp,4(sp)
   10ee4:	df000104 	addi	fp,sp,4
   10ee8:	e13fff15 	stw	r4,-4(fp)
    // Clear the FIFO event register to reset any lingering interrupt/error states
    IOWR_ALTERA_AVALON_FIFO_EVENT(fifo_csr_base, 0x0);
   10eec:	e0bfff17 	ldw	r2,-4(fp)
   10ef0:	10800204 	addi	r2,r2,8
   10ef4:	0007883a 	mov	r3,zero
   10ef8:	10c00035 	stwio	r3,0(r2)
}
   10efc:	e037883a 	mov	sp,fp
   10f00:	df000017 	ldw	fp,0(sp)
   10f04:	dec00104 	addi	sp,sp,4
   10f08:	f800283a 	ret

00010f0c <fifo_read_block>:

void fifo_read_block(unsigned int fifo_base, unsigned int fifo_csr, INT16 *buffer, int length) {
   10f0c:	defffa04 	addi	sp,sp,-24
   10f10:	df000515 	stw	fp,20(sp)
   10f14:	df000504 	addi	fp,sp,20
   10f18:	e13ffc15 	stw	r4,-16(fp)
   10f1c:	e17ffd15 	stw	r5,-12(fp)
   10f20:	e1bffe15 	stw	r6,-8(fp)
   10f24:	e1ffff15 	stw	r7,-4(fp)
    int i;
    for(i = 0; i < length; i++) {
   10f28:	e03ffb15 	stw	zero,-20(fp)
   10f2c:	00001006 	br	10f70 <fifo_read_block+0x64>
        // Spin-lock (block) while the FIFO Status Register says it is EMPTY
        // This is much safer than checking FIFO_LEVEL across dual-clock domains
        while (IORD_ALTERA_AVALON_FIFO_STATUS(fifo_csr) & ALTERA_AVALON_FIFO_STATUS_E_MSK) { }
   10f30:	0001883a 	nop
   10f34:	e0bffd17 	ldw	r2,-12(fp)
   10f38:	10800104 	addi	r2,r2,4
   10f3c:	10800037 	ldwio	r2,0(r2)
   10f40:	1080008c 	andi	r2,r2,2
   10f44:	103ffb1e 	bne	r2,zero,10f34 <fifo_read_block+0x28>
        
        // Read 16-bit word from the FIFO data port
        buffer[i] = (INT16)IORD_ALTERA_AVALON_FIFO_DATA(fifo_base);
   10f48:	e0bffb17 	ldw	r2,-20(fp)
   10f4c:	1085883a 	add	r2,r2,r2
   10f50:	e0fffe17 	ldw	r3,-8(fp)
   10f54:	1885883a 	add	r2,r3,r2
   10f58:	e0fffc17 	ldw	r3,-16(fp)
   10f5c:	18c00037 	ldwio	r3,0(r3)
   10f60:	10c0000d 	sth	r3,0(r2)
    IOWR_ALTERA_AVALON_FIFO_EVENT(fifo_csr_base, 0x0);
}

void fifo_read_block(unsigned int fifo_base, unsigned int fifo_csr, INT16 *buffer, int length) {
    int i;
    for(i = 0; i < length; i++) {
   10f64:	e0bffb17 	ldw	r2,-20(fp)
   10f68:	10800044 	addi	r2,r2,1
   10f6c:	e0bffb15 	stw	r2,-20(fp)
   10f70:	e0fffb17 	ldw	r3,-20(fp)
   10f74:	e0bfff17 	ldw	r2,-4(fp)
   10f78:	18bfed16 	blt	r3,r2,10f30 <fifo_read_block+0x24>
        while (IORD_ALTERA_AVALON_FIFO_STATUS(fifo_csr) & ALTERA_AVALON_FIFO_STATUS_E_MSK) { }
        
        // Read 16-bit word from the FIFO data port
        buffer[i] = (INT16)IORD_ALTERA_AVALON_FIFO_DATA(fifo_base);
    }
}
   10f7c:	e037883a 	mov	sp,fp
   10f80:	df000017 	ldw	fp,0(sp)
   10f84:	dec00104 	addi	sp,sp,4
   10f88:	f800283a 	ret

00010f8c <fifo_write_block>:

void fifo_write_block(unsigned int fifo_base, unsigned int fifo_csr, INT16 *buffer, int length) {
   10f8c:	defffa04 	addi	sp,sp,-24
   10f90:	df000515 	stw	fp,20(sp)
   10f94:	df000504 	addi	fp,sp,20
   10f98:	e13ffc15 	stw	r4,-16(fp)
   10f9c:	e17ffd15 	stw	r5,-12(fp)
   10fa0:	e1bffe15 	stw	r6,-8(fp)
   10fa4:	e1ffff15 	stw	r7,-4(fp)
    int i;
    for(i = 0; i < length; i++) {
   10fa8:	e03ffb15 	stw	zero,-20(fp)
   10fac:	00001306 	br	10ffc <fifo_write_block+0x70>
        // Spin-lock (block) while the FIFO is completely FULL
        while (IORD_ALTERA_AVALON_FIFO_STATUS(fifo_csr) & ALTERA_AVALON_FIFO_STATUS_F_MSK) { }
   10fb0:	0001883a 	nop
   10fb4:	e0bffd17 	ldw	r2,-12(fp)
   10fb8:	10800104 	addi	r2,r2,4
   10fbc:	10800037 	ldwio	r2,0(r2)
   10fc0:	1080004c 	andi	r2,r2,1
   10fc4:	103ffb1e 	bne	r2,zero,10fb4 <fifo_write_block+0x28>
        
        // Write 16-bit word to the FIFO data port
        IOWR_ALTERA_AVALON_FIFO_DATA(fifo_base, buffer[i]);
   10fc8:	e0fffc17 	ldw	r3,-16(fp)
   10fcc:	e0bffb17 	ldw	r2,-20(fp)
   10fd0:	1085883a 	add	r2,r2,r2
   10fd4:	e13ffe17 	ldw	r4,-8(fp)
   10fd8:	2085883a 	add	r2,r4,r2
   10fdc:	1080000b 	ldhu	r2,0(r2)
   10fe0:	10bfffcc 	andi	r2,r2,65535
   10fe4:	10a0001c 	xori	r2,r2,32768
   10fe8:	10a00004 	addi	r2,r2,-32768
   10fec:	18800035 	stwio	r2,0(r3)
    }
}

void fifo_write_block(unsigned int fifo_base, unsigned int fifo_csr, INT16 *buffer, int length) {
    int i;
    for(i = 0; i < length; i++) {
   10ff0:	e0bffb17 	ldw	r2,-20(fp)
   10ff4:	10800044 	addi	r2,r2,1
   10ff8:	e0bffb15 	stw	r2,-20(fp)
   10ffc:	e0fffb17 	ldw	r3,-20(fp)
   11000:	e0bfff17 	ldw	r2,-4(fp)
   11004:	18bfea16 	blt	r3,r2,10fb0 <fifo_write_block+0x24>
        while (IORD_ALTERA_AVALON_FIFO_STATUS(fifo_csr) & ALTERA_AVALON_FIFO_STATUS_F_MSK) { }
        
        // Write 16-bit word to the FIFO data port
        IOWR_ALTERA_AVALON_FIFO_DATA(fifo_base, buffer[i]);
    }
}
   11008:	e037883a 	mov	sp,fp
   1100c:	df000017 	ldw	fp,0(sp)
   11010:	dec00104 	addi	sp,sp,4
   11014:	f800283a 	ret

00011018 <__fixunssfsi>:
   11018:	defffd04 	addi	sp,sp,-12
   1101c:	dc000015 	stw	r16,0(sp)
   11020:	0413c034 	movhi	r16,20224
   11024:	800b883a 	mov	r5,r16
   11028:	dc400115 	stw	r17,4(sp)
   1102c:	dfc00215 	stw	ra,8(sp)
   11030:	2023883a 	mov	r17,r4
   11034:	00115ec0 	call	115ec <__gesf2>
   11038:	1000070e 	bge	r2,zero,11058 <__fixunssfsi+0x40>
   1103c:	8809883a 	mov	r4,r17
   11040:	00116ec0 	call	116ec <__fixsfsi>
   11044:	dfc00217 	ldw	ra,8(sp)
   11048:	dc400117 	ldw	r17,4(sp)
   1104c:	dc000017 	ldw	r16,0(sp)
   11050:	dec00304 	addi	sp,sp,12
   11054:	f800283a 	ret
   11058:	800b883a 	mov	r5,r16
   1105c:	8809883a 	mov	r4,r17
   11060:	00112c80 	call	112c8 <__subsf3>
   11064:	1009883a 	mov	r4,r2
   11068:	00116ec0 	call	116ec <__fixsfsi>
   1106c:	00e00034 	movhi	r3,32768
   11070:	10c5883a 	add	r2,r2,r3
   11074:	dfc00217 	ldw	ra,8(sp)
   11078:	dc400117 	ldw	r17,4(sp)
   1107c:	dc000017 	ldw	r16,0(sp)
   11080:	dec00304 	addi	sp,sp,12
   11084:	f800283a 	ret

00011088 <_fpadd_parts>:
   11088:	2005883a 	mov	r2,r4
   1108c:	21000017 	ldw	r4,0(r4)
   11090:	01c00044 	movi	r7,1
   11094:	3900332e 	bgeu	r7,r4,11164 <_fpadd_parts+0xdc>
   11098:	28c00017 	ldw	r3,0(r5)
   1109c:	38c0642e 	bgeu	r7,r3,11230 <_fpadd_parts+0x1a8>
   110a0:	01c00104 	movi	r7,4
   110a4:	21c06e26 	beq	r4,r7,11260 <_fpadd_parts+0x1d8>
   110a8:	19c06126 	beq	r3,r7,11230 <_fpadd_parts+0x1a8>
   110ac:	01c00084 	movi	r7,2
   110b0:	19c04226 	beq	r3,r7,111bc <_fpadd_parts+0x134>
   110b4:	21c05e26 	beq	r4,r7,11230 <_fpadd_parts+0x1a8>
   110b8:	11000217 	ldw	r4,8(r2)
   110bc:	2a400217 	ldw	r9,8(r5)
   110c0:	12800317 	ldw	r10,12(r2)
   110c4:	29c00317 	ldw	r7,12(r5)
   110c8:	2247c83a 	sub	r3,r4,r9
   110cc:	1811883a 	mov	r8,r3
   110d0:	18005316 	blt	r3,zero,11220 <_fpadd_parts+0x198>
   110d4:	02c007c4 	movi	r11,31
   110d8:	5a002316 	blt	r11,r8,11168 <_fpadd_parts+0xe0>
   110dc:	00c0560e 	bge	zero,r3,11238 <_fpadd_parts+0x1b0>
   110e0:	00c00044 	movi	r3,1
   110e4:	1a06983a 	sll	r3,r3,r8
   110e8:	3a10d83a 	srl	r8,r7,r8
   110ec:	18ffffc4 	addi	r3,r3,-1
   110f0:	19ce703a 	and	r7,r3,r7
   110f4:	380ec03a 	cmpne	r7,r7,zero
   110f8:	3a0eb03a 	or	r7,r7,r8
   110fc:	10c00117 	ldw	r3,4(r2)
   11100:	28800117 	ldw	r2,4(r5)
   11104:	18801d26 	beq	r3,r2,1117c <_fpadd_parts+0xf4>
   11108:	18003a26 	beq	r3,zero,111f4 <_fpadd_parts+0x16c>
   1110c:	3a85c83a 	sub	r2,r7,r10
   11110:	10003a16 	blt	r2,zero,111fc <_fpadd_parts+0x174>
   11114:	30000115 	stw	zero,4(r6)
   11118:	31000215 	stw	r4,8(r6)
   1111c:	30800315 	stw	r2,12(r6)
   11120:	10ffffc4 	addi	r3,r2,-1
   11124:	01d00034 	movhi	r7,16384
   11128:	39ffff84 	addi	r7,r7,-2
   1112c:	38c00936 	bltu	r7,r3,11154 <_fpadd_parts+0xcc>
   11130:	30c00217 	ldw	r3,8(r6)
   11134:	18ffffc4 	addi	r3,r3,-1
   11138:	1085883a 	add	r2,r2,r2
   1113c:	113fffc4 	addi	r4,r2,-1
   11140:	180b883a 	mov	r5,r3
   11144:	18ffffc4 	addi	r3,r3,-1
   11148:	393ffb2e 	bgeu	r7,r4,11138 <_fpadd_parts+0xb0>
   1114c:	30800315 	stw	r2,12(r6)
   11150:	31400215 	stw	r5,8(r6)
   11154:	00c000c4 	movi	r3,3
   11158:	30c00015 	stw	r3,0(r6)
   1115c:	10000e16 	blt	r2,zero,11198 <_fpadd_parts+0x110>
   11160:	3005883a 	mov	r2,r6
   11164:	f800283a 	ret
   11168:	49002a0e 	bge	r9,r4,11214 <_fpadd_parts+0x18c>
   1116c:	10c00117 	ldw	r3,4(r2)
   11170:	28800117 	ldw	r2,4(r5)
   11174:	000f883a 	mov	r7,zero
   11178:	18bfe31e 	bne	r3,r2,11108 <_fpadd_parts+0x80>
   1117c:	3a85883a 	add	r2,r7,r10
   11180:	30c00115 	stw	r3,4(r6)
   11184:	00c000c4 	movi	r3,3
   11188:	31000215 	stw	r4,8(r6)
   1118c:	30800315 	stw	r2,12(r6)
   11190:	30c00015 	stw	r3,0(r6)
   11194:	103ff20e 	bge	r2,zero,11160 <_fpadd_parts+0xd8>
   11198:	30c00217 	ldw	r3,8(r6)
   1119c:	1008d07a 	srli	r4,r2,1
   111a0:	1080004c 	andi	r2,r2,1
   111a4:	18c00044 	addi	r3,r3,1
   111a8:	1104b03a 	or	r2,r2,r4
   111ac:	30800315 	stw	r2,12(r6)
   111b0:	30c00215 	stw	r3,8(r6)
   111b4:	3005883a 	mov	r2,r6
   111b8:	f800283a 	ret
   111bc:	20ffe91e 	bne	r4,r3,11164 <_fpadd_parts+0xdc>
   111c0:	31000015 	stw	r4,0(r6)
   111c4:	10c00117 	ldw	r3,4(r2)
   111c8:	30c00115 	stw	r3,4(r6)
   111cc:	11c00217 	ldw	r7,8(r2)
   111d0:	10c00117 	ldw	r3,4(r2)
   111d4:	29000117 	ldw	r4,4(r5)
   111d8:	31c00215 	stw	r7,8(r6)
   111dc:	10800317 	ldw	r2,12(r2)
   111e0:	20c6703a 	and	r3,r4,r3
   111e4:	30c00115 	stw	r3,4(r6)
   111e8:	30800315 	stw	r2,12(r6)
   111ec:	3005883a 	mov	r2,r6
   111f0:	f800283a 	ret
   111f4:	51c5c83a 	sub	r2,r10,r7
   111f8:	103fc60e 	bge	r2,zero,11114 <_fpadd_parts+0x8c>
   111fc:	0085c83a 	sub	r2,zero,r2
   11200:	00c00044 	movi	r3,1
   11204:	30c00115 	stw	r3,4(r6)
   11208:	31000215 	stw	r4,8(r6)
   1120c:	30800315 	stw	r2,12(r6)
   11210:	003fc306 	br	11120 <_fpadd_parts+0x98>
   11214:	4809883a 	mov	r4,r9
   11218:	0015883a 	mov	r10,zero
   1121c:	003fb706 	br	110fc <_fpadd_parts+0x74>
   11220:	00d1c83a 	sub	r8,zero,r3
   11224:	02c007c4 	movi	r11,31
   11228:	5a3fcf16 	blt	r11,r8,11168 <_fpadd_parts+0xe0>
   1122c:	003fab06 	br	110dc <_fpadd_parts+0x54>
   11230:	2805883a 	mov	r2,r5
   11234:	f800283a 	ret
   11238:	183fb026 	beq	r3,zero,110fc <_fpadd_parts+0x74>
   1123c:	02400044 	movi	r9,1
   11240:	4a12983a 	sll	r9,r9,r8
   11244:	5206d83a 	srl	r3,r10,r8
   11248:	2209883a 	add	r4,r4,r8
   1124c:	4a3fffc4 	addi	r8,r9,-1
   11250:	4294703a 	and	r10,r8,r10
   11254:	5014c03a 	cmpne	r10,r10,zero
   11258:	50d4b03a 	or	r10,r10,r3
   1125c:	003fa706 	br	110fc <_fpadd_parts+0x74>
   11260:	193fc01e 	bne	r3,r4,11164 <_fpadd_parts+0xdc>
   11264:	11000117 	ldw	r4,4(r2)
   11268:	28c00117 	ldw	r3,4(r5)
   1126c:	20ffbd26 	beq	r4,r3,11164 <_fpadd_parts+0xdc>
   11270:	00800074 	movhi	r2,1
   11274:	10900104 	addi	r2,r2,16388
   11278:	f800283a 	ret

0001127c <__addsf3>:
   1127c:	defff104 	addi	sp,sp,-60
   11280:	d9000d15 	stw	r4,52(sp)
   11284:	d9400c15 	stw	r5,48(sp)
   11288:	d9000d04 	addi	r4,sp,52
   1128c:	d9400804 	addi	r5,sp,32
   11290:	dfc00e15 	stw	ra,56(sp)
   11294:	0011b740 	call	11b74 <__unpack_f>
   11298:	d9000c04 	addi	r4,sp,48
   1129c:	d9400404 	addi	r5,sp,16
   112a0:	0011b740 	call	11b74 <__unpack_f>
   112a4:	d9000804 	addi	r4,sp,32
   112a8:	d9400404 	addi	r5,sp,16
   112ac:	d80d883a 	mov	r6,sp
   112b0:	00110880 	call	11088 <_fpadd_parts>
   112b4:	1009883a 	mov	r4,r2
   112b8:	0011a480 	call	11a48 <__pack_f>
   112bc:	dfc00e17 	ldw	ra,56(sp)
   112c0:	dec00f04 	addi	sp,sp,60
   112c4:	f800283a 	ret

000112c8 <__subsf3>:
   112c8:	defff104 	addi	sp,sp,-60
   112cc:	d9000d15 	stw	r4,52(sp)
   112d0:	d9400c15 	stw	r5,48(sp)
   112d4:	d9000d04 	addi	r4,sp,52
   112d8:	d9400804 	addi	r5,sp,32
   112dc:	dfc00e15 	stw	ra,56(sp)
   112e0:	0011b740 	call	11b74 <__unpack_f>
   112e4:	d9000c04 	addi	r4,sp,48
   112e8:	d9400404 	addi	r5,sp,16
   112ec:	0011b740 	call	11b74 <__unpack_f>
   112f0:	d8800517 	ldw	r2,20(sp)
   112f4:	d9000804 	addi	r4,sp,32
   112f8:	d9400404 	addi	r5,sp,16
   112fc:	d80d883a 	mov	r6,sp
   11300:	1080005c 	xori	r2,r2,1
   11304:	d8800515 	stw	r2,20(sp)
   11308:	00110880 	call	11088 <_fpadd_parts>
   1130c:	1009883a 	mov	r4,r2
   11310:	0011a480 	call	11a48 <__pack_f>
   11314:	dfc00e17 	ldw	ra,56(sp)
   11318:	dec00f04 	addi	sp,sp,60
   1131c:	f800283a 	ret

00011320 <__mulsf3>:
   11320:	defff104 	addi	sp,sp,-60
   11324:	d9000d15 	stw	r4,52(sp)
   11328:	d9400c15 	stw	r5,48(sp)
   1132c:	d9000d04 	addi	r4,sp,52
   11330:	d9400804 	addi	r5,sp,32
   11334:	dfc00e15 	stw	ra,56(sp)
   11338:	0011b740 	call	11b74 <__unpack_f>
   1133c:	d9000c04 	addi	r4,sp,48
   11340:	d9400404 	addi	r5,sp,16
   11344:	0011b740 	call	11b74 <__unpack_f>
   11348:	d8c00817 	ldw	r3,32(sp)
   1134c:	00800044 	movi	r2,1
   11350:	10c00936 	bltu	r2,r3,11378 <__mulsf3+0x58>
   11354:	d8c00917 	ldw	r3,36(sp)
   11358:	d8800517 	ldw	r2,20(sp)
   1135c:	d9000804 	addi	r4,sp,32
   11360:	1884c03a 	cmpne	r2,r3,r2
   11364:	d8800915 	stw	r2,36(sp)
   11368:	0011a480 	call	11a48 <__pack_f>
   1136c:	dfc00e17 	ldw	ra,56(sp)
   11370:	dec00f04 	addi	sp,sp,60
   11374:	f800283a 	ret
   11378:	d9000417 	ldw	r4,16(sp)
   1137c:	11000936 	bltu	r2,r4,113a4 <__mulsf3+0x84>
   11380:	d8800517 	ldw	r2,20(sp)
   11384:	d8c00917 	ldw	r3,36(sp)
   11388:	d9000404 	addi	r4,sp,16
   1138c:	1884c03a 	cmpne	r2,r3,r2
   11390:	d8800515 	stw	r2,20(sp)
   11394:	0011a480 	call	11a48 <__pack_f>
   11398:	dfc00e17 	ldw	ra,56(sp)
   1139c:	dec00f04 	addi	sp,sp,60
   113a0:	f800283a 	ret
   113a4:	00800104 	movi	r2,4
   113a8:	1880051e 	bne	r3,r2,113c0 <__mulsf3+0xa0>
   113ac:	00800084 	movi	r2,2
   113b0:	20bfe81e 	bne	r4,r2,11354 <__mulsf3+0x34>
   113b4:	01000074 	movhi	r4,1
   113b8:	21100104 	addi	r4,r4,16388
   113bc:	003fea06 	br	11368 <__mulsf3+0x48>
   113c0:	2080031e 	bne	r4,r2,113d0 <__mulsf3+0xb0>
   113c4:	00800084 	movi	r2,2
   113c8:	18bffa26 	beq	r3,r2,113b4 <__mulsf3+0x94>
   113cc:	003fec06 	br	11380 <__mulsf3+0x60>
   113d0:	00800084 	movi	r2,2
   113d4:	18bfdf26 	beq	r3,r2,11354 <__mulsf3+0x34>
   113d8:	20bfe926 	beq	r4,r2,11380 <__mulsf3+0x60>
   113dc:	d9000717 	ldw	r4,28(sp)
   113e0:	d9800b17 	ldw	r6,44(sp)
   113e4:	000b883a 	mov	r5,zero
   113e8:	000f883a 	mov	r7,zero
   113ec:	001188c0 	call	1188c <__muldi3>
   113f0:	d9000617 	ldw	r4,24(sp)
   113f4:	d9400a17 	ldw	r5,40(sp)
   113f8:	d9c00917 	ldw	r7,36(sp)
   113fc:	290b883a 	add	r5,r5,r4
   11400:	d9000517 	ldw	r4,20(sp)
   11404:	29800084 	addi	r6,r5,2
   11408:	d9800215 	stw	r6,8(sp)
   1140c:	3908c03a 	cmpne	r4,r7,r4
   11410:	d9000115 	stw	r4,4(sp)
   11414:	1809883a 	mov	r4,r3
   11418:	1800070e 	bge	r3,zero,11438 <__mulsf3+0x118>
   1141c:	1900004c 	andi	r4,r3,1
   11420:	294000c4 	addi	r5,r5,3
   11424:	20000226 	beq	r4,zero,11430 <__mulsf3+0x110>
   11428:	1004d07a 	srli	r2,r2,1
   1142c:	10a00034 	orhi	r2,r2,32768
   11430:	1808d07a 	srli	r4,r3,1
   11434:	d9400215 	stw	r5,8(sp)
   11438:	01900034 	movhi	r6,16384
   1143c:	31bfffc4 	addi	r6,r6,-1
   11440:	31000c36 	bltu	r6,r4,11474 <__mulsf3+0x154>
   11444:	d8c00217 	ldw	r3,8(sp)
   11448:	18ffffc4 	addi	r3,r3,-1
   1144c:	00000306 	br	1145c <__mulsf3+0x13c>
   11450:	1085883a 	add	r2,r2,r2
   11454:	18ffffc4 	addi	r3,r3,-1
   11458:	31000536 	bltu	r6,r4,11470 <__mulsf3+0x150>
   1145c:	2109883a 	add	r4,r4,r4
   11460:	180b883a 	mov	r5,r3
   11464:	103ffa0e 	bge	r2,zero,11450 <__mulsf3+0x130>
   11468:	21000054 	ori	r4,r4,1
   1146c:	003ff806 	br	11450 <__mulsf3+0x130>
   11470:	d9400215 	stw	r5,8(sp)
   11474:	21401fcc 	andi	r5,r4,127
   11478:	00c01004 	movi	r3,64
   1147c:	28c00526 	beq	r5,r3,11494 <__mulsf3+0x174>
   11480:	008000c4 	movi	r2,3
   11484:	d9000315 	stw	r4,12(sp)
   11488:	d8800015 	stw	r2,0(sp)
   1148c:	d809883a 	mov	r4,sp
   11490:	003fb506 	br	11368 <__mulsf3+0x48>
   11494:	20c0200c 	andi	r3,r4,128
   11498:	183ff91e 	bne	r3,zero,11480 <__mulsf3+0x160>
   1149c:	103ff826 	beq	r2,zero,11480 <__mulsf3+0x160>
   114a0:	21001004 	addi	r4,r4,64
   114a4:	00bfe004 	movi	r2,-128
   114a8:	2088703a 	and	r4,r4,r2
   114ac:	003ff406 	br	11480 <__mulsf3+0x160>

000114b0 <__divsf3>:
   114b0:	defff504 	addi	sp,sp,-44
   114b4:	d9000915 	stw	r4,36(sp)
   114b8:	d9400815 	stw	r5,32(sp)
   114bc:	d9000904 	addi	r4,sp,36
   114c0:	d9400404 	addi	r5,sp,16
   114c4:	dfc00a15 	stw	ra,40(sp)
   114c8:	0011b740 	call	11b74 <__unpack_f>
   114cc:	d9000804 	addi	r4,sp,32
   114d0:	d80b883a 	mov	r5,sp
   114d4:	0011b740 	call	11b74 <__unpack_f>
   114d8:	d8c00417 	ldw	r3,16(sp)
   114dc:	00800044 	movi	r2,1
   114e0:	10c00536 	bltu	r2,r3,114f8 <__divsf3+0x48>
   114e4:	d9000404 	addi	r4,sp,16
   114e8:	0011a480 	call	11a48 <__pack_f>
   114ec:	dfc00a17 	ldw	ra,40(sp)
   114f0:	dec00b04 	addi	sp,sp,44
   114f4:	f800283a 	ret
   114f8:	d9000017 	ldw	r4,0(sp)
   114fc:	11000536 	bltu	r2,r4,11514 <__divsf3+0x64>
   11500:	d809883a 	mov	r4,sp
   11504:	0011a480 	call	11a48 <__pack_f>
   11508:	dfc00a17 	ldw	ra,40(sp)
   1150c:	dec00b04 	addi	sp,sp,44
   11510:	f800283a 	ret
   11514:	d9800517 	ldw	r6,20(sp)
   11518:	d9400117 	ldw	r5,4(sp)
   1151c:	00800104 	movi	r2,4
   11520:	314af03a 	xor	r5,r6,r5
   11524:	d9400515 	stw	r5,20(sp)
   11528:	18800226 	beq	r3,r2,11534 <__divsf3+0x84>
   1152c:	01400084 	movi	r5,2
   11530:	1940041e 	bne	r3,r5,11544 <__divsf3+0x94>
   11534:	193feb1e 	bne	r3,r4,114e4 <__divsf3+0x34>
   11538:	01000074 	movhi	r4,1
   1153c:	21100104 	addi	r4,r4,16388
   11540:	003fe906 	br	114e8 <__divsf3+0x38>
   11544:	20802226 	beq	r4,r2,115d0 <__divsf3+0x120>
   11548:	21402526 	beq	r4,r5,115e0 <__divsf3+0x130>
   1154c:	d9000617 	ldw	r4,24(sp)
   11550:	d8c00217 	ldw	r3,8(sp)
   11554:	d8800717 	ldw	r2,28(sp)
   11558:	d9400317 	ldw	r5,12(sp)
   1155c:	20c7c83a 	sub	r3,r4,r3
   11560:	d8c00615 	stw	r3,24(sp)
   11564:	1140032e 	bgeu	r2,r5,11574 <__divsf3+0xc4>
   11568:	18ffffc4 	addi	r3,r3,-1
   1156c:	1085883a 	add	r2,r2,r2
   11570:	d8c00615 	stw	r3,24(sp)
   11574:	00c007c4 	movi	r3,31
   11578:	01100034 	movhi	r4,16384
   1157c:	000d883a 	mov	r6,zero
   11580:	18ffffc4 	addi	r3,r3,-1
   11584:	11400236 	bltu	r2,r5,11590 <__divsf3+0xe0>
   11588:	310cb03a 	or	r6,r6,r4
   1158c:	1145c83a 	sub	r2,r2,r5
   11590:	2008d07a 	srli	r4,r4,1
   11594:	1085883a 	add	r2,r2,r2
   11598:	183ff91e 	bne	r3,zero,11580 <__divsf3+0xd0>
   1159c:	31001fcc 	andi	r4,r6,127
   115a0:	00c01004 	movi	r3,64
   115a4:	20c00226 	beq	r4,r3,115b0 <__divsf3+0x100>
   115a8:	d9800715 	stw	r6,28(sp)
   115ac:	003fcd06 	br	114e4 <__divsf3+0x34>
   115b0:	30c0200c 	andi	r3,r6,128
   115b4:	183ffc1e 	bne	r3,zero,115a8 <__divsf3+0xf8>
   115b8:	103ffb26 	beq	r2,zero,115a8 <__divsf3+0xf8>
   115bc:	31801004 	addi	r6,r6,64
   115c0:	00bfe004 	movi	r2,-128
   115c4:	308c703a 	and	r6,r6,r2
   115c8:	d9800715 	stw	r6,28(sp)
   115cc:	003fc506 	br	114e4 <__divsf3+0x34>
   115d0:	d8000715 	stw	zero,28(sp)
   115d4:	d8000615 	stw	zero,24(sp)
   115d8:	d9000404 	addi	r4,sp,16
   115dc:	003fc206 	br	114e8 <__divsf3+0x38>
   115e0:	d8800415 	stw	r2,16(sp)
   115e4:	d9000404 	addi	r4,sp,16
   115e8:	003fbf06 	br	114e8 <__divsf3+0x38>

000115ec <__gesf2>:
   115ec:	defff504 	addi	sp,sp,-44
   115f0:	d9000915 	stw	r4,36(sp)
   115f4:	d9400815 	stw	r5,32(sp)
   115f8:	d9000904 	addi	r4,sp,36
   115fc:	d9400404 	addi	r5,sp,16
   11600:	dfc00a15 	stw	ra,40(sp)
   11604:	0011b740 	call	11b74 <__unpack_f>
   11608:	d9000804 	addi	r4,sp,32
   1160c:	d80b883a 	mov	r5,sp
   11610:	0011b740 	call	11b74 <__unpack_f>
   11614:	d8c00417 	ldw	r3,16(sp)
   11618:	00800044 	movi	r2,1
   1161c:	10c0082e 	bgeu	r2,r3,11640 <__gesf2+0x54>
   11620:	d8c00017 	ldw	r3,0(sp)
   11624:	10c0062e 	bgeu	r2,r3,11640 <__gesf2+0x54>
   11628:	d9000404 	addi	r4,sp,16
   1162c:	d80b883a 	mov	r5,sp
   11630:	0011c3c0 	call	11c3c <__fpcmp_parts_f>
   11634:	dfc00a17 	ldw	ra,40(sp)
   11638:	dec00b04 	addi	sp,sp,44
   1163c:	f800283a 	ret
   11640:	00bfffc4 	movi	r2,-1
   11644:	003ffb06 	br	11634 <__gesf2+0x48>

00011648 <__floatsisf>:
   11648:	2004d7fa 	srli	r2,r4,31
   1164c:	defffa04 	addi	sp,sp,-24
   11650:	00c000c4 	movi	r3,3
   11654:	dfc00515 	stw	ra,20(sp)
   11658:	dc000415 	stw	r16,16(sp)
   1165c:	d8c00015 	stw	r3,0(sp)
   11660:	d8800115 	stw	r2,4(sp)
   11664:	2000081e 	bne	r4,zero,11688 <__floatsisf+0x40>
   11668:	00800084 	movi	r2,2
   1166c:	d8800015 	stw	r2,0(sp)
   11670:	d809883a 	mov	r4,sp
   11674:	0011a480 	call	11a48 <__pack_f>
   11678:	dfc00517 	ldw	ra,20(sp)
   1167c:	dc000417 	ldw	r16,16(sp)
   11680:	dec00604 	addi	sp,sp,24
   11684:	f800283a 	ret
   11688:	00c00784 	movi	r3,30
   1168c:	d8c00215 	stw	r3,8(sp)
   11690:	10000b1e 	bne	r2,zero,116c0 <__floatsisf+0x78>
   11694:	2021883a 	mov	r16,r4
   11698:	8009883a 	mov	r4,r16
   1169c:	001199c0 	call	1199c <__clzsi2>
   116a0:	113fffc4 	addi	r4,r2,-1
   116a4:	01000d0e 	bge	zero,r4,116dc <__floatsisf+0x94>
   116a8:	8108983a 	sll	r4,r16,r4
   116ac:	00c007c4 	movi	r3,31
   116b0:	1885c83a 	sub	r2,r3,r2
   116b4:	d9000315 	stw	r4,12(sp)
   116b8:	d8800215 	stw	r2,8(sp)
   116bc:	003fec06 	br	11670 <__floatsisf+0x28>
   116c0:	00a00034 	movhi	r2,32768
   116c4:	20800726 	beq	r4,r2,116e4 <__floatsisf+0x9c>
   116c8:	0121c83a 	sub	r16,zero,r4
   116cc:	8009883a 	mov	r4,r16
   116d0:	001199c0 	call	1199c <__clzsi2>
   116d4:	113fffc4 	addi	r4,r2,-1
   116d8:	013ff316 	blt	zero,r4,116a8 <__floatsisf+0x60>
   116dc:	dc000315 	stw	r16,12(sp)
   116e0:	003fe306 	br	11670 <__floatsisf+0x28>
   116e4:	00b3c034 	movhi	r2,52992
   116e8:	003fe306 	br	11678 <__floatsisf+0x30>

000116ec <__fixsfsi>:
   116ec:	defffa04 	addi	sp,sp,-24
   116f0:	d9000415 	stw	r4,16(sp)
   116f4:	d80b883a 	mov	r5,sp
   116f8:	d9000404 	addi	r4,sp,16
   116fc:	dfc00515 	stw	ra,20(sp)
   11700:	0011b740 	call	11b74 <__unpack_f>
   11704:	d8800017 	ldw	r2,0(sp)
   11708:	00c00084 	movi	r3,2
   1170c:	10c01826 	beq	r2,r3,11770 <__fixsfsi+0x84>
   11710:	00c00044 	movi	r3,1
   11714:	1880162e 	bgeu	r3,r2,11770 <__fixsfsi+0x84>
   11718:	00c00104 	movi	r3,4
   1171c:	10c00426 	beq	r2,r3,11730 <__fixsfsi+0x44>
   11720:	d8800217 	ldw	r2,8(sp)
   11724:	10001216 	blt	r2,zero,11770 <__fixsfsi+0x84>
   11728:	00c00784 	movi	r3,30
   1172c:	1880070e 	bge	r3,r2,1174c <__fixsfsi+0x60>
   11730:	d8800117 	ldw	r2,4(sp)
   11734:	1000121e 	bne	r2,zero,11780 <__fixsfsi+0x94>
   11738:	00a00034 	movhi	r2,32768
   1173c:	10bfffc4 	addi	r2,r2,-1
   11740:	dfc00517 	ldw	ra,20(sp)
   11744:	dec00604 	addi	sp,sp,24
   11748:	f800283a 	ret
   1174c:	1885c83a 	sub	r2,r3,r2
   11750:	d8c00317 	ldw	r3,12(sp)
   11754:	1884d83a 	srl	r2,r3,r2
   11758:	d8c00117 	ldw	r3,4(sp)
   1175c:	183ff826 	beq	r3,zero,11740 <__fixsfsi+0x54>
   11760:	0085c83a 	sub	r2,zero,r2
   11764:	dfc00517 	ldw	ra,20(sp)
   11768:	dec00604 	addi	sp,sp,24
   1176c:	f800283a 	ret
   11770:	0005883a 	mov	r2,zero
   11774:	dfc00517 	ldw	ra,20(sp)
   11778:	dec00604 	addi	sp,sp,24
   1177c:	f800283a 	ret
   11780:	00a00034 	movhi	r2,32768
   11784:	dfc00517 	ldw	ra,20(sp)
   11788:	dec00604 	addi	sp,sp,24
   1178c:	f800283a 	ret

00011790 <__floatunsisf>:
   11790:	defffa04 	addi	sp,sp,-24
   11794:	dc000415 	stw	r16,16(sp)
   11798:	dfc00515 	stw	ra,20(sp)
   1179c:	d8000115 	stw	zero,4(sp)
   117a0:	2021883a 	mov	r16,r4
   117a4:	20001326 	beq	r4,zero,117f4 <__floatunsisf+0x64>
   117a8:	008000c4 	movi	r2,3
   117ac:	d8800015 	stw	r2,0(sp)
   117b0:	00800784 	movi	r2,30
   117b4:	d8800215 	stw	r2,8(sp)
   117b8:	001199c0 	call	1199c <__clzsi2>
   117bc:	10ffffc4 	addi	r3,r2,-1
   117c0:	18001416 	blt	r3,zero,11814 <__floatunsisf+0x84>
   117c4:	18002526 	beq	r3,zero,1185c <__floatunsisf+0xcc>
   117c8:	80e0983a 	sll	r16,r16,r3
   117cc:	00c007c4 	movi	r3,31
   117d0:	1885c83a 	sub	r2,r3,r2
   117d4:	dc000315 	stw	r16,12(sp)
   117d8:	d8800215 	stw	r2,8(sp)
   117dc:	d809883a 	mov	r4,sp
   117e0:	0011a480 	call	11a48 <__pack_f>
   117e4:	dfc00517 	ldw	ra,20(sp)
   117e8:	dc000417 	ldw	r16,16(sp)
   117ec:	dec00604 	addi	sp,sp,24
   117f0:	f800283a 	ret
   117f4:	00800084 	movi	r2,2
   117f8:	d809883a 	mov	r4,sp
   117fc:	d8800015 	stw	r2,0(sp)
   11800:	0011a480 	call	11a48 <__pack_f>
   11804:	dfc00517 	ldw	ra,20(sp)
   11808:	dc000417 	ldw	r16,16(sp)
   1180c:	dec00604 	addi	sp,sp,24
   11810:	f800283a 	ret
   11814:	00c7c83a 	sub	r3,zero,r3
   11818:	01000044 	movi	r4,1
   1181c:	20c8983a 	sll	r4,r4,r3
   11820:	80c6d83a 	srl	r3,r16,r3
   11824:	213fffc4 	addi	r4,r4,-1
   11828:	2420703a 	and	r16,r4,r16
   1182c:	8020c03a 	cmpne	r16,r16,zero
   11830:	010007c4 	movi	r4,31
   11834:	80c6b03a 	or	r3,r16,r3
   11838:	2085c83a 	sub	r2,r4,r2
   1183c:	d809883a 	mov	r4,sp
   11840:	d8c00315 	stw	r3,12(sp)
   11844:	d8800215 	stw	r2,8(sp)
   11848:	0011a480 	call	11a48 <__pack_f>
   1184c:	dfc00517 	ldw	ra,20(sp)
   11850:	dc000417 	ldw	r16,16(sp)
   11854:	dec00604 	addi	sp,sp,24
   11858:	f800283a 	ret
   1185c:	dc000315 	stw	r16,12(sp)
   11860:	003fde06 	br	117dc <__floatunsisf+0x4c>

00011864 <__mulsi3>:
   11864:	0005883a 	mov	r2,zero
   11868:	20000726 	beq	r4,zero,11888 <__mulsi3+0x24>
   1186c:	20c0004c 	andi	r3,r4,1
   11870:	2008d07a 	srli	r4,r4,1
   11874:	18000126 	beq	r3,zero,1187c <__mulsi3+0x18>
   11878:	1145883a 	add	r2,r2,r5
   1187c:	294b883a 	add	r5,r5,r5
   11880:	203ffa1e 	bne	r4,zero,1186c <__mulsi3+0x8>
   11884:	f800283a 	ret
   11888:	f800283a 	ret

0001188c <__muldi3>:
   1188c:	defff604 	addi	sp,sp,-40
   11890:	dd400515 	stw	r21,20(sp)
   11894:	dd000415 	stw	r20,16(sp)
   11898:	257fffcc 	andi	r21,r4,65535
   1189c:	353fffcc 	andi	r20,r6,65535
   118a0:	dcc00315 	stw	r19,12(sp)
   118a4:	3026d43a 	srli	r19,r6,16
   118a8:	dd800615 	stw	r22,24(sp)
   118ac:	dc800215 	stw	r18,8(sp)
   118b0:	dc400115 	stw	r17,4(sp)
   118b4:	2024d43a 	srli	r18,r4,16
   118b8:	2023883a 	mov	r17,r4
   118bc:	282d883a 	mov	r22,r5
   118c0:	a009883a 	mov	r4,r20
   118c4:	a80b883a 	mov	r5,r21
   118c8:	dfc00915 	stw	ra,36(sp)
   118cc:	df000815 	stw	fp,32(sp)
   118d0:	ddc00715 	stw	r23,28(sp)
   118d4:	3839883a 	mov	fp,r7
   118d8:	dc000015 	stw	r16,0(sp)
   118dc:	3021883a 	mov	r16,r6
   118e0:	00118640 	call	11864 <__mulsi3>
   118e4:	a80b883a 	mov	r5,r21
   118e8:	9809883a 	mov	r4,r19
   118ec:	102f883a 	mov	r23,r2
   118f0:	00118640 	call	11864 <__mulsi3>
   118f4:	a009883a 	mov	r4,r20
   118f8:	900b883a 	mov	r5,r18
   118fc:	102b883a 	mov	r21,r2
   11900:	00118640 	call	11864 <__mulsi3>
   11904:	9809883a 	mov	r4,r19
   11908:	900b883a 	mov	r5,r18
   1190c:	1029883a 	mov	r20,r2
   11910:	00118640 	call	11864 <__mulsi3>
   11914:	1007883a 	mov	r3,r2
   11918:	b804d43a 	srli	r2,r23,16
   1191c:	a549883a 	add	r4,r20,r21
   11920:	2089883a 	add	r4,r4,r2
   11924:	2500022e 	bgeu	r4,r20,11930 <__muldi3+0xa4>
   11928:	00800074 	movhi	r2,1
   1192c:	1887883a 	add	r3,r3,r2
   11930:	200cd43a 	srli	r6,r4,16
   11934:	2004943a 	slli	r2,r4,16
   11938:	e00b883a 	mov	r5,fp
   1193c:	8809883a 	mov	r4,r17
   11940:	bdffffcc 	andi	r23,r23,65535
   11944:	19a3883a 	add	r17,r3,r6
   11948:	15ef883a 	add	r23,r2,r23
   1194c:	00118640 	call	11864 <__mulsi3>
   11950:	8009883a 	mov	r4,r16
   11954:	b00b883a 	mov	r5,r22
   11958:	1025883a 	mov	r18,r2
   1195c:	00118640 	call	11864 <__mulsi3>
   11960:	9085883a 	add	r2,r18,r2
   11964:	1447883a 	add	r3,r2,r17
   11968:	b805883a 	mov	r2,r23
   1196c:	dfc00917 	ldw	ra,36(sp)
   11970:	df000817 	ldw	fp,32(sp)
   11974:	ddc00717 	ldw	r23,28(sp)
   11978:	dd800617 	ldw	r22,24(sp)
   1197c:	dd400517 	ldw	r21,20(sp)
   11980:	dd000417 	ldw	r20,16(sp)
   11984:	dcc00317 	ldw	r19,12(sp)
   11988:	dc800217 	ldw	r18,8(sp)
   1198c:	dc400117 	ldw	r17,4(sp)
   11990:	dc000017 	ldw	r16,0(sp)
   11994:	dec00a04 	addi	sp,sp,40
   11998:	f800283a 	ret

0001199c <__clzsi2>:
   1199c:	00bfffd4 	movui	r2,65535
   119a0:	11000b36 	bltu	r2,r4,119d0 <__clzsi2+0x34>
   119a4:	00803fc4 	movi	r2,255
   119a8:	11001e2e 	bgeu	r2,r4,11a24 <__clzsi2+0x88>
   119ac:	00c00204 	movi	r3,8
   119b0:	20c8d83a 	srl	r4,r4,r3
   119b4:	00c00074 	movhi	r3,1
   119b8:	18d00504 	addi	r3,r3,16404
   119bc:	00800604 	movi	r2,24
   119c0:	1909883a 	add	r4,r3,r4
   119c4:	20c00003 	ldbu	r3,0(r4)
   119c8:	10c5c83a 	sub	r2,r2,r3
   119cc:	f800283a 	ret
   119d0:	00804034 	movhi	r2,256
   119d4:	10bfffc4 	addi	r2,r2,-1
   119d8:	11000936 	bltu	r2,r4,11a00 <__clzsi2+0x64>
   119dc:	00800404 	movi	r2,16
   119e0:	1007883a 	mov	r3,r2
   119e4:	20c8d83a 	srl	r4,r4,r3
   119e8:	00c00074 	movhi	r3,1
   119ec:	18d00504 	addi	r3,r3,16404
   119f0:	1909883a 	add	r4,r3,r4
   119f4:	20c00003 	ldbu	r3,0(r4)
   119f8:	10c5c83a 	sub	r2,r2,r3
   119fc:	f800283a 	ret
   11a00:	00c00604 	movi	r3,24
   11a04:	20c8d83a 	srl	r4,r4,r3
   11a08:	00c00074 	movhi	r3,1
   11a0c:	18d00504 	addi	r3,r3,16404
   11a10:	00800204 	movi	r2,8
   11a14:	1909883a 	add	r4,r3,r4
   11a18:	20c00003 	ldbu	r3,0(r4)
   11a1c:	10c5c83a 	sub	r2,r2,r3
   11a20:	f800283a 	ret
   11a24:	0007883a 	mov	r3,zero
   11a28:	20c8d83a 	srl	r4,r4,r3
   11a2c:	00c00074 	movhi	r3,1
   11a30:	18d00504 	addi	r3,r3,16404
   11a34:	00800804 	movi	r2,32
   11a38:	1909883a 	add	r4,r3,r4
   11a3c:	20c00003 	ldbu	r3,0(r4)
   11a40:	10c5c83a 	sub	r2,r2,r3
   11a44:	f800283a 	ret

00011a48 <__pack_f>:
   11a48:	21400017 	ldw	r5,0(r4)
   11a4c:	01800044 	movi	r6,1
   11a50:	20c00317 	ldw	r3,12(r4)
   11a54:	21c00117 	ldw	r7,4(r4)
   11a58:	3140282e 	bgeu	r6,r5,11afc <__pack_f+0xb4>
   11a5c:	00800104 	movi	r2,4
   11a60:	28802326 	beq	r5,r2,11af0 <__pack_f+0xa8>
   11a64:	00800084 	movi	r2,2
   11a68:	28800f26 	beq	r5,r2,11aa8 <__pack_f+0x60>
   11a6c:	18000e26 	beq	r3,zero,11aa8 <__pack_f+0x60>
   11a70:	21000217 	ldw	r4,8(r4)
   11a74:	00bfe084 	movi	r2,-126
   11a78:	20802616 	blt	r4,r2,11b14 <__pack_f+0xcc>
   11a7c:	00801fc4 	movi	r2,127
   11a80:	11001b16 	blt	r2,r4,11af0 <__pack_f+0xa8>
   11a84:	188a703a 	and	r5,r3,r2
   11a88:	00801004 	movi	r2,64
   11a8c:	28801126 	beq	r5,r2,11ad4 <__pack_f+0x8c>
   11a90:	18c00fc4 	addi	r3,r3,63
   11a94:	18001316 	blt	r3,zero,11ae4 <__pack_f+0x9c>
   11a98:	21001fc4 	addi	r4,r4,127
   11a9c:	180690ba 	slli	r3,r3,2
   11aa0:	1806d27a 	srli	r3,r3,9
   11aa4:	00000206 	br	11ab0 <__pack_f+0x68>
   11aa8:	0009883a 	mov	r4,zero
   11aac:	0007883a 	mov	r3,zero
   11ab0:	21003fcc 	andi	r4,r4,255
   11ab4:	200895fa 	slli	r4,r4,23
   11ab8:	380a97fa 	slli	r5,r7,31
   11abc:	00802034 	movhi	r2,128
   11ac0:	10bfffc4 	addi	r2,r2,-1
   11ac4:	1886703a 	and	r3,r3,r2
   11ac8:	1904b03a 	or	r2,r3,r4
   11acc:	1144b03a 	or	r2,r2,r5
   11ad0:	f800283a 	ret
   11ad4:	1880200c 	andi	r2,r3,128
   11ad8:	103fee26 	beq	r2,zero,11a94 <__pack_f+0x4c>
   11adc:	18c01004 	addi	r3,r3,64
   11ae0:	183fed0e 	bge	r3,zero,11a98 <__pack_f+0x50>
   11ae4:	1806d07a 	srli	r3,r3,1
   11ae8:	21002004 	addi	r4,r4,128
   11aec:	003feb06 	br	11a9c <__pack_f+0x54>
   11af0:	013fffc4 	movi	r4,-1
   11af4:	0007883a 	mov	r3,zero
   11af8:	003fed06 	br	11ab0 <__pack_f+0x68>
   11afc:	18c00434 	orhi	r3,r3,16
   11b00:	00802034 	movhi	r2,128
   11b04:	10bfffc4 	addi	r2,r2,-1
   11b08:	1886703a 	and	r3,r3,r2
   11b0c:	013fffc4 	movi	r4,-1
   11b10:	003fe706 	br	11ab0 <__pack_f+0x68>
   11b14:	1105c83a 	sub	r2,r2,r4
   11b18:	01000644 	movi	r4,25
   11b1c:	20801216 	blt	r4,r2,11b68 <__pack_f+0x120>
   11b20:	3088983a 	sll	r4,r6,r2
   11b24:	1884d83a 	srl	r2,r3,r2
   11b28:	213fffc4 	addi	r4,r4,-1
   11b2c:	20c6703a 	and	r3,r4,r3
   11b30:	1806c03a 	cmpne	r3,r3,zero
   11b34:	1884b03a 	or	r2,r3,r2
   11b38:	11001fcc 	andi	r4,r2,127
   11b3c:	00c01004 	movi	r3,64
   11b40:	20c00a1e 	bne	r4,r3,11b6c <__pack_f+0x124>
   11b44:	10c0200c 	andi	r3,r2,128
   11b48:	18000126 	beq	r3,zero,11b50 <__pack_f+0x108>
   11b4c:	10801004 	addi	r2,r2,64
   11b50:	100690ba 	slli	r3,r2,2
   11b54:	01100034 	movhi	r4,16384
   11b58:	1105403a 	cmpgeu	r2,r2,r4
   11b5c:	1806d27a 	srli	r3,r3,9
   11b60:	1009883a 	mov	r4,r2
   11b64:	003fd206 	br	11ab0 <__pack_f+0x68>
   11b68:	0005883a 	mov	r2,zero
   11b6c:	10800fc4 	addi	r2,r2,63
   11b70:	003ff706 	br	11b50 <__pack_f+0x108>

00011b74 <__unpack_f>:
   11b74:	20c00017 	ldw	r3,0(r4)
   11b78:	00802034 	movhi	r2,128
   11b7c:	10bfffc4 	addi	r2,r2,-1
   11b80:	1808d5fa 	srli	r4,r3,23
   11b84:	180cd7fa 	srli	r6,r3,31
   11b88:	1884703a 	and	r2,r3,r2
   11b8c:	21003fcc 	andi	r4,r4,255
   11b90:	29800115 	stw	r6,4(r5)
   11b94:	2000111e 	bne	r4,zero,11bdc <__unpack_f+0x68>
   11b98:	10001a26 	beq	r2,zero,11c04 <__unpack_f+0x90>
   11b9c:	00ffe084 	movi	r3,-126
   11ba0:	100491fa 	slli	r2,r2,7
   11ba4:	28c00215 	stw	r3,8(r5)
   11ba8:	00c000c4 	movi	r3,3
   11bac:	28c00015 	stw	r3,0(r5)
   11bb0:	01900034 	movhi	r6,16384
   11bb4:	31bfffc4 	addi	r6,r6,-1
   11bb8:	30801036 	bltu	r6,r2,11bfc <__unpack_f+0x88>
   11bbc:	00ffe044 	movi	r3,-127
   11bc0:	1085883a 	add	r2,r2,r2
   11bc4:	1809883a 	mov	r4,r3
   11bc8:	18ffffc4 	addi	r3,r3,-1
   11bcc:	30bffc2e 	bgeu	r6,r2,11bc0 <__unpack_f+0x4c>
   11bd0:	29000215 	stw	r4,8(r5)
   11bd4:	28800315 	stw	r2,12(r5)
   11bd8:	f800283a 	ret
   11bdc:	01803fc4 	movi	r6,255
   11be0:	21800b26 	beq	r4,r6,11c10 <__unpack_f+0x9c>
   11be4:	100491fa 	slli	r2,r2,7
   11be8:	213fe044 	addi	r4,r4,-127
   11bec:	00c000c4 	movi	r3,3
   11bf0:	10900034 	orhi	r2,r2,16384
   11bf4:	29000215 	stw	r4,8(r5)
   11bf8:	28c00015 	stw	r3,0(r5)
   11bfc:	28800315 	stw	r2,12(r5)
   11c00:	f800283a 	ret
   11c04:	00800084 	movi	r2,2
   11c08:	28800015 	stw	r2,0(r5)
   11c0c:	f800283a 	ret
   11c10:	10000526 	beq	r2,zero,11c28 <__unpack_f+0xb4>
   11c14:	18c0042c 	andhi	r3,r3,16
   11c18:	18000626 	beq	r3,zero,11c34 <__unpack_f+0xc0>
   11c1c:	00c00044 	movi	r3,1
   11c20:	28c00015 	stw	r3,0(r5)
   11c24:	003ff506 	br	11bfc <__unpack_f+0x88>
   11c28:	00800104 	movi	r2,4
   11c2c:	28800015 	stw	r2,0(r5)
   11c30:	f800283a 	ret
   11c34:	28000015 	stw	zero,0(r5)
   11c38:	003ff006 	br	11bfc <__unpack_f+0x88>

00011c3c <__fpcmp_parts_f>:
   11c3c:	20c00017 	ldw	r3,0(r4)
   11c40:	00800044 	movi	r2,1
   11c44:	10c0172e 	bgeu	r2,r3,11ca4 <__fpcmp_parts_f+0x68>
   11c48:	29800017 	ldw	r6,0(r5)
   11c4c:	1180152e 	bgeu	r2,r6,11ca4 <__fpcmp_parts_f+0x68>
   11c50:	01c00104 	movi	r7,4
   11c54:	19c02326 	beq	r3,r7,11ce4 <__fpcmp_parts_f+0xa8>
   11c58:	31c00926 	beq	r6,r7,11c80 <__fpcmp_parts_f+0x44>
   11c5c:	01c00084 	movi	r7,2
   11c60:	19c00626 	beq	r3,r7,11c7c <__fpcmp_parts_f+0x40>
   11c64:	31c01126 	beq	r6,r7,11cac <__fpcmp_parts_f+0x70>
   11c68:	20c00117 	ldw	r3,4(r4)
   11c6c:	29800117 	ldw	r6,4(r5)
   11c70:	19801226 	beq	r3,r6,11cbc <__fpcmp_parts_f+0x80>
   11c74:	1800041e 	bne	r3,zero,11c88 <__fpcmp_parts_f+0x4c>
   11c78:	f800283a 	ret
   11c7c:	30c01526 	beq	r6,r3,11cd4 <__fpcmp_parts_f+0x98>
   11c80:	28800117 	ldw	r2,4(r5)
   11c84:	1000071e 	bne	r2,zero,11ca4 <__fpcmp_parts_f+0x68>
   11c88:	00bfffc4 	movi	r2,-1
   11c8c:	f800283a 	ret
   11c90:	39801216 	blt	r7,r6,11cdc <__fpcmp_parts_f+0xa0>
   11c94:	21000317 	ldw	r4,12(r4)
   11c98:	28800317 	ldw	r2,12(r5)
   11c9c:	11000c2e 	bgeu	r2,r4,11cd0 <__fpcmp_parts_f+0x94>
   11ca0:	183ff91e 	bne	r3,zero,11c88 <__fpcmp_parts_f+0x4c>
   11ca4:	00800044 	movi	r2,1
   11ca8:	f800283a 	ret
   11cac:	20800117 	ldw	r2,4(r4)
   11cb0:	103ff51e 	bne	r2,zero,11c88 <__fpcmp_parts_f+0x4c>
   11cb4:	00800044 	movi	r2,1
   11cb8:	f800283a 	ret
   11cbc:	21c00217 	ldw	r7,8(r4)
   11cc0:	29800217 	ldw	r6,8(r5)
   11cc4:	31fff20e 	bge	r6,r7,11c90 <__fpcmp_parts_f+0x54>
   11cc8:	183fef1e 	bne	r3,zero,11c88 <__fpcmp_parts_f+0x4c>
   11ccc:	f800283a 	ret
   11cd0:	20800236 	bltu	r4,r2,11cdc <__fpcmp_parts_f+0xa0>
   11cd4:	0005883a 	mov	r2,zero
   11cd8:	f800283a 	ret
   11cdc:	183fea26 	beq	r3,zero,11c88 <__fpcmp_parts_f+0x4c>
   11ce0:	003ff006 	br	11ca4 <__fpcmp_parts_f+0x68>
   11ce4:	30fff11e 	bne	r6,r3,11cac <__fpcmp_parts_f+0x70>
   11ce8:	28c00117 	ldw	r3,4(r5)
   11cec:	20800117 	ldw	r2,4(r4)
   11cf0:	1885c83a 	sub	r2,r3,r2
   11cf4:	f800283a 	ret

00011cf8 <memcpy>:
   11cf8:	2005883a 	mov	r2,r4
   11cfc:	30000726 	beq	r6,zero,11d1c <memcpy+0x24>
   11d00:	218d883a 	add	r6,r4,r6
   11d04:	2007883a 	mov	r3,r4
   11d08:	29c00003 	ldbu	r7,0(r5)
   11d0c:	18c00044 	addi	r3,r3,1
   11d10:	29400044 	addi	r5,r5,1
   11d14:	19ffffc5 	stb	r7,-1(r3)
   11d18:	19bffb1e 	bne	r3,r6,11d08 <memcpy+0x10>
   11d1c:	f800283a 	ret

00011d20 <_printf_r>:
   11d20:	defffd04 	addi	sp,sp,-12
   11d24:	dfc00015 	stw	ra,0(sp)
   11d28:	d9800115 	stw	r6,4(sp)
   11d2c:	d9c00215 	stw	r7,8(sp)
   11d30:	20800217 	ldw	r2,8(r4)
   11d34:	00c00074 	movhi	r3,1
   11d38:	18c96f04 	addi	r3,r3,9660
   11d3c:	280d883a 	mov	r6,r5
   11d40:	10c00115 	stw	r3,4(r2)
   11d44:	100b883a 	mov	r5,r2
   11d48:	d9c00104 	addi	r7,sp,4
   11d4c:	0011e640 	call	11e64 <___vfprintf_internal_r>
   11d50:	dfc00017 	ldw	ra,0(sp)
   11d54:	dec00304 	addi	sp,sp,12
   11d58:	f800283a 	ret

00011d5c <printf>:
   11d5c:	defffc04 	addi	sp,sp,-16
   11d60:	dfc00015 	stw	ra,0(sp)
   11d64:	d9400115 	stw	r5,4(sp)
   11d68:	d9800215 	stw	r6,8(sp)
   11d6c:	d9c00315 	stw	r7,12(sp)
   11d70:	00800074 	movhi	r2,1
   11d74:	10918204 	addi	r2,r2,17928
   11d78:	10800017 	ldw	r2,0(r2)
   11d7c:	00c00074 	movhi	r3,1
   11d80:	18c96f04 	addi	r3,r3,9660
   11d84:	200b883a 	mov	r5,r4
   11d88:	10800217 	ldw	r2,8(r2)
   11d8c:	d9800104 	addi	r6,sp,4
   11d90:	10c00115 	stw	r3,4(r2)
   11d94:	1009883a 	mov	r4,r2
   11d98:	00125980 	call	12598 <__vfprintf_internal>
   11d9c:	dfc00017 	ldw	ra,0(sp)
   11da0:	dec00404 	addi	sp,sp,16
   11da4:	f800283a 	ret

00011da8 <_puts_r>:
   11da8:	defffd04 	addi	sp,sp,-12
   11dac:	dc000015 	stw	r16,0(sp)
   11db0:	2021883a 	mov	r16,r4
   11db4:	2809883a 	mov	r4,r5
   11db8:	dfc00215 	stw	ra,8(sp)
   11dbc:	dc400115 	stw	r17,4(sp)
   11dc0:	2823883a 	mov	r17,r5
   11dc4:	0011e3c0 	call	11e3c <strlen>
   11dc8:	81400217 	ldw	r5,8(r16)
   11dcc:	00c00074 	movhi	r3,1
   11dd0:	18c96f04 	addi	r3,r3,9660
   11dd4:	880d883a 	mov	r6,r17
   11dd8:	8009883a 	mov	r4,r16
   11ddc:	28c00115 	stw	r3,4(r5)
   11de0:	100f883a 	mov	r7,r2
   11de4:	183ee83a 	callr	r3
   11de8:	047fffc4 	movi	r17,-1
   11dec:	14400926 	beq	r2,r17,11e14 <_puts_r+0x6c>
   11df0:	81400217 	ldw	r5,8(r16)
   11df4:	8009883a 	mov	r4,r16
   11df8:	01800074 	movhi	r6,1
   11dfc:	31904504 	addi	r6,r6,16660
   11e00:	28800117 	ldw	r2,4(r5)
   11e04:	01c00044 	movi	r7,1
   11e08:	103ee83a 	callr	r2
   11e0c:	14400126 	beq	r2,r17,11e14 <_puts_r+0x6c>
   11e10:	0005883a 	mov	r2,zero
   11e14:	dfc00217 	ldw	ra,8(sp)
   11e18:	dc400117 	ldw	r17,4(sp)
   11e1c:	dc000017 	ldw	r16,0(sp)
   11e20:	dec00304 	addi	sp,sp,12
   11e24:	f800283a 	ret

00011e28 <puts>:
   11e28:	00800074 	movhi	r2,1
   11e2c:	10918204 	addi	r2,r2,17928
   11e30:	200b883a 	mov	r5,r4
   11e34:	11000017 	ldw	r4,0(r2)
   11e38:	0011da81 	jmpi	11da8 <_puts_r>

00011e3c <strlen>:
   11e3c:	20800007 	ldb	r2,0(r4)
   11e40:	10000626 	beq	r2,zero,11e5c <strlen+0x20>
   11e44:	2005883a 	mov	r2,r4
   11e48:	10800044 	addi	r2,r2,1
   11e4c:	10c00007 	ldb	r3,0(r2)
   11e50:	183ffd1e 	bne	r3,zero,11e48 <strlen+0xc>
   11e54:	1105c83a 	sub	r2,r2,r4
   11e58:	f800283a 	ret
   11e5c:	0005883a 	mov	r2,zero
   11e60:	f800283a 	ret

00011e64 <___vfprintf_internal_r>:
   11e64:	deffe004 	addi	sp,sp,-128
   11e68:	d8c00804 	addi	r3,sp,32
   11e6c:	ddc01d15 	stw	r23,116(sp)
   11e70:	dd401b15 	stw	r21,108(sp)
   11e74:	dd001a15 	stw	r20,104(sp)
   11e78:	dcc01915 	stw	r19,100(sp)
   11e7c:	dc801815 	stw	r18,96(sp)
   11e80:	dc001615 	stw	r16,88(sp)
   11e84:	dfc01f15 	stw	ra,124(sp)
   11e88:	df001e15 	stw	fp,120(sp)
   11e8c:	dd801c15 	stw	r22,112(sp)
   11e90:	dc401715 	stw	r17,92(sp)
   11e94:	d9000f15 	stw	r4,60(sp)
   11e98:	d9c00e15 	stw	r7,56(sp)
   11e9c:	3021883a 	mov	r16,r6
   11ea0:	0025883a 	mov	r18,zero
   11ea4:	d8001415 	stw	zero,80(sp)
   11ea8:	d8000d15 	stw	zero,52(sp)
   11eac:	0029883a 	mov	r20,zero
   11eb0:	d8000b15 	stw	zero,44(sp)
   11eb4:	d8000c15 	stw	zero,48(sp)
   11eb8:	d8001315 	stw	zero,76(sp)
   11ebc:	d8001015 	stw	zero,64(sp)
   11ec0:	002b883a 	mov	r21,zero
   11ec4:	04c00044 	movi	r19,1
   11ec8:	d8c00a15 	stw	r3,40(sp)
   11ecc:	282f883a 	mov	r23,r5
   11ed0:	80c00003 	ldbu	r3,0(r16)
   11ed4:	84000044 	addi	r16,r16,1
   11ed8:	18803fcc 	andi	r2,r3,255
   11edc:	1080201c 	xori	r2,r2,128
   11ee0:	10bfe004 	addi	r2,r2,-128
   11ee4:	10001426 	beq	r2,zero,11f38 <___vfprintf_internal_r+0xd4>
   11ee8:	acc03026 	beq	r21,r19,11fac <___vfprintf_internal_r+0x148>
   11eec:	9d401f16 	blt	r19,r21,11f6c <___vfprintf_internal_r+0x108>
   11ef0:	a83ff71e 	bne	r21,zero,11ed0 <___vfprintf_internal_r+0x6c>
   11ef4:	01000944 	movi	r4,37
   11ef8:	1100d926 	beq	r2,r4,12260 <___vfprintf_internal_r+0x3fc>
   11efc:	b8800117 	ldw	r2,4(r23)
   11f00:	d9000f17 	ldw	r4,60(sp)
   11f04:	d8c00905 	stb	r3,36(sp)
   11f08:	b80b883a 	mov	r5,r23
   11f0c:	d9800904 	addi	r6,sp,36
   11f10:	01c00044 	movi	r7,1
   11f14:	103ee83a 	callr	r2
   11f18:	1000a31e 	bne	r2,zero,121a8 <___vfprintf_internal_r+0x344>
   11f1c:	80c00003 	ldbu	r3,0(r16)
   11f20:	94800044 	addi	r18,r18,1
   11f24:	84000044 	addi	r16,r16,1
   11f28:	18803fcc 	andi	r2,r3,255
   11f2c:	1080201c 	xori	r2,r2,128
   11f30:	10bfe004 	addi	r2,r2,-128
   11f34:	103fec1e 	bne	r2,zero,11ee8 <___vfprintf_internal_r+0x84>
   11f38:	9005883a 	mov	r2,r18
   11f3c:	dfc01f17 	ldw	ra,124(sp)
   11f40:	df001e17 	ldw	fp,120(sp)
   11f44:	ddc01d17 	ldw	r23,116(sp)
   11f48:	dd801c17 	ldw	r22,112(sp)
   11f4c:	dd401b17 	ldw	r21,108(sp)
   11f50:	dd001a17 	ldw	r20,104(sp)
   11f54:	dcc01917 	ldw	r19,100(sp)
   11f58:	dc801817 	ldw	r18,96(sp)
   11f5c:	dc401717 	ldw	r17,92(sp)
   11f60:	dc001617 	ldw	r16,88(sp)
   11f64:	dec02004 	addi	sp,sp,128
   11f68:	f800283a 	ret
   11f6c:	01000084 	movi	r4,2
   11f70:	a9001226 	beq	r21,r4,11fbc <___vfprintf_internal_r+0x158>
   11f74:	010000c4 	movi	r4,3
   11f78:	a93fd51e 	bne	r21,r4,11ed0 <___vfprintf_internal_r+0x6c>
   11f7c:	1c7ff404 	addi	r17,r3,-48
   11f80:	8c403fcc 	andi	r17,r17,255
   11f84:	01000244 	movi	r4,9
   11f88:	24401b36 	bltu	r4,r17,11ff8 <___vfprintf_internal_r+0x194>
   11f8c:	d9000b17 	ldw	r4,44(sp)
   11f90:	00bfffc4 	movi	r2,-1
   11f94:	2080ea26 	beq	r4,r2,12340 <___vfprintf_internal_r+0x4dc>
   11f98:	01400284 	movi	r5,10
   11f9c:	00118640 	call	11864 <__mulsi3>
   11fa0:	88a3883a 	add	r17,r17,r2
   11fa4:	dc400b15 	stw	r17,44(sp)
   11fa8:	003fc906 	br	11ed0 <___vfprintf_internal_r+0x6c>
   11fac:	01000c04 	movi	r4,48
   11fb0:	1100de26 	beq	r2,r4,1232c <___vfprintf_internal_r+0x4c8>
   11fb4:	01000944 	movi	r4,37
   11fb8:	1100fd26 	beq	r2,r4,123b0 <___vfprintf_internal_r+0x54c>
   11fbc:	1c7ff404 	addi	r17,r3,-48
   11fc0:	8c403fcc 	andi	r17,r17,255
   11fc4:	01000244 	movi	r4,9
   11fc8:	24400936 	bltu	r4,r17,11ff0 <___vfprintf_internal_r+0x18c>
   11fcc:	d9000c17 	ldw	r4,48(sp)
   11fd0:	00bfffc4 	movi	r2,-1
   11fd4:	2080d826 	beq	r4,r2,12338 <___vfprintf_internal_r+0x4d4>
   11fd8:	01400284 	movi	r5,10
   11fdc:	00118640 	call	11864 <__mulsi3>
   11fe0:	88a3883a 	add	r17,r17,r2
   11fe4:	dc400c15 	stw	r17,48(sp)
   11fe8:	05400084 	movi	r21,2
   11fec:	003fb806 	br	11ed0 <___vfprintf_internal_r+0x6c>
   11ff0:	01000b84 	movi	r4,46
   11ff4:	1100a726 	beq	r2,r4,12294 <___vfprintf_internal_r+0x430>
   11ff8:	01401b04 	movi	r5,108
   11ffc:	1140a326 	beq	r2,r5,1228c <___vfprintf_internal_r+0x428>
   12000:	d9000b17 	ldw	r4,44(sp)
   12004:	00bfffc4 	movi	r2,-1
   12008:	2080e626 	beq	r4,r2,123a4 <___vfprintf_internal_r+0x540>
   1200c:	d8001015 	stw	zero,64(sp)
   12010:	18ffea04 	addi	r3,r3,-88
   12014:	18c03fcc 	andi	r3,r3,255
   12018:	00800804 	movi	r2,32
   1201c:	10c0022e 	bgeu	r2,r3,12028 <___vfprintf_internal_r+0x1c4>
   12020:	002b883a 	mov	r21,zero
   12024:	003faa06 	br	11ed0 <___vfprintf_internal_r+0x6c>
   12028:	18c7883a 	add	r3,r3,r3
   1202c:	18c7883a 	add	r3,r3,r3
   12030:	01400074 	movhi	r5,1
   12034:	29481104 	addi	r5,r5,8260
   12038:	1947883a 	add	r3,r3,r5
   1203c:	18800017 	ldw	r2,0(r3)
   12040:	1000683a 	jmp	r2
   12044:	000123dc 	xori	zero,zero,1167
   12048:	00012020 	cmpeqi	zero,zero,1152
   1204c:	00012020 	cmpeqi	zero,zero,1152
   12050:	00012020 	cmpeqi	zero,zero,1152
   12054:	00012020 	cmpeqi	zero,zero,1152
   12058:	00012020 	cmpeqi	zero,zero,1152
   1205c:	00012020 	cmpeqi	zero,zero,1152
   12060:	00012020 	cmpeqi	zero,zero,1152
   12064:	00012020 	cmpeqi	zero,zero,1152
   12068:	00012020 	cmpeqi	zero,zero,1152
   1206c:	00012020 	cmpeqi	zero,zero,1152
   12070:	000123ec 	andhi	zero,zero,1167
   12074:	000120c8 	cmpgei	zero,zero,1155
   12078:	00012020 	cmpeqi	zero,zero,1152
   1207c:	00012020 	cmpeqi	zero,zero,1152
   12080:	00012020 	cmpeqi	zero,zero,1152
   12084:	00012020 	cmpeqi	zero,zero,1152
   12088:	000120c8 	cmpgei	zero,zero,1155
   1208c:	00012020 	cmpeqi	zero,zero,1152
   12090:	00012020 	cmpeqi	zero,zero,1152
   12094:	00012020 	cmpeqi	zero,zero,1152
   12098:	00012020 	cmpeqi	zero,zero,1152
   1209c:	00012020 	cmpeqi	zero,zero,1152
   120a0:	000121b0 	cmpltui	zero,zero,1158
   120a4:	00012020 	cmpeqi	zero,zero,1152
   120a8:	00012020 	cmpeqi	zero,zero,1152
   120ac:	00012020 	cmpeqi	zero,zero,1152
   120b0:	00012438 	rdprs	zero,zero,1168
   120b4:	00012020 	cmpeqi	zero,zero,1152
   120b8:	000121b4 	movhi	zero,1158
   120bc:	00012020 	cmpeqi	zero,zero,1152
   120c0:	00012020 	cmpeqi	zero,zero,1152
   120c4:	000123e4 	muli	zero,zero,1167
   120c8:	d8c00d17 	ldw	r3,52(sp)
   120cc:	18003926 	beq	r3,zero,121b4 <___vfprintf_internal_r+0x350>
   120d0:	d9000e17 	ldw	r4,56(sp)
   120d4:	00c00044 	movi	r3,1
   120d8:	25400017 	ldw	r21,0(r4)
   120dc:	21000104 	addi	r4,r4,4
   120e0:	d9000e15 	stw	r4,56(sp)
   120e4:	d8c00d15 	stw	r3,52(sp)
   120e8:	a8012116 	blt	r21,zero,12570 <___vfprintf_internal_r+0x70c>
   120ec:	d8001215 	stw	zero,72(sp)
   120f0:	d823883a 	mov	r17,sp
   120f4:	a800371e 	bne	r21,zero,121d4 <___vfprintf_internal_r+0x370>
   120f8:	d9400b17 	ldw	r5,44(sp)
   120fc:	d809883a 	mov	r4,sp
   12100:	01400b0e 	bge	zero,r5,12130 <___vfprintf_internal_r+0x2cc>
   12104:	d8800b17 	ldw	r2,44(sp)
   12108:	d823883a 	mov	r17,sp
   1210c:	00c00c04 	movi	r3,48
   12110:	00000206 	br	1211c <___vfprintf_internal_r+0x2b8>
   12114:	d9400a17 	ldw	r5,40(sp)
   12118:	89400426 	beq	r17,r5,1212c <___vfprintf_internal_r+0x2c8>
   1211c:	88c00005 	stb	r3,0(r17)
   12120:	10bfffc4 	addi	r2,r2,-1
   12124:	8c400044 	addi	r17,r17,1
   12128:	103ffa1e 	bne	r2,zero,12114 <___vfprintf_internal_r+0x2b0>
   1212c:	892bc83a 	sub	r21,r17,r4
   12130:	d8c01217 	ldw	r3,72(sp)
   12134:	d9000c17 	ldw	r4,48(sp)
   12138:	a8c5883a 	add	r2,r21,r3
   1213c:	d8c01017 	ldw	r3,64(sp)
   12140:	2085c83a 	sub	r2,r4,r2
   12144:	d8801115 	stw	r2,68(sp)
   12148:	18007f26 	beq	r3,zero,12348 <___vfprintf_internal_r+0x4e4>
   1214c:	d8c01217 	ldw	r3,72(sp)
   12150:	1800fa1e 	bne	r3,zero,1253c <___vfprintf_internal_r+0x6d8>
   12154:	d8c01117 	ldw	r3,68(sp)
   12158:	00c0620e 	bge	zero,r3,122e4 <___vfprintf_internal_r+0x480>
   1215c:	00800c04 	movi	r2,48
   12160:	d88008c5 	stb	r2,35(sp)
   12164:	b805883a 	mov	r2,r23
   12168:	dc001215 	stw	r16,72(sp)
   1216c:	882f883a 	mov	r23,r17
   12170:	1f3fffc4 	addi	fp,r3,-1
   12174:	05bfffc4 	movi	r22,-1
   12178:	dc000f17 	ldw	r16,60(sp)
   1217c:	1023883a 	mov	r17,r2
   12180:	00000206 	br	1218c <___vfprintf_internal_r+0x328>
   12184:	e73fffc4 	addi	fp,fp,-1
   12188:	e580fc26 	beq	fp,r22,1257c <___vfprintf_internal_r+0x718>
   1218c:	88800117 	ldw	r2,4(r17)
   12190:	8009883a 	mov	r4,r16
   12194:	880b883a 	mov	r5,r17
   12198:	d98008c4 	addi	r6,sp,35
   1219c:	01c00044 	movi	r7,1
   121a0:	103ee83a 	callr	r2
   121a4:	103ff726 	beq	r2,zero,12184 <___vfprintf_internal_r+0x320>
   121a8:	04bfffc4 	movi	r18,-1
   121ac:	003f6206 	br	11f38 <___vfprintf_internal_r+0xd4>
   121b0:	05000204 	movi	r20,8
   121b4:	d9400e17 	ldw	r5,56(sp)
   121b8:	2d400017 	ldw	r21,0(r5)
   121bc:	29400104 	addi	r5,r5,4
   121c0:	d9400e15 	stw	r5,56(sp)
   121c4:	d8000d15 	stw	zero,52(sp)
   121c8:	d8001215 	stw	zero,72(sp)
   121cc:	d823883a 	mov	r17,sp
   121d0:	a83fc926 	beq	r21,zero,120f8 <___vfprintf_internal_r+0x294>
   121d4:	05800244 	movi	r22,9
   121d8:	dc001115 	stw	r16,68(sp)
   121dc:	df001417 	ldw	fp,80(sp)
   121e0:	00000506 	br	121f8 <___vfprintf_internal_r+0x394>
   121e4:	15400c04 	addi	r21,r2,48
   121e8:	8d400005 	stb	r21,0(r17)
   121ec:	802b883a 	mov	r21,r16
   121f0:	8c400044 	addi	r17,r17,1
   121f4:	80000f26 	beq	r16,zero,12234 <___vfprintf_internal_r+0x3d0>
   121f8:	a809883a 	mov	r4,r21
   121fc:	a00b883a 	mov	r5,r20
   12200:	00128280 	call	12828 <__udivsi3>
   12204:	a009883a 	mov	r4,r20
   12208:	100b883a 	mov	r5,r2
   1220c:	1021883a 	mov	r16,r2
   12210:	00118640 	call	11864 <__mulsi3>
   12214:	a885c83a 	sub	r2,r21,r2
   12218:	b0bff20e 	bge	r22,r2,121e4 <___vfprintf_internal_r+0x380>
   1221c:	e0000e26 	beq	fp,zero,12258 <___vfprintf_internal_r+0x3f4>
   12220:	15400dc4 	addi	r21,r2,55
   12224:	8d400005 	stb	r21,0(r17)
   12228:	802b883a 	mov	r21,r16
   1222c:	8c400044 	addi	r17,r17,1
   12230:	803ff11e 	bne	r16,zero,121f8 <___vfprintf_internal_r+0x394>
   12234:	d9000b17 	ldw	r4,44(sp)
   12238:	8eebc83a 	sub	r21,r17,sp
   1223c:	dc001117 	ldw	r16,68(sp)
   12240:	2545c83a 	sub	r2,r4,r21
   12244:	d809883a 	mov	r4,sp
   12248:	00bfb90e 	bge	zero,r2,12130 <___vfprintf_internal_r+0x2cc>
   1224c:	d8c00a17 	ldw	r3,40(sp)
   12250:	88ffae36 	bltu	r17,r3,1210c <___vfprintf_internal_r+0x2a8>
   12254:	003fb606 	br	12130 <___vfprintf_internal_r+0x2cc>
   12258:	154015c4 	addi	r21,r2,87
   1225c:	003fe206 	br	121e8 <___vfprintf_internal_r+0x384>
   12260:	00c00044 	movi	r3,1
   12264:	013fffc4 	movi	r4,-1
   12268:	d8c00d15 	stw	r3,52(sp)
   1226c:	d9000b15 	stw	r4,44(sp)
   12270:	d8001415 	stw	zero,80(sp)
   12274:	05000284 	movi	r20,10
   12278:	d9000c15 	stw	r4,48(sp)
   1227c:	d8001315 	stw	zero,76(sp)
   12280:	d8001015 	stw	zero,64(sp)
   12284:	182b883a 	mov	r21,r3
   12288:	003f1106 	br	11ed0 <___vfprintf_internal_r+0x6c>
   1228c:	00c00044 	movi	r3,1
   12290:	d8c01315 	stw	r3,76(sp)
   12294:	054000c4 	movi	r21,3
   12298:	003f0d06 	br	11ed0 <___vfprintf_internal_r+0x6c>
   1229c:	d8c01117 	ldw	r3,68(sp)
   122a0:	dc001517 	ldw	r16,84(sp)
   122a4:	8805883a 	mov	r2,r17
   122a8:	90e5883a 	add	r18,r18,r3
   122ac:	b823883a 	mov	r17,r23
   122b0:	102f883a 	mov	r23,r2
   122b4:	d8c01217 	ldw	r3,72(sp)
   122b8:	18000a26 	beq	r3,zero,122e4 <___vfprintf_internal_r+0x480>
   122bc:	b8800117 	ldw	r2,4(r23)
   122c0:	d9000f17 	ldw	r4,60(sp)
   122c4:	00c00b44 	movi	r3,45
   122c8:	d8c00905 	stb	r3,36(sp)
   122cc:	b80b883a 	mov	r5,r23
   122d0:	d9800904 	addi	r6,sp,36
   122d4:	01c00044 	movi	r7,1
   122d8:	103ee83a 	callr	r2
   122dc:	103fb21e 	bne	r2,zero,121a8 <___vfprintf_internal_r+0x344>
   122e0:	94800044 	addi	r18,r18,1
   122e4:	8d6dc83a 	sub	r22,r17,r21
   122e8:	057f4d0e 	bge	zero,r21,12020 <___vfprintf_internal_r+0x1bc>
   122ec:	dd400f17 	ldw	r21,60(sp)
   122f0:	00000206 	br	122fc <___vfprintf_internal_r+0x498>
   122f4:	94800044 	addi	r18,r18,1
   122f8:	8dbf4926 	beq	r17,r22,12020 <___vfprintf_internal_r+0x1bc>
   122fc:	8c7fffc4 	addi	r17,r17,-1
   12300:	88c00003 	ldbu	r3,0(r17)
   12304:	b8800117 	ldw	r2,4(r23)
   12308:	a809883a 	mov	r4,r21
   1230c:	d8c00905 	stb	r3,36(sp)
   12310:	b80b883a 	mov	r5,r23
   12314:	d9800904 	addi	r6,sp,36
   12318:	01c00044 	movi	r7,1
   1231c:	103ee83a 	callr	r2
   12320:	103ff426 	beq	r2,zero,122f4 <___vfprintf_internal_r+0x490>
   12324:	04bfffc4 	movi	r18,-1
   12328:	003f0306 	br	11f38 <___vfprintf_internal_r+0xd4>
   1232c:	dd401015 	stw	r21,64(sp)
   12330:	05400084 	movi	r21,2
   12334:	003ee606 	br	11ed0 <___vfprintf_internal_r+0x6c>
   12338:	0005883a 	mov	r2,zero
   1233c:	003f2806 	br	11fe0 <___vfprintf_internal_r+0x17c>
   12340:	0005883a 	mov	r2,zero
   12344:	003f1606 	br	11fa0 <___vfprintf_internal_r+0x13c>
   12348:	d8c01117 	ldw	r3,68(sp)
   1234c:	00ffd90e 	bge	zero,r3,122b4 <___vfprintf_internal_r+0x450>
   12350:	00800804 	movi	r2,32
   12354:	d8800885 	stb	r2,34(sp)
   12358:	b805883a 	mov	r2,r23
   1235c:	dc001515 	stw	r16,84(sp)
   12360:	882f883a 	mov	r23,r17
   12364:	1f3fffc4 	addi	fp,r3,-1
   12368:	05bfffc4 	movi	r22,-1
   1236c:	dc000f17 	ldw	r16,60(sp)
   12370:	1023883a 	mov	r17,r2
   12374:	00000206 	br	12380 <___vfprintf_internal_r+0x51c>
   12378:	e73fffc4 	addi	fp,fp,-1
   1237c:	e5bfc726 	beq	fp,r22,1229c <___vfprintf_internal_r+0x438>
   12380:	88800117 	ldw	r2,4(r17)
   12384:	8009883a 	mov	r4,r16
   12388:	880b883a 	mov	r5,r17
   1238c:	d9800884 	addi	r6,sp,34
   12390:	01c00044 	movi	r7,1
   12394:	103ee83a 	callr	r2
   12398:	103ff726 	beq	r2,zero,12378 <___vfprintf_internal_r+0x514>
   1239c:	04bfffc4 	movi	r18,-1
   123a0:	003ee506 	br	11f38 <___vfprintf_internal_r+0xd4>
   123a4:	01000044 	movi	r4,1
   123a8:	d9000b15 	stw	r4,44(sp)
   123ac:	003f1806 	br	12010 <___vfprintf_internal_r+0x1ac>
   123b0:	b8c00117 	ldw	r3,4(r23)
   123b4:	d9000f17 	ldw	r4,60(sp)
   123b8:	d8800905 	stb	r2,36(sp)
   123bc:	b80b883a 	mov	r5,r23
   123c0:	d9800904 	addi	r6,sp,36
   123c4:	a80f883a 	mov	r7,r21
   123c8:	183ee83a 	callr	r3
   123cc:	103f761e 	bne	r2,zero,121a8 <___vfprintf_internal_r+0x344>
   123d0:	94800044 	addi	r18,r18,1
   123d4:	002b883a 	mov	r21,zero
   123d8:	003ebd06 	br	11ed0 <___vfprintf_internal_r+0x6c>
   123dc:	00c00044 	movi	r3,1
   123e0:	d8c01415 	stw	r3,80(sp)
   123e4:	05000404 	movi	r20,16
   123e8:	003f7206 	br	121b4 <___vfprintf_internal_r+0x350>
   123ec:	d9000c17 	ldw	r4,48(sp)
   123f0:	9900420e 	bge	r19,r4,124fc <___vfprintf_internal_r+0x698>
   123f4:	df000f17 	ldw	fp,60(sp)
   123f8:	25bfffc4 	addi	r22,r4,-1
   123fc:	00800804 	movi	r2,32
   12400:	d8800845 	stb	r2,33(sp)
   12404:	b023883a 	mov	r17,r22
   12408:	057fffc4 	movi	r21,-1
   1240c:	8c7fffc4 	addi	r17,r17,-1
   12410:	8d403926 	beq	r17,r21,124f8 <___vfprintf_internal_r+0x694>
   12414:	b8800117 	ldw	r2,4(r23)
   12418:	e009883a 	mov	r4,fp
   1241c:	b80b883a 	mov	r5,r23
   12420:	d9800844 	addi	r6,sp,33
   12424:	01c00044 	movi	r7,1
   12428:	103ee83a 	callr	r2
   1242c:	103ff726 	beq	r2,zero,1240c <___vfprintf_internal_r+0x5a8>
   12430:	04bfffc4 	movi	r18,-1
   12434:	003ec006 	br	11f38 <___vfprintf_internal_r+0xd4>
   12438:	d9000e17 	ldw	r4,56(sp)
   1243c:	d8c00e17 	ldw	r3,56(sp)
   12440:	21000017 	ldw	r4,0(r4)
   12444:	18c00104 	addi	r3,r3,4
   12448:	d8c00e15 	stw	r3,56(sp)
   1244c:	d9001215 	stw	r4,72(sp)
   12450:	0011e3c0 	call	11e3c <strlen>
   12454:	d9000c17 	ldw	r4,48(sp)
   12458:	102d883a 	mov	r22,r2
   1245c:	20b9c83a 	sub	fp,r4,r2
   12460:	07001b0e 	bge	zero,fp,124d0 <___vfprintf_internal_r+0x66c>
   12464:	00800804 	movi	r2,32
   12468:	d8800805 	stb	r2,32(sp)
   1246c:	b805883a 	mov	r2,r23
   12470:	dc001115 	stw	r16,68(sp)
   12474:	b02f883a 	mov	r23,r22
   12478:	e47fffc4 	addi	r17,fp,-1
   1247c:	902d883a 	mov	r22,r18
   12480:	057fffc4 	movi	r21,-1
   12484:	dc000f17 	ldw	r16,60(sp)
   12488:	1025883a 	mov	r18,r2
   1248c:	00000206 	br	12498 <___vfprintf_internal_r+0x634>
   12490:	8c7fffc4 	addi	r17,r17,-1
   12494:	8d400826 	beq	r17,r21,124b8 <___vfprintf_internal_r+0x654>
   12498:	90800117 	ldw	r2,4(r18)
   1249c:	8009883a 	mov	r4,r16
   124a0:	900b883a 	mov	r5,r18
   124a4:	d9800804 	addi	r6,sp,32
   124a8:	01c00044 	movi	r7,1
   124ac:	103ee83a 	callr	r2
   124b0:	103ff726 	beq	r2,zero,12490 <___vfprintf_internal_r+0x62c>
   124b4:	003f3c06 	br	121a8 <___vfprintf_internal_r+0x344>
   124b8:	dc001117 	ldw	r16,68(sp)
   124bc:	9005883a 	mov	r2,r18
   124c0:	b025883a 	mov	r18,r22
   124c4:	9725883a 	add	r18,r18,fp
   124c8:	b82d883a 	mov	r22,r23
   124cc:	102f883a 	mov	r23,r2
   124d0:	b8800117 	ldw	r2,4(r23)
   124d4:	d9000f17 	ldw	r4,60(sp)
   124d8:	d9801217 	ldw	r6,72(sp)
   124dc:	b80b883a 	mov	r5,r23
   124e0:	b00f883a 	mov	r7,r22
   124e4:	103ee83a 	callr	r2
   124e8:	103f2f1e 	bne	r2,zero,121a8 <___vfprintf_internal_r+0x344>
   124ec:	95a5883a 	add	r18,r18,r22
   124f0:	002b883a 	mov	r21,zero
   124f4:	003e7606 	br	11ed0 <___vfprintf_internal_r+0x6c>
   124f8:	95a5883a 	add	r18,r18,r22
   124fc:	d9400e17 	ldw	r5,56(sp)
   12500:	b8800117 	ldw	r2,4(r23)
   12504:	d9000f17 	ldw	r4,60(sp)
   12508:	28c00017 	ldw	r3,0(r5)
   1250c:	d9800904 	addi	r6,sp,36
   12510:	b80b883a 	mov	r5,r23
   12514:	d8c00905 	stb	r3,36(sp)
   12518:	d8c00e17 	ldw	r3,56(sp)
   1251c:	01c00044 	movi	r7,1
   12520:	1c400104 	addi	r17,r3,4
   12524:	103ee83a 	callr	r2
   12528:	103f1f1e 	bne	r2,zero,121a8 <___vfprintf_internal_r+0x344>
   1252c:	94800044 	addi	r18,r18,1
   12530:	dc400e15 	stw	r17,56(sp)
   12534:	002b883a 	mov	r21,zero
   12538:	003e6506 	br	11ed0 <___vfprintf_internal_r+0x6c>
   1253c:	b8800117 	ldw	r2,4(r23)
   12540:	d9000f17 	ldw	r4,60(sp)
   12544:	00c00b44 	movi	r3,45
   12548:	d8c00905 	stb	r3,36(sp)
   1254c:	b80b883a 	mov	r5,r23
   12550:	d9800904 	addi	r6,sp,36
   12554:	01c00044 	movi	r7,1
   12558:	103ee83a 	callr	r2
   1255c:	103f121e 	bne	r2,zero,121a8 <___vfprintf_internal_r+0x344>
   12560:	d8c01117 	ldw	r3,68(sp)
   12564:	94800044 	addi	r18,r18,1
   12568:	00fefc16 	blt	zero,r3,1215c <___vfprintf_internal_r+0x2f8>
   1256c:	003f5d06 	br	122e4 <___vfprintf_internal_r+0x480>
   12570:	056bc83a 	sub	r21,zero,r21
   12574:	d8c01215 	stw	r3,72(sp)
   12578:	003f1406 	br	121cc <___vfprintf_internal_r+0x368>
   1257c:	d8c01117 	ldw	r3,68(sp)
   12580:	8805883a 	mov	r2,r17
   12584:	dc001217 	ldw	r16,72(sp)
   12588:	b823883a 	mov	r17,r23
   1258c:	90e5883a 	add	r18,r18,r3
   12590:	102f883a 	mov	r23,r2
   12594:	003f5306 	br	122e4 <___vfprintf_internal_r+0x480>

00012598 <__vfprintf_internal>:
   12598:	00800074 	movhi	r2,1
   1259c:	10918204 	addi	r2,r2,17928
   125a0:	2007883a 	mov	r3,r4
   125a4:	11000017 	ldw	r4,0(r2)
   125a8:	2805883a 	mov	r2,r5
   125ac:	300f883a 	mov	r7,r6
   125b0:	180b883a 	mov	r5,r3
   125b4:	100d883a 	mov	r6,r2
   125b8:	0011e641 	jmpi	11e64 <___vfprintf_internal_r>

000125bc <__sfvwrite_small_dev>:
   125bc:	2880000b 	ldhu	r2,0(r5)
   125c0:	defffa04 	addi	sp,sp,-24
   125c4:	dcc00315 	stw	r19,12(sp)
   125c8:	10c0020c 	andi	r3,r2,8
   125cc:	18ffffcc 	andi	r3,r3,65535
   125d0:	18e0001c 	xori	r3,r3,32768
   125d4:	dc800215 	stw	r18,8(sp)
   125d8:	dc400115 	stw	r17,4(sp)
   125dc:	dfc00515 	stw	ra,20(sp)
   125e0:	dd000415 	stw	r20,16(sp)
   125e4:	dc000015 	stw	r16,0(sp)
   125e8:	18e00004 	addi	r3,r3,-32768
   125ec:	2825883a 	mov	r18,r5
   125f0:	2027883a 	mov	r19,r4
   125f4:	3023883a 	mov	r17,r6
   125f8:	18002626 	beq	r3,zero,12694 <__sfvwrite_small_dev+0xd8>
   125fc:	2940008f 	ldh	r5,2(r5)
   12600:	28001016 	blt	r5,zero,12644 <__sfvwrite_small_dev+0x88>
   12604:	01c01a0e 	bge	zero,r7,12670 <__sfvwrite_small_dev+0xb4>
   12608:	3821883a 	mov	r16,r7
   1260c:	05010004 	movi	r20,1024
   12610:	00000306 	br	12620 <__sfvwrite_small_dev+0x64>
   12614:	88a3883a 	add	r17,r17,r2
   12618:	0400150e 	bge	zero,r16,12670 <__sfvwrite_small_dev+0xb4>
   1261c:	9140008f 	ldh	r5,2(r18)
   12620:	880d883a 	mov	r6,r17
   12624:	9809883a 	mov	r4,r19
   12628:	800f883a 	mov	r7,r16
   1262c:	a400010e 	bge	r20,r16,12634 <__sfvwrite_small_dev+0x78>
   12630:	01c10004 	movi	r7,1024
   12634:	001269c0 	call	1269c <_write_r>
   12638:	80a1c83a 	sub	r16,r16,r2
   1263c:	00bff516 	blt	zero,r2,12614 <__sfvwrite_small_dev+0x58>
   12640:	9080000b 	ldhu	r2,0(r18)
   12644:	10801014 	ori	r2,r2,64
   12648:	9080000d 	sth	r2,0(r18)
   1264c:	00bfffc4 	movi	r2,-1
   12650:	dfc00517 	ldw	ra,20(sp)
   12654:	dd000417 	ldw	r20,16(sp)
   12658:	dcc00317 	ldw	r19,12(sp)
   1265c:	dc800217 	ldw	r18,8(sp)
   12660:	dc400117 	ldw	r17,4(sp)
   12664:	dc000017 	ldw	r16,0(sp)
   12668:	dec00604 	addi	sp,sp,24
   1266c:	f800283a 	ret
   12670:	0005883a 	mov	r2,zero
   12674:	dfc00517 	ldw	ra,20(sp)
   12678:	dd000417 	ldw	r20,16(sp)
   1267c:	dcc00317 	ldw	r19,12(sp)
   12680:	dc800217 	ldw	r18,8(sp)
   12684:	dc400117 	ldw	r17,4(sp)
   12688:	dc000017 	ldw	r16,0(sp)
   1268c:	dec00604 	addi	sp,sp,24
   12690:	f800283a 	ret
   12694:	00bfffc4 	movi	r2,-1
   12698:	003fed06 	br	12650 <__sfvwrite_small_dev+0x94>

0001269c <_write_r>:
   1269c:	defffd04 	addi	sp,sp,-12
   126a0:	dc400115 	stw	r17,4(sp)
   126a4:	dc000015 	stw	r16,0(sp)
   126a8:	2023883a 	mov	r17,r4
   126ac:	04000074 	movhi	r16,1
   126b0:	8412c304 	addi	r16,r16,19212
   126b4:	2809883a 	mov	r4,r5
   126b8:	300b883a 	mov	r5,r6
   126bc:	380d883a 	mov	r6,r7
   126c0:	dfc00215 	stw	ra,8(sp)
   126c4:	80000015 	stw	zero,0(r16)
   126c8:	00129ec0 	call	129ec <write>
   126cc:	00ffffc4 	movi	r3,-1
   126d0:	10c00526 	beq	r2,r3,126e8 <_write_r+0x4c>
   126d4:	dfc00217 	ldw	ra,8(sp)
   126d8:	dc400117 	ldw	r17,4(sp)
   126dc:	dc000017 	ldw	r16,0(sp)
   126e0:	dec00304 	addi	sp,sp,12
   126e4:	f800283a 	ret
   126e8:	80c00017 	ldw	r3,0(r16)
   126ec:	183ff926 	beq	r3,zero,126d4 <_write_r+0x38>
   126f0:	88c00015 	stw	r3,0(r17)
   126f4:	dfc00217 	ldw	ra,8(sp)
   126f8:	dc400117 	ldw	r17,4(sp)
   126fc:	dc000017 	ldw	r16,0(sp)
   12700:	dec00304 	addi	sp,sp,12
   12704:	f800283a 	ret

00012708 <udivmodsi4>:
   12708:	2005883a 	mov	r2,r4
   1270c:	2900182e 	bgeu	r5,r4,12770 <udivmodsi4+0x68>
   12710:	28001716 	blt	r5,zero,12770 <udivmodsi4+0x68>
   12714:	01000804 	movi	r4,32
   12718:	00c00044 	movi	r3,1
   1271c:	00000206 	br	12728 <udivmodsi4+0x20>
   12720:	20001126 	beq	r4,zero,12768 <udivmodsi4+0x60>
   12724:	28000516 	blt	r5,zero,1273c <udivmodsi4+0x34>
   12728:	294b883a 	add	r5,r5,r5
   1272c:	213fffc4 	addi	r4,r4,-1
   12730:	18c7883a 	add	r3,r3,r3
   12734:	28bffa36 	bltu	r5,r2,12720 <udivmodsi4+0x18>
   12738:	18000b26 	beq	r3,zero,12768 <udivmodsi4+0x60>
   1273c:	0009883a 	mov	r4,zero
   12740:	11400236 	bltu	r2,r5,1274c <udivmodsi4+0x44>
   12744:	1145c83a 	sub	r2,r2,r5
   12748:	20c8b03a 	or	r4,r4,r3
   1274c:	1806d07a 	srli	r3,r3,1
   12750:	280ad07a 	srli	r5,r5,1
   12754:	183ffa1e 	bne	r3,zero,12740 <udivmodsi4+0x38>
   12758:	3000021e 	bne	r6,zero,12764 <udivmodsi4+0x5c>
   1275c:	2005883a 	mov	r2,r4
   12760:	f800283a 	ret
   12764:	f800283a 	ret
   12768:	0009883a 	mov	r4,zero
   1276c:	003ffa06 	br	12758 <udivmodsi4+0x50>
   12770:	00c00044 	movi	r3,1
   12774:	0009883a 	mov	r4,zero
   12778:	003ff106 	br	12740 <udivmodsi4+0x38>

0001277c <__divsi3>:
   1277c:	defffe04 	addi	sp,sp,-8
   12780:	dfc00115 	stw	ra,4(sp)
   12784:	dc000015 	stw	r16,0(sp)
   12788:	20000a16 	blt	r4,zero,127b4 <__divsi3+0x38>
   1278c:	0021883a 	mov	r16,zero
   12790:	28000b16 	blt	r5,zero,127c0 <__divsi3+0x44>
   12794:	000d883a 	mov	r6,zero
   12798:	00127080 	call	12708 <udivmodsi4>
   1279c:	80000126 	beq	r16,zero,127a4 <__divsi3+0x28>
   127a0:	0085c83a 	sub	r2,zero,r2
   127a4:	dfc00117 	ldw	ra,4(sp)
   127a8:	dc000017 	ldw	r16,0(sp)
   127ac:	dec00204 	addi	sp,sp,8
   127b0:	f800283a 	ret
   127b4:	0109c83a 	sub	r4,zero,r4
   127b8:	04000044 	movi	r16,1
   127bc:	283ff50e 	bge	r5,zero,12794 <__divsi3+0x18>
   127c0:	014bc83a 	sub	r5,zero,r5
   127c4:	8400005c 	xori	r16,r16,1
   127c8:	003ff206 	br	12794 <__divsi3+0x18>

000127cc <__modsi3>:
   127cc:	deffff04 	addi	sp,sp,-4
   127d0:	dfc00015 	stw	ra,0(sp)
   127d4:	20000516 	blt	r4,zero,127ec <__modsi3+0x20>
   127d8:	28000c16 	blt	r5,zero,1280c <__modsi3+0x40>
   127dc:	01800044 	movi	r6,1
   127e0:	dfc00017 	ldw	ra,0(sp)
   127e4:	dec00104 	addi	sp,sp,4
   127e8:	00127081 	jmpi	12708 <udivmodsi4>
   127ec:	0109c83a 	sub	r4,zero,r4
   127f0:	28000b16 	blt	r5,zero,12820 <__modsi3+0x54>
   127f4:	01800044 	movi	r6,1
   127f8:	00127080 	call	12708 <udivmodsi4>
   127fc:	0085c83a 	sub	r2,zero,r2
   12800:	dfc00017 	ldw	ra,0(sp)
   12804:	dec00104 	addi	sp,sp,4
   12808:	f800283a 	ret
   1280c:	014bc83a 	sub	r5,zero,r5
   12810:	01800044 	movi	r6,1
   12814:	dfc00017 	ldw	ra,0(sp)
   12818:	dec00104 	addi	sp,sp,4
   1281c:	00127081 	jmpi	12708 <udivmodsi4>
   12820:	014bc83a 	sub	r5,zero,r5
   12824:	003ff306 	br	127f4 <__modsi3+0x28>

00012828 <__udivsi3>:
   12828:	000d883a 	mov	r6,zero
   1282c:	00127081 	jmpi	12708 <udivmodsi4>

00012830 <__umodsi3>:
   12830:	01800044 	movi	r6,1
   12834:	00127081 	jmpi	12708 <udivmodsi4>

00012838 <alt_load_section>:
 */

static void ALT_INLINE alt_load_section (alt_u32* from, 
                                         alt_u32* to, 
                                         alt_u32* end)
{
   12838:	defffc04 	addi	sp,sp,-16
   1283c:	df000315 	stw	fp,12(sp)
   12840:	df000304 	addi	fp,sp,12
   12844:	e13ffd15 	stw	r4,-12(fp)
   12848:	e17ffe15 	stw	r5,-8(fp)
   1284c:	e1bfff15 	stw	r6,-4(fp)
  if (to != from)
   12850:	e0fffe17 	ldw	r3,-8(fp)
   12854:	e0bffd17 	ldw	r2,-12(fp)
   12858:	18800e26 	beq	r3,r2,12894 <alt_load_section+0x5c>
  {
    while( to != end )
   1285c:	00000a06 	br	12888 <alt_load_section+0x50>
    {
      *to++ = *from++;
   12860:	e0bffd17 	ldw	r2,-12(fp)
   12864:	10c00017 	ldw	r3,0(r2)
   12868:	e0bffe17 	ldw	r2,-8(fp)
   1286c:	10c00015 	stw	r3,0(r2)
   12870:	e0bffe17 	ldw	r2,-8(fp)
   12874:	10800104 	addi	r2,r2,4
   12878:	e0bffe15 	stw	r2,-8(fp)
   1287c:	e0bffd17 	ldw	r2,-12(fp)
   12880:	10800104 	addi	r2,r2,4
   12884:	e0bffd15 	stw	r2,-12(fp)
                                         alt_u32* to, 
                                         alt_u32* end)
{
  if (to != from)
  {
    while( to != end )
   12888:	e0fffe17 	ldw	r3,-8(fp)
   1288c:	e0bfff17 	ldw	r2,-4(fp)
   12890:	18bff31e 	bne	r3,r2,12860 <alt_load_section+0x28>
    {
      *to++ = *from++;
    }
  }
}
   12894:	e037883a 	mov	sp,fp
   12898:	df000017 	ldw	fp,0(sp)
   1289c:	dec00104 	addi	sp,sp,4
   128a0:	f800283a 	ret

000128a4 <alt_load>:
 * there is no bootloader, so this application is responsible for loading to
 * RAM any sections that are required.
 */  

void alt_load (void)
{
   128a4:	defffe04 	addi	sp,sp,-8
   128a8:	dfc00115 	stw	ra,4(sp)
   128ac:	df000015 	stw	fp,0(sp)
   128b0:	d839883a 	mov	fp,sp
  /* 
   * Copy the .rwdata section. 
   */

  alt_load_section (&__flash_rwdata_start, 
   128b4:	01000074 	movhi	r4,1
   128b8:	21118904 	addi	r4,r4,17956
   128bc:	01400074 	movhi	r5,1
   128c0:	29505304 	addi	r5,r5,16716
   128c4:	01800074 	movhi	r6,1
   128c8:	31918904 	addi	r6,r6,17956
   128cc:	00128380 	call	12838 <alt_load_section>

  /*
   * Copy the exception handler.
   */

  alt_load_section (&__flash_exceptions_start, 
   128d0:	01000074 	movhi	r4,1
   128d4:	21000804 	addi	r4,r4,32
   128d8:	01400074 	movhi	r5,1
   128dc:	29400804 	addi	r5,r5,32
   128e0:	01800074 	movhi	r6,1
   128e4:	31800804 	addi	r6,r6,32
   128e8:	00128380 	call	12838 <alt_load_section>

  /*
   * Copy the .rodata section.
   */

  alt_load_section (&__flash_rodata_start, 
   128ec:	01000074 	movhi	r4,1
   128f0:	210f6104 	addi	r4,r4,15748
   128f4:	01400074 	movhi	r5,1
   128f8:	294f6104 	addi	r5,r5,15748
   128fc:	01800074 	movhi	r6,1
   12900:	31905304 	addi	r6,r6,16716
   12904:	00128380 	call	12838 <alt_load_section>
  
  /*
   * Now ensure that the caches are in synch.
   */
  
  alt_dcache_flush_all();
   12908:	00130580 	call	13058 <alt_dcache_flush_all>
  alt_icache_flush_all();
   1290c:	00132480 	call	13248 <alt_icache_flush_all>
}
   12910:	e037883a 	mov	sp,fp
   12914:	dfc00117 	ldw	ra,4(sp)
   12918:	df000017 	ldw	fp,0(sp)
   1291c:	dec00204 	addi	sp,sp,8
   12920:	f800283a 	ret

00012924 <alt_main>:
 * devices/filesystems/components in the system; and call the entry point for
 * the users application, i.e. main().
 */

void alt_main (void)
{
   12924:	defffd04 	addi	sp,sp,-12
   12928:	dfc00215 	stw	ra,8(sp)
   1292c:	df000115 	stw	fp,4(sp)
   12930:	df000104 	addi	fp,sp,4
#endif

  /* ALT LOG - please see HAL/sys/alt_log_printf.h for details */
  ALT_LOG_PRINT_BOOT("[alt_main.c] Entering alt_main, calling alt_irq_init.\r\n");
  /* Initialize the interrupt controller. */
  alt_irq_init (NULL);
   12934:	0009883a 	mov	r4,zero
   12938:	0012b140 	call	12b14 <alt_irq_init>

  /* Initialize the operating system */
  ALT_LOG_PRINT_BOOT("[alt_main.c] Done alt_irq_init, calling alt_os_init.\r\n");
  ALT_OS_INIT();
   1293c:	0001883a 	nop
  ALT_LOG_PRINT_BOOT("[alt_main.c] Done OS Init, calling alt_sem_create.\r\n");
  ALT_SEM_CREATE (&alt_fd_list_lock, 1);

  /* Initialize the device drivers/software components. */
  ALT_LOG_PRINT_BOOT("[alt_main.c] Calling alt_sys_init.\r\n");
  alt_sys_init();
   12940:	0012b480 	call	12b48 <alt_sys_init>
   * devices be present (not equal to /dev/null) and if direct drivers
   * aren't being used.
   */

    ALT_LOG_PRINT_BOOT("[alt_main.c] Redirecting IO.\r\n");
    alt_io_redirect(ALT_STDOUT, ALT_STDIN, ALT_STDERR);
   12944:	01000074 	movhi	r4,1
   12948:	21104604 	addi	r4,r4,16664
   1294c:	01400074 	movhi	r5,1
   12950:	29504604 	addi	r5,r5,16664
   12954:	01800074 	movhi	r6,1
   12958:	31904604 	addi	r6,r6,16664
   1295c:	00133440 	call	13344 <alt_io_redirect>
  /* 
   * Call the C++ constructors 
   */

  ALT_LOG_PRINT_BOOT("[alt_main.c] Calling C++ constructors.\r\n");
  _do_ctors ();
   12960:	00131900 	call	13190 <_do_ctors>
   * redefined as _exit()). This is in the interest of reducing code footprint,
   * in that the atexit() overhead is removed when it's not needed.
   */

  ALT_LOG_PRINT_BOOT("[alt_main.c] Calling atexit.\r\n");
  atexit (_do_dtors);
   12964:	01000074 	movhi	r4,1
   12968:	210c7b04 	addi	r4,r4,12780
   1296c:	001396c0 	call	1396c <atexit>
  ALT_LOG_PRINT_BOOT("[alt_main.c] Calling main.\r\n");

#ifdef ALT_NO_EXIT
  main (alt_argc, alt_argv, alt_envp);
#else
  result = main (alt_argc, alt_argv, alt_envp);
   12970:	d1214317 	ldw	r4,-31476(gp)
   12974:	d0e14417 	ldw	r3,-31472(gp)
   12978:	d0a14517 	ldw	r2,-31468(gp)
   1297c:	180b883a 	mov	r5,r3
   12980:	100d883a 	mov	r6,r2
   12984:	0010ad00 	call	10ad0 <main>
   12988:	e0bfff15 	stw	r2,-4(fp)
  close(STDOUT_FILENO);
   1298c:	01000044 	movi	r4,1
   12990:	0012f8c0 	call	12f8c <close>
  exit (result);
   12994:	e13fff17 	ldw	r4,-4(fp)
   12998:	00139800 	call	13980 <exit>

0001299c <alt_get_errno>:
#undef errno

extern int errno;

static ALT_INLINE int* alt_get_errno(void)
{
   1299c:	defffe04 	addi	sp,sp,-8
   129a0:	dfc00115 	stw	ra,4(sp)
   129a4:	df000015 	stw	fp,0(sp)
   129a8:	d839883a 	mov	fp,sp
  return ((alt_errno) ? alt_errno() : &errno);
   129ac:	00800074 	movhi	r2,1
   129b0:	10918804 	addi	r2,r2,17952
   129b4:	10800017 	ldw	r2,0(r2)
   129b8:	10000526 	beq	r2,zero,129d0 <alt_get_errno+0x34>
   129bc:	00800074 	movhi	r2,1
   129c0:	10918804 	addi	r2,r2,17952
   129c4:	10800017 	ldw	r2,0(r2)
   129c8:	103ee83a 	callr	r2
   129cc:	00000206 	br	129d8 <alt_get_errno+0x3c>
   129d0:	00800074 	movhi	r2,1
   129d4:	1092c304 	addi	r2,r2,19212
}
   129d8:	e037883a 	mov	sp,fp
   129dc:	dfc00117 	ldw	ra,4(sp)
   129e0:	df000017 	ldw	fp,0(sp)
   129e4:	dec00204 	addi	sp,sp,8
   129e8:	f800283a 	ret

000129ec <write>:
}

#else /* !ALT_USE_DIRECT_DRIVERS */

int ALT_WRITE (int file, const void *ptr, size_t len)
{
   129ec:	defff904 	addi	sp,sp,-28
   129f0:	dfc00615 	stw	ra,24(sp)
   129f4:	df000515 	stw	fp,20(sp)
   129f8:	df000504 	addi	fp,sp,20
   129fc:	e13ffd15 	stw	r4,-12(fp)
   12a00:	e17ffe15 	stw	r5,-8(fp)
   12a04:	e1bfff15 	stw	r6,-4(fp)
   * A common error case is that when the file descriptor was created, the call
   * to open() failed resulting in a negative file descriptor. This is trapped
   * below so that we don't try and process an invalid file descriptor.
   */

  fd = (file < 0) ? NULL : &alt_fd_list[file];
   12a08:	e0bffd17 	ldw	r2,-12(fp)
   12a0c:	10000716 	blt	r2,zero,12a2c <write+0x40>
   12a10:	e13ffd17 	ldw	r4,-12(fp)
   12a14:	01400304 	movi	r5,12
   12a18:	00118640 	call	11864 <__mulsi3>
   12a1c:	00c00074 	movhi	r3,1
   12a20:	18d12104 	addi	r3,r3,17540
   12a24:	10c5883a 	add	r2,r2,r3
   12a28:	00000106 	br	12a30 <write+0x44>
   12a2c:	0005883a 	mov	r2,zero
   12a30:	e0bffb15 	stw	r2,-20(fp)
  
  if (fd)
   12a34:	e0bffb17 	ldw	r2,-20(fp)
   12a38:	10001f26 	beq	r2,zero,12ab8 <write+0xcc>
     * If the file has not been opened with write access, or if the driver does
     * not provide an implementation of write(), generate an error. Otherwise
     * call the drivers write() function to process the request.
     */

    if (((fd->fd_flags & O_ACCMODE) != O_RDONLY) && fd->dev->write)
   12a3c:	e0bffb17 	ldw	r2,-20(fp)
   12a40:	10800217 	ldw	r2,8(r2)
   12a44:	108000cc 	andi	r2,r2,3
   12a48:	10001726 	beq	r2,zero,12aa8 <write+0xbc>
   12a4c:	e0bffb17 	ldw	r2,-20(fp)
   12a50:	10800017 	ldw	r2,0(r2)
   12a54:	10800617 	ldw	r2,24(r2)
   12a58:	10001326 	beq	r2,zero,12aa8 <write+0xbc>
    {
      
      /* ALT_LOG - see altera_hal/HAL/inc/sys/alt_log_printf.h */
      ALT_LOG_WRITE_FUNCTION(ptr,len);

      if ((rval = fd->dev->write(fd, ptr, len)) < 0)
   12a5c:	e0bffb17 	ldw	r2,-20(fp)
   12a60:	10800017 	ldw	r2,0(r2)
   12a64:	10c00617 	ldw	r3,24(r2)
   12a68:	e0bfff17 	ldw	r2,-4(fp)
   12a6c:	e13ffb17 	ldw	r4,-20(fp)
   12a70:	e17ffe17 	ldw	r5,-8(fp)
   12a74:	100d883a 	mov	r6,r2
   12a78:	183ee83a 	callr	r3
   12a7c:	e0bffc15 	stw	r2,-16(fp)
   12a80:	e0bffc17 	ldw	r2,-16(fp)
   12a84:	1000060e 	bge	r2,zero,12aa0 <write+0xb4>
      {
        ALT_ERRNO = -rval;
   12a88:	001299c0 	call	1299c <alt_get_errno>
   12a8c:	e0fffc17 	ldw	r3,-16(fp)
   12a90:	00c7c83a 	sub	r3,zero,r3
   12a94:	10c00015 	stw	r3,0(r2)
        return -1;
   12a98:	00bfffc4 	movi	r2,-1
   12a9c:	00000a06 	br	12ac8 <write+0xdc>
      }
      return rval;
   12aa0:	e0bffc17 	ldw	r2,-16(fp)
   12aa4:	00000806 	br	12ac8 <write+0xdc>
    }
    else
    {
      ALT_ERRNO = EACCES;
   12aa8:	001299c0 	call	1299c <alt_get_errno>
   12aac:	00c00344 	movi	r3,13
   12ab0:	10c00015 	stw	r3,0(r2)
   12ab4:	00000306 	br	12ac4 <write+0xd8>
    }
  }
  else  
  {
    ALT_ERRNO = EBADFD;
   12ab8:	001299c0 	call	1299c <alt_get_errno>
   12abc:	00c01444 	movi	r3,81
   12ac0:	10c00015 	stw	r3,0(r2)
  }
  return -1;
   12ac4:	00bfffc4 	movi	r2,-1
}
   12ac8:	e037883a 	mov	sp,fp
   12acc:	dfc00117 	ldw	ra,4(sp)
   12ad0:	df000017 	ldw	fp,0(sp)
   12ad4:	dec00204 	addi	sp,sp,8
   12ad8:	f800283a 	ret

00012adc <alt_dev_reg>:
 */

extern int alt_fs_reg  (alt_dev* dev); 

static ALT_INLINE int alt_dev_reg (alt_dev* dev)
{
   12adc:	defffd04 	addi	sp,sp,-12
   12ae0:	dfc00215 	stw	ra,8(sp)
   12ae4:	df000115 	stw	fp,4(sp)
   12ae8:	df000104 	addi	fp,sp,4
   12aec:	e13fff15 	stw	r4,-4(fp)
  extern alt_llist alt_dev_list;

  return alt_dev_llist_insert ((alt_dev_llist*) dev, &alt_dev_list);
   12af0:	e13fff17 	ldw	r4,-4(fp)
   12af4:	01400074 	movhi	r5,1
   12af8:	29518504 	addi	r5,r5,17940
   12afc:	00130f00 	call	130f0 <alt_dev_llist_insert>
}
   12b00:	e037883a 	mov	sp,fp
   12b04:	dfc00117 	ldw	ra,4(sp)
   12b08:	df000017 	ldw	fp,0(sp)
   12b0c:	dec00204 	addi	sp,sp,8
   12b10:	f800283a 	ret

00012b14 <alt_irq_init>:
 * The "base" parameter is ignored and only
 * present for backwards-compatibility.
 */

void alt_irq_init ( const void* base )
{
   12b14:	defffd04 	addi	sp,sp,-12
   12b18:	dfc00215 	stw	ra,8(sp)
   12b1c:	df000115 	stw	fp,4(sp)
   12b20:	df000104 	addi	fp,sp,4
   12b24:	e13fff15 	stw	r4,-4(fp)
    ALTERA_NIOS2_QSYS_IRQ_INIT ( CPU_5, cpu_5);
   12b28:	00136d40 	call	136d4 <altera_nios2_qsys_irq_init>
 * alt_irq_cpu_enable_interrupts() enables the CPU to start taking interrupts.
 */
static ALT_INLINE void ALT_ALWAYS_INLINE 
       alt_irq_cpu_enable_interrupts ()
{
    NIOS2_WRITE_STATUS(NIOS2_STATUS_PIE_MSK
   12b2c:	00800044 	movi	r2,1
   12b30:	1001703a 	wrctl	status,r2
    alt_irq_cpu_enable_interrupts();
}
   12b34:	e037883a 	mov	sp,fp
   12b38:	dfc00117 	ldw	ra,4(sp)
   12b3c:	df000017 	ldw	fp,0(sp)
   12b40:	dec00204 	addi	sp,sp,8
   12b44:	f800283a 	ret

00012b48 <alt_sys_init>:
 * Initialize the non-interrupt controller devices.
 * Called after alt_irq_init().
 */

void alt_sys_init( void )
{
   12b48:	defffe04 	addi	sp,sp,-8
   12b4c:	dfc00115 	stw	ra,4(sp)
   12b50:	df000015 	stw	fp,0(sp)
   12b54:	d839883a 	mov	fp,sp
    ALTERA_AVALON_TIMER_INIT ( TIMER_5, timer_5);
   12b58:	00800074 	movhi	r2,1
   12b5c:	1092c704 	addi	r2,r2,19228
   12b60:	00c000b4 	movhi	r3,2
   12b64:	18c41804 	addi	r3,r3,4192
   12b68:	10c00015 	stw	r3,0(r2)
   12b6c:	00800074 	movhi	r2,1
   12b70:	1092c804 	addi	r2,r2,19232
   12b74:	00c0bef4 	movhi	r3,763
   12b78:	18fc2004 	addi	r3,r3,-3968
   12b7c:	10c00015 	stw	r3,0(r2)
    ALTERA_AVALON_FIFO_INIT ( FIFO_1_TO_5, fifo_1_to_5);
   12b80:	0001883a 	nop
    ALTERA_AVALON_FIFO_INIT ( FIFO_4_TO_5, fifo_4_to_5);
   12b84:	0001883a 	nop
    ALTERA_AVALON_FIFO_INIT ( FIFO_5_TO_6, fifo_5_to_6);
   12b88:	0001883a 	nop
    ALTERA_AVALON_JTAG_UART_INIT ( JTAG_UART_5, jtag_uart_5);
   12b8c:	01000074 	movhi	r4,1
   12b90:	21110c04 	addi	r4,r4,17456
   12b94:	0012adc0 	call	12adc <alt_dev_reg>
    ALTERA_AVALON_SYSID_QSYS_INIT ( SYSID_5, sysid_5);
   12b98:	0001883a 	nop
}
   12b9c:	e037883a 	mov	sp,fp
   12ba0:	dfc00117 	ldw	ra,4(sp)
   12ba4:	df000017 	ldw	fp,0(sp)
   12ba8:	dec00204 	addi	sp,sp,8
   12bac:	f800283a 	ret

00012bb0 <altera_avalon_jtag_uart_read_fd>:
 *
 */

int 
altera_avalon_jtag_uart_read_fd(alt_fd* fd, char* buffer, int space)
{
   12bb0:	defffa04 	addi	sp,sp,-24
   12bb4:	dfc00515 	stw	ra,20(sp)
   12bb8:	df000415 	stw	fp,16(sp)
   12bbc:	df000404 	addi	fp,sp,16
   12bc0:	e13ffd15 	stw	r4,-12(fp)
   12bc4:	e17ffe15 	stw	r5,-8(fp)
   12bc8:	e1bfff15 	stw	r6,-4(fp)
    altera_avalon_jtag_uart_dev* dev = (altera_avalon_jtag_uart_dev*) fd->dev; 
   12bcc:	e0bffd17 	ldw	r2,-12(fp)
   12bd0:	10800017 	ldw	r2,0(r2)
   12bd4:	e0bffc15 	stw	r2,-16(fp)

    return altera_avalon_jtag_uart_read(&dev->state, buffer, space,
   12bd8:	e0bffc17 	ldw	r2,-16(fp)
   12bdc:	10c00a04 	addi	r3,r2,40
      fd->fd_flags);
   12be0:	e0bffd17 	ldw	r2,-12(fp)
int 
altera_avalon_jtag_uart_read_fd(alt_fd* fd, char* buffer, int space)
{
    altera_avalon_jtag_uart_dev* dev = (altera_avalon_jtag_uart_dev*) fd->dev; 

    return altera_avalon_jtag_uart_read(&dev->state, buffer, space,
   12be4:	10800217 	ldw	r2,8(r2)
   12be8:	1809883a 	mov	r4,r3
   12bec:	e17ffe17 	ldw	r5,-8(fp)
   12bf0:	e1bfff17 	ldw	r6,-4(fp)
   12bf4:	100f883a 	mov	r7,r2
   12bf8:	0012c700 	call	12c70 <altera_avalon_jtag_uart_read>
      fd->fd_flags);
}
   12bfc:	e037883a 	mov	sp,fp
   12c00:	dfc00117 	ldw	ra,4(sp)
   12c04:	df000017 	ldw	fp,0(sp)
   12c08:	dec00204 	addi	sp,sp,8
   12c0c:	f800283a 	ret

00012c10 <altera_avalon_jtag_uart_write_fd>:

int 
altera_avalon_jtag_uart_write_fd(alt_fd* fd, const char* buffer, int space)
{
   12c10:	defffa04 	addi	sp,sp,-24
   12c14:	dfc00515 	stw	ra,20(sp)
   12c18:	df000415 	stw	fp,16(sp)
   12c1c:	df000404 	addi	fp,sp,16
   12c20:	e13ffd15 	stw	r4,-12(fp)
   12c24:	e17ffe15 	stw	r5,-8(fp)
   12c28:	e1bfff15 	stw	r6,-4(fp)
    altera_avalon_jtag_uart_dev* dev = (altera_avalon_jtag_uart_dev*) fd->dev; 
   12c2c:	e0bffd17 	ldw	r2,-12(fp)
   12c30:	10800017 	ldw	r2,0(r2)
   12c34:	e0bffc15 	stw	r2,-16(fp)

    return altera_avalon_jtag_uart_write(&dev->state, buffer, space,
   12c38:	e0bffc17 	ldw	r2,-16(fp)
   12c3c:	10c00a04 	addi	r3,r2,40
      fd->fd_flags);
   12c40:	e0bffd17 	ldw	r2,-12(fp)
int 
altera_avalon_jtag_uart_write_fd(alt_fd* fd, const char* buffer, int space)
{
    altera_avalon_jtag_uart_dev* dev = (altera_avalon_jtag_uart_dev*) fd->dev; 

    return altera_avalon_jtag_uart_write(&dev->state, buffer, space,
   12c44:	10800217 	ldw	r2,8(r2)
   12c48:	1809883a 	mov	r4,r3
   12c4c:	e17ffe17 	ldw	r5,-8(fp)
   12c50:	e1bfff17 	ldw	r6,-4(fp)
   12c54:	100f883a 	mov	r7,r2
   12c58:	0012d640 	call	12d64 <altera_avalon_jtag_uart_write>
      fd->fd_flags);
}
   12c5c:	e037883a 	mov	sp,fp
   12c60:	dfc00117 	ldw	ra,4(sp)
   12c64:	df000017 	ldw	fp,0(sp)
   12c68:	dec00204 	addi	sp,sp,8
   12c6c:	f800283a 	ret

00012c70 <altera_avalon_jtag_uart_read>:
 */

int 
altera_avalon_jtag_uart_read(altera_avalon_jtag_uart_state* sp, 
  char* buffer, int space, int flags)
{
   12c70:	defff704 	addi	sp,sp,-36
   12c74:	df000815 	stw	fp,32(sp)
   12c78:	df000804 	addi	fp,sp,32
   12c7c:	e13ffc15 	stw	r4,-16(fp)
   12c80:	e17ffd15 	stw	r5,-12(fp)
   12c84:	e1bffe15 	stw	r6,-8(fp)
   12c88:	e1ffff15 	stw	r7,-4(fp)
  unsigned int base = sp->base;
   12c8c:	e0bffc17 	ldw	r2,-16(fp)
   12c90:	10800017 	ldw	r2,0(r2)
   12c94:	e0bff915 	stw	r2,-28(fp)

  char * ptr = buffer;
   12c98:	e0bffd17 	ldw	r2,-12(fp)
   12c9c:	e0bff815 	stw	r2,-32(fp)
  char * end = buffer + space;
   12ca0:	e0bffe17 	ldw	r2,-8(fp)
   12ca4:	e0fffd17 	ldw	r3,-12(fp)
   12ca8:	1885883a 	add	r2,r3,r2
   12cac:	e0bffa15 	stw	r2,-24(fp)

  while (ptr < end)
   12cb0:	00001406 	br	12d04 <altera_avalon_jtag_uart_read+0x94>
  {
    unsigned int data = IORD_ALTERA_AVALON_JTAG_UART_DATA(base);
   12cb4:	e0bff917 	ldw	r2,-28(fp)
   12cb8:	10800037 	ldwio	r2,0(r2)
   12cbc:	e0bffb15 	stw	r2,-20(fp)

    if (data & ALTERA_AVALON_JTAG_UART_DATA_RVALID_MSK)
   12cc0:	e0bffb17 	ldw	r2,-20(fp)
   12cc4:	10a0000c 	andi	r2,r2,32768
   12cc8:	10000826 	beq	r2,zero,12cec <altera_avalon_jtag_uart_read+0x7c>
      *ptr++ = (data & ALTERA_AVALON_JTAG_UART_DATA_DATA_MSK) >> ALTERA_AVALON_JTAG_UART_DATA_DATA_OFST;
   12ccc:	e0bffb17 	ldw	r2,-20(fp)
   12cd0:	1007883a 	mov	r3,r2
   12cd4:	e0bff817 	ldw	r2,-32(fp)
   12cd8:	10c00005 	stb	r3,0(r2)
   12cdc:	e0bff817 	ldw	r2,-32(fp)
   12ce0:	10800044 	addi	r2,r2,1
   12ce4:	e0bff815 	stw	r2,-32(fp)
   12ce8:	00000606 	br	12d04 <altera_avalon_jtag_uart_read+0x94>
    else if (ptr != buffer)
   12cec:	e0fff817 	ldw	r3,-32(fp)
   12cf0:	e0bffd17 	ldw	r2,-12(fp)
   12cf4:	1880071e 	bne	r3,r2,12d14 <altera_avalon_jtag_uart_read+0xa4>
      break;
    else if(flags & O_NONBLOCK)
   12cf8:	e0bfff17 	ldw	r2,-4(fp)
   12cfc:	1090000c 	andi	r2,r2,16384
   12d00:	1000061e 	bne	r2,zero,12d1c <altera_avalon_jtag_uart_read+0xac>
  unsigned int base = sp->base;

  char * ptr = buffer;
  char * end = buffer + space;

  while (ptr < end)
   12d04:	e0fff817 	ldw	r3,-32(fp)
   12d08:	e0bffa17 	ldw	r2,-24(fp)
   12d0c:	18bfe936 	bltu	r3,r2,12cb4 <altera_avalon_jtag_uart_read+0x44>
   12d10:	00000306 	br	12d20 <altera_avalon_jtag_uart_read+0xb0>
    unsigned int data = IORD_ALTERA_AVALON_JTAG_UART_DATA(base);

    if (data & ALTERA_AVALON_JTAG_UART_DATA_RVALID_MSK)
      *ptr++ = (data & ALTERA_AVALON_JTAG_UART_DATA_DATA_MSK) >> ALTERA_AVALON_JTAG_UART_DATA_DATA_OFST;
    else if (ptr != buffer)
      break;
   12d14:	0001883a 	nop
   12d18:	00000106 	br	12d20 <altera_avalon_jtag_uart_read+0xb0>
    else if(flags & O_NONBLOCK)
      break;   
   12d1c:	0001883a 	nop
    
  }

  if (ptr != buffer)
   12d20:	e0fff817 	ldw	r3,-32(fp)
   12d24:	e0bffd17 	ldw	r2,-12(fp)
   12d28:	18800426 	beq	r3,r2,12d3c <altera_avalon_jtag_uart_read+0xcc>
    return ptr - buffer;
   12d2c:	e0fff817 	ldw	r3,-32(fp)
   12d30:	e0bffd17 	ldw	r2,-12(fp)
   12d34:	1885c83a 	sub	r2,r3,r2
   12d38:	00000606 	br	12d54 <altera_avalon_jtag_uart_read+0xe4>
  else if (flags & O_NONBLOCK)
   12d3c:	e0bfff17 	ldw	r2,-4(fp)
   12d40:	1090000c 	andi	r2,r2,16384
   12d44:	10000226 	beq	r2,zero,12d50 <altera_avalon_jtag_uart_read+0xe0>
    return -EWOULDBLOCK;
   12d48:	00bffd44 	movi	r2,-11
   12d4c:	00000106 	br	12d54 <altera_avalon_jtag_uart_read+0xe4>
  else
    return -EIO;
   12d50:	00bffec4 	movi	r2,-5
}
   12d54:	e037883a 	mov	sp,fp
   12d58:	df000017 	ldw	fp,0(sp)
   12d5c:	dec00104 	addi	sp,sp,4
   12d60:	f800283a 	ret

00012d64 <altera_avalon_jtag_uart_write>:
 * one FIFOs worth of data.  But you said you didn't want to use interrupts :-)
 */

int altera_avalon_jtag_uart_write(altera_avalon_jtag_uart_state* sp, 
  const char * ptr, int count, int flags)
{
   12d64:	defff904 	addi	sp,sp,-28
   12d68:	df000615 	stw	fp,24(sp)
   12d6c:	df000604 	addi	fp,sp,24
   12d70:	e13ffc15 	stw	r4,-16(fp)
   12d74:	e17ffd15 	stw	r5,-12(fp)
   12d78:	e1bffe15 	stw	r6,-8(fp)
   12d7c:	e1ffff15 	stw	r7,-4(fp)
  unsigned int base = sp->base;
   12d80:	e0bffc17 	ldw	r2,-16(fp)
   12d84:	10800017 	ldw	r2,0(r2)
   12d88:	e0bffa15 	stw	r2,-24(fp)

  const char * end = ptr + count;
   12d8c:	e0bffe17 	ldw	r2,-8(fp)
   12d90:	e0fffd17 	ldw	r3,-12(fp)
   12d94:	1885883a 	add	r2,r3,r2
   12d98:	e0bffb15 	stw	r2,-20(fp)

  while (ptr < end)
   12d9c:	00000f06 	br	12ddc <altera_avalon_jtag_uart_write+0x78>
    if ((IORD_ALTERA_AVALON_JTAG_UART_CONTROL(base) & ALTERA_AVALON_JTAG_UART_CONTROL_WSPACE_MSK) != 0)
   12da0:	e0bffa17 	ldw	r2,-24(fp)
   12da4:	10800104 	addi	r2,r2,4
   12da8:	10800037 	ldwio	r2,0(r2)
   12dac:	10bfffec 	andhi	r2,r2,65535
   12db0:	10000a26 	beq	r2,zero,12ddc <altera_avalon_jtag_uart_write+0x78>
      IOWR_ALTERA_AVALON_JTAG_UART_DATA(base, *ptr++);
   12db4:	e0bffa17 	ldw	r2,-24(fp)
   12db8:	e0fffd17 	ldw	r3,-12(fp)
   12dbc:	18c00003 	ldbu	r3,0(r3)
   12dc0:	18c03fcc 	andi	r3,r3,255
   12dc4:	18c0201c 	xori	r3,r3,128
   12dc8:	18ffe004 	addi	r3,r3,-128
   12dcc:	e13ffd17 	ldw	r4,-12(fp)
   12dd0:	21000044 	addi	r4,r4,1
   12dd4:	e13ffd15 	stw	r4,-12(fp)
   12dd8:	10c00035 	stwio	r3,0(r2)
{
  unsigned int base = sp->base;

  const char * end = ptr + count;

  while (ptr < end)
   12ddc:	e0fffd17 	ldw	r3,-12(fp)
   12de0:	e0bffb17 	ldw	r2,-20(fp)
   12de4:	18bfee36 	bltu	r3,r2,12da0 <altera_avalon_jtag_uart_write+0x3c>
    if ((IORD_ALTERA_AVALON_JTAG_UART_CONTROL(base) & ALTERA_AVALON_JTAG_UART_CONTROL_WSPACE_MSK) != 0)
      IOWR_ALTERA_AVALON_JTAG_UART_DATA(base, *ptr++);

  return count;
   12de8:	e0bffe17 	ldw	r2,-8(fp)
}
   12dec:	e037883a 	mov	sp,fp
   12df0:	df000017 	ldw	fp,0(sp)
   12df4:	dec00104 	addi	sp,sp,4
   12df8:	f800283a 	ret

00012dfc <alt_timestamp_start>:
 * The return value of this function is 0 upon sucess and -1 if in timestamp
 * device has not been registered. 
 */

int alt_timestamp_start(void)
{
   12dfc:	defffe04 	addi	sp,sp,-8
   12e00:	df000115 	stw	fp,4(sp)
   12e04:	df000104 	addi	fp,sp,4
  void* base = altera_avalon_timer_ts_base;
   12e08:	00800074 	movhi	r2,1
   12e0c:	1092c704 	addi	r2,r2,19228
   12e10:	10800017 	ldw	r2,0(r2)
   12e14:	e0bfff15 	stw	r2,-4(fp)

  if (!altera_avalon_timer_ts_freq)
   12e18:	00800074 	movhi	r2,1
   12e1c:	1092c804 	addi	r2,r2,19232
   12e20:	10800017 	ldw	r2,0(r2)
   12e24:	1000021e 	bne	r2,zero,12e30 <alt_timestamp_start+0x34>
  {
    return -1;
   12e28:	00bfffc4 	movi	r2,-1
   12e2c:	00001106 	br	12e74 <alt_timestamp_start+0x78>
        IOWR_ALTERA_AVALON_TIMER_PERIOD_1 (base, 0xFFFF);;
        IOWR_ALTERA_AVALON_TIMER_PERIOD_2 (base, 0xFFFF);
        IOWR_ALTERA_AVALON_TIMER_PERIOD_3 (base, 0xFFFF);
        IOWR_ALTERA_AVALON_TIMER_CONTROL (base, ALTERA_AVALON_TIMER_CONTROL_START_MSK);
    } else {
        IOWR_ALTERA_AVALON_TIMER_CONTROL (base,ALTERA_AVALON_TIMER_CONTROL_STOP_MSK);
   12e30:	e0bfff17 	ldw	r2,-4(fp)
   12e34:	10800104 	addi	r2,r2,4
   12e38:	00c00204 	movi	r3,8
   12e3c:	10c00035 	stwio	r3,0(r2)
        IOWR_ALTERA_AVALON_TIMER_PERIODL (base, 0xFFFF);
   12e40:	e0bfff17 	ldw	r2,-4(fp)
   12e44:	10800204 	addi	r2,r2,8
   12e48:	00ffffd4 	movui	r3,65535
   12e4c:	10c00035 	stwio	r3,0(r2)
        IOWR_ALTERA_AVALON_TIMER_PERIODH (base, 0xFFFF);
   12e50:	e0bfff17 	ldw	r2,-4(fp)
   12e54:	10800304 	addi	r2,r2,12
   12e58:	00ffffd4 	movui	r3,65535
   12e5c:	10c00035 	stwio	r3,0(r2)
        IOWR_ALTERA_AVALON_TIMER_CONTROL (base, ALTERA_AVALON_TIMER_CONTROL_START_MSK); 
   12e60:	e0bfff17 	ldw	r2,-4(fp)
   12e64:	10800104 	addi	r2,r2,4
   12e68:	00c00104 	movi	r3,4
   12e6c:	10c00035 	stwio	r3,0(r2)
    } 
  }
  return 0;
   12e70:	0005883a 	mov	r2,zero
}
   12e74:	e037883a 	mov	sp,fp
   12e78:	df000017 	ldw	fp,0(sp)
   12e7c:	dec00104 	addi	sp,sp,4
   12e80:	f800283a 	ret

00012e84 <alt_timestamp>:
 * The returned timestamp counts up from the last time the period register
 * was reset. 
 */

alt_timestamp_type alt_timestamp(void)
{
   12e84:	defffc04 	addi	sp,sp,-16
   12e88:	df000315 	stw	fp,12(sp)
   12e8c:	df000304 	addi	fp,sp,12

  void* base = altera_avalon_timer_ts_base;
   12e90:	00800074 	movhi	r2,1
   12e94:	1092c704 	addi	r2,r2,19228
   12e98:	10800017 	ldw	r2,0(r2)
   12e9c:	e0bffd15 	stw	r2,-12(fp)

  if (!altera_avalon_timer_ts_freq)
   12ea0:	00800074 	movhi	r2,1
   12ea4:	1092c804 	addi	r2,r2,19232
   12ea8:	10800017 	ldw	r2,0(r2)
   12eac:	1000021e 	bne	r2,zero,12eb8 <alt_timestamp+0x34>
  {
	if(ALT_TIMESTAMP_COUNTER_SIZE == 64) {
        return 0xFFFFFFFFFFFFFFFFULL;
    } else {
        return 0xFFFFFFFF;
   12eb0:	00bfffc4 	movi	r2,-1
   12eb4:	00001306 	br	12f04 <alt_timestamp+0x80>
        alt_timestamp_type snap_2 = IORD_ALTERA_AVALON_TIMER_SNAP_2(base) & ALTERA_AVALON_TIMER_SNAP_2_MSK;
        alt_timestamp_type snap_3 = IORD_ALTERA_AVALON_TIMER_SNAP_3(base) & ALTERA_AVALON_TIMER_SNAP_3_MSK;
        
        return (0xFFFFFFFFFFFFFFFFULL - ( (snap_3 << 48) | (snap_2 << 32) | (snap_1 << 16) | (snap_0) ));
    } else {
        IOWR_ALTERA_AVALON_TIMER_SNAPL (base, 0);
   12eb8:	e0bffd17 	ldw	r2,-12(fp)
   12ebc:	10800404 	addi	r2,r2,16
   12ec0:	0007883a 	mov	r3,zero
   12ec4:	10c00035 	stwio	r3,0(r2)
        alt_timestamp_type lower = IORD_ALTERA_AVALON_TIMER_SNAPL(base) & ALTERA_AVALON_TIMER_SNAPL_MSK;
   12ec8:	e0bffd17 	ldw	r2,-12(fp)
   12ecc:	10800404 	addi	r2,r2,16
   12ed0:	10800037 	ldwio	r2,0(r2)
   12ed4:	10bfffcc 	andi	r2,r2,65535
   12ed8:	e0bffe15 	stw	r2,-8(fp)
        alt_timestamp_type upper = IORD_ALTERA_AVALON_TIMER_SNAPH(base) & ALTERA_AVALON_TIMER_SNAPH_MSK;
   12edc:	e0bffd17 	ldw	r2,-12(fp)
   12ee0:	10800504 	addi	r2,r2,20
   12ee4:	10800037 	ldwio	r2,0(r2)
   12ee8:	10bfffcc 	andi	r2,r2,65535
   12eec:	e0bfff15 	stw	r2,-4(fp)
        
        return (0xFFFFFFFF - ((upper << 16) | lower)); 
   12ef0:	e0bfff17 	ldw	r2,-4(fp)
   12ef4:	1006943a 	slli	r3,r2,16
   12ef8:	e0bffe17 	ldw	r2,-8(fp)
   12efc:	1884b03a 	or	r2,r3,r2
   12f00:	0084303a 	nor	r2,zero,r2
    }  
  }
}
   12f04:	e037883a 	mov	sp,fp
   12f08:	df000017 	ldw	fp,0(sp)
   12f0c:	dec00104 	addi	sp,sp,4
   12f10:	f800283a 	ret

00012f14 <alt_timestamp_freq>:
 * Return the number of timestamp ticks per second. This will be 0 if no
 * timestamp device has been registered.
 */

alt_u32 alt_timestamp_freq(void)
{
   12f14:	deffff04 	addi	sp,sp,-4
   12f18:	df000015 	stw	fp,0(sp)
   12f1c:	d839883a 	mov	fp,sp
  return altera_avalon_timer_ts_freq;
   12f20:	00800074 	movhi	r2,1
   12f24:	1092c804 	addi	r2,r2,19232
   12f28:	10800017 	ldw	r2,0(r2)
}
   12f2c:	e037883a 	mov	sp,fp
   12f30:	df000017 	ldw	fp,0(sp)
   12f34:	dec00104 	addi	sp,sp,4
   12f38:	f800283a 	ret

00012f3c <alt_get_errno>:
#undef errno

extern int errno;

static ALT_INLINE int* alt_get_errno(void)
{
   12f3c:	defffe04 	addi	sp,sp,-8
   12f40:	dfc00115 	stw	ra,4(sp)
   12f44:	df000015 	stw	fp,0(sp)
   12f48:	d839883a 	mov	fp,sp
  return ((alt_errno) ? alt_errno() : &errno);
   12f4c:	00800074 	movhi	r2,1
   12f50:	10918804 	addi	r2,r2,17952
   12f54:	10800017 	ldw	r2,0(r2)
   12f58:	10000526 	beq	r2,zero,12f70 <alt_get_errno+0x34>
   12f5c:	00800074 	movhi	r2,1
   12f60:	10918804 	addi	r2,r2,17952
   12f64:	10800017 	ldw	r2,0(r2)
   12f68:	103ee83a 	callr	r2
   12f6c:	00000206 	br	12f78 <alt_get_errno+0x3c>
   12f70:	00800074 	movhi	r2,1
   12f74:	1092c304 	addi	r2,r2,19212
}
   12f78:	e037883a 	mov	sp,fp
   12f7c:	dfc00117 	ldw	ra,4(sp)
   12f80:	df000017 	ldw	fp,0(sp)
   12f84:	dec00204 	addi	sp,sp,8
   12f88:	f800283a 	ret

00012f8c <close>:
 *
 * ALT_CLOSE is mapped onto the close() system call in alt_syscall.h
 */
 
int ALT_CLOSE (int fildes)
{
   12f8c:	defffb04 	addi	sp,sp,-20
   12f90:	dfc00415 	stw	ra,16(sp)
   12f94:	df000315 	stw	fp,12(sp)
   12f98:	df000304 	addi	fp,sp,12
   12f9c:	e13fff15 	stw	r4,-4(fp)
   * A common error case is that when the file descriptor was created, the call
   * to open() failed resulting in a negative file descriptor. This is trapped
   * below so that we don't try and process an invalid file descriptor.
   */

  fd = (fildes < 0) ? NULL : &alt_fd_list[fildes];
   12fa0:	e0bfff17 	ldw	r2,-4(fp)
   12fa4:	10000716 	blt	r2,zero,12fc4 <close+0x38>
   12fa8:	e13fff17 	ldw	r4,-4(fp)
   12fac:	01400304 	movi	r5,12
   12fb0:	00118640 	call	11864 <__mulsi3>
   12fb4:	00c00074 	movhi	r3,1
   12fb8:	18d12104 	addi	r3,r3,17540
   12fbc:	10c5883a 	add	r2,r2,r3
   12fc0:	00000106 	br	12fc8 <close+0x3c>
   12fc4:	0005883a 	mov	r2,zero
   12fc8:	e0bffd15 	stw	r2,-12(fp)

  if (fd)
   12fcc:	e0bffd17 	ldw	r2,-12(fp)
   12fd0:	10001826 	beq	r2,zero,13034 <close+0xa8>
    /*
     * If the associated file system/device has a close function, call it so 
     * that any necessary cleanup code can run.
     */

    rval = (fd->dev->close) ? fd->dev->close(fd) : 0;
   12fd4:	e0bffd17 	ldw	r2,-12(fp)
   12fd8:	10800017 	ldw	r2,0(r2)
   12fdc:	10800417 	ldw	r2,16(r2)
   12fe0:	10000626 	beq	r2,zero,12ffc <close+0x70>
   12fe4:	e0bffd17 	ldw	r2,-12(fp)
   12fe8:	10800017 	ldw	r2,0(r2)
   12fec:	10800417 	ldw	r2,16(r2)
   12ff0:	e13ffd17 	ldw	r4,-12(fp)
   12ff4:	103ee83a 	callr	r2
   12ff8:	00000106 	br	13000 <close+0x74>
   12ffc:	0005883a 	mov	r2,zero
   13000:	e0bffe15 	stw	r2,-8(fp)

    /* Free the file descriptor structure and return. */

    alt_release_fd (fildes);
   13004:	e13fff17 	ldw	r4,-4(fp)
   13008:	00136540 	call	13654 <alt_release_fd>
    if (rval < 0)
   1300c:	e0bffe17 	ldw	r2,-8(fp)
   13010:	1000060e 	bge	r2,zero,1302c <close+0xa0>
    {
      ALT_ERRNO = -rval;
   13014:	0012f3c0 	call	12f3c <alt_get_errno>
   13018:	e0fffe17 	ldw	r3,-8(fp)
   1301c:	00c7c83a 	sub	r3,zero,r3
   13020:	10c00015 	stw	r3,0(r2)
      return -1;
   13024:	00bfffc4 	movi	r2,-1
   13028:	00000606 	br	13044 <close+0xb8>
    }
    return 0;
   1302c:	0005883a 	mov	r2,zero
   13030:	00000406 	br	13044 <close+0xb8>
  }
  else
  {
    ALT_ERRNO = EBADFD;
   13034:	0012f3c0 	call	12f3c <alt_get_errno>
   13038:	00c01444 	movi	r3,81
   1303c:	10c00015 	stw	r3,0(r2)
    return -1;
   13040:	00bfffc4 	movi	r2,-1
  }
}
   13044:	e037883a 	mov	sp,fp
   13048:	dfc00117 	ldw	ra,4(sp)
   1304c:	df000017 	ldw	fp,0(sp)
   13050:	dec00204 	addi	sp,sp,8
   13054:	f800283a 	ret

00013058 <alt_dcache_flush_all>:
/*
 * alt_dcache_flush_all() is called to flush the entire data cache.
 */

void alt_dcache_flush_all (void)
{
   13058:	deffff04 	addi	sp,sp,-4
   1305c:	df000015 	stw	fp,0(sp)
   13060:	d839883a 	mov	fp,sp
  for (i = (char*) 0; i < (char*) NIOS2_DCACHE_SIZE; i+= NIOS2_DCACHE_LINE_SIZE)
  { 
    __asm__ volatile ("flushd (%0)" :: "r" (i));
  }
#endif /* NIOS2_DCACHE_SIZE > 0 */
}
   13064:	e037883a 	mov	sp,fp
   13068:	df000017 	ldw	fp,0(sp)
   1306c:	dec00104 	addi	sp,sp,4
   13070:	f800283a 	ret

00013074 <alt_dev_null_write>:
 * by the alt_dev_null device. It simple discards all data passed to it, and
 * indicates that the data has been successfully transmitted.
 */

static int alt_dev_null_write (alt_fd* fd, const char* ptr, int len)
{
   13074:	defffc04 	addi	sp,sp,-16
   13078:	df000315 	stw	fp,12(sp)
   1307c:	df000304 	addi	fp,sp,12
   13080:	e13ffd15 	stw	r4,-12(fp)
   13084:	e17ffe15 	stw	r5,-8(fp)
   13088:	e1bfff15 	stw	r6,-4(fp)
  return len;
   1308c:	e0bfff17 	ldw	r2,-4(fp)
}
   13090:	e037883a 	mov	sp,fp
   13094:	df000017 	ldw	fp,0(sp)
   13098:	dec00104 	addi	sp,sp,4
   1309c:	f800283a 	ret

000130a0 <alt_get_errno>:
#undef errno

extern int errno;

static ALT_INLINE int* alt_get_errno(void)
{
   130a0:	defffe04 	addi	sp,sp,-8
   130a4:	dfc00115 	stw	ra,4(sp)
   130a8:	df000015 	stw	fp,0(sp)
   130ac:	d839883a 	mov	fp,sp
  return ((alt_errno) ? alt_errno() : &errno);
   130b0:	00800074 	movhi	r2,1
   130b4:	10918804 	addi	r2,r2,17952
   130b8:	10800017 	ldw	r2,0(r2)
   130bc:	10000526 	beq	r2,zero,130d4 <alt_get_errno+0x34>
   130c0:	00800074 	movhi	r2,1
   130c4:	10918804 	addi	r2,r2,17952
   130c8:	10800017 	ldw	r2,0(r2)
   130cc:	103ee83a 	callr	r2
   130d0:	00000206 	br	130dc <alt_get_errno+0x3c>
   130d4:	00800074 	movhi	r2,1
   130d8:	1092c304 	addi	r2,r2,19212
}
   130dc:	e037883a 	mov	sp,fp
   130e0:	dfc00117 	ldw	ra,4(sp)
   130e4:	df000017 	ldw	fp,0(sp)
   130e8:	dec00204 	addi	sp,sp,8
   130ec:	f800283a 	ret

000130f0 <alt_dev_llist_insert>:
/*
 *
 */

int alt_dev_llist_insert (alt_dev_llist* dev, alt_llist* list)
{
   130f0:	defffa04 	addi	sp,sp,-24
   130f4:	dfc00515 	stw	ra,20(sp)
   130f8:	df000415 	stw	fp,16(sp)
   130fc:	df000404 	addi	fp,sp,16
   13100:	e13ffe15 	stw	r4,-8(fp)
   13104:	e17fff15 	stw	r5,-4(fp)
  /*
   * check that the device exists, and that it has a valid name.
   */

  if (!dev || !dev->name)
   13108:	e0bffe17 	ldw	r2,-8(fp)
   1310c:	10000326 	beq	r2,zero,1311c <alt_dev_llist_insert+0x2c>
   13110:	e0bffe17 	ldw	r2,-8(fp)
   13114:	10800217 	ldw	r2,8(r2)
   13118:	1000051e 	bne	r2,zero,13130 <alt_dev_llist_insert+0x40>
  {
    ALT_ERRNO = EINVAL;
   1311c:	00130a00 	call	130a0 <alt_get_errno>
   13120:	00c00584 	movi	r3,22
   13124:	10c00015 	stw	r3,0(r2)
    return -EINVAL;
   13128:	00bffa84 	movi	r2,-22
   1312c:	00001306 	br	1317c <alt_dev_llist_insert+0x8c>
  
  /*
   * register the device.
   */
  
  alt_llist_insert(list, &dev->llist);
   13130:	e0bffe17 	ldw	r2,-8(fp)
   13134:	e0ffff17 	ldw	r3,-4(fp)
   13138:	e0fffc15 	stw	r3,-16(fp)
   1313c:	e0bffd15 	stw	r2,-12(fp)
 */

static ALT_INLINE void ALT_ALWAYS_INLINE alt_llist_insert(alt_llist* list, 
                alt_llist* entry)
{
  entry->previous = list;
   13140:	e0bffd17 	ldw	r2,-12(fp)
   13144:	e0fffc17 	ldw	r3,-16(fp)
   13148:	10c00115 	stw	r3,4(r2)
  entry->next     = list->next;
   1314c:	e0bffc17 	ldw	r2,-16(fp)
   13150:	10c00017 	ldw	r3,0(r2)
   13154:	e0bffd17 	ldw	r2,-12(fp)
   13158:	10c00015 	stw	r3,0(r2)

  list->next->previous = entry;
   1315c:	e0bffc17 	ldw	r2,-16(fp)
   13160:	10800017 	ldw	r2,0(r2)
   13164:	e0fffd17 	ldw	r3,-12(fp)
   13168:	10c00115 	stw	r3,4(r2)
  list->next           = entry;
   1316c:	e0bffc17 	ldw	r2,-16(fp)
   13170:	e0fffd17 	ldw	r3,-12(fp)
   13174:	10c00015 	stw	r3,0(r2)

  return 0;  
   13178:	0005883a 	mov	r2,zero
}
   1317c:	e037883a 	mov	sp,fp
   13180:	dfc00117 	ldw	ra,4(sp)
   13184:	df000017 	ldw	fp,0(sp)
   13188:	dec00204 	addi	sp,sp,8
   1318c:	f800283a 	ret

00013190 <_do_ctors>:
/*
 * Run the C++ static constructors.
 */

void _do_ctors(void)
{
   13190:	defffd04 	addi	sp,sp,-12
   13194:	dfc00215 	stw	ra,8(sp)
   13198:	df000115 	stw	fp,4(sp)
   1319c:	df000104 	addi	fp,sp,4
  constructor* ctor;

  for (ctor = &__CTOR_END__[-1]; ctor >= __CTOR_LIST__; ctor--)
   131a0:	00800074 	movhi	r2,1
   131a4:	108f6004 	addi	r2,r2,15744
   131a8:	e0bfff15 	stw	r2,-4(fp)
   131ac:	00000606 	br	131c8 <_do_ctors+0x38>
        (*ctor) (); 
   131b0:	e0bfff17 	ldw	r2,-4(fp)
   131b4:	10800017 	ldw	r2,0(r2)
   131b8:	103ee83a 	callr	r2

void _do_ctors(void)
{
  constructor* ctor;

  for (ctor = &__CTOR_END__[-1]; ctor >= __CTOR_LIST__; ctor--)
   131bc:	e0bfff17 	ldw	r2,-4(fp)
   131c0:	10bfff04 	addi	r2,r2,-4
   131c4:	e0bfff15 	stw	r2,-4(fp)
   131c8:	e0ffff17 	ldw	r3,-4(fp)
   131cc:	00800074 	movhi	r2,1
   131d0:	108f6104 	addi	r2,r2,15748
   131d4:	18bff62e 	bgeu	r3,r2,131b0 <_do_ctors+0x20>
        (*ctor) (); 
}
   131d8:	e037883a 	mov	sp,fp
   131dc:	dfc00117 	ldw	ra,4(sp)
   131e0:	df000017 	ldw	fp,0(sp)
   131e4:	dec00204 	addi	sp,sp,8
   131e8:	f800283a 	ret

000131ec <_do_dtors>:
/*
 * Run the C++ static destructors.
 */

void _do_dtors(void)
{
   131ec:	defffd04 	addi	sp,sp,-12
   131f0:	dfc00215 	stw	ra,8(sp)
   131f4:	df000115 	stw	fp,4(sp)
   131f8:	df000104 	addi	fp,sp,4
  destructor* dtor;

  for (dtor = &__DTOR_END__[-1]; dtor >= __DTOR_LIST__; dtor--)
   131fc:	00800074 	movhi	r2,1
   13200:	108f6004 	addi	r2,r2,15744
   13204:	e0bfff15 	stw	r2,-4(fp)
   13208:	00000606 	br	13224 <_do_dtors+0x38>
        (*dtor) (); 
   1320c:	e0bfff17 	ldw	r2,-4(fp)
   13210:	10800017 	ldw	r2,0(r2)
   13214:	103ee83a 	callr	r2

void _do_dtors(void)
{
  destructor* dtor;

  for (dtor = &__DTOR_END__[-1]; dtor >= __DTOR_LIST__; dtor--)
   13218:	e0bfff17 	ldw	r2,-4(fp)
   1321c:	10bfff04 	addi	r2,r2,-4
   13220:	e0bfff15 	stw	r2,-4(fp)
   13224:	e0ffff17 	ldw	r3,-4(fp)
   13228:	00800074 	movhi	r2,1
   1322c:	108f6104 	addi	r2,r2,15748
   13230:	18bff62e 	bgeu	r3,r2,1320c <_do_dtors+0x20>
        (*dtor) (); 
}
   13234:	e037883a 	mov	sp,fp
   13238:	dfc00117 	ldw	ra,4(sp)
   1323c:	df000017 	ldw	fp,0(sp)
   13240:	dec00204 	addi	sp,sp,8
   13244:	f800283a 	ret

00013248 <alt_icache_flush_all>:
/*
 * alt_icache_flush_all() is called to flush the entire instruction cache.
 */

void alt_icache_flush_all (void)
{
   13248:	deffff04 	addi	sp,sp,-4
   1324c:	df000015 	stw	fp,0(sp)
   13250:	d839883a 	mov	fp,sp
#if NIOS2_ICACHE_SIZE > 0
  alt_icache_flush (0, NIOS2_ICACHE_SIZE);
#endif
}
   13254:	e037883a 	mov	sp,fp
   13258:	df000017 	ldw	fp,0(sp)
   1325c:	dec00104 	addi	sp,sp,4
   13260:	f800283a 	ret

00013264 <alt_open_fd>:
 * If the device can not be succesfully opened, then the input file descriptor
 * remains unchanged.
 */

static void alt_open_fd(alt_fd* fd, const char* name, int flags, int mode)
{
   13264:	defff804 	addi	sp,sp,-32
   13268:	dfc00715 	stw	ra,28(sp)
   1326c:	df000615 	stw	fp,24(sp)
   13270:	dc000515 	stw	r16,20(sp)
   13274:	df000504 	addi	fp,sp,20
   13278:	e13ffc15 	stw	r4,-16(fp)
   1327c:	e17ffd15 	stw	r5,-12(fp)
   13280:	e1bffe15 	stw	r6,-8(fp)
   13284:	e1ffff15 	stw	r7,-4(fp)
  int old;

  old = open (name, flags, mode);
   13288:	e13ffd17 	ldw	r4,-12(fp)
   1328c:	e17ffe17 	ldw	r5,-8(fp)
   13290:	e1bfff17 	ldw	r6,-4(fp)
   13294:	00134fc0 	call	134fc <open>
   13298:	e0bffb15 	stw	r2,-20(fp)

  if (old >= 0)
   1329c:	e0bffb17 	ldw	r2,-20(fp)
   132a0:	10002216 	blt	r2,zero,1332c <alt_open_fd+0xc8>
  {
    fd->dev      = alt_fd_list[old].dev;
   132a4:	04000074 	movhi	r16,1
   132a8:	84112104 	addi	r16,r16,17540
   132ac:	e0bffb17 	ldw	r2,-20(fp)
   132b0:	1009883a 	mov	r4,r2
   132b4:	01400304 	movi	r5,12
   132b8:	00118640 	call	11864 <__mulsi3>
   132bc:	8085883a 	add	r2,r16,r2
   132c0:	10c00017 	ldw	r3,0(r2)
   132c4:	e0bffc17 	ldw	r2,-16(fp)
   132c8:	10c00015 	stw	r3,0(r2)
    fd->priv     = alt_fd_list[old].priv;
   132cc:	04000074 	movhi	r16,1
   132d0:	84112104 	addi	r16,r16,17540
   132d4:	e0bffb17 	ldw	r2,-20(fp)
   132d8:	1009883a 	mov	r4,r2
   132dc:	01400304 	movi	r5,12
   132e0:	00118640 	call	11864 <__mulsi3>
   132e4:	8085883a 	add	r2,r16,r2
   132e8:	10800104 	addi	r2,r2,4
   132ec:	10c00017 	ldw	r3,0(r2)
   132f0:	e0bffc17 	ldw	r2,-16(fp)
   132f4:	10c00115 	stw	r3,4(r2)
    fd->fd_flags = alt_fd_list[old].fd_flags;
   132f8:	04000074 	movhi	r16,1
   132fc:	84112104 	addi	r16,r16,17540
   13300:	e0bffb17 	ldw	r2,-20(fp)
   13304:	1009883a 	mov	r4,r2
   13308:	01400304 	movi	r5,12
   1330c:	00118640 	call	11864 <__mulsi3>
   13310:	8085883a 	add	r2,r16,r2
   13314:	10800204 	addi	r2,r2,8
   13318:	10c00017 	ldw	r3,0(r2)
   1331c:	e0bffc17 	ldw	r2,-16(fp)
   13320:	10c00215 	stw	r3,8(r2)

    alt_release_fd (old);
   13324:	e13ffb17 	ldw	r4,-20(fp)
   13328:	00136540 	call	13654 <alt_release_fd>
  }
} 
   1332c:	e037883a 	mov	sp,fp
   13330:	dfc00217 	ldw	ra,8(sp)
   13334:	df000117 	ldw	fp,4(sp)
   13338:	dc000017 	ldw	r16,0(sp)
   1333c:	dec00304 	addi	sp,sp,12
   13340:	f800283a 	ret

00013344 <alt_io_redirect>:
 */
 
void alt_io_redirect(const char* stdout_dev, 
                     const char* stdin_dev, 
                     const char* stderr_dev)
{
   13344:	defffb04 	addi	sp,sp,-20
   13348:	dfc00415 	stw	ra,16(sp)
   1334c:	df000315 	stw	fp,12(sp)
   13350:	df000304 	addi	fp,sp,12
   13354:	e13ffd15 	stw	r4,-12(fp)
   13358:	e17ffe15 	stw	r5,-8(fp)
   1335c:	e1bfff15 	stw	r6,-4(fp)
  /* Redirect the channels */

  alt_open_fd (&alt_fd_list[STDOUT_FILENO], stdout_dev, O_WRONLY, 0777);
   13360:	01000074 	movhi	r4,1
   13364:	21112404 	addi	r4,r4,17552
   13368:	e17ffd17 	ldw	r5,-12(fp)
   1336c:	01800044 	movi	r6,1
   13370:	01c07fc4 	movi	r7,511
   13374:	00132640 	call	13264 <alt_open_fd>
  alt_open_fd (&alt_fd_list[STDIN_FILENO], stdin_dev, O_RDONLY, 0777);
   13378:	01000074 	movhi	r4,1
   1337c:	21112104 	addi	r4,r4,17540
   13380:	e17ffe17 	ldw	r5,-8(fp)
   13384:	000d883a 	mov	r6,zero
   13388:	01c07fc4 	movi	r7,511
   1338c:	00132640 	call	13264 <alt_open_fd>
  alt_open_fd (&alt_fd_list[STDERR_FILENO], stderr_dev, O_WRONLY, 0777);
   13390:	01000074 	movhi	r4,1
   13394:	21112704 	addi	r4,r4,17564
   13398:	e17fff17 	ldw	r5,-4(fp)
   1339c:	01800044 	movi	r6,1
   133a0:	01c07fc4 	movi	r7,511
   133a4:	00132640 	call	13264 <alt_open_fd>
}  
   133a8:	e037883a 	mov	sp,fp
   133ac:	dfc00117 	ldw	ra,4(sp)
   133b0:	df000017 	ldw	fp,0(sp)
   133b4:	dec00204 	addi	sp,sp,8
   133b8:	f800283a 	ret

000133bc <alt_get_errno>:
#undef errno

extern int errno;

static ALT_INLINE int* alt_get_errno(void)
{
   133bc:	defffe04 	addi	sp,sp,-8
   133c0:	dfc00115 	stw	ra,4(sp)
   133c4:	df000015 	stw	fp,0(sp)
   133c8:	d839883a 	mov	fp,sp
  return ((alt_errno) ? alt_errno() : &errno);
   133cc:	00800074 	movhi	r2,1
   133d0:	10918804 	addi	r2,r2,17952
   133d4:	10800017 	ldw	r2,0(r2)
   133d8:	10000526 	beq	r2,zero,133f0 <alt_get_errno+0x34>
   133dc:	00800074 	movhi	r2,1
   133e0:	10918804 	addi	r2,r2,17952
   133e4:	10800017 	ldw	r2,0(r2)
   133e8:	103ee83a 	callr	r2
   133ec:	00000206 	br	133f8 <alt_get_errno+0x3c>
   133f0:	00800074 	movhi	r2,1
   133f4:	1092c304 	addi	r2,r2,19212
}
   133f8:	e037883a 	mov	sp,fp
   133fc:	dfc00117 	ldw	ra,4(sp)
   13400:	df000017 	ldw	fp,0(sp)
   13404:	dec00204 	addi	sp,sp,8
   13408:	f800283a 	ret

0001340c <alt_file_locked>:
 * performed for devices. Filesystems are required to handle the ioctl() call
 * themselves, and report the error from the filesystems open() function. 
 */ 

static int alt_file_locked (alt_fd* fd)
{
   1340c:	defffb04 	addi	sp,sp,-20
   13410:	dfc00415 	stw	ra,16(sp)
   13414:	df000315 	stw	fp,12(sp)
   13418:	dc000215 	stw	r16,8(sp)
   1341c:	df000204 	addi	fp,sp,8
   13420:	e13fff15 	stw	r4,-4(fp)

  /*
   * Mark the file descriptor as belonging to a device.
   */

  fd->fd_flags |= ALT_FD_DEV;
   13424:	e0bfff17 	ldw	r2,-4(fp)
   13428:	10800217 	ldw	r2,8(r2)
   1342c:	10d00034 	orhi	r3,r2,16384
   13430:	e0bfff17 	ldw	r2,-4(fp)
   13434:	10c00215 	stw	r3,8(r2)
  /*
   * Loop through all current file descriptors searching for one that's locked
   * for exclusive access. If a match is found, generate an error.
   */

  for (i = 0; i <= alt_max_fd; i++)
   13438:	e03ffe15 	stw	zero,-8(fp)
   1343c:	00002206 	br	134c8 <alt_file_locked+0xbc>
  {
    if ((alt_fd_list[i].dev == fd->dev) &&
   13440:	04000074 	movhi	r16,1
   13444:	84112104 	addi	r16,r16,17540
   13448:	e0bffe17 	ldw	r2,-8(fp)
   1344c:	1009883a 	mov	r4,r2
   13450:	01400304 	movi	r5,12
   13454:	00118640 	call	11864 <__mulsi3>
   13458:	8085883a 	add	r2,r16,r2
   1345c:	10c00017 	ldw	r3,0(r2)
   13460:	e0bfff17 	ldw	r2,-4(fp)
   13464:	10800017 	ldw	r2,0(r2)
   13468:	1880141e 	bne	r3,r2,134bc <alt_file_locked+0xb0>
        (alt_fd_list[i].fd_flags & ALT_FD_EXCL) &&
   1346c:	04000074 	movhi	r16,1
   13470:	84112104 	addi	r16,r16,17540
   13474:	e0bffe17 	ldw	r2,-8(fp)
   13478:	1009883a 	mov	r4,r2
   1347c:	01400304 	movi	r5,12
   13480:	00118640 	call	11864 <__mulsi3>
   13484:	8085883a 	add	r2,r16,r2
   13488:	10800204 	addi	r2,r2,8
   1348c:	10800017 	ldw	r2,0(r2)
   * for exclusive access. If a match is found, generate an error.
   */

  for (i = 0; i <= alt_max_fd; i++)
  {
    if ((alt_fd_list[i].dev == fd->dev) &&
   13490:	10000a0e 	bge	r2,zero,134bc <alt_file_locked+0xb0>
        (alt_fd_list[i].fd_flags & ALT_FD_EXCL) &&
        (&alt_fd_list[i] != fd))
   13494:	e13ffe17 	ldw	r4,-8(fp)
   13498:	01400304 	movi	r5,12
   1349c:	00118640 	call	11864 <__mulsi3>
   134a0:	00c00074 	movhi	r3,1
   134a4:	18d12104 	addi	r3,r3,17540
   134a8:	10c7883a 	add	r3,r2,r3
   */

  for (i = 0; i <= alt_max_fd; i++)
  {
    if ((alt_fd_list[i].dev == fd->dev) &&
        (alt_fd_list[i].fd_flags & ALT_FD_EXCL) &&
   134ac:	e0bfff17 	ldw	r2,-4(fp)
   134b0:	18800226 	beq	r3,r2,134bc <alt_file_locked+0xb0>
        (&alt_fd_list[i] != fd))
    {
      return -EACCES;
   134b4:	00bffcc4 	movi	r2,-13
   134b8:	00000a06 	br	134e4 <alt_file_locked+0xd8>
  /*
   * Loop through all current file descriptors searching for one that's locked
   * for exclusive access. If a match is found, generate an error.
   */

  for (i = 0; i <= alt_max_fd; i++)
   134bc:	e0bffe17 	ldw	r2,-8(fp)
   134c0:	10800044 	addi	r2,r2,1
   134c4:	e0bffe15 	stw	r2,-8(fp)
   134c8:	00800074 	movhi	r2,1
   134cc:	10918704 	addi	r2,r2,17948
   134d0:	10800017 	ldw	r2,0(r2)
   134d4:	1007883a 	mov	r3,r2
   134d8:	e0bffe17 	ldw	r2,-8(fp)
   134dc:	18bfd82e 	bgeu	r3,r2,13440 <alt_file_locked+0x34>
    }
  }
  
  /* The device is not locked */
 
  return 0;
   134e0:	0005883a 	mov	r2,zero
}
   134e4:	e037883a 	mov	sp,fp
   134e8:	dfc00217 	ldw	ra,8(sp)
   134ec:	df000117 	ldw	fp,4(sp)
   134f0:	dc000017 	ldw	r16,0(sp)
   134f4:	dec00304 	addi	sp,sp,12
   134f8:	f800283a 	ret

000134fc <open>:
 *
 * ALT_OPEN is mapped onto the open() system call in alt_syscall.h
 */
 
int ALT_OPEN (const char* file, int flags, int mode)
{ 
   134fc:	defff604 	addi	sp,sp,-40
   13500:	dfc00915 	stw	ra,36(sp)
   13504:	df000815 	stw	fp,32(sp)
   13508:	df000804 	addi	fp,sp,32
   1350c:	e13ffd15 	stw	r4,-12(fp)
   13510:	e17ffe15 	stw	r5,-8(fp)
   13514:	e1bfff15 	stw	r6,-4(fp)
  alt_dev* dev;
  alt_fd*  fd;
  int index  = -1;
   13518:	00bfffc4 	movi	r2,-1
   1351c:	e0bff915 	stw	r2,-28(fp)
  int status = -ENODEV;
   13520:	00bffb44 	movi	r2,-19
   13524:	e0bffa15 	stw	r2,-24(fp)
  int isafs = 0;
   13528:	e03ffb15 	stw	zero,-20(fp)
  /* 
   * Check the device list, to see if a device with a matching name is 
   * registered.
   */
  
  if (!(dev = alt_find_dev (file, &alt_dev_list)))
   1352c:	e13ffd17 	ldw	r4,-12(fp)
   13530:	01400074 	movhi	r5,1
   13534:	29518504 	addi	r5,r5,17940
   13538:	00136f40 	call	136f4 <alt_find_dev>
   1353c:	e0bff815 	stw	r2,-32(fp)
   13540:	e0bff817 	ldw	r2,-32(fp)
   13544:	1000051e 	bne	r2,zero,1355c <open+0x60>
  {
    /* No matching device, so try the filesystem list */

    dev   = alt_find_file (file);
   13548:	e13ffd17 	ldw	r4,-12(fp)
   1354c:	00137840 	call	13784 <alt_find_file>
   13550:	e0bff815 	stw	r2,-32(fp)
    isafs = 1;
   13554:	00800044 	movi	r2,1
   13558:	e0bffb15 	stw	r2,-20(fp)

  /* 
   * If a matching device or filesystem is found, allocate a file descriptor. 
   */

  if (dev)
   1355c:	e0bff817 	ldw	r2,-32(fp)
   13560:	10002a26 	beq	r2,zero,1360c <open+0x110>
  {
    if ((index = alt_get_fd (dev)) < 0)
   13564:	e13ff817 	ldw	r4,-32(fp)
   13568:	00138980 	call	13898 <alt_get_fd>
   1356c:	e0bff915 	stw	r2,-28(fp)
   13570:	e0bff917 	ldw	r2,-28(fp)
   13574:	1000030e 	bge	r2,zero,13584 <open+0x88>
    {
      status = index;
   13578:	e0bff917 	ldw	r2,-28(fp)
   1357c:	e0bffa15 	stw	r2,-24(fp)
   13580:	00002406 	br	13614 <open+0x118>
    }
    else
    {
      fd = &alt_fd_list[index];
   13584:	e13ff917 	ldw	r4,-28(fp)
   13588:	01400304 	movi	r5,12
   1358c:	00118640 	call	11864 <__mulsi3>
   13590:	00c00074 	movhi	r3,1
   13594:	18d12104 	addi	r3,r3,17540
   13598:	10c5883a 	add	r2,r2,r3
   1359c:	e0bffc15 	stw	r2,-16(fp)
      fd->fd_flags = (flags & ~ALT_FD_FLAGS_MASK);
   135a0:	e0fffe17 	ldw	r3,-8(fp)
   135a4:	00900034 	movhi	r2,16384
   135a8:	10bfffc4 	addi	r2,r2,-1
   135ac:	1886703a 	and	r3,r3,r2
   135b0:	e0bffc17 	ldw	r2,-16(fp)
   135b4:	10c00215 	stw	r3,8(r2)
      
      /* If this is a device, ensure it isn't already locked */

      if (isafs || ((status = alt_file_locked (fd)) >= 0))
   135b8:	e0bffb17 	ldw	r2,-20(fp)
   135bc:	1000051e 	bne	r2,zero,135d4 <open+0xd8>
   135c0:	e13ffc17 	ldw	r4,-16(fp)
   135c4:	001340c0 	call	1340c <alt_file_locked>
   135c8:	e0bffa15 	stw	r2,-24(fp)
   135cc:	e0bffa17 	ldw	r2,-24(fp)
   135d0:	10001016 	blt	r2,zero,13614 <open+0x118>
        /* 
         * If the device or filesystem provides an open() callback function,
         * call it now to perform any device/filesystem specific operations.
         */
    
        status = (dev->open) ? dev->open(fd, file, flags, mode): 0;
   135d4:	e0bff817 	ldw	r2,-32(fp)
   135d8:	10800317 	ldw	r2,12(r2)
   135dc:	10000826 	beq	r2,zero,13600 <open+0x104>
   135e0:	e0bff817 	ldw	r2,-32(fp)
   135e4:	10800317 	ldw	r2,12(r2)
   135e8:	e13ffc17 	ldw	r4,-16(fp)
   135ec:	e17ffd17 	ldw	r5,-12(fp)
   135f0:	e1bffe17 	ldw	r6,-8(fp)
   135f4:	e1ffff17 	ldw	r7,-4(fp)
   135f8:	103ee83a 	callr	r2
   135fc:	00000106 	br	13604 <open+0x108>
   13600:	0005883a 	mov	r2,zero
   13604:	e0bffa15 	stw	r2,-24(fp)
   13608:	00000206 	br	13614 <open+0x118>
      }
    }
  }
  else
  {
    status = -ENODEV;
   1360c:	00bffb44 	movi	r2,-19
   13610:	e0bffa15 	stw	r2,-24(fp)
  }

  /* Allocation failed, so clean up and return an error */ 

  if (status < 0)
   13614:	e0bffa17 	ldw	r2,-24(fp)
   13618:	1000080e 	bge	r2,zero,1363c <open+0x140>
  {
    alt_release_fd (index);  
   1361c:	e13ff917 	ldw	r4,-28(fp)
   13620:	00136540 	call	13654 <alt_release_fd>
    ALT_ERRNO = -status;
   13624:	00133bc0 	call	133bc <alt_get_errno>
   13628:	e0fffa17 	ldw	r3,-24(fp)
   1362c:	00c7c83a 	sub	r3,zero,r3
   13630:	10c00015 	stw	r3,0(r2)
    return -1;
   13634:	00bfffc4 	movi	r2,-1
   13638:	00000106 	br	13640 <open+0x144>
  }
  
  /* return the reference upon success */

  return index;
   1363c:	e0bff917 	ldw	r2,-28(fp)
}
   13640:	e037883a 	mov	sp,fp
   13644:	dfc00117 	ldw	ra,4(sp)
   13648:	df000017 	ldw	fp,0(sp)
   1364c:	dec00204 	addi	sp,sp,8
   13650:	f800283a 	ret

00013654 <alt_release_fd>:
 * File descriptors correcponding to standard in, standard out and standard 
 * error cannont be released backed to the pool. They are always reserved.
 */

void alt_release_fd (int fd)
{
   13654:	defffc04 	addi	sp,sp,-16
   13658:	dfc00315 	stw	ra,12(sp)
   1365c:	df000215 	stw	fp,8(sp)
   13660:	dc000115 	stw	r16,4(sp)
   13664:	df000104 	addi	fp,sp,4
   13668:	e13fff15 	stw	r4,-4(fp)
  if (fd > 2)
   1366c:	e0bfff17 	ldw	r2,-4(fp)
   13670:	108000d0 	cmplti	r2,r2,3
   13674:	1000111e 	bne	r2,zero,136bc <alt_release_fd+0x68>
  {
    alt_fd_list[fd].fd_flags = 0;
   13678:	04000074 	movhi	r16,1
   1367c:	84112104 	addi	r16,r16,17540
   13680:	e0bfff17 	ldw	r2,-4(fp)
   13684:	1009883a 	mov	r4,r2
   13688:	01400304 	movi	r5,12
   1368c:	00118640 	call	11864 <__mulsi3>
   13690:	8085883a 	add	r2,r16,r2
   13694:	10800204 	addi	r2,r2,8
   13698:	10000015 	stw	zero,0(r2)
    alt_fd_list[fd].dev      = 0;
   1369c:	04000074 	movhi	r16,1
   136a0:	84112104 	addi	r16,r16,17540
   136a4:	e0bfff17 	ldw	r2,-4(fp)
   136a8:	1009883a 	mov	r4,r2
   136ac:	01400304 	movi	r5,12
   136b0:	00118640 	call	11864 <__mulsi3>
   136b4:	8085883a 	add	r2,r16,r2
   136b8:	10000015 	stw	zero,0(r2)
  }
}
   136bc:	e037883a 	mov	sp,fp
   136c0:	dfc00217 	ldw	ra,8(sp)
   136c4:	df000117 	ldw	fp,4(sp)
   136c8:	dc000017 	ldw	r16,0(sp)
   136cc:	dec00304 	addi	sp,sp,12
   136d0:	f800283a 	ret

000136d4 <altera_nios2_qsys_irq_init>:
/*
 * To initialize the internal interrupt controller, just clear the IENABLE
 * register so that all possible IRQs are disabled.
 */
void altera_nios2_qsys_irq_init(void) 
{
   136d4:	deffff04 	addi	sp,sp,-4
   136d8:	df000015 	stw	fp,0(sp)
   136dc:	d839883a 	mov	fp,sp
    NIOS2_WRITE_IENABLE(0);
   136e0:	000170fa 	wrctl	ienable,zero
}
   136e4:	e037883a 	mov	sp,fp
   136e8:	df000017 	ldw	fp,0(sp)
   136ec:	dec00104 	addi	sp,sp,4
   136f0:	f800283a 	ret

000136f4 <alt_find_dev>:
 * "name" must be an exact match for the devices registered name for a match to
 * be found.
 */
 
alt_dev* alt_find_dev(const char* name, alt_llist* llist)
{
   136f4:	defffa04 	addi	sp,sp,-24
   136f8:	dfc00515 	stw	ra,20(sp)
   136fc:	df000415 	stw	fp,16(sp)
   13700:	df000404 	addi	fp,sp,16
   13704:	e13ffe15 	stw	r4,-8(fp)
   13708:	e17fff15 	stw	r5,-4(fp)
  alt_dev* next = (alt_dev*) llist->next;
   1370c:	e0bfff17 	ldw	r2,-4(fp)
   13710:	10800017 	ldw	r2,0(r2)
   13714:	e0bffc15 	stw	r2,-16(fp)
  alt_32 len;

  len  = strlen(name) + 1;
   13718:	e13ffe17 	ldw	r4,-8(fp)
   1371c:	0011e3c0 	call	11e3c <strlen>
   13720:	10800044 	addi	r2,r2,1
   13724:	e0bffd15 	stw	r2,-12(fp)
  /*
   * Check each list entry in turn, until a match is found, or we reach the
   * end of the list (i.e. next winds up pointing back to the list head).
   */ 

  while (next != (alt_dev*) llist)
   13728:	00000d06 	br	13760 <alt_find_dev+0x6c>
    /* 
     * memcmp() is used here rather than strcmp() in order to reduce the size
     * of the executable.
     */

    if (!memcmp (next->name, name, len))
   1372c:	e0bffc17 	ldw	r2,-16(fp)
   13730:	10c00217 	ldw	r3,8(r2)
   13734:	e0bffd17 	ldw	r2,-12(fp)
   13738:	1809883a 	mov	r4,r3
   1373c:	e17ffe17 	ldw	r5,-8(fp)
   13740:	100d883a 	mov	r6,r2
   13744:	00139a00 	call	139a0 <memcmp>
   13748:	1000021e 	bne	r2,zero,13754 <alt_find_dev+0x60>
    {
      /* match found */

      return next;
   1374c:	e0bffc17 	ldw	r2,-16(fp)
   13750:	00000706 	br	13770 <alt_find_dev+0x7c>
    }
    next = (alt_dev*) next->llist.next;
   13754:	e0bffc17 	ldw	r2,-16(fp)
   13758:	10800017 	ldw	r2,0(r2)
   1375c:	e0bffc15 	stw	r2,-16(fp)
  /*
   * Check each list entry in turn, until a match is found, or we reach the
   * end of the list (i.e. next winds up pointing back to the list head).
   */ 

  while (next != (alt_dev*) llist)
   13760:	e0fffc17 	ldw	r3,-16(fp)
   13764:	e0bfff17 	ldw	r2,-4(fp)
   13768:	18bff01e 	bne	r3,r2,1372c <alt_find_dev+0x38>
    next = (alt_dev*) next->llist.next;
  }
  
  /* No match found */
  
  return NULL;
   1376c:	0005883a 	mov	r2,zero
}
   13770:	e037883a 	mov	sp,fp
   13774:	dfc00117 	ldw	ra,4(sp)
   13778:	df000017 	ldw	fp,0(sp)
   1377c:	dec00204 	addi	sp,sp,8
   13780:	f800283a 	ret

00013784 <alt_find_file>:
 * either '/' or '\0' is the prefix of the filename. For example the filename:
 * "/myfilesystem/junk.txt" would match: "/myfilesystem", but not: "/myfile". 
 */
 
alt_dev* alt_find_file (const char* name)
{
   13784:	defffb04 	addi	sp,sp,-20
   13788:	dfc00415 	stw	ra,16(sp)
   1378c:	df000315 	stw	fp,12(sp)
   13790:	df000304 	addi	fp,sp,12
   13794:	e13fff15 	stw	r4,-4(fp)
  alt_dev* next = (alt_dev*) alt_fs_list.next;   
   13798:	00800074 	movhi	r2,1
   1379c:	10918304 	addi	r2,r2,17932
   137a0:	10800017 	ldw	r2,0(r2)
   137a4:	e0bffd15 	stw	r2,-12(fp)
  /*
   * Check each list entry in turn, until a match is found, or we reach the
   * end of the list (i.e. next winds up pointing back to the list head).
   */ 
 
  while (next != (alt_dev*) &alt_fs_list)
   137a8:	00003106 	br	13870 <alt_find_file+0xec>
  {
    len = strlen(next->name);
   137ac:	e0bffd17 	ldw	r2,-12(fp)
   137b0:	10800217 	ldw	r2,8(r2)
   137b4:	1009883a 	mov	r4,r2
   137b8:	0011e3c0 	call	11e3c <strlen>
   137bc:	e0bffe15 	stw	r2,-8(fp)
    
    if (next->name[len-1] == '/')
   137c0:	e0bffd17 	ldw	r2,-12(fp)
   137c4:	10c00217 	ldw	r3,8(r2)
   137c8:	e0bffe17 	ldw	r2,-8(fp)
   137cc:	10bfffc4 	addi	r2,r2,-1
   137d0:	1885883a 	add	r2,r3,r2
   137d4:	10800003 	ldbu	r2,0(r2)
   137d8:	10803fcc 	andi	r2,r2,255
   137dc:	1080201c 	xori	r2,r2,128
   137e0:	10bfe004 	addi	r2,r2,-128
   137e4:	10800bd8 	cmpnei	r2,r2,47
   137e8:	1000031e 	bne	r2,zero,137f8 <alt_find_file+0x74>
    {
      len -= 1;
   137ec:	e0bffe17 	ldw	r2,-8(fp)
   137f0:	10bfffc4 	addi	r2,r2,-1
   137f4:	e0bffe15 	stw	r2,-8(fp)
    }

    if (((name[len] == '/') || (name[len] == '\0')) && 
   137f8:	e0bffe17 	ldw	r2,-8(fp)
   137fc:	e0ffff17 	ldw	r3,-4(fp)
   13800:	1885883a 	add	r2,r3,r2
   13804:	10800003 	ldbu	r2,0(r2)
   13808:	10803fcc 	andi	r2,r2,255
   1380c:	1080201c 	xori	r2,r2,128
   13810:	10bfe004 	addi	r2,r2,-128
   13814:	10800be0 	cmpeqi	r2,r2,47
   13818:	1000081e 	bne	r2,zero,1383c <alt_find_file+0xb8>
   1381c:	e0bffe17 	ldw	r2,-8(fp)
   13820:	e0ffff17 	ldw	r3,-4(fp)
   13824:	1885883a 	add	r2,r3,r2
   13828:	10800003 	ldbu	r2,0(r2)
   1382c:	10803fcc 	andi	r2,r2,255
   13830:	1080201c 	xori	r2,r2,128
   13834:	10bfe004 	addi	r2,r2,-128
   13838:	10000a1e 	bne	r2,zero,13864 <alt_find_file+0xe0>
        !memcmp (next->name, name, len))
   1383c:	e0bffd17 	ldw	r2,-12(fp)
   13840:	10c00217 	ldw	r3,8(r2)
   13844:	e0bffe17 	ldw	r2,-8(fp)
   13848:	1809883a 	mov	r4,r3
   1384c:	e17fff17 	ldw	r5,-4(fp)
   13850:	100d883a 	mov	r6,r2
   13854:	00139a00 	call	139a0 <memcmp>
    if (next->name[len-1] == '/')
    {
      len -= 1;
    }

    if (((name[len] == '/') || (name[len] == '\0')) && 
   13858:	1000021e 	bne	r2,zero,13864 <alt_find_file+0xe0>
        !memcmp (next->name, name, len))
    {
      /* match found */

      return next;
   1385c:	e0bffd17 	ldw	r2,-12(fp)
   13860:	00000806 	br	13884 <alt_find_file+0x100>
    }
    next = (alt_dev*) next->llist.next;
   13864:	e0bffd17 	ldw	r2,-12(fp)
   13868:	10800017 	ldw	r2,0(r2)
   1386c:	e0bffd15 	stw	r2,-12(fp)
  /*
   * Check each list entry in turn, until a match is found, or we reach the
   * end of the list (i.e. next winds up pointing back to the list head).
   */ 
 
  while (next != (alt_dev*) &alt_fs_list)
   13870:	e0fffd17 	ldw	r3,-12(fp)
   13874:	00800074 	movhi	r2,1
   13878:	10918304 	addi	r2,r2,17932
   1387c:	18bfcb1e 	bne	r3,r2,137ac <alt_find_file+0x28>
    next = (alt_dev*) next->llist.next;
  }
  
  /* No match found */
  
  return NULL;     
   13880:	0005883a 	mov	r2,zero
}
   13884:	e037883a 	mov	sp,fp
   13888:	dfc00117 	ldw	ra,4(sp)
   1388c:	df000017 	ldw	fp,0(sp)
   13890:	dec00204 	addi	sp,sp,8
   13894:	f800283a 	ret

00013898 <alt_get_fd>:
 * the offset of the file descriptor within the file descriptor array). A
 * negative value indicates failure.
 */

int alt_get_fd (alt_dev* dev)
{
   13898:	defffa04 	addi	sp,sp,-24
   1389c:	dfc00515 	stw	ra,20(sp)
   138a0:	df000415 	stw	fp,16(sp)
   138a4:	dc000315 	stw	r16,12(sp)
   138a8:	df000304 	addi	fp,sp,12
   138ac:	e13fff15 	stw	r4,-4(fp)
  alt_32 i;
  int rc = -EMFILE;
   138b0:	00bffa04 	movi	r2,-24
   138b4:	e0bffe15 	stw	r2,-8(fp)
   * indicates the highest file descriptor ever allocated. This is used to
   * improve efficency when searching the file descriptor list, and 
   * therefore reduce contention on the alt_fd_list_lock semaphore. 
   */

  for (i = 0; i < ALT_MAX_FD; i++)
   138b8:	e03ffd15 	stw	zero,-12(fp)
   138bc:	00002106 	br	13944 <alt_get_fd+0xac>
  {
    if (!alt_fd_list[i].dev)
   138c0:	04000074 	movhi	r16,1
   138c4:	84112104 	addi	r16,r16,17540
   138c8:	e0bffd17 	ldw	r2,-12(fp)
   138cc:	1009883a 	mov	r4,r2
   138d0:	01400304 	movi	r5,12
   138d4:	00118640 	call	11864 <__mulsi3>
   138d8:	8085883a 	add	r2,r16,r2
   138dc:	10800017 	ldw	r2,0(r2)
   138e0:	1000151e 	bne	r2,zero,13938 <alt_get_fd+0xa0>
    {
      alt_fd_list[i].dev = dev;
   138e4:	04000074 	movhi	r16,1
   138e8:	84112104 	addi	r16,r16,17540
   138ec:	e0bffd17 	ldw	r2,-12(fp)
   138f0:	1009883a 	mov	r4,r2
   138f4:	01400304 	movi	r5,12
   138f8:	00118640 	call	11864 <__mulsi3>
   138fc:	8085883a 	add	r2,r16,r2
   13900:	e0ffff17 	ldw	r3,-4(fp)
   13904:	10c00015 	stw	r3,0(r2)
      if (i > alt_max_fd)
   13908:	00800074 	movhi	r2,1
   1390c:	10918704 	addi	r2,r2,17948
   13910:	10c00017 	ldw	r3,0(r2)
   13914:	e0bffd17 	ldw	r2,-12(fp)
   13918:	1880040e 	bge	r3,r2,1392c <alt_get_fd+0x94>
      {
        alt_max_fd = i;
   1391c:	00800074 	movhi	r2,1
   13920:	10918704 	addi	r2,r2,17948
   13924:	e0fffd17 	ldw	r3,-12(fp)
   13928:	10c00015 	stw	r3,0(r2)
      }
      rc = i;
   1392c:	e0bffd17 	ldw	r2,-12(fp)
   13930:	e0bffe15 	stw	r2,-8(fp)
      goto alt_get_fd_exit;
   13934:	00000606 	br	13950 <alt_get_fd+0xb8>
   * indicates the highest file descriptor ever allocated. This is used to
   * improve efficency when searching the file descriptor list, and 
   * therefore reduce contention on the alt_fd_list_lock semaphore. 
   */

  for (i = 0; i < ALT_MAX_FD; i++)
   13938:	e0bffd17 	ldw	r2,-12(fp)
   1393c:	10800044 	addi	r2,r2,1
   13940:	e0bffd15 	stw	r2,-12(fp)
   13944:	e0bffd17 	ldw	r2,-12(fp)
   13948:	10800810 	cmplti	r2,r2,32
   1394c:	103fdc1e 	bne	r2,zero,138c0 <alt_get_fd+0x28>
   * file descriptor pool.
   */

  ALT_SEM_POST(alt_fd_list_lock);

  return rc;
   13950:	e0bffe17 	ldw	r2,-8(fp)
}
   13954:	e037883a 	mov	sp,fp
   13958:	dfc00217 	ldw	ra,8(sp)
   1395c:	df000117 	ldw	fp,4(sp)
   13960:	dc000017 	ldw	r16,0(sp)
   13964:	dec00304 	addi	sp,sp,12
   13968:	f800283a 	ret

0001396c <atexit>:
   1396c:	200b883a 	mov	r5,r4
   13970:	000d883a 	mov	r6,zero
   13974:	0009883a 	mov	r4,zero
   13978:	000f883a 	mov	r7,zero
   1397c:	00139e81 	jmpi	139e8 <__register_exitproc>

00013980 <exit>:
   13980:	defffe04 	addi	sp,sp,-8
   13984:	000b883a 	mov	r5,zero
   13988:	dc000015 	stw	r16,0(sp)
   1398c:	dfc00115 	stw	ra,4(sp)
   13990:	2021883a 	mov	r16,r4
   13994:	0013b700 	call	13b70 <__call_exitprocs>
   13998:	8009883a 	mov	r4,r16
   1399c:	0013d480 	call	13d48 <_exit>

000139a0 <memcmp>:
   139a0:	30000d26 	beq	r6,zero,139d8 <memcmp+0x38>
   139a4:	20c00003 	ldbu	r3,0(r4)
   139a8:	28800003 	ldbu	r2,0(r5)
   139ac:	18800c1e 	bne	r3,r2,139e0 <memcmp+0x40>
   139b0:	31bfff84 	addi	r6,r6,-2
   139b4:	01ffffc4 	movi	r7,-1
   139b8:	00000406 	br	139cc <memcmp+0x2c>
   139bc:	20c00003 	ldbu	r3,0(r4)
   139c0:	28800003 	ldbu	r2,0(r5)
   139c4:	31bfffc4 	addi	r6,r6,-1
   139c8:	1880051e 	bne	r3,r2,139e0 <memcmp+0x40>
   139cc:	21000044 	addi	r4,r4,1
   139d0:	29400044 	addi	r5,r5,1
   139d4:	31fff91e 	bne	r6,r7,139bc <memcmp+0x1c>
   139d8:	0005883a 	mov	r2,zero
   139dc:	f800283a 	ret
   139e0:	1885c83a 	sub	r2,r3,r2
   139e4:	f800283a 	ret

000139e8 <__register_exitproc>:
   139e8:	defff904 	addi	sp,sp,-28
   139ec:	00800074 	movhi	r2,1
   139f0:	10918104 	addi	r2,r2,17924
   139f4:	dc400415 	stw	r17,16(sp)
   139f8:	14400017 	ldw	r17,0(r2)
   139fc:	dc000315 	stw	r16,12(sp)
   13a00:	dc800515 	stw	r18,20(sp)
   13a04:	8c000c17 	ldw	r16,48(r17)
   13a08:	dfc00615 	stw	ra,24(sp)
   13a0c:	2025883a 	mov	r18,r4
   13a10:	80004226 	beq	r16,zero,13b1c <__register_exitproc+0x134>
   13a14:	80800117 	ldw	r2,4(r16)
   13a18:	00c007c4 	movi	r3,31
   13a1c:	1880180e 	bge	r3,r2,13a80 <__register_exitproc+0x98>
   13a20:	00800034 	movhi	r2,0
   13a24:	10800004 	addi	r2,r2,0
   13a28:	1000071e 	bne	r2,zero,13a48 <__register_exitproc+0x60>
   13a2c:	00bfffc4 	movi	r2,-1
   13a30:	dfc00617 	ldw	ra,24(sp)
   13a34:	dc800517 	ldw	r18,20(sp)
   13a38:	dc400417 	ldw	r17,16(sp)
   13a3c:	dc000317 	ldw	r16,12(sp)
   13a40:	dec00704 	addi	sp,sp,28
   13a44:	f800283a 	ret
   13a48:	01002304 	movi	r4,140
   13a4c:	d9400015 	stw	r5,0(sp)
   13a50:	d9800115 	stw	r6,4(sp)
   13a54:	d9c00215 	stw	r7,8(sp)
   13a58:	00000000 	call	0 <__alt_mem_mem_5-0x10000>
   13a5c:	1021883a 	mov	r16,r2
   13a60:	d9400017 	ldw	r5,0(sp)
   13a64:	d9800117 	ldw	r6,4(sp)
   13a68:	d9c00217 	ldw	r7,8(sp)
   13a6c:	103fef26 	beq	r2,zero,13a2c <__register_exitproc+0x44>
   13a70:	88800c17 	ldw	r2,48(r17)
   13a74:	80000115 	stw	zero,4(r16)
   13a78:	80800015 	stw	r2,0(r16)
   13a7c:	8c000c15 	stw	r16,48(r17)
   13a80:	90001726 	beq	r18,zero,13ae0 <__register_exitproc+0xf8>
   13a84:	80802217 	ldw	r2,136(r16)
   13a88:	10002826 	beq	r2,zero,13b2c <__register_exitproc+0x144>
   13a8c:	12804017 	ldw	r10,256(r2)
   13a90:	80c00117 	ldw	r3,4(r16)
   13a94:	02400044 	movi	r9,1
   13a98:	48d2983a 	sll	r9,r9,r3
   13a9c:	19000804 	addi	r4,r3,32
   13aa0:	18d1883a 	add	r8,r3,r3
   13aa4:	2109883a 	add	r4,r4,r4
   13aa8:	4211883a 	add	r8,r8,r8
   13aac:	2109883a 	add	r4,r4,r4
   13ab0:	1109883a 	add	r4,r2,r4
   13ab4:	1211883a 	add	r8,r2,r8
   13ab8:	5254b03a 	or	r10,r10,r9
   13abc:	21c00015 	stw	r7,0(r4)
   13ac0:	41800015 	stw	r6,0(r8)
   13ac4:	12804015 	stw	r10,256(r2)
   13ac8:	01000084 	movi	r4,2
   13acc:	9100051e 	bne	r18,r4,13ae4 <__register_exitproc+0xfc>
   13ad0:	11004117 	ldw	r4,260(r2)
   13ad4:	2252b03a 	or	r9,r4,r9
   13ad8:	12404115 	stw	r9,260(r2)
   13adc:	00000106 	br	13ae4 <__register_exitproc+0xfc>
   13ae0:	80c00117 	ldw	r3,4(r16)
   13ae4:	18800084 	addi	r2,r3,2
   13ae8:	1085883a 	add	r2,r2,r2
   13aec:	1085883a 	add	r2,r2,r2
   13af0:	8085883a 	add	r2,r16,r2
   13af4:	18c00044 	addi	r3,r3,1
   13af8:	11400015 	stw	r5,0(r2)
   13afc:	0005883a 	mov	r2,zero
   13b00:	80c00115 	stw	r3,4(r16)
   13b04:	dfc00617 	ldw	ra,24(sp)
   13b08:	dc800517 	ldw	r18,20(sp)
   13b0c:	dc400417 	ldw	r17,16(sp)
   13b10:	dc000317 	ldw	r16,12(sp)
   13b14:	dec00704 	addi	sp,sp,28
   13b18:	f800283a 	ret
   13b1c:	04000074 	movhi	r16,1
   13b20:	84154904 	addi	r16,r16,21796
   13b24:	8c000c15 	stw	r16,48(r17)
   13b28:	003fba06 	br	13a14 <__register_exitproc+0x2c>
   13b2c:	00800034 	movhi	r2,0
   13b30:	10800004 	addi	r2,r2,0
   13b34:	103fbd26 	beq	r2,zero,13a2c <__register_exitproc+0x44>
   13b38:	d9400015 	stw	r5,0(sp)
   13b3c:	d9800115 	stw	r6,4(sp)
   13b40:	d9c00215 	stw	r7,8(sp)
   13b44:	01004204 	movi	r4,264
   13b48:	103ee83a 	callr	r2
   13b4c:	d9400017 	ldw	r5,0(sp)
   13b50:	d9800117 	ldw	r6,4(sp)
   13b54:	d9c00217 	ldw	r7,8(sp)
   13b58:	103fb426 	beq	r2,zero,13a2c <__register_exitproc+0x44>
   13b5c:	10004015 	stw	zero,256(r2)
   13b60:	10004115 	stw	zero,260(r2)
   13b64:	80802215 	stw	r2,136(r16)
   13b68:	0015883a 	mov	r10,zero
   13b6c:	003fc806 	br	13a90 <__register_exitproc+0xa8>

00013b70 <__call_exitprocs>:
   13b70:	00800074 	movhi	r2,1
   13b74:	10918104 	addi	r2,r2,17924
   13b78:	10800017 	ldw	r2,0(r2)
   13b7c:	defff204 	addi	sp,sp,-56
   13b80:	df000c15 	stw	fp,48(sp)
   13b84:	d8800015 	stw	r2,0(sp)
   13b88:	10800c04 	addi	r2,r2,48
   13b8c:	dd400915 	stw	r21,36(sp)
   13b90:	dfc00d15 	stw	ra,52(sp)
   13b94:	ddc00b15 	stw	r23,44(sp)
   13b98:	dd800a15 	stw	r22,40(sp)
   13b9c:	dd000815 	stw	r20,32(sp)
   13ba0:	dcc00715 	stw	r19,28(sp)
   13ba4:	dc800615 	stw	r18,24(sp)
   13ba8:	dc400515 	stw	r17,20(sp)
   13bac:	dc000415 	stw	r16,16(sp)
   13bb0:	d9000115 	stw	r4,4(sp)
   13bb4:	2839883a 	mov	fp,r5
   13bb8:	d8800215 	stw	r2,8(sp)
   13bbc:	057fffc4 	movi	r21,-1
   13bc0:	d8800017 	ldw	r2,0(sp)
   13bc4:	dd800217 	ldw	r22,8(sp)
   13bc8:	15c00c17 	ldw	r23,48(r2)
   13bcc:	b8001b26 	beq	r23,zero,13c3c <__call_exitprocs+0xcc>
   13bd0:	b9000117 	ldw	r4,4(r23)
   13bd4:	bd002217 	ldw	r20,136(r23)
   13bd8:	243fffc4 	addi	r16,r4,-1
   13bdc:	80001416 	blt	r16,zero,13c30 <__call_exitprocs+0xc0>
   13be0:	244007c4 	addi	r17,r4,31
   13be4:	21000044 	addi	r4,r4,1
   13be8:	8c63883a 	add	r17,r17,r17
   13bec:	8427883a 	add	r19,r16,r16
   13bf0:	2109883a 	add	r4,r4,r4
   13bf4:	8c63883a 	add	r17,r17,r17
   13bf8:	9ce7883a 	add	r19,r19,r19
   13bfc:	2109883a 	add	r4,r4,r4
   13c00:	a463883a 	add	r17,r20,r17
   13c04:	a4e7883a 	add	r19,r20,r19
   13c08:	b925883a 	add	r18,r23,r4
   13c0c:	e0001726 	beq	fp,zero,13c6c <__call_exitprocs+0xfc>
   13c10:	a0000226 	beq	r20,zero,13c1c <__call_exitprocs+0xac>
   13c14:	89400017 	ldw	r5,0(r17)
   13c18:	2f001426 	beq	r5,fp,13c6c <__call_exitprocs+0xfc>
   13c1c:	843fffc4 	addi	r16,r16,-1
   13c20:	8c7fff04 	addi	r17,r17,-4
   13c24:	9cffff04 	addi	r19,r19,-4
   13c28:	94bfff04 	addi	r18,r18,-4
   13c2c:	857ff71e 	bne	r16,r21,13c0c <__call_exitprocs+0x9c>
   13c30:	00800034 	movhi	r2,0
   13c34:	10800004 	addi	r2,r2,0
   13c38:	1000311e 	bne	r2,zero,13d00 <__call_exitprocs+0x190>
   13c3c:	dfc00d17 	ldw	ra,52(sp)
   13c40:	df000c17 	ldw	fp,48(sp)
   13c44:	ddc00b17 	ldw	r23,44(sp)
   13c48:	dd800a17 	ldw	r22,40(sp)
   13c4c:	dd400917 	ldw	r21,36(sp)
   13c50:	dd000817 	ldw	r20,32(sp)
   13c54:	dcc00717 	ldw	r19,28(sp)
   13c58:	dc800617 	ldw	r18,24(sp)
   13c5c:	dc400517 	ldw	r17,20(sp)
   13c60:	dc000417 	ldw	r16,16(sp)
   13c64:	dec00e04 	addi	sp,sp,56
   13c68:	f800283a 	ret
   13c6c:	b9000117 	ldw	r4,4(r23)
   13c70:	92000017 	ldw	r8,0(r18)
   13c74:	213fffc4 	addi	r4,r4,-1
   13c78:	24001a26 	beq	r4,r16,13ce4 <__call_exitprocs+0x174>
   13c7c:	90000015 	stw	zero,0(r18)
   13c80:	403fe626 	beq	r8,zero,13c1c <__call_exitprocs+0xac>
   13c84:	ba400117 	ldw	r9,4(r23)
   13c88:	a0001226 	beq	r20,zero,13cd4 <__call_exitprocs+0x164>
   13c8c:	00800044 	movi	r2,1
   13c90:	1408983a 	sll	r4,r2,r16
   13c94:	a1404017 	ldw	r5,256(r20)
   13c98:	214a703a 	and	r5,r4,r5
   13c9c:	28000d26 	beq	r5,zero,13cd4 <__call_exitprocs+0x164>
   13ca0:	a1404117 	ldw	r5,260(r20)
   13ca4:	2148703a 	and	r4,r4,r5
   13ca8:	2000101e 	bne	r4,zero,13cec <__call_exitprocs+0x17c>
   13cac:	99400017 	ldw	r5,0(r19)
   13cb0:	d9000117 	ldw	r4,4(sp)
   13cb4:	da400315 	stw	r9,12(sp)
   13cb8:	403ee83a 	callr	r8
   13cbc:	da400317 	ldw	r9,12(sp)
   13cc0:	b9000117 	ldw	r4,4(r23)
   13cc4:	227fbe1e 	bne	r4,r9,13bc0 <__call_exitprocs+0x50>
   13cc8:	b1000017 	ldw	r4,0(r22)
   13ccc:	25ffd326 	beq	r4,r23,13c1c <__call_exitprocs+0xac>
   13cd0:	003fbb06 	br	13bc0 <__call_exitprocs+0x50>
   13cd4:	da400315 	stw	r9,12(sp)
   13cd8:	403ee83a 	callr	r8
   13cdc:	da400317 	ldw	r9,12(sp)
   13ce0:	003ff706 	br	13cc0 <__call_exitprocs+0x150>
   13ce4:	bc000115 	stw	r16,4(r23)
   13ce8:	003fe506 	br	13c80 <__call_exitprocs+0x110>
   13cec:	99000017 	ldw	r4,0(r19)
   13cf0:	da400315 	stw	r9,12(sp)
   13cf4:	403ee83a 	callr	r8
   13cf8:	da400317 	ldw	r9,12(sp)
   13cfc:	003ff006 	br	13cc0 <__call_exitprocs+0x150>
   13d00:	b9000117 	ldw	r4,4(r23)
   13d04:	20000e1e 	bne	r4,zero,13d40 <__call_exitprocs+0x1d0>
   13d08:	b9000017 	ldw	r4,0(r23)
   13d0c:	20000826 	beq	r4,zero,13d30 <__call_exitprocs+0x1c0>
   13d10:	b1000015 	stw	r4,0(r22)
   13d14:	a0000226 	beq	r20,zero,13d20 <__call_exitprocs+0x1b0>
   13d18:	a009883a 	mov	r4,r20
   13d1c:	00000000 	call	0 <__alt_mem_mem_5-0x10000>
   13d20:	b809883a 	mov	r4,r23
   13d24:	00000000 	call	0 <__alt_mem_mem_5-0x10000>
   13d28:	b5c00017 	ldw	r23,0(r22)
   13d2c:	003fa706 	br	13bcc <__call_exitprocs+0x5c>
   13d30:	0007883a 	mov	r3,zero
   13d34:	b82d883a 	mov	r22,r23
   13d38:	182f883a 	mov	r23,r3
   13d3c:	003fa306 	br	13bcc <__call_exitprocs+0x5c>
   13d40:	b8c00017 	ldw	r3,0(r23)
   13d44:	003ffb06 	br	13d34 <__call_exitprocs+0x1c4>

00013d48 <_exit>:
 *
 * ALT_EXIT is mapped onto the _exit() system call in alt_syscall.h
 */

void ALT_EXIT (int exit_code)
{
   13d48:	defffc04 	addi	sp,sp,-16
   13d4c:	df000315 	stw	fp,12(sp)
   13d50:	df000304 	addi	fp,sp,12
   13d54:	e13fff15 	stw	r4,-4(fp)
  ALT_LOG_PRINT_BOOT("[alt_exit.c] Entering _exit() function.\r\n");
  ALT_LOG_PRINT_BOOT("[alt_exit.c] Exit code from main was %d.\r\n",exit_code);
  /* Stop all other threads */

  ALT_LOG_PRINT_BOOT("[alt_exit.c] Calling ALT_OS_STOP().\r\n");
  ALT_OS_STOP();
   13d58:	0001883a 	nop
   13d5c:	e0bfff17 	ldw	r2,-4(fp)
   13d60:	e0bffd15 	stw	r2,-12(fp)
/*
 * Routine called on exit.
 */
static ALT_INLINE ALT_ALWAYS_INLINE void alt_sim_halt(int exit_code)
{
  int r2 = exit_code;
   13d64:	e0bffd17 	ldw	r2,-12(fp)
   13d68:	e0bffe15 	stw	r2,-8(fp)
  __asm__ volatile ("\n0:\n\taddi %0,%0, -1\n\tbgt %0,zero,0b" : : "r" (ALT_CPU_FREQ/100) ); /* Delay for >30ms */

  __asm__ volatile ("break 2" : : "D02"(r2), "D03"(r3) ALT_GMON_DATA );

#else /* !DEBUG_STUB */
  if (r2) {
   13d6c:	e0bffe17 	ldw	r2,-8(fp)
   13d70:	10000226 	beq	r2,zero,13d7c <_exit+0x34>
    ALT_SIM_FAIL();
   13d74:	002af070 	cmpltui	zero,zero,43969
   13d78:	00000106 	br	13d80 <_exit+0x38>
  } else {
    ALT_SIM_PASS();
   13d7c:	002af0b0 	cmpltui	zero,zero,43970
  ALT_SIM_HALT(exit_code);

  /* spin forever, since there's no where to go back to */

  ALT_LOG_PRINT_BOOT("[alt_exit.c] Spinning forever.\r\n");
  while (1);
   13d80:	003fff06 	br	13d80 <_exit+0x38>
