
stage1.elf:     file format elf32-littlenios2
stage1.elf
architecture: nios2, flags 0x00000112:
EXEC_P, HAS_SYMS, D_PAGED
start address 0x00020020

Program Header:
    LOAD off    0x00001000 vaddr 0x00020000 paddr 0x00020000 align 2**12
         filesz 0x00000020 memsz 0x00000020 flags r-x
    LOAD off    0x00001020 vaddr 0x00020020 paddr 0x00020020 align 2**12
         filesz 0x000153ec memsz 0x000153ec flags r-x
    LOAD off    0x0001640c vaddr 0x0003540c paddr 0x00035f20 align 2**12
         filesz 0x00000b14 memsz 0x00000b14 flags rw-
    LOAD off    0x00017a34 vaddr 0x00036a34 paddr 0x00036a34 align 2**12
         filesz 0x00000000 memsz 0x00002128 flags rw-

Sections:
Idx Name          Size      VMA       LMA       File off  Algn
  0 .entry        00000020  00020000  00020000  00001000  2**5
                  CONTENTS, ALLOC, LOAD, READONLY, CODE
  1 .text         00014360  00020020  00020020  00001020  2**2
                  CONTENTS, ALLOC, LOAD, READONLY, CODE
  2 .rodata       0000108c  00034380  00034380  00015380  2**2
                  CONTENTS, ALLOC, LOAD, READONLY, DATA
  3 .rwdata       00000b14  0003540c  00035f20  0001640c  2**2
                  CONTENTS, ALLOC, LOAD, DATA, SMALL_DATA
  4 .bss          00002128  00036a34  00036a34  00017a34  2**2
                  ALLOC, SMALL_DATA
  5 .comment      00000023  00000000  00000000  00016f20  2**0
                  CONTENTS, READONLY
  6 .debug_aranges 00001248  00000000  00000000  00016f48  2**3
                  CONTENTS, READONLY, DEBUGGING
  7 .debug_info   000367e2  00000000  00000000  00018190  2**0
                  CONTENTS, READONLY, DEBUGGING
  8 .debug_abbrev 0000d7fe  00000000  00000000  0004e972  2**0
                  CONTENTS, READONLY, DEBUGGING
  9 .debug_line   0000f287  00000000  00000000  0005c170  2**0
                  CONTENTS, READONLY, DEBUGGING
 10 .debug_frame  000021e4  00000000  00000000  0006b3f8  2**2
                  CONTENTS, READONLY, DEBUGGING
 11 .debug_str    00003cc2  00000000  00000000  0006d5dc  2**0
                  CONTENTS, READONLY, DEBUGGING
 12 .debug_loc    000199e9  00000000  00000000  0007129e  2**0
                  CONTENTS, READONLY, DEBUGGING
 13 .debug_alt_sim_info 00000010  00000000  00000000  0008ac88  2**2
                  CONTENTS, READONLY, DEBUGGING
 14 .debug_ranges 00000e50  00000000  00000000  0008ac98  2**3
                  CONTENTS, READONLY, DEBUGGING
 15 .thread_model 00000003  00000000  00000000  0008f7a9  2**0
                  CONTENTS, READONLY
 16 .cpu          00000005  00000000  00000000  0008f7ac  2**0
                  CONTENTS, READONLY
 17 .qsys         00000001  00000000  00000000  0008f7b1  2**0
                  CONTENTS, READONLY
 18 .simulation_enabled 00000001  00000000  00000000  0008f7b2  2**0
                  CONTENTS, READONLY
 19 .sysid_hash   00000004  00000000  00000000  0008f7b3  2**0
                  CONTENTS, READONLY
 20 .sysid_base   00000004  00000000  00000000  0008f7b7  2**0
                  CONTENTS, READONLY
 21 .sysid_time   00000004  00000000  00000000  0008f7bb  2**0
                  CONTENTS, READONLY
 22 .stderr_dev   0000000b  00000000  00000000  0008f7bf  2**0
                  CONTENTS, READONLY
 23 .stdin_dev    0000000b  00000000  00000000  0008f7ca  2**0
                  CONTENTS, READONLY
 24 .stdout_dev   0000000b  00000000  00000000  0008f7d5  2**0
                  CONTENTS, READONLY
 25 .sopc_system_name 00000005  00000000  00000000  0008f7e0  2**0
                  CONTENTS, READONLY
 26 .quartus_project_dir 0000001b  00000000  00000000  0008f7e5  2**0
                  CONTENTS, READONLY
 27 .sopcinfo     0019f5fe  00000000  00000000  0008f800  2**0
                  CONTENTS, READONLY
SYMBOL TABLE:
00020000 l    d  .entry	00000000 .entry
00020020 l    d  .text	00000000 .text
00034380 l    d  .rodata	00000000 .rodata
0003540c l    d  .rwdata	00000000 .rwdata
00036a34 l    d  .bss	00000000 .bss
00000000 l    d  .comment	00000000 .comment
00000000 l    d  .debug_aranges	00000000 .debug_aranges
00000000 l    d  .debug_info	00000000 .debug_info
00000000 l    d  .debug_abbrev	00000000 .debug_abbrev
00000000 l    d  .debug_line	00000000 .debug_line
00000000 l    d  .debug_frame	00000000 .debug_frame
00000000 l    d  .debug_str	00000000 .debug_str
00000000 l    d  .debug_loc	00000000 .debug_loc
00000000 l    d  .debug_alt_sim_info	00000000 .debug_alt_sim_info
00000000 l    d  .debug_ranges	00000000 .debug_ranges
00000000 l    df *ABS*	00000000 ../stage1_bsp//obj/HAL/src/crt0.o
00020058 l       .text	00000000 alt_after_alt_main
00000000 l    df *ABS*	00000000 encoder.c
00000000 l    df *ABS*	00000000 huffdata.c
00000000 l    df *ABS*	00000000 huffman.c
000205a8 l     F .text	00000074 get_vli_size
00000000 l    df *ABS*	00000000 main.c
00000000 l    df *ABS*	00000000 fifo_io.c
00000000 l    df *ABS*	00000000 readYUV.c
00022308 l     F .text	0000004c clamp
00000000 l    df *ABS*	00000000 libgcc2.c
00000000 l    df *ABS*	00000000 fp-bit.c
00022644 l     F .text	000001f4 _fpadd_parts
00000000 l    df *ABS*	00000000 fp-bit.c
00000000 l    df *ABS*	00000000 fp-bit.c
00000000 l    df *ABS*	00000000 fp-bit.c
00000000 l    df *ABS*	00000000 fp-bit.c
00000000 l    df *ABS*	00000000 fp-bit.c
00000000 l    df *ABS*	00000000 fp-bit.c
00000000 l    df *ABS*	00000000 fp-bit.c
00000000 l    df *ABS*	00000000 lib2-divmod.c
00022e20 l     F .text	00000074 udivmodsi4
00000000 l    df *ABS*	00000000 lib2-mul.c
00000000 l    df *ABS*	00000000 libgcc2.c
00000000 l    df *ABS*	00000000 libgcc2.c
00000000 l    df *ABS*	00000000 fp-bit.c
00000000 l    df *ABS*	00000000 fp-bit.c
00000000 l    df *ABS*	00000000 fp-bit.c
00000000 l    df *ABS*	00000000 libgcc2.c
00000000 l    df *ABS*	00000000 fclose.c
00000000 l    df *ABS*	00000000 fflush.c
00000000 l    df *ABS*	00000000 findfp.c
0002374c l     F .text	00000008 __fp_lock
00023754 l     F .text	00000008 __fp_unlock
00000000 l    df *ABS*	00000000 fopen.c
00000000 l    df *ABS*	00000000 fread.c
00000000 l    df *ABS*	00000000 mallocr.c
00000000 l    df *ABS*	00000000 fscanf.c
00000000 l    df *ABS*	00000000 fseek.c
00000000 l    df *ABS*	00000000 fstatr.c
00000000 l    df *ABS*	00000000 fwalk.c
00000000 l    df *ABS*	00000000 fwrite.c
00000000 l    df *ABS*	00000000 impure.c
0003546c l     O .rwdata	00000400 impure_data
00000000 l    df *ABS*	00000000 int_errno.c
00000000 l    df *ABS*	00000000 makebuf.c
00000000 l    df *ABS*	00000000 mallocr.c
00000000 l    df *ABS*	00000000 memcpy.c
00000000 l    df *ABS*	00000000 memset.c
00000000 l    df *ABS*	00000000 openr.c
00000000 l    df *ABS*	00000000 printf.c
00000000 l    df *ABS*	00000000 puts.c
00000000 l    df *ABS*	00000000 refill.c
0002566c l     F .text	0000001c lflush
00000000 l    df *ABS*	00000000 rewind.c
00000000 l    df *ABS*	00000000 sbrkr.c
00000000 l    df *ABS*	00000000 stdio.c
00000000 l    df *ABS*	00000000 strlen.c
00000000 l    df *ABS*	00000000 vfprintf.c
00025af0 l     F .text	00000034 __sprint_r
00034f22 l     O .rodata	00000010 blanks.3515
00034f32 l     O .rodata	00000010 zeroes.3516
00000000 l    df *ABS*	00000000 vfscanf.c
00034f4a l     O .rodata	00000022 basefix.3427
00000000 l    df *ABS*	00000000 writer.c
00000000 l    df *ABS*	00000000 wsetup.c
00000000 l    df *ABS*	00000000 closer.c
00000000 l    df *ABS*	00000000 ctype_.c
0003506d l     O .rodata	00000180 _ctype_b
00000000 l    df *ABS*	00000000 dtoa.c
00029390 l     F .text	0000023c quorem
00000000 l    df *ABS*	00000000 flags.c
00000000 l    df *ABS*	00000000 fvwrite.c
00000000 l    df *ABS*	00000000 isattyr.c
00000000 l    df *ABS*	00000000 iswspace.c
00000000 l    df *ABS*	00000000 locale.c
00035210 l     O .rodata	00000030 lconv
00000000 l    df *ABS*	00000000 lseekr.c
00000000 l    df *ABS*	00000000 mbrtowc.c
00000000 l    df *ABS*	00000000 mbtowc_r.c
00000000 l    df *ABS*	00000000 memchr.c
00000000 l    df *ABS*	00000000 memmove.c
00000000 l    df *ABS*	00000000 mprec.c
00035358 l     O .rodata	0000000c p05.2435
00000000 l    df *ABS*	00000000 readr.c
00000000 l    df *ABS*	00000000 mallocr.c
00000000 l    df *ABS*	00000000 s_isinfd.c
00000000 l    df *ABS*	00000000 s_isnand.c
00000000 l    df *ABS*	00000000 sccl.c
00000000 l    df *ABS*	00000000 sf_nan.c
00000000 l    df *ABS*	00000000 sprintf.c
00000000 l    df *ABS*	00000000 strcmp.c
00000000 l    df *ABS*	00000000 strtod.c
00035c80 l     O .rwdata	00000014 fpi.2015
00035374 l     O .rodata	00000028 tinytens
00035c94 l     O .rwdata	00000014 fpinan.2051
00000000 l    df *ABS*	00000000 strtol.c
00000000 l    df *ABS*	00000000 strtoll_r.c
00000000 l    df *ABS*	00000000 strtoul.c
00000000 l    df *ABS*	00000000 strtoull_r.c
00000000 l    df *ABS*	00000000 ungetc.c
00000000 l    df *ABS*	00000000 mallocr.c
00000000 l    df *ABS*	00000000 gdtoa-gethex.c
0002f624 l     F .text	00000110 rshift
00000000 l    df *ABS*	00000000 gdtoa-hexnan.c
00000000 l    df *ABS*	00000000 libgcc2.c
00000000 l    df *ABS*	00000000 libgcc2.c
00000000 l    df *ABS*	00000000 libgcc2.c
00000000 l    df *ABS*	00000000 fp-bit.c
00000000 l    df *ABS*	00000000 fp-bit.c
00000000 l    df *ABS*	00000000 fp-bit.c
00000000 l    df *ABS*	00000000 fp-bit.c
00030fc8 l     F .text	00000354 _fpadd_parts
00000000 l    df *ABS*	00000000 fp-bit.c
00000000 l    df *ABS*	00000000 fp-bit.c
00000000 l    df *ABS*	00000000 fp-bit.c
00000000 l    df *ABS*	00000000 fp-bit.c
00000000 l    df *ABS*	00000000 fp-bit.c
00000000 l    df *ABS*	00000000 fp-bit.c
00000000 l    df *ABS*	00000000 fp-bit.c
00000000 l    df *ABS*	00000000 fp-bit.c
00000000 l    df *ABS*	00000000 fp-bit.c
00000000 l    df *ABS*	00000000 fp-bit.c
00000000 l    df *ABS*	00000000 fp-bit.c
00000000 l    df *ABS*	00000000 fp-bit.c
00000000 l    df *ABS*	00000000 fp-bit.c
00000000 l    df *ABS*	00000000 fp-bit.c
00000000 l    df *ABS*	00000000 fp-bit.c
00000000 l    df *ABS*	00000000 fp-bit.c
00000000 l    df *ABS*	00000000 fp-bit.c
00000000 l    df *ABS*	00000000 libgcc2.c
00000000 l    df *ABS*	00000000 libgcc2.c
00000000 l    df *ABS*	00000000 alt_close.c
00032270 l     F .text	00000050 alt_get_errno
00000000 l    df *ABS*	00000000 alt_dev.c
0003238c l     F .text	0000002c alt_dev_null_write
00000000 l    df *ABS*	00000000 alt_errno.c
00000000 l    df *ABS*	00000000 alt_fstat.c
000323b8 l     F .text	00000050 alt_get_errno
00000000 l    df *ABS*	00000000 alt_isatty.c
000324b8 l     F .text	00000050 alt_get_errno
00000000 l    df *ABS*	00000000 alt_load.c
000325ac l     F .text	0000006c alt_load_section
00000000 l    df *ABS*	00000000 alt_lseek.c
00032698 l     F .text	00000050 alt_get_errno
00000000 l    df *ABS*	00000000 alt_main.c
00000000 l    df *ABS*	00000000 alt_malloc_lock.c
00000000 l    df *ABS*	00000000 alt_open.c
00032874 l     F .text	00000050 alt_get_errno
000328c4 l     F .text	000000f0 alt_file_locked
00000000 l    df *ABS*	00000000 alt_read.c
00032b0c l     F .text	00000050 alt_get_errno
00000000 l    df *ABS*	00000000 alt_release_fd.c
00000000 l    df *ABS*	00000000 alt_sbrk.c
00035ed4 l     O .rwdata	00000004 heap_end
00000000 l    df *ABS*	00000000 alt_write.c
00032d80 l     F .text	00000050 alt_get_errno
00000000 l    df *ABS*	00000000 alt_sys_init.c
00032ec0 l     F .text	00000038 alt_dev_reg
00035e50 l     O .rwdata	0000002c jtag_uart_1
00035e7c l     O .rwdata	00000028 altera_hostfs
00000000 l    df *ABS*	00000000 altera_avalon_jtag_uart_fd.c
00000000 l    df *ABS*	00000000 altera_avalon_jtag_uart_read.c
00000000 l    df *ABS*	00000000 altera_avalon_jtag_uart_write.c
00000000 l    df *ABS*	00000000 altera_avalon_timer_ts.c
00000000 l    df *ABS*	00000000 altera_avalon_timer_vars.c
00000000 l    df *ABS*	00000000 altera_hostfs.c
00035f14 l     O .rwdata	00000004 hcinfo.2311
00035f08 l     O .rwdata	00000004 hcinfo.2324
00035efc l     O .rwdata	00000004 hcinfo.2333
00035ef0 l     O .rwdata	00000004 hcinfo.2346
00035ee4 l     O .rwdata	00000004 hcinfo.2359
00035ed8 l     O .rwdata	00000004 hcinfo.2385
00000000 l    df *ABS*	00000000 alt_dcache_flush_all.c
00000000 l    df *ABS*	00000000 alt_dev_llist_insert.c
00033974 l     F .text	00000050 alt_get_errno
00000000 l    df *ABS*	00000000 alt_do_ctors.c
00000000 l    df *ABS*	00000000 alt_do_dtors.c
00000000 l    df *ABS*	00000000 alt_find_dev.c
00000000 l    df *ABS*	00000000 alt_find_file.c
00000000 l    df *ABS*	00000000 alt_fs_reg.c
00000000 l    df *ABS*	00000000 alt_get_fd.c
00000000 l    df *ABS*	00000000 alt_icache_flush_all.c
00000000 l    df *ABS*	00000000 alt_io_redirect.c
00033e34 l     F .text	000000e0 alt_open_fd
00000000 l    df *ABS*	00000000 altera_nios2_qsys_irq.c
00000000 l    df *ABS*	00000000 atexit.c
00000000 l    df *ABS*	00000000 exit.c
00000000 l    df *ABS*	00000000 memcmp.c
00000000 l    df *ABS*	00000000 __atexit.c
00000000 l    df *ABS*	00000000 __call_atexit.c
00000000 l    df *ABS*	00000000 alt_exit.c
00000000 l    df *ABS*	00000000 
0002227c g     F .text	0000008c fifo_write_block
0002c590 g     F .text	00000074 _mprec_log10
0002c680 g     F .text	00000084 __any_on
0002b164 g     F .text	00000064 _isatty_r
00035240 g     O .rodata	00000028 __mprec_tinytens
00036a3c g     O .bss	00000001 byte_buffer
000327bc g     F .text	00000078 alt_main
0003222c g     F .text	00000044 __ashldi3
000255d4 g     F .text	00000084 _puts_r
0002b2dc g     F .text	0000006c _lseek_r
00035f20 g       *ABS*	00000000 __flash_rwdata_start
0002abe8 g     F .text	00000098 __sflags
00031868 g     F .text	0000005c __eqdf2
00038b5c g       *ABS*	00000000 __alt_heap_start
00025598 g     F .text	0000003c printf
0003540c g     O .rwdata	00000018 luminance_dc_code_table
00025a00 g     F .text	0000005c __sseek
000237f0 g     F .text	0000010c __sinit
0003729c g     O .bss	00000040 global_scaled_q_luma
0002b200 g     F .text	0000009c _setlocale_r
00023768 g     F .text	00000078 __sfmoreglue
0002f53c g     F .text	0000001c ungetc
00032854 g     F .text	00000020 __malloc_unlock
00020fa8 g     F .text	000000c4 send_output_filename_to_stage6
00033330 g     F .text	0000016c alt_hostfs_open
0002d004 g     F .text	00001548 _strtod_r
00022a6c g     F .text	0000013c __divsf3
00036a70 g     O .bss	00000004 altera_avalon_timer_ts_freq
0002b528 g     F .text	0000018c memmove
000372dc g     O .bss	00000040 global_scaled_q_chroma
000237e0 g     F .text	00000010 _cleanup
0002b6b4 g     F .text	000000a8 _Balloc
00022ca8 g     F .text	000000a4 __fixsfsi
00031920 g     F .text	00000064 __gtdf2
00000000  w      *UND*	00000000 __errno
00020000 g     F .entry	0000000c __reset
00020020 g       *ABS*	00000000 __flash_exceptions_start
00024700 g     F .text	00000068 _fstat_r
00036a44 g     O .bss	00000004 errno
000290b8 g     F .text	00000024 __svfscanf
00031dc4 g     F .text	0000002c __make_fp
00036a64 g     O .bss	00000004 alt_argv
0003dea4 g       *ABS*	00000000 _gp
00022884 g     F .text	00000058 __subsf3
0002420c g     F .text	0000003c fscanf
00035cd0 g     O .rwdata	00000180 alt_fd_list
00033678 g     F .text	000000b8 alt_hostfs_seek
00020000 g       *ABS*	00000000 __alt_mem_mem_1
00033b1c g     F .text	00000090 alt_find_dev
000252e4 g     F .text	00000140 memcpy
0002ff3c g     F .text	0000028c __hexnan
0002375c g     F .text	0000000c _cleanup_r
00031aa0 g     F .text	000000d4 __floatsidf
00033cc0 g     F .text	00000084 alt_fs_reg
00033f14 g     F .text	00000078 alt_io_redirect
000319e8 g     F .text	0000005c __ltdf2
00034380 g       *ABS*	00000000 __DTOR_END__
00025658 g     F .text	00000014 puts
0002b3ac g     F .text	00000040 mbrtowc
0002906c g     F .text	0000004c _vfscanf_r
0002c4ec g     F .text	000000a4 __ratio
00036a9c g     O .bss	00000200 chrominance_ac_code_table
00020838 g     F .text	000003fc huffman_encode_block
00033064 g     F .text	000000f4 altera_avalon_jtag_uart_read
00000000  w      *UND*	00000000 malloc
0002556c g     F .text	0000002c _printf_r
00022f40 g     F .text	00000008 __udivsi3
00032508 g     F .text	000000a4 isatty
0002b1c8 g     F .text	00000038 iswspace
00035290 g     O .rodata	000000c8 __mprec_tens
000221cc g     F .text	00000030 fifo_init
0002b29c g     F .text	0000000c __locale_charset
000301c8 g     F .text	00000084 __fixunsdfsi
00036a50 g     O .bss	00000004 __malloc_top_pad
0002eef8 g     F .text	00000024 strtoul
00035eb8 g     O .rwdata	00000004 __mb_cur_max
0002b2a8 g     F .text	0000000c _localeconv_r
0002ef1c g     F .text	00000394 _strtoull_r
0002bae4 g     F .text	0000003c __i2b
0002ac80 g     F .text	000004e4 __sfvwrite_r
000258c0 g     F .text	00000064 _sbrk_r
00022354 g     F .text	00000280 read_444_format
000202e4 g     F .text	000002c4 init_chroma_ac_tables
00033508 g     F .text	000000b8 alt_hostfs_read
0002c704 g     F .text	0000006c _read_r
00035c74 g     O .rwdata	0000000c __lc_ctype
00035ecc g     O .rwdata	00000004 alt_max_fd
00032014 g     F .text	00000104 __unpack_d
000233e4 g     F .text	0000013c _fclose_r
0002371c g     F .text	00000030 fflush
00036a4c g     O .bss	00000004 __malloc_max_sbrked_mem
000344e4 g     O .rodata	0000026f full_jpeg_headers_template
0003131c g     F .text	00000054 __adddf3
0002c260 g     F .text	00000148 __b2d
0003089c g     F .text	00000628 __umoddi3
000326e8 g     F .text	000000d4 lseek
00035ea4 g     O .rwdata	00000004 _global_impure_ptr
0002c770 g     F .text	000005fc _realloc_r
00038b5c g       *ABS*	00000000 __bss_end
000388cb g     O .bss	00000100 __hexdig
0003024c g     F .text	00000650 __udivdi3
00035268 g     O .rodata	00000028 __mprec_bigtens
0002b8c8 g     F .text	00000104 __s2b
00031ca8 g     F .text	0000011c __floatunsidf
0002c000 g     F .text	00000058 __mcmp
00035eb4 g     O .rwdata	00000004 __ctype_ptr
00023a08 g     F .text	00000018 __fp_lock_all
0002e900 g     F .text	00000024 strtol
000347d4 g     O .rodata	00000100 ZIGZAG
0003349c g     F .text	0000006c alt_hostfs_close
00035ca8 g     O .rwdata	00000028 alt_dev_null
00023260 g     F .text	000000c8 __unpack_f
00033958 g     F .text	0000001c alt_dcache_flush_all
0002b9cc g     F .text	00000068 __hi0bits
00031b74 g     F .text	000000d4 __fixdfsi
0002e54c g     F .text	0000001c strtod
00035f20 g       *ABS*	00000000 __ram_rwdata_end
00035ec4 g     O .rwdata	00000008 alt_dev_list
00032dd0 g     F .text	000000f0 write
00033308 g     F .text	00000028 alt_timestamp_freq
00025874 g     F .text	00000038 _rewind_r
00030f18 g     F .text	0000005c __gtsf2
0003540c g       *ABS*	00000000 __ram_rodata_end
00032408 g     F .text	000000b0 fstat
000321e8 g     F .text	00000044 __lshrdi3
00031a44 g     F .text	0000005c __ledf2
0002bd78 g     F .text	0000012c __pow5mult
00036a5c g     O .bss	00000004 __nlocale_changed
00022f48 g     F .text	00000008 __umodsi3
00038b5c g       *ABS*	00000000 end
00023134 g     F .text	0000012c __pack_f
000246dc g     F .text	00000024 fseek
00034380 g       *ABS*	00000000 __CTOR_LIST__
00039640 g       *ABS*	00000000 __alt_stack_pointer
00023088 g     F .text	000000ac __clzsi2
0003543c g     O .rwdata	00000018 chrominance_dc_code_table
00033158 g     F .text	00000098 altera_avalon_jtag_uart_write
000239f8 g     F .text	00000004 __sfp_lock_acquire
0002b430 g     F .text	000000f8 memchr
00025b24 g     F .text	00001e7c ___vfprintf_internal_r
0002ce9c g     F .text	00000058 _sprintf_r
00023f3c g     F .text	000002d0 _free_r
0002061c g     F .text	00000158 write_bits
000341a4 g     F .text	000001a0 __call_exitprocs
0003731c g     O .bss	000000c0 global_mcu_buffer
00036a58 g     O .bss	00000004 __mlocale_changed
00035eac g     O .rwdata	00000004 __malloc_sbrk_base
00020020 g     F .text	0000003c _start
0002e924 g     F .text	00000330 _strtoll_r
0002bea4 g     F .text	0000015c __lshift
00032b5c g     F .text	000000f4 read
00032f2c g     F .text	00000078 alt_sys_init
00022c04 g     F .text	000000a4 __floatsisf
00025500 g     F .text	0000006c _open_r
00034074 g     F .text	00000130 __register_exitproc
00020774 g     F .text	000000c4 huffman_flush
0002bb20 g     F .text	00000258 __multiply
00022f50 g     F .text	00000028 __mulsi3
0003540c g       *ABS*	00000000 __ram_rwdata_start
00034380 g       *ABS*	00000000 __ram_rodata_start
00036a74 g     O .bss	00000028 __malloc_current_mallinfo
00030ec4 g     F .text	00000054 __eqsf2
0002c3a8 g     F .text	00000144 __d2b
00036c9c g     O .bss	00000200 chrominance_ac_size_table
00032fa4 g     F .text	00000060 altera_avalon_jtag_uart_read_fd
0002ec54 g     F .text	000002a4 _strtoul_r
00033d44 g     F .text	000000d4 alt_get_fd
00032118 g     F .text	000000d0 __fpcmp_parts_d
0002932c g     F .text	00000064 _close_r
00033ff8 g     F .text	0000007c memcmp
00020da8 g     F .text	000000dc send_dqt_to_stage4
00038b5c g       *ABS*	00000000 __alt_stack_base
000248c8 g     F .text	000000b0 _fwrite_r
000291b8 g     F .text	00000174 __swsetup_r
000316b4 g     F .text	000001b4 __divdf3
000238fc g     F .text	000000fc __sfp
0002c604 g     F .text	0000007c __copybits
0003586c g     O .rwdata	00000408 __malloc_av_
00023a04 g     F .text	00000004 __sinit_lock_release
000313d0 g     F .text	000002e4 __muldf3
00025924 g     F .text	00000054 __sread
00034dc8 g     O .rodata	00000010 __thenan_sf
00023dc0 g     F .text	00000040 fread
00034753 g     O .rodata	00000040 q_table_luma
00033bac g     F .text	00000114 alt_find_file
000339c4 g     F .text	000000a0 alt_dev_llist_insert
00032834 g     F .text	00000020 __malloc_lock
00032cd0 g     F .text	000000b0 sbrk
00023534 g     F .text	000001e8 _fflush_r
0002f558 g     F .text	000000cc _calloc_r
00023b68 g     F .text	0000001c fopen
00036a34 g       *ABS*	00000000 __bss_start
00024248 g     F .text	00000020 _fscanf_r
00025424 g     F .text	000000dc memset
00021278 g     F .text	00000f54 main
00036a68 g     O .bss	00000004 alt_envp
00036a48 g     O .bss	00000004 __malloc_max_total_mem
00033004 g     F .text	00000060 altera_avalon_jtag_uart_write_fd
00030f74 g     F .text	00000054 __ltsf2
00023b84 g     F .text	0000023c _fread_r
000221fc g     F .text	00000080 fifo_read_block
00025a5c g     F .text	00000008 __sclose
00039640 g       *ABS*	00000000 __alt_heap_limit
00023520 g     F .text	00000014 fclose
0002e688 g     F .text	00000278 _strtol_r
00031c48 g     F .text	00000060 __truncdfsf2
000331f0 g     F .text	00000088 alt_timestamp_start
000389cc g     O .bss	00000190 _atexit0
000295cc g     F .text	0000161c _dtoa_r
00024b60 g     F .text	00000784 _malloc_r
00035ed0 g     O .rwdata	00000004 alt_errno
0002f2b0 g     F .text	000000f0 __submore
00024768 g     F .text	000000a8 _fwalk
00036a38 g     O .bss	00000004 bit_count
0002b3ec g     F .text	00000044 _mbtowc_r
00022e94 g     F .text	00000050 __divsi3
000353b8 g     O .rodata	00000014 __thenan_df
00023e00 g     F .text	0000013c _malloc_trim_r
00034380 g       *ABS*	00000000 __CTOR_END__
000228dc g     F .text	00000190 __mulsf3
0002cf60 g     F .text	000000a4 strcmp
00034380 g       *ABS*	00000000 __flash_rodata_start
00020c34 g     F .text	00000174 parse_image_header
00034380 g       *ABS*	00000000 __DTOR_LIST__
000318c4 g     F .text	0000005c __nedf2
00032ef8 g     F .text	00000034 alt_irq_init
00032c50 g     F .text	00000080 alt_release_fd
0002cef4 g     F .text	0000006c sprintf
00034dd8 g     O .rodata	00000100 __clz_tab
00036a54 g     O .bss	00000004 _PathLocale
0002e568 g     F .text	00000120 strtof
00033fac g     F .text	00000014 atexit
00022ba8 g     F .text	0000005c __gesf2
0002914c g     F .text	0000006c _write_r
00036a34 g     O .bss	00000004 bit_buffer
00020e84 g     F .text	00000124 send_dht_to_stage5
0002b2b4 g     F .text	0000001c setlocale
0002ce94 g     F .text	00000008 nanf
00035ea8 g     O .rwdata	00000004 _impure_ptr
00036a60 g     O .bss	00000004 alt_argc
0002b348 g     F .text	00000064 _mbrtowc_r
00036a6c g     O .bss	00000004 altera_avalon_timer_ts_base
00033ac0 g     F .text	0000005c _do_dtors
00024268 g     F .text	00000474 _fseek_r
00025688 g     F .text	000001ec __srefill_r
0002c200 g     F .text	00000060 __ulp
0002cd6c g     F .text	00000038 __isinfd
00023a20 g     F .text	00000018 __fp_unlock_all
00035ebc g     O .rwdata	00000008 alt_fs_list
000335c0 g     F .text	000000b8 alt_hostfs_write
00036a40 g     O .bss	00000004 has_odd_byte
00020020 g       *ABS*	00000000 __ram_exceptions_start
0002b2d0 g     F .text	0000000c localeconv
00033278 g     F .text	00000090 alt_timestamp
00024978 g     F .text	00000040 fwrite
0002f734 g     F .text	00000090 __hexdig_init
000373dc g     O .bss	00000c00 global_full_image_buffer
00035f20 g       *ABS*	00000000 _edata
00038b5c g       *ABS*	00000000 _end
00020020 g       *ABS*	00000000 __ram_exceptions_end
000290dc g     F .text	00000070 vfscanf
000258ac g     F .text	00000014 rewind
00025978 g     F .text	00000088 __swrite
00035eb0 g     O .rwdata	00000004 __malloc_trim_threshold
00036e9c g     O .bss	00000200 luminance_ac_size_table
00033f8c g     F .text	00000020 altera_nios2_qsys_irq_init
00033fc0 g     F .text	00000038 exit
00024810 g     F .text	000000b8 _fwalk_reent
00022d4c g     F .text	000000d4 __floatunsisf
0002c058 g     F .text	000001a8 __mdiff
00022ee4 g     F .text	0000005c __modsi3
00039640 g       *ABS*	00000000 __alt_data_end
000239fc g     F .text	00000004 __sfp_lock_release
0002cdd0 g     F .text	000000c4 __sccl
00034f6c g     O .rodata	00000101 _ctype_
0002005c g     F .text	00000288 encode_mcu_row
000225d4 g     F .text	00000070 __fixunssfsi
00023328 g     F .text	000000bc __fpcmp_parts_f
00023a38 g     F .text	00000130 _fopen_r
00034344 g     F .text	0000003c _exit
0002cda4 g     F .text	0000002c __isnand
00035454 g     O .rwdata	00000018 chrominance_dc_size_table
00037fdc g     O .bss	00000600 global_strip_buffer
00022f78 g     F .text	00000110 __muldi3
000249b8 g     F .text	000001a8 __smakebuf_r
00025a64 g     F .text	0000008c strlen
000329b4 g     F .text	00000158 open
00031984 g     F .text	00000064 __gedf2
0002f7c4 g     F .text	00000778 __gethex
00033e18 g     F .text	0000001c alt_icache_flush_all
000385dc g     O .bss	0000026f global_dynamic_header
0003709c g     O .bss	00000200 luminance_ac_code_table
000279a0 g     F .text	00000024 __vfprintf_internal
00034793 g     O .rodata	00000040 q_table_chroma
00031370 g     F .text	00000060 __subdf3
0002ba34 g     F .text	000000b0 __lo0bits
000279c4 g     F .text	000016a8 __svfscanf_r
0002f3a0 g     F .text	0000019c _ungetc_r
00033a64 g     F .text	0000005c _do_ctors
00035424 g     O .rwdata	00000018 luminance_dc_size_table
0003884b g     O .bss	00000080 global_row_data
000322c0 g     F .text	000000cc close
00022838 g     F .text	0000004c __addsf3
00032618 g     F .text	00000080 alt_load
00031df0 g     F .text	00000224 __pack_d
0002106c g     F .text	0000020c send_dynamic_header
00000000  w      *UND*	00000000 free
00023a00 g     F .text	00000004 __sinit_lock_acquire
0002b784 g     F .text	00000144 __multadd
0002b75c g     F .text	00000028 _Bfree
00033730 g     F .text	00000228 alt_hostfs_fstat



Disassembly of section .entry:

00020000 <__reset>:
 * Jump to the _start entry point in the .text section if reset code
 * is allowed or if optimizing for RTL simulation.
 */
#if defined(ALT_ALLOW_CODE_AT_RESET) || defined(ALT_SIM_OPTIMIZE)
    /* Jump to the _start entry point in the .text section. */
    movhi r1, %hi(_start)
   20000:	004000b4 	movhi	at,2
    ori r1, r1, %lo(_start)
   20004:	08400814 	ori	at,at,32
    jmp r1
   20008:	0800683a 	jmp	at
	...

Disassembly of section .text:

00020020 <_start>:

    /*
     * Now that the caches are initialized, set up the stack pointer and global pointer.
     * The values provided by the linker are assumed to be correctly aligned.
     */
    movhi sp, %hi(__alt_stack_pointer)
   20020:	06c000f4 	movhi	sp,3
    ori sp, sp, %lo(__alt_stack_pointer)
   20024:	dee59014 	ori	sp,sp,38464
    movhi gp, %hi(_gp)
   20028:	068000f4 	movhi	gp,3
    ori gp, gp, %lo(_gp)
   2002c:	d6b7a914 	ori	gp,gp,56996
 */
#ifndef ALT_SIM_OPTIMIZE
    /* Log that the BSS is about to be cleared. */
    ALT_LOG_PUTS(alt_log_msg_bss)

    movhi r2, %hi(__bss_start)
   20030:	008000f4 	movhi	r2,3
    ori r2, r2, %lo(__bss_start)
   20034:	109a8d14 	ori	r2,r2,27188

    movhi r3, %hi(__bss_end)
   20038:	00c000f4 	movhi	r3,3
    ori r3, r3, %lo(__bss_end)
   2003c:	18e2d714 	ori	r3,r3,35676

    beq r2, r3, 1f
   20040:	10c00326 	beq	r2,r3,20050 <_start+0x30>

0:
    stw zero, (r2)
   20044:	10000015 	stw	zero,0(r2)
    addi r2, r2, 4
   20048:	10800104 	addi	r2,r2,4
    bltu r2, r3, 0b
   2004c:	10fffd36 	bltu	r2,r3,20044 <_start+0x24>
     * section aren't defined until alt_load() has been called).
     */
    mov   et, zero
#endif

    call alt_load
   20050:	00326180 	call	32618 <alt_load>

    /* Log that alt_main is about to be called. */
    ALT_LOG_PUTS(alt_log_msg_alt_main)

    /* Call the C entry point. It should never return. */
    call alt_main
   20054:	00327bc0 	call	327bc <alt_main>

00020058 <alt_after_alt_main>:

    /* Wait in infinite loop in case alt_main does return. */
alt_after_alt_main:
    br alt_after_alt_main
   20058:	003fff06 	br	20058 <alt_after_alt_main>

0002005c <encode_mcu_row>:
#include "system.h"
#include "encoder.h"
#include "nios2_common/fifo_io.h"

void encode_mcu_row(UINT8 *strip_buffer, int width, int mcus_x, unsigned int fifo_base, unsigned int fifo_csr, FILE *f_stage1) {
   2005c:	deff9104 	addi	sp,sp,-444
   20060:	dfc06e15 	stw	ra,440(sp)
   20064:	df006d15 	stw	fp,436(sp)
   20068:	df006d04 	addi	fp,sp,436
   2006c:	e13ffc15 	stw	r4,-16(fp)
   20070:	e17ffd15 	stw	r5,-12(fp)
   20074:	e1bffe15 	stw	r6,-8(fp)
   20078:	e1ffff15 	stw	r7,-4(fp)
    INT16 Y_block[64], Cb_block[64], Cr_block[64];
    int col, x, y;

    for (col = 0; col < mcus_x; col++) {
   2007c:	e03f9315 	stw	zero,-436(fp)
   20080:	00009006 	br	202c4 <encode_mcu_row+0x268>

        // 1. Safely extract the 8x8 block from our tiny strip buffer
        for (y = 0; y < 8; y++) {
   20084:	e03f9515 	stw	zero,-428(fp)
   20088:	00006206 	br	20214 <encode_mcu_row+0x1b8>
            for (x = 0; x < 8; x++) {
   2008c:	e03f9415 	stw	zero,-432(fp)
   20090:	00005a06 	br	201fc <encode_mcu_row+0x1a0>
                int global_x = (col * 8) + x;
   20094:	e0bf9317 	ldw	r2,-436(fp)
   20098:	100690fa 	slli	r3,r2,3
   2009c:	e0bf9417 	ldw	r2,-432(fp)
   200a0:	1885883a 	add	r2,r3,r2
   200a4:	e0bf9615 	stw	r2,-424(fp)

                // Clamp to the edge if the image width isn't a perfect multiple of 8
                if (global_x >= width) {
   200a8:	e0ff9617 	ldw	r3,-424(fp)
   200ac:	e0bffd17 	ldw	r2,-12(fp)
   200b0:	18800316 	blt	r3,r2,200c0 <encode_mcu_row+0x64>
                    global_x = width - 1;
   200b4:	e0bffd17 	ldw	r2,-12(fp)
   200b8:	10bfffc4 	addi	r2,r2,-1
   200bc:	e0bf9615 	stw	r2,-424(fp)
                }

                // Since our buffer is only 8 rows tall, 'y' is our exact row index!
                int pixel_idx = (y * width + global_x) * 3;
   200c0:	e13f9517 	ldw	r4,-428(fp)
   200c4:	e17ffd17 	ldw	r5,-12(fp)
   200c8:	0022f500 	call	22f50 <__mulsi3>
   200cc:	1007883a 	mov	r3,r2
   200d0:	e0bf9617 	ldw	r2,-424(fp)
   200d4:	1887883a 	add	r3,r3,r2
   200d8:	1805883a 	mov	r2,r3
   200dc:	1085883a 	add	r2,r2,r2
   200e0:	10c5883a 	add	r2,r2,r3
   200e4:	e0bf9715 	stw	r2,-420(fp)

                INT16 R = strip_buffer[pixel_idx];
   200e8:	e0bf9717 	ldw	r2,-420(fp)
   200ec:	e0fffc17 	ldw	r3,-16(fp)
   200f0:	1885883a 	add	r2,r3,r2
   200f4:	10800003 	ldbu	r2,0(r2)
   200f8:	10803fcc 	andi	r2,r2,255
   200fc:	e0bf980d 	sth	r2,-416(fp)
                INT16 G = strip_buffer[pixel_idx + 1];
   20100:	e0bf9717 	ldw	r2,-420(fp)
   20104:	10800044 	addi	r2,r2,1
   20108:	e0fffc17 	ldw	r3,-16(fp)
   2010c:	1885883a 	add	r2,r3,r2
   20110:	10800003 	ldbu	r2,0(r2)
   20114:	10803fcc 	andi	r2,r2,255
   20118:	e0bf988d 	sth	r2,-414(fp)
                INT16 B = strip_buffer[pixel_idx + 2];
   2011c:	e0bf9717 	ldw	r2,-420(fp)
   20120:	10800084 	addi	r2,r2,2
   20124:	e0fffc17 	ldw	r3,-16(fp)
   20128:	1885883a 	add	r2,r3,r2
   2012c:	10800003 	ldbu	r2,0(r2)
   20130:	10803fcc 	andi	r2,r2,255
   20134:	e0bf990d 	sth	r2,-412(fp)
//                Cb_block[y * 8 + x] = (INT16)Cb_val;
//                Cr_block[y * 8 + x] = (INT16)Cr_val;


//                // 2. Hardware Accelerated RGB to YCbCr
                UINT32 packed_rgb = (R << 16) | (G << 8) | B;
   20138:	e0bf980f 	ldh	r2,-416(fp)
   2013c:	1006943a 	slli	r3,r2,16
   20140:	e0bf988f 	ldh	r2,-414(fp)
   20144:	1004923a 	slli	r2,r2,8
   20148:	1886b03a 	or	r3,r3,r2
   2014c:	e0bf990f 	ldh	r2,-412(fp)
   20150:	1884b03a 	or	r2,r3,r2
   20154:	e0bf9a15 	stw	r2,-408(fp)

                // Call the hardware
                UINT32 packed_ycbcr = ALT_CI_RGB_TO_YCBCR_CI_0(packed_rgb);
   20158:	e0bf9a17 	ldw	r2,-408(fp)
   2015c:	1005c032 	custom	0,r2,r2,zero
   20160:	e0bf9b15 	stw	r2,-404(fp)

                // Unpack the results
                Y_block[y * 8 + x]  = (INT16)((packed_ycbcr >> 16) & 0xFF);
   20164:	e0bf9517 	ldw	r2,-428(fp)
   20168:	100690fa 	slli	r3,r2,3
   2016c:	e0bf9417 	ldw	r2,-432(fp)
   20170:	1885883a 	add	r2,r3,r2
   20174:	e0ff9b17 	ldw	r3,-404(fp)
   20178:	1806d43a 	srli	r3,r3,16
   2017c:	18c03fcc 	andi	r3,r3,255
   20180:	1085883a 	add	r2,r2,r2
   20184:	e13f9304 	addi	r4,fp,-436
   20188:	2085883a 	add	r2,r4,r2
   2018c:	10800904 	addi	r2,r2,36
   20190:	10c0000d 	sth	r3,0(r2)
                Cb_block[y * 8 + x] = (INT16)((packed_ycbcr >> 8) & 0xFF);
   20194:	e0bf9517 	ldw	r2,-428(fp)
   20198:	100690fa 	slli	r3,r2,3
   2019c:	e0bf9417 	ldw	r2,-432(fp)
   201a0:	1885883a 	add	r2,r3,r2
   201a4:	e0ff9b17 	ldw	r3,-404(fp)
   201a8:	1806d23a 	srli	r3,r3,8
   201ac:	18c03fcc 	andi	r3,r3,255
   201b0:	1085883a 	add	r2,r2,r2
   201b4:	e13f9304 	addi	r4,fp,-436
   201b8:	2085883a 	add	r2,r4,r2
   201bc:	10802904 	addi	r2,r2,164
   201c0:	10c0000d 	sth	r3,0(r2)
                Cr_block[y * 8 + x] = (INT16)(packed_ycbcr & 0xFF);
   201c4:	e0bf9517 	ldw	r2,-428(fp)
   201c8:	100690fa 	slli	r3,r2,3
   201cc:	e0bf9417 	ldw	r2,-432(fp)
   201d0:	1885883a 	add	r2,r3,r2
   201d4:	e0ff9b17 	ldw	r3,-404(fp)
   201d8:	18c03fcc 	andi	r3,r3,255
   201dc:	1085883a 	add	r2,r2,r2
   201e0:	e13f9304 	addi	r4,fp,-436
   201e4:	2085883a 	add	r2,r4,r2
   201e8:	10804904 	addi	r2,r2,292
   201ec:	10c0000d 	sth	r3,0(r2)

    for (col = 0; col < mcus_x; col++) {

        // 1. Safely extract the 8x8 block from our tiny strip buffer
        for (y = 0; y < 8; y++) {
            for (x = 0; x < 8; x++) {
   201f0:	e0bf9417 	ldw	r2,-432(fp)
   201f4:	10800044 	addi	r2,r2,1
   201f8:	e0bf9415 	stw	r2,-432(fp)
   201fc:	e0bf9417 	ldw	r2,-432(fp)
   20200:	10800210 	cmplti	r2,r2,8
   20204:	103fa31e 	bne	r2,zero,20094 <encode_mcu_row+0x38>
    int col, x, y;

    for (col = 0; col < mcus_x; col++) {

        // 1. Safely extract the 8x8 block from our tiny strip buffer
        for (y = 0; y < 8; y++) {
   20208:	e0bf9517 	ldw	r2,-428(fp)
   2020c:	10800044 	addi	r2,r2,1
   20210:	e0bf9515 	stw	r2,-428(fp)
   20214:	e0bf9517 	ldw	r2,-428(fp)
   20218:	10800210 	cmplti	r2,r2,8
   2021c:	103f9b1e 	bne	r2,zero,2008c <encode_mcu_row+0x30>
                Cr_block[y * 8 + x] = (INT16)(packed_ycbcr & 0xFF);
            }
        }

        // Dump Stage 1 MCU to host for comparison (if file is open)
        if (f_stage1) {
   20220:	e0800317 	ldw	r2,12(fp)
   20224:	10001226 	beq	r2,zero,20270 <encode_mcu_row+0x214>
            fwrite(Y_block, sizeof(INT16), 64, f_stage1);
   20228:	e0bf9c04 	addi	r2,fp,-400
   2022c:	1009883a 	mov	r4,r2
   20230:	01400084 	movi	r5,2
   20234:	01801004 	movi	r6,64
   20238:	e1c00317 	ldw	r7,12(fp)
   2023c:	00249780 	call	24978 <fwrite>
            fwrite(Cb_block, sizeof(INT16), 64, f_stage1);
   20240:	e0bfbc04 	addi	r2,fp,-272
   20244:	1009883a 	mov	r4,r2
   20248:	01400084 	movi	r5,2
   2024c:	01801004 	movi	r6,64
   20250:	e1c00317 	ldw	r7,12(fp)
   20254:	00249780 	call	24978 <fwrite>
            fwrite(Cr_block, sizeof(INT16), 64, f_stage1);
   20258:	e0bfdc04 	addi	r2,fp,-144
   2025c:	1009883a 	mov	r4,r2
   20260:	01400084 	movi	r5,2
   20264:	01801004 	movi	r6,64
   20268:	e1c00317 	ldw	r7,12(fp)
   2026c:	00249780 	call	24978 <fwrite>
        }

        // 3. Push Block to Hardware FIFO (Stage 2)
        fifo_write_block(fifo_base, fifo_csr, Y_block, 64);
   20270:	e0bf9c04 	addi	r2,fp,-400
   20274:	e13fff17 	ldw	r4,-4(fp)
   20278:	e1400217 	ldw	r5,8(fp)
   2027c:	100d883a 	mov	r6,r2
   20280:	01c01004 	movi	r7,64
   20284:	002227c0 	call	2227c <fifo_write_block>
        fifo_write_block(fifo_base, fifo_csr, Cb_block, 64);
   20288:	e0bfbc04 	addi	r2,fp,-272
   2028c:	e13fff17 	ldw	r4,-4(fp)
   20290:	e1400217 	ldw	r5,8(fp)
   20294:	100d883a 	mov	r6,r2
   20298:	01c01004 	movi	r7,64
   2029c:	002227c0 	call	2227c <fifo_write_block>
        fifo_write_block(fifo_base, fifo_csr, Cr_block, 64);
   202a0:	e0bfdc04 	addi	r2,fp,-144
   202a4:	e13fff17 	ldw	r4,-4(fp)
   202a8:	e1400217 	ldw	r5,8(fp)
   202ac:	100d883a 	mov	r6,r2
   202b0:	01c01004 	movi	r7,64
   202b4:	002227c0 	call	2227c <fifo_write_block>

void encode_mcu_row(UINT8 *strip_buffer, int width, int mcus_x, unsigned int fifo_base, unsigned int fifo_csr, FILE *f_stage1) {
    INT16 Y_block[64], Cb_block[64], Cr_block[64];
    int col, x, y;

    for (col = 0; col < mcus_x; col++) {
   202b8:	e0bf9317 	ldw	r2,-436(fp)
   202bc:	10800044 	addi	r2,r2,1
   202c0:	e0bf9315 	stw	r2,-436(fp)
   202c4:	e0ff9317 	ldw	r3,-436(fp)
   202c8:	e0bffe17 	ldw	r2,-8(fp)
   202cc:	18bf6d16 	blt	r3,r2,20084 <encode_mcu_row+0x28>
        // 3. Push Block to Hardware FIFO (Stage 2)
        fifo_write_block(fifo_base, fifo_csr, Y_block, 64);
        fifo_write_block(fifo_base, fifo_csr, Cb_block, 64);
        fifo_write_block(fifo_base, fifo_csr, Cr_block, 64);
    }
}
   202d0:	e037883a 	mov	sp,fp
   202d4:	dfc00117 	ldw	ra,4(sp)
   202d8:	df000017 	ldw	fp,0(sp)
   202dc:	dec00204 	addi	sp,sp,8
   202e0:	f800283a 	ret

000202e4 <init_chroma_ac_tables>:
UINT16 luminance_ac_code_table[256];
UINT16 luminance_ac_size_table[256];
UINT16 chrominance_ac_code_table[256];
UINT16 chrominance_ac_size_table[256];

void init_chroma_ac_tables() {
   202e4:	deffa004 	addi	sp,sp,-384
   202e8:	dfc05f15 	stw	ra,380(sp)
   202ec:	df005e15 	stw	fp,376(sp)
   202f0:	df005e04 	addi	fp,sp,376
    int k;
    for(k = 0; k < 256; k++) {
   202f4:	e03fa215 	stw	zero,-376(fp)
   202f8:	00001b06 	br	20368 <init_chroma_ac_tables+0x84>
        luminance_ac_code_table[k] = 0;
   202fc:	00c000f4 	movhi	r3,3
   20300:	18dc2704 	addi	r3,r3,28828
   20304:	e0bfa217 	ldw	r2,-376(fp)
   20308:	1085883a 	add	r2,r2,r2
   2030c:	1885883a 	add	r2,r3,r2
   20310:	1000000d 	sth	zero,0(r2)
        luminance_ac_size_table[k] = 0;
   20314:	00c000f4 	movhi	r3,3
   20318:	18dba704 	addi	r3,r3,28316
   2031c:	e0bfa217 	ldw	r2,-376(fp)
   20320:	1085883a 	add	r2,r2,r2
   20324:	1885883a 	add	r2,r3,r2
   20328:	1000000d 	sth	zero,0(r2)
        chrominance_ac_code_table[k] = 0;
   2032c:	00c000f4 	movhi	r3,3
   20330:	18daa704 	addi	r3,r3,27292
   20334:	e0bfa217 	ldw	r2,-376(fp)
   20338:	1085883a 	add	r2,r2,r2
   2033c:	1885883a 	add	r2,r3,r2
   20340:	1000000d 	sth	zero,0(r2)
        chrominance_ac_size_table[k] = 0;
   20344:	00c000f4 	movhi	r3,3
   20348:	18db2704 	addi	r3,r3,27804
   2034c:	e0bfa217 	ldw	r2,-376(fp)
   20350:	1085883a 	add	r2,r2,r2
   20354:	1885883a 	add	r2,r3,r2
   20358:	1000000d 	sth	zero,0(r2)
UINT16 chrominance_ac_code_table[256];
UINT16 chrominance_ac_size_table[256];

void init_chroma_ac_tables() {
    int k;
    for(k = 0; k < 256; k++) {
   2035c:	e0bfa217 	ldw	r2,-376(fp)
   20360:	10800044 	addi	r2,r2,1
   20364:	e0bfa215 	stw	r2,-376(fp)
   20368:	e0bfa217 	ldw	r2,-376(fp)
   2036c:	10804010 	cmplti	r2,r2,256
   20370:	103fe21e 	bne	r2,zero,202fc <init_chroma_ac_tables+0x18>
        chrominance_ac_code_table[k] = 0;
        chrominance_ac_size_table[k] = 0;
    }

    // --- GENERATE LUMA AC DICTIONARY ---
    UINT8 luma_len[16] = {0, 2, 1, 3, 3, 2, 4, 3, 5, 5, 4, 4, 0, 0, 1, 0x7D};
   20374:	008000f4 	movhi	r2,3
   20378:	1090e004 	addi	r2,r2,17280
   2037c:	e13fa704 	addi	r4,fp,-356
   20380:	1007883a 	mov	r3,r2
   20384:	00800404 	movi	r2,16
   20388:	180b883a 	mov	r5,r3
   2038c:	100d883a 	mov	r6,r2
   20390:	00252e40 	call	252e4 <memcpy>
    UINT8 luma_sym[162] = {
   20394:	008000f4 	movhi	r2,3
   20398:	1090e404 	addi	r2,r2,17296
   2039c:	e13fab04 	addi	r4,fp,-340
   203a0:	1007883a 	mov	r3,r2
   203a4:	00802884 	movi	r2,162
   203a8:	180b883a 	mov	r5,r3
   203ac:	100d883a 	mov	r6,r2
   203b0:	00252e40 	call	252e4 <memcpy>
        0xC6, 0xC7, 0xC8, 0xC9, 0xCA, 0xD2, 0xD3, 0xD4, 0xD5, 0xD6, 0xD7, 0xD8, 0xD9, 0xDA, 0xE1, 0xE2,
        0xE3, 0xE4, 0xE5, 0xE6, 0xE7, 0xE8, 0xE9, 0xEA, 0xF1, 0xF2, 0xF3, 0xF4, 0xF5, 0xF6, 0xF7, 0xF8,
        0xF9, 0xFA
    };

    int p = 0, l, i;
   203b4:	e03fa315 	stw	zero,-372(fp)
    UINT16 code = 0;
   203b8:	e03fa60d 	sth	zero,-360(fp)
    for (l = 1; l <= 16; l++) {
   203bc:	00800044 	movi	r2,1
   203c0:	e0bfa415 	stw	r2,-368(fp)
   203c4:	00002c06 	br	20478 <init_chroma_ac_tables+0x194>
        for (i = 0; i < luma_len[l-1]; i++) {
   203c8:	e03fa515 	stw	zero,-364(fp)
   203cc:	00001c06 	br	20440 <init_chroma_ac_tables+0x15c>
            UINT8 sym = luma_sym[p++];
   203d0:	e0ffab04 	addi	r3,fp,-340
   203d4:	e0bfa317 	ldw	r2,-372(fp)
   203d8:	1885883a 	add	r2,r3,r2
   203dc:	10800003 	ldbu	r2,0(r2)
   203e0:	e0bfa685 	stb	r2,-358(fp)
   203e4:	e0bfa317 	ldw	r2,-372(fp)
   203e8:	10800044 	addi	r2,r2,1
   203ec:	e0bfa315 	stw	r2,-372(fp)
            luminance_ac_code_table[sym] = code;
   203f0:	e0bfa683 	ldbu	r2,-358(fp)
   203f4:	00c000f4 	movhi	r3,3
   203f8:	18dc2704 	addi	r3,r3,28828
   203fc:	1085883a 	add	r2,r2,r2
   20400:	1885883a 	add	r2,r3,r2
   20404:	e0ffa60b 	ldhu	r3,-360(fp)
   20408:	10c0000d 	sth	r3,0(r2)
            luminance_ac_size_table[sym] = (UINT16)l;
   2040c:	e0bfa683 	ldbu	r2,-358(fp)
   20410:	e0ffa417 	ldw	r3,-368(fp)
   20414:	010000f4 	movhi	r4,3
   20418:	211ba704 	addi	r4,r4,28316
   2041c:	1085883a 	add	r2,r2,r2
   20420:	2085883a 	add	r2,r4,r2
   20424:	10c0000d 	sth	r3,0(r2)
            code++;
   20428:	e0bfa60b 	ldhu	r2,-360(fp)
   2042c:	10800044 	addi	r2,r2,1
   20430:	e0bfa60d 	sth	r2,-360(fp)
    };

    int p = 0, l, i;
    UINT16 code = 0;
    for (l = 1; l <= 16; l++) {
        for (i = 0; i < luma_len[l-1]; i++) {
   20434:	e0bfa517 	ldw	r2,-364(fp)
   20438:	10800044 	addi	r2,r2,1
   2043c:	e0bfa515 	stw	r2,-364(fp)
   20440:	e0bfa417 	ldw	r2,-368(fp)
   20444:	10bfffc4 	addi	r2,r2,-1
   20448:	e0ffa704 	addi	r3,fp,-356
   2044c:	1885883a 	add	r2,r3,r2
   20450:	10800003 	ldbu	r2,0(r2)
   20454:	10803fcc 	andi	r2,r2,255
   20458:	e0ffa517 	ldw	r3,-364(fp)
   2045c:	18bfdc16 	blt	r3,r2,203d0 <init_chroma_ac_tables+0xec>
            UINT8 sym = luma_sym[p++];
            luminance_ac_code_table[sym] = code;
            luminance_ac_size_table[sym] = (UINT16)l;
            code++;
        }
        code <<= 1;
   20460:	e0bfa60b 	ldhu	r2,-360(fp)
   20464:	1085883a 	add	r2,r2,r2
   20468:	e0bfa60d 	sth	r2,-360(fp)
        0xF9, 0xFA
    };

    int p = 0, l, i;
    UINT16 code = 0;
    for (l = 1; l <= 16; l++) {
   2046c:	e0bfa417 	ldw	r2,-368(fp)
   20470:	10800044 	addi	r2,r2,1
   20474:	e0bfa415 	stw	r2,-368(fp)
   20478:	e0bfa417 	ldw	r2,-368(fp)
   2047c:	10800450 	cmplti	r2,r2,17
   20480:	103fd11e 	bne	r2,zero,203c8 <init_chroma_ac_tables+0xe4>
        }
        code <<= 1;
    }

    // --- GENERATE CHROMA AC DICTIONARY ---
    UINT8 chroma_len[16] = {0, 2, 1, 2, 4, 4, 3, 4, 7, 5, 4, 4, 0, 1, 2, 0x77};
   20484:	008000f4 	movhi	r2,3
   20488:	10910c84 	addi	r2,r2,17458
   2048c:	e13fd384 	addi	r4,fp,-178
   20490:	1007883a 	mov	r3,r2
   20494:	00800404 	movi	r2,16
   20498:	180b883a 	mov	r5,r3
   2049c:	100d883a 	mov	r6,r2
   204a0:	00252e40 	call	252e4 <memcpy>
    UINT8 chroma_sym[162] = {
   204a4:	008000f4 	movhi	r2,3
   204a8:	10911084 	addi	r2,r2,17474
   204ac:	e13fd784 	addi	r4,fp,-162
   204b0:	1007883a 	mov	r3,r2
   204b4:	00802884 	movi	r2,162
   204b8:	180b883a 	mov	r5,r3
   204bc:	100d883a 	mov	r6,r2
   204c0:	00252e40 	call	252e4 <memcpy>
        0xC4, 0xC5, 0xC6, 0xC7, 0xC8, 0xC9, 0xCA, 0xD2, 0xD3, 0xD4, 0xD5, 0xD6, 0xD7, 0xD8, 0xD9, 0xDA,
        0xE2, 0xE3, 0xE4, 0xE5, 0xE6, 0xE7, 0xE8, 0xE9, 0xEA, 0xF2, 0xF3, 0xF4, 0xF5, 0xF6, 0xF7, 0xF8,
        0xF9, 0xFA
    };

    p = 0;
   204c4:	e03fa315 	stw	zero,-372(fp)
    code = 0;
   204c8:	e03fa60d 	sth	zero,-360(fp)
    for (l = 1; l <= 16; l++) {
   204cc:	00800044 	movi	r2,1
   204d0:	e0bfa415 	stw	r2,-368(fp)
   204d4:	00002c06 	br	20588 <init_chroma_ac_tables+0x2a4>
        for (i = 0; i < chroma_len[l-1]; i++) {
   204d8:	e03fa515 	stw	zero,-364(fp)
   204dc:	00001c06 	br	20550 <init_chroma_ac_tables+0x26c>
            UINT8 sym = chroma_sym[p++];
   204e0:	e0ffd784 	addi	r3,fp,-162
   204e4:	e0bfa317 	ldw	r2,-372(fp)
   204e8:	1885883a 	add	r2,r3,r2
   204ec:	10800003 	ldbu	r2,0(r2)
   204f0:	e0bfa6c5 	stb	r2,-357(fp)
   204f4:	e0bfa317 	ldw	r2,-372(fp)
   204f8:	10800044 	addi	r2,r2,1
   204fc:	e0bfa315 	stw	r2,-372(fp)
            chrominance_ac_code_table[sym] = code;
   20500:	e0bfa6c3 	ldbu	r2,-357(fp)
   20504:	00c000f4 	movhi	r3,3
   20508:	18daa704 	addi	r3,r3,27292
   2050c:	1085883a 	add	r2,r2,r2
   20510:	1885883a 	add	r2,r3,r2
   20514:	e0ffa60b 	ldhu	r3,-360(fp)
   20518:	10c0000d 	sth	r3,0(r2)
            chrominance_ac_size_table[sym] = (UINT16)l;
   2051c:	e0bfa6c3 	ldbu	r2,-357(fp)
   20520:	e0ffa417 	ldw	r3,-368(fp)
   20524:	010000f4 	movhi	r4,3
   20528:	211b2704 	addi	r4,r4,27804
   2052c:	1085883a 	add	r2,r2,r2
   20530:	2085883a 	add	r2,r4,r2
   20534:	10c0000d 	sth	r3,0(r2)
            code++;
   20538:	e0bfa60b 	ldhu	r2,-360(fp)
   2053c:	10800044 	addi	r2,r2,1
   20540:	e0bfa60d 	sth	r2,-360(fp)
    };

    p = 0;
    code = 0;
    for (l = 1; l <= 16; l++) {
        for (i = 0; i < chroma_len[l-1]; i++) {
   20544:	e0bfa517 	ldw	r2,-364(fp)
   20548:	10800044 	addi	r2,r2,1
   2054c:	e0bfa515 	stw	r2,-364(fp)
   20550:	e0bfa417 	ldw	r2,-368(fp)
   20554:	10bfffc4 	addi	r2,r2,-1
   20558:	e0ffd384 	addi	r3,fp,-178
   2055c:	1885883a 	add	r2,r3,r2
   20560:	10800003 	ldbu	r2,0(r2)
   20564:	10803fcc 	andi	r2,r2,255
   20568:	e0ffa517 	ldw	r3,-364(fp)
   2056c:	18bfdc16 	blt	r3,r2,204e0 <init_chroma_ac_tables+0x1fc>
            UINT8 sym = chroma_sym[p++];
            chrominance_ac_code_table[sym] = code;
            chrominance_ac_size_table[sym] = (UINT16)l;
            code++;
        }
        code <<= 1;
   20570:	e0bfa60b 	ldhu	r2,-360(fp)
   20574:	1085883a 	add	r2,r2,r2
   20578:	e0bfa60d 	sth	r2,-360(fp)
        0xF9, 0xFA
    };

    p = 0;
    code = 0;
    for (l = 1; l <= 16; l++) {
   2057c:	e0bfa417 	ldw	r2,-368(fp)
   20580:	10800044 	addi	r2,r2,1
   20584:	e0bfa415 	stw	r2,-368(fp)
   20588:	e0bfa417 	ldw	r2,-368(fp)
   2058c:	10800450 	cmplti	r2,r2,17
   20590:	103fd11e 	bne	r2,zero,204d8 <init_chroma_ac_tables+0x1f4>
            chrominance_ac_size_table[sym] = (UINT16)l;
            code++;
        }
        code <<= 1;
    }
}
   20594:	e037883a 	mov	sp,fp
   20598:	dfc00117 	ldw	ra,4(sp)
   2059c:	df000017 	ldw	fp,0(sp)
   205a0:	dec00204 	addi	sp,sp,8
   205a4:	f800283a 	ret

000205a8 <get_vli_size>:
int bit_count = 0;
UINT8 byte_buffer = 0;
int has_odd_byte = 0;

// Calculates the bit-size (category) of a value for JPEG VLI encoding
static int get_vli_size(INT16 val) {
   205a8:	defffd04 	addi	sp,sp,-12
   205ac:	df000215 	stw	fp,8(sp)
   205b0:	df000204 	addi	fp,sp,8
   205b4:	2005883a 	mov	r2,r4
   205b8:	e0bfff0d 	sth	r2,-4(fp)
    if (val == 0) return 0;
   205bc:	e0bfff0f 	ldh	r2,-4(fp)
   205c0:	1000021e 	bne	r2,zero,205cc <get_vli_size+0x24>
   205c4:	0005883a 	mov	r2,zero
   205c8:	00001006 	br	2060c <get_vli_size+0x64>
    if (val < 0) val = -val; // absolute value
   205cc:	e0bfff0f 	ldh	r2,-4(fp)
   205d0:	1000030e 	bge	r2,zero,205e0 <get_vli_size+0x38>
   205d4:	e0bfff0b 	ldhu	r2,-4(fp)
   205d8:	0085c83a 	sub	r2,zero,r2
   205dc:	e0bfff0d 	sth	r2,-4(fp)
    int size = 0;
   205e0:	e03ffe15 	stw	zero,-8(fp)
    while (val > 0) {
   205e4:	00000606 	br	20600 <get_vli_size+0x58>
        size++;
   205e8:	e0bffe17 	ldw	r2,-8(fp)
   205ec:	10800044 	addi	r2,r2,1
   205f0:	e0bffe15 	stw	r2,-8(fp)
        val >>= 1;
   205f4:	e0bfff0f 	ldh	r2,-4(fp)
   205f8:	1005d07a 	srai	r2,r2,1
   205fc:	e0bfff0d 	sth	r2,-4(fp)
// Calculates the bit-size (category) of a value for JPEG VLI encoding
static int get_vli_size(INT16 val) {
    if (val == 0) return 0;
    if (val < 0) val = -val; // absolute value
    int size = 0;
    while (val > 0) {
   20600:	e0bfff0f 	ldh	r2,-4(fp)
   20604:	00bff816 	blt	zero,r2,205e8 <get_vli_size+0x40>
        size++;
        val >>= 1;
    }
    return size;
   20608:	e0bffe17 	ldw	r2,-8(fp)
}
   2060c:	e037883a 	mov	sp,fp
   20610:	df000017 	ldw	fp,0(sp)
   20614:	dec00104 	addi	sp,sp,4
   20618:	f800283a 	ret

0002061c <write_bits>:

// Writes bits, packs them into bytes, applies 0xFF byte stuffing,
// and bundles them into 16-bit words for the hardware FIFO.
int write_bits(UINT16 code, int size, INT16 *out_buffer) {
   2061c:	defffa04 	addi	sp,sp,-24
   20620:	df000515 	stw	fp,20(sp)
   20624:	df000504 	addi	fp,sp,20
   20628:	2005883a 	mov	r2,r4
   2062c:	e17ffe15 	stw	r5,-8(fp)
   20630:	e1bfff15 	stw	r6,-4(fp)
   20634:	e0bffd0d 	sth	r2,-12(fp)
    int words_written = 0;
   20638:	e03ffb15 	stw	zero,-20(fp)
    if (size == 0) return 0;
   2063c:	e0bffe17 	ldw	r2,-8(fp)
   20640:	1000021e 	bne	r2,zero,2064c <write_bits+0x30>
   20644:	0005883a 	mov	r2,zero
   20648:	00004606 	br	20764 <write_bits+0x148>

    // Push new bits into the buffer
    bit_buffer = (bit_buffer << size) | (code & ((1 << size) - 1));
   2064c:	d0e2e417 	ldw	r3,-29808(gp)
   20650:	e0bffe17 	ldw	r2,-8(fp)
   20654:	1886983a 	sll	r3,r3,r2
   20658:	e13ffd0b 	ldhu	r4,-12(fp)
   2065c:	01400044 	movi	r5,1
   20660:	e0bffe17 	ldw	r2,-8(fp)
   20664:	2884983a 	sll	r2,r5,r2
   20668:	10bfffc4 	addi	r2,r2,-1
   2066c:	2084703a 	and	r2,r4,r2
   20670:	1884b03a 	or	r2,r3,r2
   20674:	d0a2e415 	stw	r2,-29808(gp)
    bit_count += size;
   20678:	d0e2e517 	ldw	r3,-29804(gp)
   2067c:	e0bffe17 	ldw	r2,-8(fp)
   20680:	1885883a 	add	r2,r3,r2
   20684:	d0a2e515 	stw	r2,-29804(gp)

    // Extract complete 8-bit bytes whenever we have enough bits
    while (bit_count >= 8) {
   20688:	00003206 	br	20754 <write_bits+0x138>
        bit_count -= 8;
   2068c:	d0a2e517 	ldw	r2,-29804(gp)
   20690:	10bffe04 	addi	r2,r2,-8
   20694:	d0a2e515 	stw	r2,-29804(gp)
        UINT8 out_byte = (bit_buffer >> bit_count) & 0xFF;
   20698:	d0e2e417 	ldw	r3,-29808(gp)
   2069c:	d0a2e517 	ldw	r2,-29804(gp)
   206a0:	1884d83a 	srl	r2,r3,r2
   206a4:	e0bffc05 	stb	r2,-16(fp)

        if (!has_odd_byte) {
   206a8:	d0a2e717 	ldw	r2,-29796(gp)
   206ac:	1000051e 	bne	r2,zero,206c4 <write_bits+0xa8>
            byte_buffer = out_byte;
   206b0:	e0bffc03 	ldbu	r2,-16(fp)
   206b4:	d0a2e605 	stb	r2,-29800(gp)
            has_odd_byte = 1;
   206b8:	00800044 	movi	r2,1
   206bc:	d0a2e715 	stw	r2,-29796(gp)
   206c0:	00000f06 	br	20700 <write_bits+0xe4>
        } else {
            // Pair the previous byte and current byte into a 16-bit word
            out_buffer[words_written++] = (INT16)((byte_buffer << 8) | out_byte);
   206c4:	e0bffb17 	ldw	r2,-20(fp)
   206c8:	1085883a 	add	r2,r2,r2
   206cc:	e0ffff17 	ldw	r3,-4(fp)
   206d0:	1885883a 	add	r2,r3,r2
   206d4:	d0e2e603 	ldbu	r3,-29800(gp)
   206d8:	18c03fcc 	andi	r3,r3,255
   206dc:	1806923a 	slli	r3,r3,8
   206e0:	1809883a 	mov	r4,r3
   206e4:	e0fffc03 	ldbu	r3,-16(fp)
   206e8:	20c6b03a 	or	r3,r4,r3
   206ec:	10c0000d 	sth	r3,0(r2)
   206f0:	e0bffb17 	ldw	r2,-20(fp)
   206f4:	10800044 	addi	r2,r2,1
   206f8:	e0bffb15 	stw	r2,-20(fp)
            has_odd_byte = 0;
   206fc:	d022e715 	stw	zero,-29796(gp)
        }

        // JPEG Standard: If we emit 0xFF, the VERY NEXT byte MUST be 0x00
        if (out_byte == 0xFF) {
   20700:	e0bffc03 	ldbu	r2,-16(fp)
   20704:	10803fd8 	cmpnei	r2,r2,255
   20708:	1000121e 	bne	r2,zero,20754 <write_bits+0x138>
            if (!has_odd_byte) {
   2070c:	d0a2e717 	ldw	r2,-29796(gp)
   20710:	1000041e 	bne	r2,zero,20724 <write_bits+0x108>
                byte_buffer = 0x00;
   20714:	d022e605 	stb	zero,-29800(gp)
                has_odd_byte = 1;
   20718:	00800044 	movi	r2,1
   2071c:	d0a2e715 	stw	r2,-29796(gp)
   20720:	00000c06 	br	20754 <write_bits+0x138>
            } else {
                out_buffer[words_written++] = (INT16)((byte_buffer << 8) | 0x00);
   20724:	e0bffb17 	ldw	r2,-20(fp)
   20728:	1085883a 	add	r2,r2,r2
   2072c:	e0ffff17 	ldw	r3,-4(fp)
   20730:	1885883a 	add	r2,r3,r2
   20734:	d0e2e603 	ldbu	r3,-29800(gp)
   20738:	18c03fcc 	andi	r3,r3,255
   2073c:	1806923a 	slli	r3,r3,8
   20740:	10c0000d 	sth	r3,0(r2)
   20744:	e0bffb17 	ldw	r2,-20(fp)
   20748:	10800044 	addi	r2,r2,1
   2074c:	e0bffb15 	stw	r2,-20(fp)
                has_odd_byte = 0;
   20750:	d022e715 	stw	zero,-29796(gp)
    // Push new bits into the buffer
    bit_buffer = (bit_buffer << size) | (code & ((1 << size) - 1));
    bit_count += size;

    // Extract complete 8-bit bytes whenever we have enough bits
    while (bit_count >= 8) {
   20754:	d0a2e517 	ldw	r2,-29804(gp)
   20758:	10800208 	cmpgei	r2,r2,8
   2075c:	103fcb1e 	bne	r2,zero,2068c <write_bits+0x70>
                out_buffer[words_written++] = (INT16)((byte_buffer << 8) | 0x00);
                has_odd_byte = 0;
            }
        }
    }
    return words_written;
   20760:	e0bffb17 	ldw	r2,-20(fp)
}
   20764:	e037883a 	mov	sp,fp
   20768:	df000017 	ldw	fp,0(sp)
   2076c:	dec00104 	addi	sp,sp,4
   20770:	f800283a 	ret

00020774 <huffman_flush>:

// Flushes any remaining bits in the buffer at the end of the image
int huffman_flush(INT16 *out_buffer) {
   20774:	defffb04 	addi	sp,sp,-20
   20778:	dfc00415 	stw	ra,16(sp)
   2077c:	df000315 	stw	fp,12(sp)
   20780:	df000304 	addi	fp,sp,12
   20784:	e13fff15 	stw	r4,-4(fp)
    int words_written = 0;
   20788:	e03ffd15 	stw	zero,-12(fp)

    // If there are leftover bits, pad the rest of the byte with 1s
    if (bit_count > 0) {
   2078c:	d0a2e517 	ldw	r2,-29804(gp)
   20790:	0080140e 	bge	zero,r2,207e4 <huffman_flush+0x70>
        int pad_size = 8 - bit_count;
   20794:	d0a2e517 	ldw	r2,-29804(gp)
   20798:	00c00204 	movi	r3,8
   2079c:	1885c83a 	sub	r2,r3,r2
   207a0:	e0bffe15 	stw	r2,-8(fp)
        words_written += write_bits((1 << pad_size) - 1, pad_size, out_buffer + words_written);
   207a4:	00c00044 	movi	r3,1
   207a8:	e0bffe17 	ldw	r2,-8(fp)
   207ac:	1884983a 	sll	r2,r3,r2
   207b0:	10bfffc4 	addi	r2,r2,-1
   207b4:	10ffffcc 	andi	r3,r2,65535
   207b8:	e0bffd17 	ldw	r2,-12(fp)
   207bc:	1085883a 	add	r2,r2,r2
   207c0:	e13fff17 	ldw	r4,-4(fp)
   207c4:	2085883a 	add	r2,r4,r2
   207c8:	1809883a 	mov	r4,r3
   207cc:	e17ffe17 	ldw	r5,-8(fp)
   207d0:	100d883a 	mov	r6,r2
   207d4:	002061c0 	call	2061c <write_bits>
   207d8:	e0fffd17 	ldw	r3,-12(fp)
   207dc:	1885883a 	add	r2,r3,r2
   207e0:	e0bffd15 	stw	r2,-12(fp)
    }
    
    // If we have an odd byte waiting to be paired into a 16-bit word, pad it with 0xFF
    if (has_odd_byte) {
   207e4:	d0a2e717 	ldw	r2,-29796(gp)
   207e8:	10000d26 	beq	r2,zero,20820 <huffman_flush+0xac>
        out_buffer[words_written++] = (INT16)((byte_buffer << 8) | 0xFF);
   207ec:	e0bffd17 	ldw	r2,-12(fp)
   207f0:	1085883a 	add	r2,r2,r2
   207f4:	e0ffff17 	ldw	r3,-4(fp)
   207f8:	1885883a 	add	r2,r3,r2
   207fc:	d0e2e603 	ldbu	r3,-29800(gp)
   20800:	18c03fcc 	andi	r3,r3,255
   20804:	1806923a 	slli	r3,r3,8
   20808:	18c03fd4 	ori	r3,r3,255
   2080c:	10c0000d 	sth	r3,0(r2)
   20810:	e0bffd17 	ldw	r2,-12(fp)
   20814:	10800044 	addi	r2,r2,1
   20818:	e0bffd15 	stw	r2,-12(fp)
        has_odd_byte = 0;
   2081c:	d022e715 	stw	zero,-29796(gp)
    }

    return words_written;
   20820:	e0bffd17 	ldw	r2,-12(fp)
}
   20824:	e037883a 	mov	sp,fp
   20828:	dfc00117 	ldw	ra,4(sp)
   2082c:	df000017 	ldw	fp,0(sp)
   20830:	dec00204 	addi	sp,sp,8
   20834:	f800283a 	ret

00020838 <huffman_encode_block>:

// The core Huffman compressor
int huffman_encode_block(INT16 *block, INT16 *prev_dc, int is_chroma, INT16 *out_fifo_buffer) {
   20838:	deffed04 	addi	sp,sp,-76
   2083c:	dfc01215 	stw	ra,72(sp)
   20840:	df001115 	stw	fp,68(sp)
   20844:	df001104 	addi	fp,sp,68
   20848:	e13ffc15 	stw	r4,-16(fp)
   2084c:	e17ffd15 	stw	r5,-12(fp)
   20850:	e1bffe15 	stw	r6,-8(fp)
   20854:	e1ffff15 	stw	r7,-4(fp)
    int words_generated = 0;
   20858:	e03fef15 	stw	zero,-68(fp)
    
    // Select the correct tables based on Luminance vs. Chrominance
    UINT16 *dc_codes = is_chroma ? chrominance_dc_code_table : luminance_dc_code_table;
   2085c:	e0bffe17 	ldw	r2,-8(fp)
   20860:	10000326 	beq	r2,zero,20870 <huffman_encode_block+0x38>
   20864:	008000f4 	movhi	r2,3
   20868:	10950f04 	addi	r2,r2,21564
   2086c:	00000206 	br	20878 <huffman_encode_block+0x40>
   20870:	008000f4 	movhi	r2,3
   20874:	10950304 	addi	r2,r2,21516
   20878:	e0bff215 	stw	r2,-56(fp)
    UINT16 *dc_sizes = is_chroma ? chrominance_dc_size_table : luminance_dc_size_table;
   2087c:	e0bffe17 	ldw	r2,-8(fp)
   20880:	10000326 	beq	r2,zero,20890 <huffman_encode_block+0x58>
   20884:	008000f4 	movhi	r2,3
   20888:	10951504 	addi	r2,r2,21588
   2088c:	00000206 	br	20898 <huffman_encode_block+0x60>
   20890:	008000f4 	movhi	r2,3
   20894:	10950904 	addi	r2,r2,21540
   20898:	e0bff315 	stw	r2,-52(fp)
    UINT16 *ac_codes = is_chroma ? chrominance_ac_code_table : luminance_ac_code_table;
   2089c:	e0bffe17 	ldw	r2,-8(fp)
   208a0:	10000326 	beq	r2,zero,208b0 <huffman_encode_block+0x78>
   208a4:	008000f4 	movhi	r2,3
   208a8:	109aa704 	addi	r2,r2,27292
   208ac:	00000206 	br	208b8 <huffman_encode_block+0x80>
   208b0:	008000f4 	movhi	r2,3
   208b4:	109c2704 	addi	r2,r2,28828
   208b8:	e0bff415 	stw	r2,-48(fp)
    UINT16 *ac_sizes = is_chroma ? chrominance_ac_size_table : luminance_ac_size_table;
   208bc:	e0bffe17 	ldw	r2,-8(fp)
   208c0:	10000326 	beq	r2,zero,208d0 <huffman_encode_block+0x98>
   208c4:	008000f4 	movhi	r2,3
   208c8:	109b2704 	addi	r2,r2,27804
   208cc:	00000206 	br	208d8 <huffman_encode_block+0xa0>
   208d0:	008000f4 	movhi	r2,3
   208d4:	109ba704 	addi	r2,r2,28316
   208d8:	e0bff515 	stw	r2,-44(fp)

    // 1. DPCM Encode the DC Coefficient
    INT16 dc_diff = block[0] - *prev_dc;
   208dc:	e0bffc17 	ldw	r2,-16(fp)
   208e0:	1080000b 	ldhu	r2,0(r2)
   208e4:	1007883a 	mov	r3,r2
   208e8:	e0bffd17 	ldw	r2,-12(fp)
   208ec:	1080000b 	ldhu	r2,0(r2)
   208f0:	1885c83a 	sub	r2,r3,r2
   208f4:	e0bff60d 	sth	r2,-40(fp)
    *prev_dc = block[0];
   208f8:	e0bffc17 	ldw	r2,-16(fp)
   208fc:	10c0000b 	ldhu	r3,0(r2)
   20900:	e0bffd17 	ldw	r2,-12(fp)
   20904:	10c0000d 	sth	r3,0(r2)
    
    int dc_size = get_vli_size(dc_diff);
   20908:	e0bff60f 	ldh	r2,-40(fp)
   2090c:	1009883a 	mov	r4,r2
   20910:	00205a80 	call	205a8 <get_vli_size>
   20914:	e0bff715 	stw	r2,-36(fp)
    // Standard JPEG 1s complement for negative values
    UINT16 dc_vli = (dc_diff < 0) ? (dc_diff - 1) & ((1 << dc_size) - 1) : dc_diff;
   20918:	e0bff60f 	ldh	r2,-40(fp)
   2091c:	1000090e 	bge	r2,zero,20944 <huffman_encode_block+0x10c>
   20920:	e0bff60b 	ldhu	r2,-40(fp)
   20924:	10bfffc4 	addi	r2,r2,-1
   20928:	1007883a 	mov	r3,r2
   2092c:	01000044 	movi	r4,1
   20930:	e0bff717 	ldw	r2,-36(fp)
   20934:	2084983a 	sll	r2,r4,r2
   20938:	10bfffc4 	addi	r2,r2,-1
   2093c:	1884703a 	and	r2,r3,r2
   20940:	00000106 	br	20948 <huffman_encode_block+0x110>
   20944:	e0bff60b 	ldhu	r2,-40(fp)
   20948:	e0bff80d 	sth	r2,-32(fp)

    words_generated += write_bits(dc_codes[dc_size], dc_sizes[dc_size], out_fifo_buffer + words_generated);
   2094c:	e0bff717 	ldw	r2,-36(fp)
   20950:	1085883a 	add	r2,r2,r2
   20954:	e0fff217 	ldw	r3,-56(fp)
   20958:	1885883a 	add	r2,r3,r2
   2095c:	1080000b 	ldhu	r2,0(r2)
   20960:	113fffcc 	andi	r4,r2,65535
   20964:	e0bff717 	ldw	r2,-36(fp)
   20968:	1085883a 	add	r2,r2,r2
   2096c:	e0fff317 	ldw	r3,-52(fp)
   20970:	1885883a 	add	r2,r3,r2
   20974:	1080000b 	ldhu	r2,0(r2)
   20978:	10ffffcc 	andi	r3,r2,65535
   2097c:	e0bfef17 	ldw	r2,-68(fp)
   20980:	1085883a 	add	r2,r2,r2
   20984:	e17fff17 	ldw	r5,-4(fp)
   20988:	2885883a 	add	r2,r5,r2
   2098c:	180b883a 	mov	r5,r3
   20990:	100d883a 	mov	r6,r2
   20994:	002061c0 	call	2061c <write_bits>
   20998:	e0ffef17 	ldw	r3,-68(fp)
   2099c:	1885883a 	add	r2,r3,r2
   209a0:	e0bfef15 	stw	r2,-68(fp)
    if (dc_size > 0) {
   209a4:	e0bff717 	ldw	r2,-36(fp)
   209a8:	00800c0e 	bge	zero,r2,209dc <huffman_encode_block+0x1a4>
        words_generated += write_bits(dc_vli, dc_size, out_fifo_buffer + words_generated);
   209ac:	e0fff80b 	ldhu	r3,-32(fp)
   209b0:	e0bfef17 	ldw	r2,-68(fp)
   209b4:	1085883a 	add	r2,r2,r2
   209b8:	e13fff17 	ldw	r4,-4(fp)
   209bc:	2085883a 	add	r2,r4,r2
   209c0:	1809883a 	mov	r4,r3
   209c4:	e17ff717 	ldw	r5,-36(fp)
   209c8:	100d883a 	mov	r6,r2
   209cc:	002061c0 	call	2061c <write_bits>
   209d0:	e0ffef17 	ldw	r3,-68(fp)
   209d4:	1885883a 	add	r2,r3,r2
   209d8:	e0bfef15 	stw	r2,-68(fp)
    }
    
    // 2. Run-Length Encode the AC Coefficients
    int zero_run = 0;
   209dc:	e03ff015 	stw	zero,-64(fp)
    int i;
    for (i = 1; i < 64; i++) {
   209e0:	00800044 	movi	r2,1
   209e4:	e0bff115 	stw	r2,-60(fp)
   209e8:	00007706 	br	20bc8 <huffman_encode_block+0x390>
        if (block[i] == 0) {
   209ec:	e0bff117 	ldw	r2,-60(fp)
   209f0:	1085883a 	add	r2,r2,r2
   209f4:	e0fffc17 	ldw	r3,-16(fp)
   209f8:	1885883a 	add	r2,r3,r2
   209fc:	1080000b 	ldhu	r2,0(r2)
   20a00:	10bfffcc 	andi	r2,r2,65535
   20a04:	10a0001c 	xori	r2,r2,32768
   20a08:	10a00004 	addi	r2,r2,-32768
   20a0c:	1000191e 	bne	r2,zero,20a74 <huffman_encode_block+0x23c>
            zero_run++;
   20a10:	e0bff017 	ldw	r2,-64(fp)
   20a14:	10800044 	addi	r2,r2,1
   20a18:	e0bff015 	stw	r2,-64(fp)
   20a1c:	00006706 	br	20bbc <huffman_encode_block+0x384>
        } else {
            // Write ZRL (Zero Run Length) markers for every 16 consecutive zeros
            while (zero_run >= 16) {
                words_generated += write_bits(ac_codes[0xF0], ac_sizes[0xF0], out_fifo_buffer + words_generated);
   20a20:	e0bff417 	ldw	r2,-48(fp)
   20a24:	10807804 	addi	r2,r2,480
   20a28:	1080000b 	ldhu	r2,0(r2)
   20a2c:	113fffcc 	andi	r4,r2,65535
   20a30:	e0bff517 	ldw	r2,-44(fp)
   20a34:	10807804 	addi	r2,r2,480
   20a38:	1080000b 	ldhu	r2,0(r2)
   20a3c:	10ffffcc 	andi	r3,r2,65535
   20a40:	e0bfef17 	ldw	r2,-68(fp)
   20a44:	1085883a 	add	r2,r2,r2
   20a48:	e17fff17 	ldw	r5,-4(fp)
   20a4c:	2885883a 	add	r2,r5,r2
   20a50:	180b883a 	mov	r5,r3
   20a54:	100d883a 	mov	r6,r2
   20a58:	002061c0 	call	2061c <write_bits>
   20a5c:	e0ffef17 	ldw	r3,-68(fp)
   20a60:	1885883a 	add	r2,r3,r2
   20a64:	e0bfef15 	stw	r2,-68(fp)
                zero_run -= 16;
   20a68:	e0bff017 	ldw	r2,-64(fp)
   20a6c:	10bffc04 	addi	r2,r2,-16
   20a70:	e0bff015 	stw	r2,-64(fp)
    for (i = 1; i < 64; i++) {
        if (block[i] == 0) {
            zero_run++;
        } else {
            // Write ZRL (Zero Run Length) markers for every 16 consecutive zeros
            while (zero_run >= 16) {
   20a74:	e0bff017 	ldw	r2,-64(fp)
   20a78:	10800408 	cmpgei	r2,r2,16
   20a7c:	103fe81e 	bne	r2,zero,20a20 <huffman_encode_block+0x1e8>
                words_generated += write_bits(ac_codes[0xF0], ac_sizes[0xF0], out_fifo_buffer + words_generated);
                zero_run -= 16;
            }

            int ac_size = get_vli_size(block[i]);
   20a80:	e0bff117 	ldw	r2,-60(fp)
   20a84:	1085883a 	add	r2,r2,r2
   20a88:	e0fffc17 	ldw	r3,-16(fp)
   20a8c:	1885883a 	add	r2,r3,r2
   20a90:	1080000b 	ldhu	r2,0(r2)
   20a94:	10bfffcc 	andi	r2,r2,65535
   20a98:	10a0001c 	xori	r2,r2,32768
   20a9c:	10a00004 	addi	r2,r2,-32768
   20aa0:	1009883a 	mov	r4,r2
   20aa4:	00205a80 	call	205a8 <get_vli_size>
   20aa8:	e0bff915 	stw	r2,-28(fp)
            UINT16 ac_vli = (block[i] < 0) ? (block[i] - 1) & ((1 << ac_size) - 1) : block[i];
   20aac:	e0bff117 	ldw	r2,-60(fp)
   20ab0:	1085883a 	add	r2,r2,r2
   20ab4:	e0fffc17 	ldw	r3,-16(fp)
   20ab8:	1885883a 	add	r2,r3,r2
   20abc:	1080000b 	ldhu	r2,0(r2)
   20ac0:	10bfffcc 	andi	r2,r2,65535
   20ac4:	10a0001c 	xori	r2,r2,32768
   20ac8:	10a00004 	addi	r2,r2,-32768
   20acc:	10000d0e 	bge	r2,zero,20b04 <huffman_encode_block+0x2cc>
   20ad0:	e0bff117 	ldw	r2,-60(fp)
   20ad4:	1085883a 	add	r2,r2,r2
   20ad8:	e0fffc17 	ldw	r3,-16(fp)
   20adc:	1885883a 	add	r2,r3,r2
   20ae0:	1080000b 	ldhu	r2,0(r2)
   20ae4:	10bfffc4 	addi	r2,r2,-1
   20ae8:	1007883a 	mov	r3,r2
   20aec:	01000044 	movi	r4,1
   20af0:	e0bff917 	ldw	r2,-28(fp)
   20af4:	2084983a 	sll	r2,r4,r2
   20af8:	10bfffc4 	addi	r2,r2,-1
   20afc:	1884703a 	and	r2,r3,r2
   20b00:	00000506 	br	20b18 <huffman_encode_block+0x2e0>
   20b04:	e0bff117 	ldw	r2,-60(fp)
   20b08:	1085883a 	add	r2,r2,r2
   20b0c:	e0fffc17 	ldw	r3,-16(fp)
   20b10:	1885883a 	add	r2,r3,r2
   20b14:	1080000b 	ldhu	r2,0(r2)
   20b18:	e0bffa0d 	sth	r2,-24(fp)

            // The high nibble is the run length, the low nibble is the size
            int symbol = (zero_run << 4) | ac_size;
   20b1c:	e0bff017 	ldw	r2,-64(fp)
   20b20:	1006913a 	slli	r3,r2,4
   20b24:	e0bff917 	ldw	r2,-28(fp)
   20b28:	1884b03a 	or	r2,r3,r2
   20b2c:	e0bffb15 	stw	r2,-20(fp)

            words_generated += write_bits(ac_codes[symbol], ac_sizes[symbol], out_fifo_buffer + words_generated);
   20b30:	e0bffb17 	ldw	r2,-20(fp)
   20b34:	1085883a 	add	r2,r2,r2
   20b38:	e0fff417 	ldw	r3,-48(fp)
   20b3c:	1885883a 	add	r2,r3,r2
   20b40:	1080000b 	ldhu	r2,0(r2)
   20b44:	113fffcc 	andi	r4,r2,65535
   20b48:	e0bffb17 	ldw	r2,-20(fp)
   20b4c:	1085883a 	add	r2,r2,r2
   20b50:	e0fff517 	ldw	r3,-44(fp)
   20b54:	1885883a 	add	r2,r3,r2
   20b58:	1080000b 	ldhu	r2,0(r2)
   20b5c:	10ffffcc 	andi	r3,r2,65535
   20b60:	e0bfef17 	ldw	r2,-68(fp)
   20b64:	1085883a 	add	r2,r2,r2
   20b68:	e17fff17 	ldw	r5,-4(fp)
   20b6c:	2885883a 	add	r2,r5,r2
   20b70:	180b883a 	mov	r5,r3
   20b74:	100d883a 	mov	r6,r2
   20b78:	002061c0 	call	2061c <write_bits>
   20b7c:	e0ffef17 	ldw	r3,-68(fp)
   20b80:	1885883a 	add	r2,r3,r2
   20b84:	e0bfef15 	stw	r2,-68(fp)
            words_generated += write_bits(ac_vli, ac_size, out_fifo_buffer + words_generated);
   20b88:	e0fffa0b 	ldhu	r3,-24(fp)
   20b8c:	e0bfef17 	ldw	r2,-68(fp)
   20b90:	1085883a 	add	r2,r2,r2
   20b94:	e13fff17 	ldw	r4,-4(fp)
   20b98:	2085883a 	add	r2,r4,r2
   20b9c:	1809883a 	mov	r4,r3
   20ba0:	e17ff917 	ldw	r5,-28(fp)
   20ba4:	100d883a 	mov	r6,r2
   20ba8:	002061c0 	call	2061c <write_bits>
   20bac:	e0ffef17 	ldw	r3,-68(fp)
   20bb0:	1885883a 	add	r2,r3,r2
   20bb4:	e0bfef15 	stw	r2,-68(fp)
            zero_run = 0;
   20bb8:	e03ff015 	stw	zero,-64(fp)
    }
    
    // 2. Run-Length Encode the AC Coefficients
    int zero_run = 0;
    int i;
    for (i = 1; i < 64; i++) {
   20bbc:	e0bff117 	ldw	r2,-60(fp)
   20bc0:	10800044 	addi	r2,r2,1
   20bc4:	e0bff115 	stw	r2,-60(fp)
   20bc8:	e0bff117 	ldw	r2,-60(fp)
   20bcc:	10801010 	cmplti	r2,r2,64
   20bd0:	103f861e 	bne	r2,zero,209ec <huffman_encode_block+0x1b4>
            zero_run = 0;
        }
    }
    
    // 3. Write End of Block (EOB) if block ends with zeros
    if (zero_run > 0) {
   20bd4:	e0bff017 	ldw	r2,-64(fp)
   20bd8:	0080100e 	bge	zero,r2,20c1c <huffman_encode_block+0x3e4>
        words_generated += write_bits(ac_codes[0x00], ac_sizes[0x00], out_fifo_buffer + words_generated);
   20bdc:	e0bff417 	ldw	r2,-48(fp)
   20be0:	1080000b 	ldhu	r2,0(r2)
   20be4:	113fffcc 	andi	r4,r2,65535
   20be8:	e0bff517 	ldw	r2,-44(fp)
   20bec:	1080000b 	ldhu	r2,0(r2)
   20bf0:	10ffffcc 	andi	r3,r2,65535
   20bf4:	e0bfef17 	ldw	r2,-68(fp)
   20bf8:	1085883a 	add	r2,r2,r2
   20bfc:	e17fff17 	ldw	r5,-4(fp)
   20c00:	2885883a 	add	r2,r5,r2
   20c04:	180b883a 	mov	r5,r3
   20c08:	100d883a 	mov	r6,r2
   20c0c:	002061c0 	call	2061c <write_bits>
   20c10:	e0ffef17 	ldw	r3,-68(fp)
   20c14:	1885883a 	add	r2,r3,r2
   20c18:	e0bfef15 	stw	r2,-68(fp)
    }
    
    return words_generated;
   20c1c:	e0bfef17 	ldw	r2,-68(fp)
}
   20c20:	e037883a 	mov	sp,fp
   20c24:	dfc00117 	ldw	ra,4(sp)
   20c28:	df000017 	ldw	fp,0(sp)
   20c2c:	dec00204 	addi	sp,sp,8
   20c30:	f800283a 	ret

00020c34 <parse_image_header>:
    12, 19, 26, 33, 40, 48, 41, 34, 27, 20, 13,  6,  7, 14, 21, 28,
    35, 42, 50, 56, 49, 43, 36, 29, 22, 15, 23, 30, 37, 44, 51, 57,
    58, 52, 45, 38, 31, 39, 46, 53, 59, 60, 61, 54, 47, 55, 62, 63
};

int parse_image_header(FILE *file, int *width, int *height, int *pixel_offset, int *bpp) {
   20c34:	deffec04 	addi	sp,sp,-80
   20c38:	dfc01315 	stw	ra,76(sp)
   20c3c:	df001215 	stw	fp,72(sp)
   20c40:	df001204 	addi	fp,sp,72
   20c44:	e13ffc15 	stw	r4,-16(fp)
   20c48:	e17ffd15 	stw	r5,-12(fp)
   20c4c:	e1bffe15 	stw	r6,-8(fp)
   20c50:	e1ffff15 	stw	r7,-4(fp)
    unsigned char header[54];
    if (fread(header, 1, 54, file) < 54) { rewind(file); return 0; }
   20c54:	e13fee04 	addi	r4,fp,-72
   20c58:	01400044 	movi	r5,1
   20c5c:	01800d84 	movi	r6,54
   20c60:	e1fffc17 	ldw	r7,-16(fp)
   20c64:	0023dc00 	call	23dc0 <fread>
   20c68:	10800da8 	cmpgeui	r2,r2,54
   20c6c:	1000041e 	bne	r2,zero,20c80 <parse_image_header+0x4c>
   20c70:	e13ffc17 	ldw	r4,-16(fp)
   20c74:	00258ac0 	call	258ac <rewind>
   20c78:	0005883a 	mov	r2,zero
   20c7c:	00004506 	br	20d94 <parse_image_header+0x160>
    if (header[0] == 'B' && header[1] == 'M') {
   20c80:	e0bfee03 	ldbu	r2,-72(fp)
   20c84:	10803fcc 	andi	r2,r2,255
   20c88:	10801098 	cmpnei	r2,r2,66
   20c8c:	10003e1e 	bne	r2,zero,20d88 <parse_image_header+0x154>
   20c90:	e0bfee43 	ldbu	r2,-71(fp)
   20c94:	10803fcc 	andi	r2,r2,255
   20c98:	10801358 	cmpnei	r2,r2,77
   20c9c:	10003a1e 	bne	r2,zero,20d88 <parse_image_header+0x154>
        *width  = header[18] | (header[19] << 8) | (header[20] << 16) | (header[21] << 24);
   20ca0:	e0bff283 	ldbu	r2,-54(fp)
   20ca4:	10c03fcc 	andi	r3,r2,255
   20ca8:	e0bff2c3 	ldbu	r2,-53(fp)
   20cac:	10803fcc 	andi	r2,r2,255
   20cb0:	1004923a 	slli	r2,r2,8
   20cb4:	1886b03a 	or	r3,r3,r2
   20cb8:	e0bff303 	ldbu	r2,-52(fp)
   20cbc:	10803fcc 	andi	r2,r2,255
   20cc0:	1004943a 	slli	r2,r2,16
   20cc4:	1886b03a 	or	r3,r3,r2
   20cc8:	e0bff343 	ldbu	r2,-51(fp)
   20ccc:	10803fcc 	andi	r2,r2,255
   20cd0:	1004963a 	slli	r2,r2,24
   20cd4:	1886b03a 	or	r3,r3,r2
   20cd8:	e0bffd17 	ldw	r2,-12(fp)
   20cdc:	10c00015 	stw	r3,0(r2)
        *height = header[22] | (header[23] << 8) | (header[24] << 16) | (header[25] << 24);
   20ce0:	e0bff383 	ldbu	r2,-50(fp)
   20ce4:	10c03fcc 	andi	r3,r2,255
   20ce8:	e0bff3c3 	ldbu	r2,-49(fp)
   20cec:	10803fcc 	andi	r2,r2,255
   20cf0:	1004923a 	slli	r2,r2,8
   20cf4:	1886b03a 	or	r3,r3,r2
   20cf8:	e0bff403 	ldbu	r2,-48(fp)
   20cfc:	10803fcc 	andi	r2,r2,255
   20d00:	1004943a 	slli	r2,r2,16
   20d04:	1886b03a 	or	r3,r3,r2
   20d08:	e0bff443 	ldbu	r2,-47(fp)
   20d0c:	10803fcc 	andi	r2,r2,255
   20d10:	1004963a 	slli	r2,r2,24
   20d14:	1886b03a 	or	r3,r3,r2
   20d18:	e0bffe17 	ldw	r2,-8(fp)
   20d1c:	10c00015 	stw	r3,0(r2)
        *pixel_offset = header[10] | (header[11] << 8) | (header[12] << 16) | (header[13] << 24);
   20d20:	e0bff083 	ldbu	r2,-62(fp)
   20d24:	10c03fcc 	andi	r3,r2,255
   20d28:	e0bff0c3 	ldbu	r2,-61(fp)
   20d2c:	10803fcc 	andi	r2,r2,255
   20d30:	1004923a 	slli	r2,r2,8
   20d34:	1886b03a 	or	r3,r3,r2
   20d38:	e0bff103 	ldbu	r2,-60(fp)
   20d3c:	10803fcc 	andi	r2,r2,255
   20d40:	1004943a 	slli	r2,r2,16
   20d44:	1886b03a 	or	r3,r3,r2
   20d48:	e0bff143 	ldbu	r2,-59(fp)
   20d4c:	10803fcc 	andi	r2,r2,255
   20d50:	1004963a 	slli	r2,r2,24
   20d54:	1886b03a 	or	r3,r3,r2
   20d58:	e0bfff17 	ldw	r2,-4(fp)
   20d5c:	10c00015 	stw	r3,0(r2)
        *bpp = header[28] | (header[29] << 8);
   20d60:	e0bff503 	ldbu	r2,-44(fp)
   20d64:	10c03fcc 	andi	r3,r2,255
   20d68:	e0bff543 	ldbu	r2,-43(fp)
   20d6c:	10803fcc 	andi	r2,r2,255
   20d70:	1004923a 	slli	r2,r2,8
   20d74:	1886b03a 	or	r3,r3,r2
   20d78:	e0800217 	ldw	r2,8(fp)
   20d7c:	10c00015 	stw	r3,0(r2)
        return 1;
   20d80:	00800044 	movi	r2,1
   20d84:	00000306 	br	20d94 <parse_image_header+0x160>
    }
    rewind(file);
   20d88:	e13ffc17 	ldw	r4,-16(fp)
   20d8c:	00258ac0 	call	258ac <rewind>
    return 0;
   20d90:	0005883a 	mov	r2,zero
}
   20d94:	e037883a 	mov	sp,fp
   20d98:	dfc00117 	ldw	ra,4(sp)
   20d9c:	df000017 	ldw	fp,0(sp)
   20da0:	dec00204 	addi	sp,sp,8
   20da4:	f800283a 	ret

00020da8 <send_dqt_to_stage4>:

void send_dqt_to_stage4() {
   20da8:	defffc04 	addi	sp,sp,-16
   20dac:	dfc00315 	stw	ra,12(sp)
   20db0:	df000215 	stw	fp,8(sp)
   20db4:	df000204 	addi	fp,sp,8
    INT16 send_buffer[1];
    int i;
    for (i = 0; i < 64; i++) {
   20db8:	e03ffe15 	stw	zero,-8(fp)
   20dbc:	00001206 	br	20e08 <send_dqt_to_stage4+0x60>
        send_buffer[0] = (INT16)global_scaled_q_luma[i];
   20dc0:	00c000f4 	movhi	r3,3
   20dc4:	18dca704 	addi	r3,r3,29340
   20dc8:	e0bffe17 	ldw	r2,-8(fp)
   20dcc:	1885883a 	add	r2,r3,r2
   20dd0:	10800003 	ldbu	r2,0(r2)
   20dd4:	10803fcc 	andi	r2,r2,255
   20dd8:	e0bfff0d 	sth	r2,-4(fp)
        fifo_write_block(FIFO_OUT_TO_4_BASE, FIFO_OUT_TO_4_CSR_BASE, send_buffer, 1);
   20ddc:	e0bfff04 	addi	r2,fp,-4
   20de0:	01000134 	movhi	r4,4
   20de4:	21042d04 	addi	r4,r4,4276
   20de8:	01400134 	movhi	r5,4
   20dec:	29440804 	addi	r5,r5,4128
   20df0:	100d883a 	mov	r6,r2
   20df4:	01c00044 	movi	r7,1
   20df8:	002227c0 	call	2227c <fifo_write_block>
}

void send_dqt_to_stage4() {
    INT16 send_buffer[1];
    int i;
    for (i = 0; i < 64; i++) {
   20dfc:	e0bffe17 	ldw	r2,-8(fp)
   20e00:	10800044 	addi	r2,r2,1
   20e04:	e0bffe15 	stw	r2,-8(fp)
   20e08:	e0bffe17 	ldw	r2,-8(fp)
   20e0c:	10801010 	cmplti	r2,r2,64
   20e10:	103feb1e 	bne	r2,zero,20dc0 <send_dqt_to_stage4+0x18>
        send_buffer[0] = (INT16)global_scaled_q_luma[i];
        fifo_write_block(FIFO_OUT_TO_4_BASE, FIFO_OUT_TO_4_CSR_BASE, send_buffer, 1);
    }
    for (i = 0; i < 64; i++) {
   20e14:	e03ffe15 	stw	zero,-8(fp)
   20e18:	00001206 	br	20e64 <send_dqt_to_stage4+0xbc>
        send_buffer[0] = (INT16)global_scaled_q_chroma[i];
   20e1c:	00c000f4 	movhi	r3,3
   20e20:	18dcb704 	addi	r3,r3,29404
   20e24:	e0bffe17 	ldw	r2,-8(fp)
   20e28:	1885883a 	add	r2,r3,r2
   20e2c:	10800003 	ldbu	r2,0(r2)
   20e30:	10803fcc 	andi	r2,r2,255
   20e34:	e0bfff0d 	sth	r2,-4(fp)
        fifo_write_block(FIFO_OUT_TO_4_BASE, FIFO_OUT_TO_4_CSR_BASE, send_buffer, 1);
   20e38:	e0bfff04 	addi	r2,fp,-4
   20e3c:	01000134 	movhi	r4,4
   20e40:	21042d04 	addi	r4,r4,4276
   20e44:	01400134 	movhi	r5,4
   20e48:	29440804 	addi	r5,r5,4128
   20e4c:	100d883a 	mov	r6,r2
   20e50:	01c00044 	movi	r7,1
   20e54:	002227c0 	call	2227c <fifo_write_block>
    int i;
    for (i = 0; i < 64; i++) {
        send_buffer[0] = (INT16)global_scaled_q_luma[i];
        fifo_write_block(FIFO_OUT_TO_4_BASE, FIFO_OUT_TO_4_CSR_BASE, send_buffer, 1);
    }
    for (i = 0; i < 64; i++) {
   20e58:	e0bffe17 	ldw	r2,-8(fp)
   20e5c:	10800044 	addi	r2,r2,1
   20e60:	e0bffe15 	stw	r2,-8(fp)
   20e64:	e0bffe17 	ldw	r2,-8(fp)
   20e68:	10801010 	cmplti	r2,r2,64
   20e6c:	103feb1e 	bne	r2,zero,20e1c <send_dqt_to_stage4+0x74>
        send_buffer[0] = (INT16)global_scaled_q_chroma[i];
        fifo_write_block(FIFO_OUT_TO_4_BASE, FIFO_OUT_TO_4_CSR_BASE, send_buffer, 1);
    }
}
   20e70:	e037883a 	mov	sp,fp
   20e74:	dfc00117 	ldw	ra,4(sp)
   20e78:	df000017 	ldw	fp,0(sp)
   20e7c:	dec00204 	addi	sp,sp,8
   20e80:	f800283a 	ret

00020e84 <send_dht_to_stage5>:

void send_dht_to_stage5() {
   20e84:	defffe04 	addi	sp,sp,-8
   20e88:	dfc00115 	stw	ra,4(sp)
   20e8c:	df000015 	stw	fp,0(sp)
   20e90:	d839883a 	mov	fp,sp
    fifo_write_block(FIFO_OUT_TO_5_BASE, FIFO_OUT_TO_5_CSR_BASE, luminance_dc_code_table, 12);
   20e94:	01000134 	movhi	r4,4
   20e98:	21042c04 	addi	r4,r4,4272
   20e9c:	01400134 	movhi	r5,4
   20ea0:	29440004 	addi	r5,r5,4096
   20ea4:	018000f4 	movhi	r6,3
   20ea8:	31950304 	addi	r6,r6,21516
   20eac:	01c00304 	movi	r7,12
   20eb0:	002227c0 	call	2227c <fifo_write_block>
    fifo_write_block(FIFO_OUT_TO_5_BASE, FIFO_OUT_TO_5_CSR_BASE, luminance_dc_size_table, 12);
   20eb4:	01000134 	movhi	r4,4
   20eb8:	21042c04 	addi	r4,r4,4272
   20ebc:	01400134 	movhi	r5,4
   20ec0:	29440004 	addi	r5,r5,4096
   20ec4:	018000f4 	movhi	r6,3
   20ec8:	31950904 	addi	r6,r6,21540
   20ecc:	01c00304 	movi	r7,12
   20ed0:	002227c0 	call	2227c <fifo_write_block>
    fifo_write_block(FIFO_OUT_TO_5_BASE, FIFO_OUT_TO_5_CSR_BASE, chrominance_dc_code_table, 12);
   20ed4:	01000134 	movhi	r4,4
   20ed8:	21042c04 	addi	r4,r4,4272
   20edc:	01400134 	movhi	r5,4
   20ee0:	29440004 	addi	r5,r5,4096
   20ee4:	018000f4 	movhi	r6,3
   20ee8:	31950f04 	addi	r6,r6,21564
   20eec:	01c00304 	movi	r7,12
   20ef0:	002227c0 	call	2227c <fifo_write_block>
    fifo_write_block(FIFO_OUT_TO_5_BASE, FIFO_OUT_TO_5_CSR_BASE, chrominance_dc_size_table, 12);
   20ef4:	01000134 	movhi	r4,4
   20ef8:	21042c04 	addi	r4,r4,4272
   20efc:	01400134 	movhi	r5,4
   20f00:	29440004 	addi	r5,r5,4096
   20f04:	018000f4 	movhi	r6,3
   20f08:	31951504 	addi	r6,r6,21588
   20f0c:	01c00304 	movi	r7,12
   20f10:	002227c0 	call	2227c <fifo_write_block>
    fifo_write_block(FIFO_OUT_TO_5_BASE, FIFO_OUT_TO_5_CSR_BASE, luminance_ac_code_table, 256);
   20f14:	01000134 	movhi	r4,4
   20f18:	21042c04 	addi	r4,r4,4272
   20f1c:	01400134 	movhi	r5,4
   20f20:	29440004 	addi	r5,r5,4096
   20f24:	018000f4 	movhi	r6,3
   20f28:	319c2704 	addi	r6,r6,28828
   20f2c:	01c04004 	movi	r7,256
   20f30:	002227c0 	call	2227c <fifo_write_block>
    fifo_write_block(FIFO_OUT_TO_5_BASE, FIFO_OUT_TO_5_CSR_BASE, luminance_ac_size_table, 256);
   20f34:	01000134 	movhi	r4,4
   20f38:	21042c04 	addi	r4,r4,4272
   20f3c:	01400134 	movhi	r5,4
   20f40:	29440004 	addi	r5,r5,4096
   20f44:	018000f4 	movhi	r6,3
   20f48:	319ba704 	addi	r6,r6,28316
   20f4c:	01c04004 	movi	r7,256
   20f50:	002227c0 	call	2227c <fifo_write_block>
    fifo_write_block(FIFO_OUT_TO_5_BASE, FIFO_OUT_TO_5_CSR_BASE, chrominance_ac_code_table, 256);
   20f54:	01000134 	movhi	r4,4
   20f58:	21042c04 	addi	r4,r4,4272
   20f5c:	01400134 	movhi	r5,4
   20f60:	29440004 	addi	r5,r5,4096
   20f64:	018000f4 	movhi	r6,3
   20f68:	319aa704 	addi	r6,r6,27292
   20f6c:	01c04004 	movi	r7,256
   20f70:	002227c0 	call	2227c <fifo_write_block>
    fifo_write_block(FIFO_OUT_TO_5_BASE, FIFO_OUT_TO_5_CSR_BASE, chrominance_ac_size_table, 256);
   20f74:	01000134 	movhi	r4,4
   20f78:	21042c04 	addi	r4,r4,4272
   20f7c:	01400134 	movhi	r5,4
   20f80:	29440004 	addi	r5,r5,4096
   20f84:	018000f4 	movhi	r6,3
   20f88:	319b2704 	addi	r6,r6,27804
   20f8c:	01c04004 	movi	r7,256
   20f90:	002227c0 	call	2227c <fifo_write_block>
}
   20f94:	e037883a 	mov	sp,fp
   20f98:	dfc00117 	ldw	ra,4(sp)
   20f9c:	df000017 	ldw	fp,0(sp)
   20fa0:	dec00204 	addi	sp,sp,8
   20fa4:	f800283a 	ret

00020fa8 <send_output_filename_to_stage6>:

void send_output_filename_to_stage6(char *filename) {
   20fa8:	defffb04 	addi	sp,sp,-20
   20fac:	dfc00415 	stw	ra,16(sp)
   20fb0:	df000315 	stw	fp,12(sp)
   20fb4:	df000304 	addi	fp,sp,12
   20fb8:	e13fff15 	stw	r4,-4(fp)
    INT16 name_len = strlen(filename) + 1;
   20fbc:	e13fff17 	ldw	r4,-4(fp)
   20fc0:	0025a640 	call	25a64 <strlen>
   20fc4:	10800044 	addi	r2,r2,1
   20fc8:	e0bffe0d 	sth	r2,-8(fp)
    fifo_write_block(FIFO_OUT_TO_6_BASE, FIFO_OUT_TO_6_CSR_BASE, &name_len, 1);
   20fcc:	e0bffe04 	addi	r2,fp,-8
   20fd0:	01000134 	movhi	r4,4
   20fd4:	21042e04 	addi	r4,r4,4280
   20fd8:	01400134 	movhi	r5,4
   20fdc:	29441004 	addi	r5,r5,4160
   20fe0:	100d883a 	mov	r6,r2
   20fe4:	01c00044 	movi	r7,1
   20fe8:	002227c0 	call	2227c <fifo_write_block>

    int i;
    INT16 char_val;
    for (i = 0; i < name_len; i++) {
   20fec:	e03ffd15 	stw	zero,-12(fp)
   20ff0:	00001306 	br	21040 <send_output_filename_to_stage6+0x98>
        char_val = (INT16)filename[i];
   20ff4:	e0bffd17 	ldw	r2,-12(fp)
   20ff8:	e0ffff17 	ldw	r3,-4(fp)
   20ffc:	1885883a 	add	r2,r3,r2
   21000:	10800003 	ldbu	r2,0(r2)
   21004:	10803fcc 	andi	r2,r2,255
   21008:	1080201c 	xori	r2,r2,128
   2100c:	10bfe004 	addi	r2,r2,-128
   21010:	e0bffe8d 	sth	r2,-6(fp)
        fifo_write_block(FIFO_OUT_TO_6_BASE, FIFO_OUT_TO_6_CSR_BASE, &char_val, 1);
   21014:	e0bffe84 	addi	r2,fp,-6
   21018:	01000134 	movhi	r4,4
   2101c:	21042e04 	addi	r4,r4,4280
   21020:	01400134 	movhi	r5,4
   21024:	29441004 	addi	r5,r5,4160
   21028:	100d883a 	mov	r6,r2
   2102c:	01c00044 	movi	r7,1
   21030:	002227c0 	call	2227c <fifo_write_block>
    INT16 name_len = strlen(filename) + 1;
    fifo_write_block(FIFO_OUT_TO_6_BASE, FIFO_OUT_TO_6_CSR_BASE, &name_len, 1);

    int i;
    INT16 char_val;
    for (i = 0; i < name_len; i++) {
   21034:	e0bffd17 	ldw	r2,-12(fp)
   21038:	10800044 	addi	r2,r2,1
   2103c:	e0bffd15 	stw	r2,-12(fp)
   21040:	e0bffe0b 	ldhu	r2,-8(fp)
   21044:	10bfffcc 	andi	r2,r2,65535
   21048:	10a0001c 	xori	r2,r2,32768
   2104c:	10a00004 	addi	r2,r2,-32768
   21050:	e0fffd17 	ldw	r3,-12(fp)
   21054:	18bfe716 	blt	r3,r2,20ff4 <send_output_filename_to_stage6+0x4c>
        char_val = (INT16)filename[i];
        fifo_write_block(FIFO_OUT_TO_6_BASE, FIFO_OUT_TO_6_CSR_BASE, &char_val, 1);
    }
}
   21058:	e037883a 	mov	sp,fp
   2105c:	dfc00117 	ldw	ra,4(sp)
   21060:	df000017 	ldw	fp,0(sp)
   21064:	dec00204 	addi	sp,sp,8
   21068:	f800283a 	ret

0002106c <send_dynamic_header>:

void send_dynamic_header(int width, int height) {
   2106c:	defff904 	addi	sp,sp,-28
   21070:	dfc00615 	stw	ra,24(sp)
   21074:	df000515 	stw	fp,20(sp)
   21078:	df000504 	addi	fp,sp,20
   2107c:	e13ffe15 	stw	r4,-8(fp)
   21080:	e17fff15 	stw	r5,-4(fp)
    memcpy(global_dynamic_header, full_jpeg_headers_template, 623);
   21084:	00c00134 	movhi	r3,4
   21088:	18e17704 	addi	r3,r3,-31268
   2108c:	008000f4 	movhi	r2,3
   21090:	10913904 	addi	r2,r2,17636
   21094:	1809883a 	mov	r4,r3
   21098:	1007883a 	mov	r3,r2
   2109c:	00809bc4 	movi	r2,623
   210a0:	180b883a 	mov	r5,r3
   210a4:	100d883a 	mov	r6,r2
   210a8:	00252e40 	call	252e4 <memcpy>

    int i;
    for(i = 0; i < 64; i++) {
   210ac:	e03ffb15 	stw	zero,-20(fp)
   210b0:	00002506 	br	21148 <send_dynamic_header+0xdc>
        global_dynamic_header[25 + i] = global_scaled_q_luma[ZIGZAG[i]];
   210b4:	e0bffb17 	ldw	r2,-20(fp)
   210b8:	11000644 	addi	r4,r2,25
   210bc:	00c000f4 	movhi	r3,3
   210c0:	18d1f504 	addi	r3,r3,18388
   210c4:	e0bffb17 	ldw	r2,-20(fp)
   210c8:	1085883a 	add	r2,r2,r2
   210cc:	1085883a 	add	r2,r2,r2
   210d0:	1885883a 	add	r2,r3,r2
   210d4:	10800017 	ldw	r2,0(r2)
   210d8:	00c000f4 	movhi	r3,3
   210dc:	18dca704 	addi	r3,r3,29340
   210e0:	1885883a 	add	r2,r3,r2
   210e4:	10c00003 	ldbu	r3,0(r2)
   210e8:	00800134 	movhi	r2,4
   210ec:	10a17704 	addi	r2,r2,-31268
   210f0:	1105883a 	add	r2,r2,r4
   210f4:	10c00005 	stb	r3,0(r2)
        global_dynamic_header[94 + i] = global_scaled_q_chroma[ZIGZAG[i]];
   210f8:	e0bffb17 	ldw	r2,-20(fp)
   210fc:	11001784 	addi	r4,r2,94
   21100:	00c000f4 	movhi	r3,3
   21104:	18d1f504 	addi	r3,r3,18388
   21108:	e0bffb17 	ldw	r2,-20(fp)
   2110c:	1085883a 	add	r2,r2,r2
   21110:	1085883a 	add	r2,r2,r2
   21114:	1885883a 	add	r2,r3,r2
   21118:	10800017 	ldw	r2,0(r2)
   2111c:	00c000f4 	movhi	r3,3
   21120:	18dcb704 	addi	r3,r3,29404
   21124:	1885883a 	add	r2,r3,r2
   21128:	10c00003 	ldbu	r3,0(r2)
   2112c:	00800134 	movhi	r2,4
   21130:	10a17704 	addi	r2,r2,-31268
   21134:	1105883a 	add	r2,r2,r4
   21138:	10c00005 	stb	r3,0(r2)

void send_dynamic_header(int width, int height) {
    memcpy(global_dynamic_header, full_jpeg_headers_template, 623);

    int i;
    for(i = 0; i < 64; i++) {
   2113c:	e0bffb17 	ldw	r2,-20(fp)
   21140:	10800044 	addi	r2,r2,1
   21144:	e0bffb15 	stw	r2,-20(fp)
   21148:	e0bffb17 	ldw	r2,-20(fp)
   2114c:	10801010 	cmplti	r2,r2,64
   21150:	103fd81e 	bne	r2,zero,210b4 <send_dynamic_header+0x48>
        global_dynamic_header[25 + i] = global_scaled_q_luma[ZIGZAG[i]];
        global_dynamic_header[94 + i] = global_scaled_q_chroma[ZIGZAG[i]];
    }

    int sof_offset = 158;
   21154:	00802784 	movi	r2,158
   21158:	e0bffc15 	stw	r2,-16(fp)
    global_dynamic_header[sof_offset + 5] = (height >> 8) & 0xFF;
   2115c:	e0bffc17 	ldw	r2,-16(fp)
   21160:	10800144 	addi	r2,r2,5
   21164:	e0ffff17 	ldw	r3,-4(fp)
   21168:	1807d23a 	srai	r3,r3,8
   2116c:	01000134 	movhi	r4,4
   21170:	21217704 	addi	r4,r4,-31268
   21174:	2085883a 	add	r2,r4,r2
   21178:	10c00005 	stb	r3,0(r2)
    global_dynamic_header[sof_offset + 6] = height & 0xFF;
   2117c:	e0bffc17 	ldw	r2,-16(fp)
   21180:	10800184 	addi	r2,r2,6
   21184:	e0ffff17 	ldw	r3,-4(fp)
   21188:	01000134 	movhi	r4,4
   2118c:	21217704 	addi	r4,r4,-31268
   21190:	2085883a 	add	r2,r4,r2
   21194:	10c00005 	stb	r3,0(r2)
    global_dynamic_header[sof_offset + 7] = (width >> 8) & 0xFF;
   21198:	e0bffc17 	ldw	r2,-16(fp)
   2119c:	108001c4 	addi	r2,r2,7
   211a0:	e0fffe17 	ldw	r3,-8(fp)
   211a4:	1807d23a 	srai	r3,r3,8
   211a8:	01000134 	movhi	r4,4
   211ac:	21217704 	addi	r4,r4,-31268
   211b0:	2085883a 	add	r2,r4,r2
   211b4:	10c00005 	stb	r3,0(r2)
    global_dynamic_header[sof_offset + 8] = width & 0xFF;
   211b8:	e0bffc17 	ldw	r2,-16(fp)
   211bc:	10800204 	addi	r2,r2,8
   211c0:	e0fffe17 	ldw	r3,-8(fp)
   211c4:	01000134 	movhi	r4,4
   211c8:	21217704 	addi	r4,r4,-31268
   211cc:	2085883a 	add	r2,r4,r2
   211d0:	10c00005 	stb	r3,0(r2)

    INT16 header_size = 623;
   211d4:	00809bc4 	movi	r2,623
   211d8:	e0bffd0d 	sth	r2,-12(fp)
    fifo_write_block(FIFO_OUT_TO_6_BASE, FIFO_OUT_TO_6_CSR_BASE, &header_size, 1);
   211dc:	e0bffd04 	addi	r2,fp,-12
   211e0:	01000134 	movhi	r4,4
   211e4:	21042e04 	addi	r4,r4,4280
   211e8:	01400134 	movhi	r5,4
   211ec:	29441004 	addi	r5,r5,4160
   211f0:	100d883a 	mov	r6,r2
   211f4:	01c00044 	movi	r7,1
   211f8:	002227c0 	call	2227c <fifo_write_block>

    INT16 send_buffer[1];
    for (i = 0; i < header_size; i++) {
   211fc:	e03ffb15 	stw	zero,-20(fp)
   21200:	00001206 	br	2124c <send_dynamic_header+0x1e0>
        send_buffer[0] = (INT16)global_dynamic_header[i];
   21204:	00c00134 	movhi	r3,4
   21208:	18e17704 	addi	r3,r3,-31268
   2120c:	e0bffb17 	ldw	r2,-20(fp)
   21210:	1885883a 	add	r2,r3,r2
   21214:	10800003 	ldbu	r2,0(r2)
   21218:	10803fcc 	andi	r2,r2,255
   2121c:	e0bffd8d 	sth	r2,-10(fp)
        fifo_write_block(FIFO_OUT_TO_6_BASE, FIFO_OUT_TO_6_CSR_BASE, send_buffer, 1);
   21220:	e0bffd84 	addi	r2,fp,-10
   21224:	01000134 	movhi	r4,4
   21228:	21042e04 	addi	r4,r4,4280
   2122c:	01400134 	movhi	r5,4
   21230:	29441004 	addi	r5,r5,4160
   21234:	100d883a 	mov	r6,r2
   21238:	01c00044 	movi	r7,1
   2123c:	002227c0 	call	2227c <fifo_write_block>

    INT16 header_size = 623;
    fifo_write_block(FIFO_OUT_TO_6_BASE, FIFO_OUT_TO_6_CSR_BASE, &header_size, 1);

    INT16 send_buffer[1];
    for (i = 0; i < header_size; i++) {
   21240:	e0bffb17 	ldw	r2,-20(fp)
   21244:	10800044 	addi	r2,r2,1
   21248:	e0bffb15 	stw	r2,-20(fp)
   2124c:	e0bffd0b 	ldhu	r2,-12(fp)
   21250:	10bfffcc 	andi	r2,r2,65535
   21254:	10a0001c 	xori	r2,r2,32768
   21258:	10a00004 	addi	r2,r2,-32768
   2125c:	e0fffb17 	ldw	r3,-20(fp)
   21260:	18bfe816 	blt	r3,r2,21204 <send_dynamic_header+0x198>
        send_buffer[0] = (INT16)global_dynamic_header[i];
        fifo_write_block(FIFO_OUT_TO_6_BASE, FIFO_OUT_TO_6_CSR_BASE, send_buffer, 1);
    }
}
   21264:	e037883a 	mov	sp,fp
   21268:	dfc00117 	ldw	ra,4(sp)
   2126c:	df000017 	ldw	fp,0(sp)
   21270:	dec00204 	addi	sp,sp,8
   21274:	f800283a 	ret

00021278 <main>:


// --- MAIN FUNCTION ---
int main() {
   21278:	deffb304 	addi	sp,sp,-308
   2127c:	dfc04c15 	stw	ra,304(sp)
   21280:	df004b15 	stw	fp,300(sp)
   21284:	dc004a15 	stw	r16,296(sp)
   21288:	df004a04 	addi	fp,sp,296
    printf("--- Nios II: Stage 1 (Master Controller & File Config) ---\n\n");
   2128c:	010000f4 	movhi	r4,3
   21290:	21123504 	addi	r4,r4,18644
   21294:	00256580 	call	25658 <puts>

    fifo_init(FIFO_OUT_CSR_BASE);
   21298:	01000134 	movhi	r4,4
   2129c:	21041804 	addi	r4,r4,4192
   212a0:	00221cc0 	call	221cc <fifo_init>
    fifo_init(FIFO_OUT_TO_4_CSR_BASE);
   212a4:	01000134 	movhi	r4,4
   212a8:	21040804 	addi	r4,r4,4128
   212ac:	00221cc0 	call	221cc <fifo_init>
    fifo_init(FIFO_OUT_TO_5_CSR_BASE);
   212b0:	01000134 	movhi	r4,4
   212b4:	21040004 	addi	r4,r4,4096
   212b8:	00221cc0 	call	221cc <fifo_init>
    fifo_init(FIFO_OUT_TO_6_CSR_BASE);
   212bc:	01000134 	movhi	r4,4
   212c0:	21041004 	addi	r4,r4,4160
   212c4:	00221cc0 	call	221cc <fifo_init>

    char input_filename[64];
    char output_filename[64];
    int quality = 50;
   212c8:	00800c84 	movi	r2,50
   212cc:	e0bff915 	stw	r2,-28(fp)
    int num_images = 0;
   212d0:	e03ffa15 	stw	zero,-24(fp)

    printf("Reading config file (/mnt/host/files/config.txt)...\n");
   212d4:	010000f4 	movhi	r4,3
   212d8:	21124404 	addi	r4,r4,18704
   212dc:	00256580 	call	25658 <puts>
    FILE *f_cfg = fopen("/mnt/host/files/config.txt", "r");
   212e0:	010000f4 	movhi	r4,3
   212e4:	21125104 	addi	r4,r4,18756
   212e8:	014000f4 	movhi	r5,3
   212ec:	29525804 	addi	r5,r5,18784
   212f0:	0023b680 	call	23b68 <fopen>
   212f4:	e0bfc315 	stw	r2,-244(fp)

    if (!f_cfg) {
   212f8:	e0bfc317 	ldw	r2,-244(fp)
   212fc:	1000051e 	bne	r2,zero,21314 <main+0x9c>
        printf("ERROR: Could not open config file!\n");
   21300:	010000f4 	movhi	r4,3
   21304:	21125904 	addi	r4,r4,18788
   21308:	00256580 	call	25658 <puts>
        return -1;
   2130c:	00bfffc4 	movi	r2,-1
   21310:	0003a806 	br	221b4 <main+0xf3c>
    }

    if (fscanf(f_cfg, "%d", &num_images) != 1) {
   21314:	e0bffa04 	addi	r2,fp,-24
   21318:	e13fc317 	ldw	r4,-244(fp)
   2131c:	014000f4 	movhi	r5,3
   21320:	29526204 	addi	r5,r5,18824
   21324:	100d883a 	mov	r6,r2
   21328:	002420c0 	call	2420c <fscanf>
   2132c:	10800060 	cmpeqi	r2,r2,1
   21330:	1000071e 	bne	r2,zero,21350 <main+0xd8>
        printf("ERROR: Config file missing image count on line 1.\n");
   21334:	010000f4 	movhi	r4,3
   21338:	21126304 	addi	r4,r4,18828
   2133c:	00256580 	call	25658 <puts>
        fclose(f_cfg);
   21340:	e13fc317 	ldw	r4,-244(fp)
   21344:	00235200 	call	23520 <fclose>
        return -1;
   21348:	00bfffc4 	movi	r2,-1
   2134c:	00039906 	br	221b4 <main+0xf3c>
    }

    printf("Batch Job Initialized: Processing %d images...\n", num_images);
   21350:	e0bffa17 	ldw	r2,-24(fp)
   21354:	010000f4 	movhi	r4,3
   21358:	21127004 	addi	r4,r4,18880
   2135c:	100b883a 	mov	r5,r2
   21360:	00255980 	call	25598 <printf>

    int img_idx;
    for (img_idx = 0; img_idx < num_images; img_idx++) {
   21364:	e03fb815 	stw	zero,-288(fp)
   21368:	00037a06 	br	22154 <main+0xedc>
    	int read_in = fscanf(f_cfg, "%s", input_filename);
   2136c:	e0bfd904 	addi	r2,fp,-156
   21370:	e13fc317 	ldw	r4,-244(fp)
   21374:	014000f4 	movhi	r5,3
   21378:	29527c04 	addi	r5,r5,18928
   2137c:	100d883a 	mov	r6,r2
   21380:	002420c0 	call	2420c <fscanf>
   21384:	e0bfc415 	stw	r2,-240(fp)
		int read_out = fscanf(f_cfg, "%s", output_filename);
   21388:	e0bfe904 	addi	r2,fp,-92
   2138c:	e13fc317 	ldw	r4,-244(fp)
   21390:	014000f4 	movhi	r5,3
   21394:	29527c04 	addi	r5,r5,18928
   21398:	100d883a 	mov	r6,r2
   2139c:	002420c0 	call	2420c <fscanf>
   213a0:	e0bfc515 	stw	r2,-236(fp)
		int read_q = fscanf(f_cfg, "%d", &quality);
   213a4:	e0bff904 	addi	r2,fp,-28
   213a8:	e13fc317 	ldw	r4,-244(fp)
   213ac:	014000f4 	movhi	r5,3
   213b0:	29526204 	addi	r5,r5,18824
   213b4:	100d883a 	mov	r6,r2
   213b8:	002420c0 	call	2420c <fscanf>
   213bc:	e0bfc615 	stw	r2,-232(fp)

		if (read_in != 1 || read_out != 1 || read_q != 1) {
   213c0:	e0bfc417 	ldw	r2,-240(fp)
   213c4:	10800058 	cmpnei	r2,r2,1
   213c8:	1000061e 	bne	r2,zero,213e4 <main+0x16c>
   213cc:	e0bfc517 	ldw	r2,-236(fp)
   213d0:	10800058 	cmpnei	r2,r2,1
   213d4:	1000031e 	bne	r2,zero,213e4 <main+0x16c>
   213d8:	e0bfc617 	ldw	r2,-232(fp)
   213dc:	10800060 	cmpeqi	r2,r2,1
   213e0:	1000131e 	bne	r2,zero,21430 <main+0x1b8>
			printf("ERROR: Config parsing failed on Image %d!\n", img_idx + 1);
   213e4:	e0bfb817 	ldw	r2,-288(fp)
   213e8:	10800044 	addi	r2,r2,1
   213ec:	010000f4 	movhi	r4,3
   213f0:	21127d04 	addi	r4,r4,18932
   213f4:	100b883a 	mov	r5,r2
   213f8:	00255980 	call	25598 <printf>
			printf("  read_in result: %d (Expected 1)\n", read_in);
   213fc:	010000f4 	movhi	r4,3
   21400:	21128804 	addi	r4,r4,18976
   21404:	e17fc417 	ldw	r5,-240(fp)
   21408:	00255980 	call	25598 <printf>
			printf("  read_out result: %d (Expected 1)\n", read_out);
   2140c:	010000f4 	movhi	r4,3
   21410:	21129104 	addi	r4,r4,19012
   21414:	e17fc517 	ldw	r5,-236(fp)
   21418:	00255980 	call	25598 <printf>
			printf("  read_q result: %d (Expected 1)\n", read_q);
   2141c:	010000f4 	movhi	r4,3
   21420:	21129a04 	addi	r4,r4,19048
   21424:	e17fc617 	ldw	r5,-232(fp)
   21428:	00255980 	call	25598 <printf>
   2142c:	00034c06 	br	22160 <main+0xee8>
			break;
		}

        if (quality < 1) quality = 1;
   21430:	e0bff917 	ldw	r2,-28(fp)
   21434:	00800216 	blt	zero,r2,21440 <main+0x1c8>
   21438:	00800044 	movi	r2,1
   2143c:	e0bff915 	stw	r2,-28(fp)
        if (quality > 100) quality = 100;
   21440:	e0bff917 	ldw	r2,-28(fp)
   21444:	10801950 	cmplti	r2,r2,101
   21448:	1000021e 	bne	r2,zero,21454 <main+0x1dc>
   2144c:	00801904 	movi	r2,100
   21450:	e0bff915 	stw	r2,-28(fp)

        printf("\n============================================\n");
   21454:	010000f4 	movhi	r4,3
   21458:	2112a304 	addi	r4,r4,19084
   2145c:	00256580 	call	25658 <puts>
        printf("Processing Image %d of %d\n", img_idx + 1, num_images);
   21460:	e0bfb817 	ldw	r2,-288(fp)
   21464:	10c00044 	addi	r3,r2,1
   21468:	e0bffa17 	ldw	r2,-24(fp)
   2146c:	010000f4 	movhi	r4,3
   21470:	2112af04 	addi	r4,r4,19132
   21474:	180b883a 	mov	r5,r3
   21478:	100d883a 	mov	r6,r2
   2147c:	00255980 	call	25598 <printf>
        printf("  Input: %s\n  Output: %s\n  Quality: %d\n", input_filename, output_filename, quality);
   21480:	e0bff917 	ldw	r2,-28(fp)
   21484:	e17fd904 	addi	r5,fp,-156
   21488:	e0ffe904 	addi	r3,fp,-92
   2148c:	010000f4 	movhi	r4,3
   21490:	2112b604 	addi	r4,r4,19160
   21494:	180d883a 	mov	r6,r3
   21498:	100f883a 	mov	r7,r2
   2149c:	00255980 	call	25598 <printf>

        FILE *f_in = fopen(input_filename, "rb");
   214a0:	e0bfd904 	addi	r2,fp,-156
   214a4:	1009883a 	mov	r4,r2
   214a8:	014000f4 	movhi	r5,3
   214ac:	2952c004 	addi	r5,r5,19200
   214b0:	0023b680 	call	23b68 <fopen>
   214b4:	e0bfc715 	stw	r2,-228(fp)
        if (f_in == NULL) {
   214b8:	e0bfc717 	ldw	r2,-228(fp)
   214bc:	1000061e 	bne	r2,zero,214d8 <main+0x260>
            printf("ERROR: Could not open input file %s!\n", input_filename);
   214c0:	e0bfd904 	addi	r2,fp,-156
   214c4:	010000f4 	movhi	r4,3
   214c8:	2112c104 	addi	r4,r4,19204
   214cc:	100b883a 	mov	r5,r2
   214d0:	00255980 	call	25598 <printf>
   214d4:	00031c06 	br	22148 <main+0xed0>
            continue;
        }

        int width = 24, height = 24, pixel_offset = 0, bpp = 24;
   214d8:	00800604 	movi	r2,24
   214dc:	e0bffb15 	stw	r2,-20(fp)
   214e0:	00800604 	movi	r2,24
   214e4:	e0bffc15 	stw	r2,-16(fp)
   214e8:	e03ffd15 	stw	zero,-12(fp)
   214ec:	00800604 	movi	r2,24
   214f0:	e0bffe15 	stw	r2,-8(fp)
        int is_bmp = parse_image_header(f_in, &width, &height, &pixel_offset, &bpp);
   214f4:	e17ffb04 	addi	r5,fp,-20
   214f8:	e0fffc04 	addi	r3,fp,-16
   214fc:	e0bffd04 	addi	r2,fp,-12
   21500:	e13ffe04 	addi	r4,fp,-8
   21504:	d9000015 	stw	r4,0(sp)
   21508:	e13fc717 	ldw	r4,-228(fp)
   2150c:	180d883a 	mov	r6,r3
   21510:	100f883a 	mov	r7,r2
   21514:	0020c340 	call	20c34 <parse_image_header>
   21518:	e0bfc815 	stw	r2,-224(fp)

        if (is_bmp && bpp != 24) {
   2151c:	e0bfc817 	ldw	r2,-224(fp)
   21520:	10000b26 	beq	r2,zero,21550 <main+0x2d8>
   21524:	e0bffe17 	ldw	r2,-8(fp)
   21528:	10800620 	cmpeqi	r2,r2,24
   2152c:	1000081e 	bne	r2,zero,21550 <main+0x2d8>
            printf("ERROR: Image is %d-bit. Must be 24-bit BMP. Skipping.\n", bpp);
   21530:	e0bffe17 	ldw	r2,-8(fp)
   21534:	010000f4 	movhi	r4,3
   21538:	2112cb04 	addi	r4,r4,19244
   2153c:	100b883a 	mov	r5,r2
   21540:	00255980 	call	25598 <printf>
            fclose(f_in);
   21544:	e13fc717 	ldw	r4,-228(fp)
   21548:	00235200 	call	23520 <fclose>
   2154c:	0002fe06 	br	22148 <main+0xed0>
            continue;
        }

        int scale;
        if (quality < 50) scale = 5000 / quality;
   21550:	e0bff917 	ldw	r2,-28(fp)
   21554:	10800c88 	cmpgei	r2,r2,50
   21558:	1000061e 	bne	r2,zero,21574 <main+0x2fc>
   2155c:	e0bff917 	ldw	r2,-28(fp)
   21560:	0104e204 	movi	r4,5000
   21564:	100b883a 	mov	r5,r2
   21568:	0022e940 	call	22e94 <__divsi3>
   2156c:	e0bfb915 	stw	r2,-284(fp)
   21570:	00000506 	br	21588 <main+0x310>
        else scale = 200 - quality * 2;
   21574:	e0bff917 	ldw	r2,-28(fp)
   21578:	00c01904 	movi	r3,100
   2157c:	1885c83a 	sub	r2,r3,r2
   21580:	1085883a 	add	r2,r2,r2
   21584:	e0bfb915 	stw	r2,-284(fp)

        int i, temp;
        for (i = 0; i < 64; i++) {
   21588:	e03fba15 	stw	zero,-280(fp)
   2158c:	00003f06 	br	2168c <main+0x414>
            temp = (q_table_luma[i] * scale + 50) / 100;
   21590:	00c000f4 	movhi	r3,3
   21594:	18d1d4c4 	addi	r3,r3,18259
   21598:	e0bfba17 	ldw	r2,-280(fp)
   2159c:	1885883a 	add	r2,r3,r2
   215a0:	10800003 	ldbu	r2,0(r2)
   215a4:	10803fcc 	andi	r2,r2,255
   215a8:	1009883a 	mov	r4,r2
   215ac:	e17fb917 	ldw	r5,-284(fp)
   215b0:	0022f500 	call	22f50 <__mulsi3>
   215b4:	10800c84 	addi	r2,r2,50
   215b8:	1009883a 	mov	r4,r2
   215bc:	01401904 	movi	r5,100
   215c0:	0022e940 	call	22e94 <__divsi3>
   215c4:	e0bfbb15 	stw	r2,-276(fp)
            if (temp < 1) temp = 1; if (temp > 255) temp = 255;
   215c8:	e0bfbb17 	ldw	r2,-276(fp)
   215cc:	00800216 	blt	zero,r2,215d8 <main+0x360>
   215d0:	00800044 	movi	r2,1
   215d4:	e0bfbb15 	stw	r2,-276(fp)
   215d8:	e0bfbb17 	ldw	r2,-276(fp)
   215dc:	10804010 	cmplti	r2,r2,256
   215e0:	1000021e 	bne	r2,zero,215ec <main+0x374>
   215e4:	00803fc4 	movi	r2,255
   215e8:	e0bfbb15 	stw	r2,-276(fp)
            global_scaled_q_luma[i] = (UINT8)temp;
   215ec:	e0bfbb17 	ldw	r2,-276(fp)
   215f0:	1007883a 	mov	r3,r2
   215f4:	010000f4 	movhi	r4,3
   215f8:	211ca704 	addi	r4,r4,29340
   215fc:	e0bfba17 	ldw	r2,-280(fp)
   21600:	2085883a 	add	r2,r4,r2
   21604:	10c00005 	stb	r3,0(r2)

            temp = (q_table_chroma[i] * scale + 50) / 100;
   21608:	00c000f4 	movhi	r3,3
   2160c:	18d1e4c4 	addi	r3,r3,18323
   21610:	e0bfba17 	ldw	r2,-280(fp)
   21614:	1885883a 	add	r2,r3,r2
   21618:	10800003 	ldbu	r2,0(r2)
   2161c:	10803fcc 	andi	r2,r2,255
   21620:	1009883a 	mov	r4,r2
   21624:	e17fb917 	ldw	r5,-284(fp)
   21628:	0022f500 	call	22f50 <__mulsi3>
   2162c:	10800c84 	addi	r2,r2,50
   21630:	1009883a 	mov	r4,r2
   21634:	01401904 	movi	r5,100
   21638:	0022e940 	call	22e94 <__divsi3>
   2163c:	e0bfbb15 	stw	r2,-276(fp)
            if (temp < 1) temp = 1; if (temp > 255) temp = 255;
   21640:	e0bfbb17 	ldw	r2,-276(fp)
   21644:	00800216 	blt	zero,r2,21650 <main+0x3d8>
   21648:	00800044 	movi	r2,1
   2164c:	e0bfbb15 	stw	r2,-276(fp)
   21650:	e0bfbb17 	ldw	r2,-276(fp)
   21654:	10804010 	cmplti	r2,r2,256
   21658:	1000021e 	bne	r2,zero,21664 <main+0x3ec>
   2165c:	00803fc4 	movi	r2,255
   21660:	e0bfbb15 	stw	r2,-276(fp)
            global_scaled_q_chroma[i] = (UINT8)temp;
   21664:	e0bfbb17 	ldw	r2,-276(fp)
   21668:	1007883a 	mov	r3,r2
   2166c:	010000f4 	movhi	r4,3
   21670:	211cb704 	addi	r4,r4,29404
   21674:	e0bfba17 	ldw	r2,-280(fp)
   21678:	2085883a 	add	r2,r4,r2
   2167c:	10c00005 	stb	r3,0(r2)
        int scale;
        if (quality < 50) scale = 5000 / quality;
        else scale = 200 - quality * 2;

        int i, temp;
        for (i = 0; i < 64; i++) {
   21680:	e0bfba17 	ldw	r2,-280(fp)
   21684:	10800044 	addi	r2,r2,1
   21688:	e0bfba15 	stw	r2,-280(fp)
   2168c:	e0bfba17 	ldw	r2,-280(fp)
   21690:	10801010 	cmplti	r2,r2,64
   21694:	103fbe1e 	bne	r2,zero,21590 <main+0x318>
            temp = (q_table_chroma[i] * scale + 50) / 100;
            if (temp < 1) temp = 1; if (temp > 255) temp = 255;
            global_scaled_q_chroma[i] = (UINT8)temp;
        }

        init_chroma_ac_tables();
   21698:	00202e40 	call	202e4 <init_chroma_ac_tables>

        printf("Stage 1: Dispatching config data to downstream processors...\n");
   2169c:	010000f4 	movhi	r4,3
   216a0:	2112d904 	addi	r4,r4,19300
   216a4:	00256580 	call	25658 <puts>
        send_output_filename_to_stage6(output_filename);
   216a8:	e0bfe904 	addi	r2,fp,-92
   216ac:	1009883a 	mov	r4,r2
   216b0:	0020fa80 	call	20fa8 <send_output_filename_to_stage6>
        send_dqt_to_stage4();
   216b4:	0020da80 	call	20da8 <send_dqt_to_stage4>
        send_dht_to_stage5();
   216b8:	0020e840 	call	20e84 <send_dht_to_stage5>
        send_dynamic_header(width, height);
   216bc:	e0fffb17 	ldw	r3,-20(fp)
   216c0:	e0bffc17 	ldw	r2,-16(fp)
   216c4:	1809883a 	mov	r4,r3
   216c8:	100b883a 	mov	r5,r2
   216cc:	002106c0 	call	2106c <send_dynamic_header>

        INT16 dimension_packet[2] = {(INT16)width, (INT16)height};
   216d0:	e0bffb17 	ldw	r2,-20(fp)
   216d4:	e0bfff0d 	sth	r2,-4(fp)
   216d8:	e0bffc17 	ldw	r2,-16(fp)
   216dc:	e0bfff8d 	sth	r2,-2(fp)
        fifo_write_block(FIFO_OUT_BASE, FIFO_OUT_CSR_BASE, dimension_packet, 2);
   216e0:	e0bfff04 	addi	r2,fp,-4
   216e4:	01000134 	movhi	r4,4
   216e8:	21042f04 	addi	r4,r4,4284
   216ec:	01400134 	movhi	r5,4
   216f0:	29441804 	addi	r5,r5,4192
   216f4:	100d883a 	mov	r6,r2
   216f8:	01c00084 	movi	r7,2
   216fc:	002227c0 	call	2227c <fifo_write_block>

        int mcus_x = (width + 7) / 8;
   21700:	e0bffb17 	ldw	r2,-20(fp)
   21704:	108001c4 	addi	r2,r2,7
   21708:	1000010e 	bge	r2,zero,21710 <main+0x498>
   2170c:	108001c4 	addi	r2,r2,7
   21710:	1005d0fa 	srai	r2,r2,3
   21714:	e0bfc915 	stw	r2,-220(fp)
        int mcus_y = (height + 7) / 8;
   21718:	e0bffc17 	ldw	r2,-16(fp)
   2171c:	108001c4 	addi	r2,r2,7
   21720:	1000010e 	bge	r2,zero,21728 <main+0x4b0>
   21724:	108001c4 	addi	r2,r2,7
   21728:	1005d0fa 	srai	r2,r2,3
   2172c:	e0bfca15 	stw	r2,-216(fp)
        int row_padded = (width * 3 + 3) & (~3);
   21730:	e0bffb17 	ldw	r2,-20(fp)
   21734:	10c00044 	addi	r3,r2,1
   21738:	1805883a 	mov	r2,r3
   2173c:	1085883a 	add	r2,r2,r2
   21740:	10c7883a 	add	r3,r2,r3
   21744:	00bfff04 	movi	r2,-4
   21748:	1884703a 	and	r2,r3,r2
   2174c:	e0bfcb15 	stw	r2,-212(fp)

        // --- HYBRID LOGIC CHECK ---
        int is_small_image = (width <= 32 && height <= 32);
   21750:	e0bffb17 	ldw	r2,-20(fp)
   21754:	10800848 	cmpgei	r2,r2,33
   21758:	1000051e 	bne	r2,zero,21770 <main+0x4f8>
   2175c:	e0bffc17 	ldw	r2,-16(fp)
   21760:	10800848 	cmpgei	r2,r2,33
   21764:	1000021e 	bne	r2,zero,21770 <main+0x4f8>
   21768:	00800044 	movi	r2,1
   2176c:	00000106 	br	21774 <main+0x4fc>
   21770:	0005883a 	mov	r2,zero
   21774:	e0bfcc15 	stw	r2,-208(fp)
        int y, c;

        if (is_small_image) {
   21778:	e0bfcc17 	ldw	r2,-208(fp)
   2177c:	10009826 	beq	r2,zero,219e0 <main+0x768>
            printf("Stage 1: Small image detected (%dx%d). Using Fast-Path Strip Buffer...\n", width, height);
   21780:	e0fffb17 	ldw	r3,-20(fp)
   21784:	e0bffc17 	ldw	r2,-16(fp)
   21788:	010000f4 	movhi	r4,3
   2178c:	2112e904 	addi	r4,r4,19364
   21790:	180b883a 	mov	r5,r3
   21794:	100d883a 	mov	r6,r2
   21798:	00255980 	call	25598 <printf>
            for (y = 0; y < height; y++) {
   2179c:	e03fbc15 	stw	zero,-272(fp)
   217a0:	00008b06 	br	219d0 <main+0x758>
                if (is_bmp) {
   217a4:	e0bfc817 	ldw	r2,-224(fp)
   217a8:	10006526 	beq	r2,zero,21940 <main+0x6c8>
                    int bmp_row = (height - 1) - y;
   217ac:	e0bffc17 	ldw	r2,-16(fp)
   217b0:	10ffffc4 	addi	r3,r2,-1
   217b4:	e0bfbc17 	ldw	r2,-272(fp)
   217b8:	1885c83a 	sub	r2,r3,r2
   217bc:	e0bfcd15 	stw	r2,-204(fp)
                    fseek(f_in, pixel_offset + (bmp_row * row_padded), SEEK_SET);
   217c0:	e13fcd17 	ldw	r4,-204(fp)
   217c4:	e17fcb17 	ldw	r5,-212(fp)
   217c8:	0022f500 	call	22f50 <__mulsi3>
   217cc:	1007883a 	mov	r3,r2
   217d0:	e0bffd17 	ldw	r2,-12(fp)
   217d4:	1885883a 	add	r2,r3,r2
   217d8:	e13fc717 	ldw	r4,-228(fp)
   217dc:	100b883a 	mov	r5,r2
   217e0:	000d883a 	mov	r6,zero
   217e4:	00246dc0 	call	246dc <fseek>
                    fread(global_row_data, 1, row_padded, f_in);
   217e8:	e0bfcb17 	ldw	r2,-212(fp)
   217ec:	01000134 	movhi	r4,4
   217f0:	212212c4 	addi	r4,r4,-30645
   217f4:	01400044 	movi	r5,1
   217f8:	100d883a 	mov	r6,r2
   217fc:	e1ffc717 	ldw	r7,-228(fp)
   21800:	0023dc00 	call	23dc0 <fread>
                    for (c = 0; c < width; c++) {
   21804:	e03fbd15 	stw	zero,-268(fp)
   21808:	00004906 	br	21930 <main+0x6b8>
                        global_full_image_buffer[(y * width + c) * 3 + 0] = global_row_data[c * 3 + 2];
   2180c:	e0bffb17 	ldw	r2,-20(fp)
   21810:	1009883a 	mov	r4,r2
   21814:	e17fbc17 	ldw	r5,-272(fp)
   21818:	0022f500 	call	22f50 <__mulsi3>
   2181c:	1007883a 	mov	r3,r2
   21820:	e0bfbd17 	ldw	r2,-268(fp)
   21824:	1887883a 	add	r3,r3,r2
   21828:	1805883a 	mov	r2,r3
   2182c:	1085883a 	add	r2,r2,r2
   21830:	10c9883a 	add	r4,r2,r3
   21834:	e0ffbd17 	ldw	r3,-268(fp)
   21838:	1805883a 	mov	r2,r3
   2183c:	1085883a 	add	r2,r2,r2
   21840:	10c5883a 	add	r2,r2,r3
   21844:	10800084 	addi	r2,r2,2
   21848:	00c00134 	movhi	r3,4
   2184c:	18e212c4 	addi	r3,r3,-30645
   21850:	1885883a 	add	r2,r3,r2
   21854:	10c00003 	ldbu	r3,0(r2)
   21858:	008000f4 	movhi	r2,3
   2185c:	109cf704 	addi	r2,r2,29660
   21860:	1105883a 	add	r2,r2,r4
   21864:	10c00005 	stb	r3,0(r2)
                        global_full_image_buffer[(y * width + c) * 3 + 1] = global_row_data[c * 3 + 1];
   21868:	e0bffb17 	ldw	r2,-20(fp)
   2186c:	1009883a 	mov	r4,r2
   21870:	e17fbc17 	ldw	r5,-272(fp)
   21874:	0022f500 	call	22f50 <__mulsi3>
   21878:	1007883a 	mov	r3,r2
   2187c:	e0bfbd17 	ldw	r2,-268(fp)
   21880:	1887883a 	add	r3,r3,r2
   21884:	1805883a 	mov	r2,r3
   21888:	1085883a 	add	r2,r2,r2
   2188c:	10c5883a 	add	r2,r2,r3
   21890:	11000044 	addi	r4,r2,1
   21894:	e0ffbd17 	ldw	r3,-268(fp)
   21898:	1805883a 	mov	r2,r3
   2189c:	1085883a 	add	r2,r2,r2
   218a0:	10c5883a 	add	r2,r2,r3
   218a4:	10800044 	addi	r2,r2,1
   218a8:	00c00134 	movhi	r3,4
   218ac:	18e212c4 	addi	r3,r3,-30645
   218b0:	1885883a 	add	r2,r3,r2
   218b4:	10c00003 	ldbu	r3,0(r2)
   218b8:	008000f4 	movhi	r2,3
   218bc:	109cf704 	addi	r2,r2,29660
   218c0:	1105883a 	add	r2,r2,r4
   218c4:	10c00005 	stb	r3,0(r2)
                        global_full_image_buffer[(y * width + c) * 3 + 2] = global_row_data[c * 3 + 0];
   218c8:	e0bffb17 	ldw	r2,-20(fp)
   218cc:	1009883a 	mov	r4,r2
   218d0:	e17fbc17 	ldw	r5,-272(fp)
   218d4:	0022f500 	call	22f50 <__mulsi3>
   218d8:	1007883a 	mov	r3,r2
   218dc:	e0bfbd17 	ldw	r2,-268(fp)
   218e0:	1887883a 	add	r3,r3,r2
   218e4:	1805883a 	mov	r2,r3
   218e8:	1085883a 	add	r2,r2,r2
   218ec:	10c5883a 	add	r2,r2,r3
   218f0:	11000084 	addi	r4,r2,2
   218f4:	e0ffbd17 	ldw	r3,-268(fp)
   218f8:	1805883a 	mov	r2,r3
   218fc:	1085883a 	add	r2,r2,r2
   21900:	10c5883a 	add	r2,r2,r3
   21904:	00c00134 	movhi	r3,4
   21908:	18e212c4 	addi	r3,r3,-30645
   2190c:	1885883a 	add	r2,r3,r2
   21910:	10c00003 	ldbu	r3,0(r2)
   21914:	008000f4 	movhi	r2,3
   21918:	109cf704 	addi	r2,r2,29660
   2191c:	1105883a 	add	r2,r2,r4
   21920:	10c00005 	stb	r3,0(r2)
            for (y = 0; y < height; y++) {
                if (is_bmp) {
                    int bmp_row = (height - 1) - y;
                    fseek(f_in, pixel_offset + (bmp_row * row_padded), SEEK_SET);
                    fread(global_row_data, 1, row_padded, f_in);
                    for (c = 0; c < width; c++) {
   21924:	e0bfbd17 	ldw	r2,-268(fp)
   21928:	10800044 	addi	r2,r2,1
   2192c:	e0bfbd15 	stw	r2,-268(fp)
   21930:	e0bffb17 	ldw	r2,-20(fp)
   21934:	e0ffbd17 	ldw	r3,-268(fp)
   21938:	18bfb416 	blt	r3,r2,2180c <main+0x594>
   2193c:	00002106 	br	219c4 <main+0x74c>
                        global_full_image_buffer[(y * width + c) * 3 + 0] = global_row_data[c * 3 + 2];
                        global_full_image_buffer[(y * width + c) * 3 + 1] = global_row_data[c * 3 + 1];
                        global_full_image_buffer[(y * width + c) * 3 + 2] = global_row_data[c * 3 + 0];
                    }
                } else {
                    fseek(f_in, pixel_offset + (y * width * 3), SEEK_SET);
   21940:	e0bffb17 	ldw	r2,-20(fp)
   21944:	1009883a 	mov	r4,r2
   21948:	e17fbc17 	ldw	r5,-272(fp)
   2194c:	0022f500 	call	22f50 <__mulsi3>
   21950:	1007883a 	mov	r3,r2
   21954:	1805883a 	mov	r2,r3
   21958:	1085883a 	add	r2,r2,r2
   2195c:	10c7883a 	add	r3,r2,r3
   21960:	e0bffd17 	ldw	r2,-12(fp)
   21964:	1885883a 	add	r2,r3,r2
   21968:	e13fc717 	ldw	r4,-228(fp)
   2196c:	100b883a 	mov	r5,r2
   21970:	000d883a 	mov	r6,zero
   21974:	00246dc0 	call	246dc <fseek>
                    fread(&global_full_image_buffer[y * width * 3], 1, width * 3, f_in);
   21978:	e0bffb17 	ldw	r2,-20(fp)
   2197c:	1009883a 	mov	r4,r2
   21980:	e17fbc17 	ldw	r5,-272(fp)
   21984:	0022f500 	call	22f50 <__mulsi3>
   21988:	1007883a 	mov	r3,r2
   2198c:	1805883a 	mov	r2,r3
   21990:	1085883a 	add	r2,r2,r2
   21994:	10c7883a 	add	r3,r2,r3
   21998:	008000f4 	movhi	r2,3
   2199c:	109cf704 	addi	r2,r2,29660
   219a0:	1889883a 	add	r4,r3,r2
   219a4:	e0fffb17 	ldw	r3,-20(fp)
   219a8:	1805883a 	mov	r2,r3
   219ac:	1085883a 	add	r2,r2,r2
   219b0:	10c5883a 	add	r2,r2,r3
   219b4:	01400044 	movi	r5,1
   219b8:	100d883a 	mov	r6,r2
   219bc:	e1ffc717 	ldw	r7,-228(fp)
   219c0:	0023dc00 	call	23dc0 <fread>
        int is_small_image = (width <= 32 && height <= 32);
        int y, c;

        if (is_small_image) {
            printf("Stage 1: Small image detected (%dx%d). Using Fast-Path Strip Buffer...\n", width, height);
            for (y = 0; y < height; y++) {
   219c4:	e0bfbc17 	ldw	r2,-272(fp)
   219c8:	10800044 	addi	r2,r2,1
   219cc:	e0bfbc15 	stw	r2,-272(fp)
   219d0:	e0bffc17 	ldw	r2,-16(fp)
   219d4:	e0ffbc17 	ldw	r3,-272(fp)
   219d8:	18bf7216 	blt	r3,r2,217a4 <main+0x52c>
   219dc:	00000706 	br	219fc <main+0x784>
                    fseek(f_in, pixel_offset + (y * width * 3), SEEK_SET);
                    fread(&global_full_image_buffer[y * width * 3], 1, width * 3, f_in);
                }
            }
        } else {
            printf("Stage 1: Large image detected (%dx%d). Using MCU-by-MCU Architecture...\n", width, height);
   219e0:	e0fffb17 	ldw	r3,-20(fp)
   219e4:	e0bffc17 	ldw	r2,-16(fp)
   219e8:	010000f4 	movhi	r4,3
   219ec:	2112fb04 	addi	r4,r4,19436
   219f0:	180b883a 	mov	r5,r3
   219f4:	100d883a 	mov	r6,r2
   219f8:	00255980 	call	25598 <printf>
        }

        printf("Stage 1: Streaming image to pipeline...\n");
   219fc:	010000f4 	movhi	r4,3
   21a00:	21130e04 	addi	r4,r4,19512
   21a04:	00256580 	call	25658 <puts>

        if (alt_timestamp_start() < 0) printf("Timer Error!\n");
   21a08:	00331f00 	call	331f0 <alt_timestamp_start>
   21a0c:	1000030e 	bge	r2,zero,21a1c <main+0x7a4>
   21a10:	010000f4 	movhi	r4,3
   21a14:	21131804 	addi	r4,r4,19552
   21a18:	00256580 	call	25658 <puts>
        alt_u32 start_time = alt_timestamp();
   21a1c:	00332780 	call	33278 <alt_timestamp>
   21a20:	e0bfce15 	stw	r2,-200(fp)

        if (is_small_image) {
   21a24:	e0bfcc17 	ldw	r2,-208(fp)
   21a28:	10006626 	beq	r2,zero,21bc4 <main+0x94c>
            int mcu_y;
            for (mcu_y = 0; mcu_y < mcus_y; mcu_y++) {
   21a2c:	e03fbe15 	stw	zero,-264(fp)
   21a30:	00006006 	br	21bb4 <main+0x93c>
                for (y = 0; y < 8; y++) {
   21a34:	e03fbc15 	stw	zero,-272(fp)
   21a38:	00004c06 	br	21b6c <main+0x8f4>
                    int global_y = mcu_y * 8 + y;
   21a3c:	e0bfbe17 	ldw	r2,-264(fp)
   21a40:	100690fa 	slli	r3,r2,3
   21a44:	e0bfbc17 	ldw	r2,-272(fp)
   21a48:	1885883a 	add	r2,r3,r2
   21a4c:	e0bfcf15 	stw	r2,-196(fp)
                    if (global_y >= height) {
   21a50:	e0bffc17 	ldw	r2,-16(fp)
   21a54:	e0ffcf17 	ldw	r3,-196(fp)
   21a58:	18802216 	blt	r3,r2,21ae4 <main+0x86c>
                        if (y > 0) memcpy(&global_strip_buffer[y * width * 3], &global_strip_buffer[(y - 1) * width * 3], width * 3);
   21a5c:	e0bfbc17 	ldw	r2,-272(fp)
   21a60:	00803e0e 	bge	zero,r2,21b5c <main+0x8e4>
   21a64:	e0bffb17 	ldw	r2,-20(fp)
   21a68:	1009883a 	mov	r4,r2
   21a6c:	e17fbc17 	ldw	r5,-272(fp)
   21a70:	0022f500 	call	22f50 <__mulsi3>
   21a74:	1007883a 	mov	r3,r2
   21a78:	1805883a 	mov	r2,r3
   21a7c:	1085883a 	add	r2,r2,r2
   21a80:	10c7883a 	add	r3,r2,r3
   21a84:	008000f4 	movhi	r2,3
   21a88:	109ff704 	addi	r2,r2,32732
   21a8c:	18a1883a 	add	r16,r3,r2
   21a90:	e0bfbc17 	ldw	r2,-272(fp)
   21a94:	10ffffc4 	addi	r3,r2,-1
   21a98:	1805883a 	mov	r2,r3
   21a9c:	1085883a 	add	r2,r2,r2
   21aa0:	10c7883a 	add	r3,r2,r3
   21aa4:	e0bffb17 	ldw	r2,-20(fp)
   21aa8:	1809883a 	mov	r4,r3
   21aac:	100b883a 	mov	r5,r2
   21ab0:	0022f500 	call	22f50 <__mulsi3>
   21ab4:	1007883a 	mov	r3,r2
   21ab8:	008000f4 	movhi	r2,3
   21abc:	109ff704 	addi	r2,r2,32732
   21ac0:	188b883a 	add	r5,r3,r2
   21ac4:	e0fffb17 	ldw	r3,-20(fp)
   21ac8:	1805883a 	mov	r2,r3
   21acc:	1085883a 	add	r2,r2,r2
   21ad0:	10c5883a 	add	r2,r2,r3
   21ad4:	8009883a 	mov	r4,r16
   21ad8:	100d883a 	mov	r6,r2
   21adc:	00252e40 	call	252e4 <memcpy>
                        continue;
   21ae0:	00001e06 	br	21b5c <main+0x8e4>
                    }
                    memcpy(&global_strip_buffer[y * width * 3], &global_full_image_buffer[global_y * width * 3], width * 3);
   21ae4:	e0bffb17 	ldw	r2,-20(fp)
   21ae8:	1009883a 	mov	r4,r2
   21aec:	e17fbc17 	ldw	r5,-272(fp)
   21af0:	0022f500 	call	22f50 <__mulsi3>
   21af4:	1007883a 	mov	r3,r2
   21af8:	1805883a 	mov	r2,r3
   21afc:	1085883a 	add	r2,r2,r2
   21b00:	10c7883a 	add	r3,r2,r3
   21b04:	008000f4 	movhi	r2,3
   21b08:	109ff704 	addi	r2,r2,32732
   21b0c:	18a1883a 	add	r16,r3,r2
   21b10:	e0bffb17 	ldw	r2,-20(fp)
   21b14:	1009883a 	mov	r4,r2
   21b18:	e17fcf17 	ldw	r5,-196(fp)
   21b1c:	0022f500 	call	22f50 <__mulsi3>
   21b20:	1007883a 	mov	r3,r2
   21b24:	1805883a 	mov	r2,r3
   21b28:	1085883a 	add	r2,r2,r2
   21b2c:	10c7883a 	add	r3,r2,r3
   21b30:	008000f4 	movhi	r2,3
   21b34:	109cf704 	addi	r2,r2,29660
   21b38:	188b883a 	add	r5,r3,r2
   21b3c:	e0fffb17 	ldw	r3,-20(fp)
   21b40:	1805883a 	mov	r2,r3
   21b44:	1085883a 	add	r2,r2,r2
   21b48:	10c5883a 	add	r2,r2,r3
   21b4c:	8009883a 	mov	r4,r16
   21b50:	100d883a 	mov	r6,r2
   21b54:	00252e40 	call	252e4 <memcpy>
   21b58:	00000106 	br	21b60 <main+0x8e8>
            for (mcu_y = 0; mcu_y < mcus_y; mcu_y++) {
                for (y = 0; y < 8; y++) {
                    int global_y = mcu_y * 8 + y;
                    if (global_y >= height) {
                        if (y > 0) memcpy(&global_strip_buffer[y * width * 3], &global_strip_buffer[(y - 1) * width * 3], width * 3);
                        continue;
   21b5c:	0001883a 	nop
        alt_u32 start_time = alt_timestamp();

        if (is_small_image) {
            int mcu_y;
            for (mcu_y = 0; mcu_y < mcus_y; mcu_y++) {
                for (y = 0; y < 8; y++) {
   21b60:	e0bfbc17 	ldw	r2,-272(fp)
   21b64:	10800044 	addi	r2,r2,1
   21b68:	e0bfbc15 	stw	r2,-272(fp)
   21b6c:	e0bfbc17 	ldw	r2,-272(fp)
   21b70:	10800210 	cmplti	r2,r2,8
   21b74:	103fb11e 	bne	r2,zero,21a3c <main+0x7c4>
                        if (y > 0) memcpy(&global_strip_buffer[y * width * 3], &global_strip_buffer[(y - 1) * width * 3], width * 3);
                        continue;
                    }
                    memcpy(&global_strip_buffer[y * width * 3], &global_full_image_buffer[global_y * width * 3], width * 3);
                }
                encode_mcu_row(global_strip_buffer, width, mcus_x, FIFO_OUT_BASE, FIFO_OUT_CSR_BASE, NULL);
   21b78:	e0bffb17 	ldw	r2,-20(fp)
   21b7c:	00c00134 	movhi	r3,4
   21b80:	18c41804 	addi	r3,r3,4192
   21b84:	d8c00015 	stw	r3,0(sp)
   21b88:	d8000115 	stw	zero,4(sp)
   21b8c:	010000f4 	movhi	r4,3
   21b90:	211ff704 	addi	r4,r4,32732
   21b94:	100b883a 	mov	r5,r2
   21b98:	e1bfc917 	ldw	r6,-220(fp)
   21b9c:	01c00134 	movhi	r7,4
   21ba0:	39c42f04 	addi	r7,r7,4284
   21ba4:	002005c0 	call	2005c <encode_mcu_row>
        if (alt_timestamp_start() < 0) printf("Timer Error!\n");
        alt_u32 start_time = alt_timestamp();

        if (is_small_image) {
            int mcu_y;
            for (mcu_y = 0; mcu_y < mcus_y; mcu_y++) {
   21ba8:	e0bfbe17 	ldw	r2,-264(fp)
   21bac:	10800044 	addi	r2,r2,1
   21bb0:	e0bfbe15 	stw	r2,-264(fp)
   21bb4:	e0ffbe17 	ldw	r3,-264(fp)
   21bb8:	e0bfca17 	ldw	r2,-216(fp)
   21bbc:	18bf9d16 	blt	r3,r2,21a34 <main+0x7bc>
   21bc0:	00011606 	br	2201c <main+0xda4>
                }
                encode_mcu_row(global_strip_buffer, width, mcus_x, FIFO_OUT_BASE, FIFO_OUT_CSR_BASE, NULL);
            }
        } else {
            int mcu_y, mcu_x;
            for (mcu_y = 0; mcu_y < mcus_y; mcu_y++) {
   21bc4:	e03fbf15 	stw	zero,-260(fp)
   21bc8:	00011106 	br	22010 <main+0xd98>
                for (mcu_x = 0; mcu_x < mcus_x; mcu_x++) {
   21bcc:	e03fc015 	stw	zero,-256(fp)
   21bd0:	00010906 	br	21ff8 <main+0xd80>
                    for (y = 0; y < 8; y++) {
   21bd4:	e03fbc15 	stw	zero,-272(fp)
   21bd8:	0000f606 	br	21fb4 <main+0xd3c>
                        int global_y = mcu_y * 8 + y;
   21bdc:	e0bfbf17 	ldw	r2,-260(fp)
   21be0:	100690fa 	slli	r3,r2,3
   21be4:	e0bfbc17 	ldw	r2,-272(fp)
   21be8:	1885883a 	add	r2,r3,r2
   21bec:	e0bfd015 	stw	r2,-192(fp)
                        int safe_y = (global_y >= height) ? (height - 1) : global_y;
   21bf0:	e0bffc17 	ldw	r2,-16(fp)
   21bf4:	e0ffd017 	ldw	r3,-192(fp)
   21bf8:	18800316 	blt	r3,r2,21c08 <main+0x990>
   21bfc:	e0bffc17 	ldw	r2,-16(fp)
   21c00:	10bfffc4 	addi	r2,r2,-1
   21c04:	00000106 	br	21c0c <main+0x994>
   21c08:	e0bfd017 	ldw	r2,-192(fp)
   21c0c:	e0bfd115 	stw	r2,-188(fp)
                        int read_width = 8;
   21c10:	00800204 	movi	r2,8
   21c14:	e0bfc115 	stw	r2,-252(fp)
                        if (mcu_x * 8 + 8 > width) read_width = width - mcu_x * 8;
   21c18:	e0bfc017 	ldw	r2,-256(fp)
   21c1c:	10800044 	addi	r2,r2,1
   21c20:	100490fa 	slli	r2,r2,3
   21c24:	e0fffb17 	ldw	r3,-20(fp)
   21c28:	1880070e 	bge	r3,r2,21c48 <main+0x9d0>
   21c2c:	e13fc017 	ldw	r4,-256(fp)
   21c30:	017ffe04 	movi	r5,-8
   21c34:	0022f500 	call	22f50 <__mulsi3>
   21c38:	1007883a 	mov	r3,r2
   21c3c:	e0bffb17 	ldw	r2,-20(fp)
   21c40:	1885883a 	add	r2,r3,r2
   21c44:	e0bfc115 	stw	r2,-252(fp)

                        if (is_bmp) {
   21c48:	e0bfc817 	ldw	r2,-224(fp)
   21c4c:	10006326 	beq	r2,zero,21ddc <main+0xb64>
                            int bmp_row = (height - 1) - safe_y;
   21c50:	e0bffc17 	ldw	r2,-16(fp)
   21c54:	10ffffc4 	addi	r3,r2,-1
   21c58:	e0bfd117 	ldw	r2,-188(fp)
   21c5c:	1885c83a 	sub	r2,r3,r2
   21c60:	e0bfd215 	stw	r2,-184(fp)
                            fseek(f_in, pixel_offset + (bmp_row * row_padded) + (mcu_x * 24), SEEK_SET);
   21c64:	e13fd217 	ldw	r4,-184(fp)
   21c68:	e17fcb17 	ldw	r5,-212(fp)
   21c6c:	0022f500 	call	22f50 <__mulsi3>
   21c70:	1007883a 	mov	r3,r2
   21c74:	e0bffd17 	ldw	r2,-12(fp)
   21c78:	18a1883a 	add	r16,r3,r2
   21c7c:	e13fc017 	ldw	r4,-256(fp)
   21c80:	01400604 	movi	r5,24
   21c84:	0022f500 	call	22f50 <__mulsi3>
   21c88:	8085883a 	add	r2,r16,r2
   21c8c:	e13fc717 	ldw	r4,-228(fp)
   21c90:	100b883a 	mov	r5,r2
   21c94:	000d883a 	mov	r6,zero
   21c98:	00246dc0 	call	246dc <fseek>

                            fread(global_row_data, 1, read_width * 3, f_in);
   21c9c:	e0ffc117 	ldw	r3,-252(fp)
   21ca0:	1805883a 	mov	r2,r3
   21ca4:	1085883a 	add	r2,r2,r2
   21ca8:	10c5883a 	add	r2,r2,r3
   21cac:	01000134 	movhi	r4,4
   21cb0:	212212c4 	addi	r4,r4,-30645
   21cb4:	01400044 	movi	r5,1
   21cb8:	100d883a 	mov	r6,r2
   21cbc:	e1ffc717 	ldw	r7,-228(fp)
   21cc0:	0023dc00 	call	23dc0 <fread>

                            for (c = 0; c < read_width; c++) {
   21cc4:	e03fbd15 	stw	zero,-268(fp)
   21cc8:	00004006 	br	21dcc <main+0xb54>
                                global_mcu_buffer[(y * 8 + c) * 3 + 0] = global_row_data[c * 3 + 2];
   21ccc:	e0bfbc17 	ldw	r2,-272(fp)
   21cd0:	100690fa 	slli	r3,r2,3
   21cd4:	e0bfbd17 	ldw	r2,-268(fp)
   21cd8:	1887883a 	add	r3,r3,r2
   21cdc:	1805883a 	mov	r2,r3
   21ce0:	1085883a 	add	r2,r2,r2
   21ce4:	10c9883a 	add	r4,r2,r3
   21ce8:	e0ffbd17 	ldw	r3,-268(fp)
   21cec:	1805883a 	mov	r2,r3
   21cf0:	1085883a 	add	r2,r2,r2
   21cf4:	10c5883a 	add	r2,r2,r3
   21cf8:	10800084 	addi	r2,r2,2
   21cfc:	00c00134 	movhi	r3,4
   21d00:	18e212c4 	addi	r3,r3,-30645
   21d04:	1885883a 	add	r2,r3,r2
   21d08:	10c00003 	ldbu	r3,0(r2)
   21d0c:	008000f4 	movhi	r2,3
   21d10:	109cc704 	addi	r2,r2,29468
   21d14:	1105883a 	add	r2,r2,r4
   21d18:	10c00005 	stb	r3,0(r2)
                                global_mcu_buffer[(y * 8 + c) * 3 + 1] = global_row_data[c * 3 + 1];
   21d1c:	e0bfbc17 	ldw	r2,-272(fp)
   21d20:	100690fa 	slli	r3,r2,3
   21d24:	e0bfbd17 	ldw	r2,-268(fp)
   21d28:	1887883a 	add	r3,r3,r2
   21d2c:	1805883a 	mov	r2,r3
   21d30:	1085883a 	add	r2,r2,r2
   21d34:	10c5883a 	add	r2,r2,r3
   21d38:	11000044 	addi	r4,r2,1
   21d3c:	e0ffbd17 	ldw	r3,-268(fp)
   21d40:	1805883a 	mov	r2,r3
   21d44:	1085883a 	add	r2,r2,r2
   21d48:	10c5883a 	add	r2,r2,r3
   21d4c:	10800044 	addi	r2,r2,1
   21d50:	00c00134 	movhi	r3,4
   21d54:	18e212c4 	addi	r3,r3,-30645
   21d58:	1885883a 	add	r2,r3,r2
   21d5c:	10c00003 	ldbu	r3,0(r2)
   21d60:	008000f4 	movhi	r2,3
   21d64:	109cc704 	addi	r2,r2,29468
   21d68:	1105883a 	add	r2,r2,r4
   21d6c:	10c00005 	stb	r3,0(r2)
                                global_mcu_buffer[(y * 8 + c) * 3 + 2] = global_row_data[c * 3 + 0];
   21d70:	e0bfbc17 	ldw	r2,-272(fp)
   21d74:	100690fa 	slli	r3,r2,3
   21d78:	e0bfbd17 	ldw	r2,-268(fp)
   21d7c:	1887883a 	add	r3,r3,r2
   21d80:	1805883a 	mov	r2,r3
   21d84:	1085883a 	add	r2,r2,r2
   21d88:	10c5883a 	add	r2,r2,r3
   21d8c:	11000084 	addi	r4,r2,2
   21d90:	e0ffbd17 	ldw	r3,-268(fp)
   21d94:	1805883a 	mov	r2,r3
   21d98:	1085883a 	add	r2,r2,r2
   21d9c:	10c5883a 	add	r2,r2,r3
   21da0:	00c00134 	movhi	r3,4
   21da4:	18e212c4 	addi	r3,r3,-30645
   21da8:	1885883a 	add	r2,r3,r2
   21dac:	10c00003 	ldbu	r3,0(r2)
   21db0:	008000f4 	movhi	r2,3
   21db4:	109cc704 	addi	r2,r2,29468
   21db8:	1105883a 	add	r2,r2,r4
   21dbc:	10c00005 	stb	r3,0(r2)
                            int bmp_row = (height - 1) - safe_y;
                            fseek(f_in, pixel_offset + (bmp_row * row_padded) + (mcu_x * 24), SEEK_SET);

                            fread(global_row_data, 1, read_width * 3, f_in);

                            for (c = 0; c < read_width; c++) {
   21dc0:	e0bfbd17 	ldw	r2,-268(fp)
   21dc4:	10800044 	addi	r2,r2,1
   21dc8:	e0bfbd15 	stw	r2,-268(fp)
   21dcc:	e0ffbd17 	ldw	r3,-268(fp)
   21dd0:	e0bfc117 	ldw	r2,-252(fp)
   21dd4:	18bfbd16 	blt	r3,r2,21ccc <main+0xa54>
   21dd8:	00002106 	br	21e60 <main+0xbe8>
                                global_mcu_buffer[(y * 8 + c) * 3 + 0] = global_row_data[c * 3 + 2];
                                global_mcu_buffer[(y * 8 + c) * 3 + 1] = global_row_data[c * 3 + 1];
                                global_mcu_buffer[(y * 8 + c) * 3 + 2] = global_row_data[c * 3 + 0];
                            }
                        } else {
                            fseek(f_in, pixel_offset + (safe_y * width * 3) + (mcu_x * 24), SEEK_SET);
   21ddc:	e0bffb17 	ldw	r2,-20(fp)
   21de0:	1009883a 	mov	r4,r2
   21de4:	e17fd117 	ldw	r5,-188(fp)
   21de8:	0022f500 	call	22f50 <__mulsi3>
   21dec:	1007883a 	mov	r3,r2
   21df0:	1805883a 	mov	r2,r3
   21df4:	1085883a 	add	r2,r2,r2
   21df8:	10c7883a 	add	r3,r2,r3
   21dfc:	e0bffd17 	ldw	r2,-12(fp)
   21e00:	18a1883a 	add	r16,r3,r2
   21e04:	e13fc017 	ldw	r4,-256(fp)
   21e08:	01400604 	movi	r5,24
   21e0c:	0022f500 	call	22f50 <__mulsi3>
   21e10:	8085883a 	add	r2,r16,r2
   21e14:	e13fc717 	ldw	r4,-228(fp)
   21e18:	100b883a 	mov	r5,r2
   21e1c:	000d883a 	mov	r6,zero
   21e20:	00246dc0 	call	246dc <fseek>
                            fread(&global_mcu_buffer[y * 24], 1, read_width * 3, f_in);
   21e24:	e13fbc17 	ldw	r4,-272(fp)
   21e28:	01400604 	movi	r5,24
   21e2c:	0022f500 	call	22f50 <__mulsi3>
   21e30:	1007883a 	mov	r3,r2
   21e34:	008000f4 	movhi	r2,3
   21e38:	109cc704 	addi	r2,r2,29468
   21e3c:	1889883a 	add	r4,r3,r2
   21e40:	e0ffc117 	ldw	r3,-252(fp)
   21e44:	1805883a 	mov	r2,r3
   21e48:	1085883a 	add	r2,r2,r2
   21e4c:	10c5883a 	add	r2,r2,r3
   21e50:	01400044 	movi	r5,1
   21e54:	100d883a 	mov	r6,r2
   21e58:	e1ffc717 	ldw	r7,-228(fp)
   21e5c:	0023dc00 	call	23dc0 <fread>
                        }

                        // Right Edge Padding
                        for (c = read_width; c < 8; c++) {
   21e60:	e0bfc117 	ldw	r2,-252(fp)
   21e64:	e0bfbd15 	stw	r2,-268(fp)
   21e68:	00004c06 	br	21f9c <main+0xd24>
                            global_mcu_buffer[(y * 8 + c) * 3 + 0] = global_mcu_buffer[(y * 8 + read_width - 1) * 3 + 0];
   21e6c:	e0bfbc17 	ldw	r2,-272(fp)
   21e70:	100690fa 	slli	r3,r2,3
   21e74:	e0bfbd17 	ldw	r2,-268(fp)
   21e78:	1887883a 	add	r3,r3,r2
   21e7c:	1805883a 	mov	r2,r3
   21e80:	1085883a 	add	r2,r2,r2
   21e84:	10c9883a 	add	r4,r2,r3
   21e88:	e0bfbc17 	ldw	r2,-272(fp)
   21e8c:	100690fa 	slli	r3,r2,3
   21e90:	e0bfc117 	ldw	r2,-252(fp)
   21e94:	1885883a 	add	r2,r3,r2
   21e98:	10ffffc4 	addi	r3,r2,-1
   21e9c:	1805883a 	mov	r2,r3
   21ea0:	1085883a 	add	r2,r2,r2
   21ea4:	10c5883a 	add	r2,r2,r3
   21ea8:	00c000f4 	movhi	r3,3
   21eac:	18dcc704 	addi	r3,r3,29468
   21eb0:	1885883a 	add	r2,r3,r2
   21eb4:	10c00003 	ldbu	r3,0(r2)
   21eb8:	008000f4 	movhi	r2,3
   21ebc:	109cc704 	addi	r2,r2,29468
   21ec0:	1105883a 	add	r2,r2,r4
   21ec4:	10c00005 	stb	r3,0(r2)
                            global_mcu_buffer[(y * 8 + c) * 3 + 1] = global_mcu_buffer[(y * 8 + read_width - 1) * 3 + 1];
   21ec8:	e0bfbc17 	ldw	r2,-272(fp)
   21ecc:	100690fa 	slli	r3,r2,3
   21ed0:	e0bfbd17 	ldw	r2,-268(fp)
   21ed4:	1887883a 	add	r3,r3,r2
   21ed8:	1805883a 	mov	r2,r3
   21edc:	1085883a 	add	r2,r2,r2
   21ee0:	10c5883a 	add	r2,r2,r3
   21ee4:	11000044 	addi	r4,r2,1
   21ee8:	e0bfbc17 	ldw	r2,-272(fp)
   21eec:	100690fa 	slli	r3,r2,3
   21ef0:	e0bfc117 	ldw	r2,-252(fp)
   21ef4:	1885883a 	add	r2,r3,r2
   21ef8:	10ffffc4 	addi	r3,r2,-1
   21efc:	1805883a 	mov	r2,r3
   21f00:	1085883a 	add	r2,r2,r2
   21f04:	10c5883a 	add	r2,r2,r3
   21f08:	10800044 	addi	r2,r2,1
   21f0c:	00c000f4 	movhi	r3,3
   21f10:	18dcc704 	addi	r3,r3,29468
   21f14:	1885883a 	add	r2,r3,r2
   21f18:	10c00003 	ldbu	r3,0(r2)
   21f1c:	008000f4 	movhi	r2,3
   21f20:	109cc704 	addi	r2,r2,29468
   21f24:	1105883a 	add	r2,r2,r4
   21f28:	10c00005 	stb	r3,0(r2)
                            global_mcu_buffer[(y * 8 + c) * 3 + 2] = global_mcu_buffer[(y * 8 + read_width - 1) * 3 + 2];
   21f2c:	e0bfbc17 	ldw	r2,-272(fp)
   21f30:	100690fa 	slli	r3,r2,3
   21f34:	e0bfbd17 	ldw	r2,-268(fp)
   21f38:	1887883a 	add	r3,r3,r2
   21f3c:	1805883a 	mov	r2,r3
   21f40:	1085883a 	add	r2,r2,r2
   21f44:	10c5883a 	add	r2,r2,r3
   21f48:	11000084 	addi	r4,r2,2
   21f4c:	e0bfbc17 	ldw	r2,-272(fp)
   21f50:	100690fa 	slli	r3,r2,3
   21f54:	e0bfc117 	ldw	r2,-252(fp)
   21f58:	1885883a 	add	r2,r3,r2
   21f5c:	10ffffc4 	addi	r3,r2,-1
   21f60:	1805883a 	mov	r2,r3
   21f64:	1085883a 	add	r2,r2,r2
   21f68:	10c5883a 	add	r2,r2,r3
   21f6c:	10800084 	addi	r2,r2,2
   21f70:	00c000f4 	movhi	r3,3
   21f74:	18dcc704 	addi	r3,r3,29468
   21f78:	1885883a 	add	r2,r3,r2
   21f7c:	10c00003 	ldbu	r3,0(r2)
   21f80:	008000f4 	movhi	r2,3
   21f84:	109cc704 	addi	r2,r2,29468
   21f88:	1105883a 	add	r2,r2,r4
   21f8c:	10c00005 	stb	r3,0(r2)
                            fseek(f_in, pixel_offset + (safe_y * width * 3) + (mcu_x * 24), SEEK_SET);
                            fread(&global_mcu_buffer[y * 24], 1, read_width * 3, f_in);
                        }

                        // Right Edge Padding
                        for (c = read_width; c < 8; c++) {
   21f90:	e0bfbd17 	ldw	r2,-268(fp)
   21f94:	10800044 	addi	r2,r2,1
   21f98:	e0bfbd15 	stw	r2,-268(fp)
   21f9c:	e0bfbd17 	ldw	r2,-268(fp)
   21fa0:	10800210 	cmplti	r2,r2,8
   21fa4:	103fb11e 	bne	r2,zero,21e6c <main+0xbf4>
            }
        } else {
            int mcu_y, mcu_x;
            for (mcu_y = 0; mcu_y < mcus_y; mcu_y++) {
                for (mcu_x = 0; mcu_x < mcus_x; mcu_x++) {
                    for (y = 0; y < 8; y++) {
   21fa8:	e0bfbc17 	ldw	r2,-272(fp)
   21fac:	10800044 	addi	r2,r2,1
   21fb0:	e0bfbc15 	stw	r2,-272(fp)
   21fb4:	e0bfbc17 	ldw	r2,-272(fp)
   21fb8:	10800210 	cmplti	r2,r2,8
   21fbc:	103f071e 	bne	r2,zero,21bdc <main+0x964>
                            global_mcu_buffer[(y * 8 + c) * 3 + 0] = global_mcu_buffer[(y * 8 + read_width - 1) * 3 + 0];
                            global_mcu_buffer[(y * 8 + c) * 3 + 1] = global_mcu_buffer[(y * 8 + read_width - 1) * 3 + 1];
                            global_mcu_buffer[(y * 8 + c) * 3 + 2] = global_mcu_buffer[(y * 8 + read_width - 1) * 3 + 2];
                        }
                    }
                    encode_mcu_row(global_mcu_buffer, 8, 1, FIFO_OUT_BASE, FIFO_OUT_CSR_BASE, NULL);
   21fc0:	00800134 	movhi	r2,4
   21fc4:	10841804 	addi	r2,r2,4192
   21fc8:	d8800015 	stw	r2,0(sp)
   21fcc:	d8000115 	stw	zero,4(sp)
   21fd0:	010000f4 	movhi	r4,3
   21fd4:	211cc704 	addi	r4,r4,29468
   21fd8:	01400204 	movi	r5,8
   21fdc:	01800044 	movi	r6,1
   21fe0:	01c00134 	movhi	r7,4
   21fe4:	39c42f04 	addi	r7,r7,4284
   21fe8:	002005c0 	call	2005c <encode_mcu_row>
                encode_mcu_row(global_strip_buffer, width, mcus_x, FIFO_OUT_BASE, FIFO_OUT_CSR_BASE, NULL);
            }
        } else {
            int mcu_y, mcu_x;
            for (mcu_y = 0; mcu_y < mcus_y; mcu_y++) {
                for (mcu_x = 0; mcu_x < mcus_x; mcu_x++) {
   21fec:	e0bfc017 	ldw	r2,-256(fp)
   21ff0:	10800044 	addi	r2,r2,1
   21ff4:	e0bfc015 	stw	r2,-256(fp)
   21ff8:	e0ffc017 	ldw	r3,-256(fp)
   21ffc:	e0bfc917 	ldw	r2,-220(fp)
   22000:	18bef416 	blt	r3,r2,21bd4 <main+0x95c>
                }
                encode_mcu_row(global_strip_buffer, width, mcus_x, FIFO_OUT_BASE, FIFO_OUT_CSR_BASE, NULL);
            }
        } else {
            int mcu_y, mcu_x;
            for (mcu_y = 0; mcu_y < mcus_y; mcu_y++) {
   22004:	e0bfbf17 	ldw	r2,-260(fp)
   22008:	10800044 	addi	r2,r2,1
   2200c:	e0bfbf15 	stw	r2,-260(fp)
   22010:	e0ffbf17 	ldw	r3,-260(fp)
   22014:	e0bfca17 	ldw	r2,-216(fp)
   22018:	18beec16 	blt	r3,r2,21bcc <main+0x954>
                    encode_mcu_row(global_mcu_buffer, 8, 1, FIFO_OUT_BASE, FIFO_OUT_CSR_BASE, NULL);
                }
            }
        }

        alt_u32 end_time = alt_timestamp();
   2201c:	00332780 	call	33278 <alt_timestamp>
   22020:	e0bfd315 	stw	r2,-180(fp)

        alt_u32 ticks = end_time - start_time;
   22024:	e0ffd317 	ldw	r3,-180(fp)
   22028:	e0bfce17 	ldw	r2,-200(fp)
   2202c:	1885c83a 	sub	r2,r3,r2
   22030:	e0bfc215 	stw	r2,-248(fp)
        if (ticks == 0) ticks = 1;
   22034:	e0bfc217 	ldw	r2,-248(fp)
   22038:	1000021e 	bne	r2,zero,22044 <main+0xdcc>
   2203c:	00800044 	movi	r2,1
   22040:	e0bfc215 	stw	r2,-248(fp)

        alt_u32 freq = alt_timestamp_freq();
   22044:	00333080 	call	33308 <alt_timestamp_freq>
   22048:	e0bfd415 	stw	r2,-176(fp)
        float secs = (float)ticks / (float)freq;
   2204c:	e13fc217 	ldw	r4,-248(fp)
   22050:	0022d4c0 	call	22d4c <__floatunsisf>
   22054:	1021883a 	mov	r16,r2
   22058:	e13fd417 	ldw	r4,-176(fp)
   2205c:	0022d4c0 	call	22d4c <__floatunsisf>
   22060:	1007883a 	mov	r3,r2
   22064:	8009883a 	mov	r4,r16
   22068:	180b883a 	mov	r5,r3
   2206c:	0022a6c0 	call	22a6c <__divsf3>
   22070:	1007883a 	mov	r3,r2
   22074:	e0ffd515 	stw	r3,-172(fp)
        alt_u32 time_ms = (alt_u32)(secs * 1000.0f);
   22078:	e13fd517 	ldw	r4,-172(fp)
   2207c:	01511eb4 	movhi	r5,17530
   22080:	00228dc0 	call	228dc <__mulsf3>
   22084:	1007883a 	mov	r3,r2
   22088:	1805883a 	mov	r2,r3
   2208c:	1009883a 	mov	r4,r2
   22090:	00225d40 	call	225d4 <__fixunssfsi>
   22094:	e0bfd615 	stw	r2,-168(fp)

        int total_raw_bytes = width * height * 3;
   22098:	e0fffb17 	ldw	r3,-20(fp)
   2209c:	e0bffc17 	ldw	r2,-16(fp)
   220a0:	1809883a 	mov	r4,r3
   220a4:	100b883a 	mov	r5,r2
   220a8:	0022f500 	call	22f50 <__mulsi3>
   220ac:	1007883a 	mov	r3,r2
   220b0:	1805883a 	mov	r2,r3
   220b4:	1085883a 	add	r2,r2,r2
   220b8:	10c5883a 	add	r2,r2,r3
   220bc:	e0bfd715 	stw	r2,-164(fp)
        alt_u32 throughput = (alt_u32)((float)total_raw_bytes / secs);
   220c0:	e13fd717 	ldw	r4,-164(fp)
   220c4:	0022c040 	call	22c04 <__floatsisf>
   220c8:	1007883a 	mov	r3,r2
   220cc:	1809883a 	mov	r4,r3
   220d0:	e17fd517 	ldw	r5,-172(fp)
   220d4:	0022a6c0 	call	22a6c <__divsf3>
   220d8:	1007883a 	mov	r3,r2
   220dc:	1805883a 	mov	r2,r3
   220e0:	1009883a 	mov	r4,r2
   220e4:	00225d40 	call	225d4 <__fixunssfsi>
   220e8:	e0bfd815 	stw	r2,-160(fp)

        printf("--- STAGE 1 (DISPATCH) BENCHMARK ---\n");
   220ec:	010000f4 	movhi	r4,3
   220f0:	21131c04 	addi	r4,r4,19568
   220f4:	00256580 	call	25658 <puts>
        printf("Total Clock Cycles : %lu\n", ticks);
   220f8:	010000f4 	movhi	r4,3
   220fc:	21132604 	addi	r4,r4,19608
   22100:	e17fc217 	ldw	r5,-248(fp)
   22104:	00255980 	call	25598 <printf>
        printf("Total Time         : %lu milliseconds\n", time_ms);
   22108:	010000f4 	movhi	r4,3
   2210c:	21132d04 	addi	r4,r4,19636
   22110:	e17fd617 	ldw	r5,-168(fp)
   22114:	00255980 	call	25598 <printf>
        printf("Throughput         : %lu Raw Bytes/sec\n", throughput);
   22118:	010000f4 	movhi	r4,3
   2211c:	21133704 	addi	r4,r4,19676
   22120:	e17fd817 	ldw	r5,-160(fp)
   22124:	00255980 	call	25598 <printf>

        fclose(f_in);
   22128:	e13fc717 	ldw	r4,-228(fp)
   2212c:	00235200 	call	23520 <fclose>
        printf("Stage 1: Dispatch complete for Image %d.\n", img_idx + 1);
   22130:	e0bfb817 	ldw	r2,-288(fp)
   22134:	10800044 	addi	r2,r2,1
   22138:	010000f4 	movhi	r4,3
   2213c:	21134104 	addi	r4,r4,19716
   22140:	100b883a 	mov	r5,r2
   22144:	00255980 	call	25598 <printf>
    }

    printf("Batch Job Initialized: Processing %d images...\n", num_images);

    int img_idx;
    for (img_idx = 0; img_idx < num_images; img_idx++) {
   22148:	e0bfb817 	ldw	r2,-288(fp)
   2214c:	10800044 	addi	r2,r2,1
   22150:	e0bfb815 	stw	r2,-288(fp)
   22154:	e0bffa17 	ldw	r2,-24(fp)
   22158:	e0ffb817 	ldw	r3,-288(fp)
   2215c:	18bc8316 	blt	r3,r2,2136c <main+0xf4>

        fclose(f_in);
        printf("Stage 1: Dispatch complete for Image %d.\n", img_idx + 1);
    }

    fclose(f_cfg);
   22160:	e13fc317 	ldw	r4,-244(fp)
   22164:	00235200 	call	23520 <fclose>

    printf("\n============================================\n");
   22168:	010000f4 	movhi	r4,3
   2216c:	2112a304 	addi	r4,r4,19084
   22170:	00256580 	call	25658 <puts>
    printf("Batch processing complete! All images dispatched.\n");
   22174:	010000f4 	movhi	r4,3
   22178:	21134c04 	addi	r4,r4,19760
   2217c:	00256580 	call	25658 <puts>
    printf("Halting Master Controller to prevent loop restart.\n");
   22180:	010000f4 	movhi	r4,3
   22184:	21135904 	addi	r4,r4,19812
   22188:	00256580 	call	25658 <puts>
    printf("============================================\n");
   2218c:	010000f4 	movhi	r4,3
   22190:	21136604 	addi	r4,r4,19864
   22194:	00256580 	call	25658 <puts>

    // FIXED: Force the console to flush so the messages above actually display!
    fflush(stdout);
   22198:	008000f4 	movhi	r2,3
   2219c:	1097aa04 	addi	r2,r2,24232
   221a0:	10800017 	ldw	r2,0(r2)
   221a4:	10800217 	ldw	r2,8(r2)
   221a8:	1009883a 	mov	r4,r2
   221ac:	002371c0 	call	2371c <fflush>

    while(1) { }
   221b0:	003fff06 	br	221b0 <main+0xf38>

    return 0;
}
   221b4:	e037883a 	mov	sp,fp
   221b8:	dfc00217 	ldw	ra,8(sp)
   221bc:	df000117 	ldw	fp,4(sp)
   221c0:	dc000017 	ldw	r16,0(sp)
   221c4:	dec00304 	addi	sp,sp,12
   221c8:	f800283a 	ret

000221cc <fifo_init>:
#if defined(__nios2__) || defined(__NIOS2__)
// --- HARDWARE IMPLEMENTATION (Altera Nios II) ---
#include <io.h>
#include "altera_avalon_fifo_regs.h"

void fifo_init(unsigned int fifo_csr_base) {
   221cc:	defffe04 	addi	sp,sp,-8
   221d0:	df000115 	stw	fp,4(sp)
   221d4:	df000104 	addi	fp,sp,4
   221d8:	e13fff15 	stw	r4,-4(fp)
    // Clear the FIFO event register to reset any lingering interrupt/error states
    IOWR_ALTERA_AVALON_FIFO_EVENT(fifo_csr_base, 0x0);
   221dc:	e0bfff17 	ldw	r2,-4(fp)
   221e0:	10800204 	addi	r2,r2,8
   221e4:	0007883a 	mov	r3,zero
   221e8:	10c00035 	stwio	r3,0(r2)
}
   221ec:	e037883a 	mov	sp,fp
   221f0:	df000017 	ldw	fp,0(sp)
   221f4:	dec00104 	addi	sp,sp,4
   221f8:	f800283a 	ret

000221fc <fifo_read_block>:

void fifo_read_block(unsigned int fifo_base, unsigned int fifo_csr, INT16 *buffer, int length) {
   221fc:	defffa04 	addi	sp,sp,-24
   22200:	df000515 	stw	fp,20(sp)
   22204:	df000504 	addi	fp,sp,20
   22208:	e13ffc15 	stw	r4,-16(fp)
   2220c:	e17ffd15 	stw	r5,-12(fp)
   22210:	e1bffe15 	stw	r6,-8(fp)
   22214:	e1ffff15 	stw	r7,-4(fp)
    int i;
    for(i = 0; i < length; i++) {
   22218:	e03ffb15 	stw	zero,-20(fp)
   2221c:	00001006 	br	22260 <fifo_read_block+0x64>
        // Spin-lock (block) while the FIFO Status Register says it is EMPTY
        // This is much safer than checking FIFO_LEVEL across dual-clock domains
        while (IORD_ALTERA_AVALON_FIFO_STATUS(fifo_csr) & ALTERA_AVALON_FIFO_STATUS_E_MSK) { }
   22220:	0001883a 	nop
   22224:	e0bffd17 	ldw	r2,-12(fp)
   22228:	10800104 	addi	r2,r2,4
   2222c:	10800037 	ldwio	r2,0(r2)
   22230:	1080008c 	andi	r2,r2,2
   22234:	103ffb1e 	bne	r2,zero,22224 <fifo_read_block+0x28>
        
        // Read 16-bit word from the FIFO data port
        buffer[i] = (INT16)IORD_ALTERA_AVALON_FIFO_DATA(fifo_base);
   22238:	e0bffb17 	ldw	r2,-20(fp)
   2223c:	1085883a 	add	r2,r2,r2
   22240:	e0fffe17 	ldw	r3,-8(fp)
   22244:	1885883a 	add	r2,r3,r2
   22248:	e0fffc17 	ldw	r3,-16(fp)
   2224c:	18c00037 	ldwio	r3,0(r3)
   22250:	10c0000d 	sth	r3,0(r2)
    IOWR_ALTERA_AVALON_FIFO_EVENT(fifo_csr_base, 0x0);
}

void fifo_read_block(unsigned int fifo_base, unsigned int fifo_csr, INT16 *buffer, int length) {
    int i;
    for(i = 0; i < length; i++) {
   22254:	e0bffb17 	ldw	r2,-20(fp)
   22258:	10800044 	addi	r2,r2,1
   2225c:	e0bffb15 	stw	r2,-20(fp)
   22260:	e0fffb17 	ldw	r3,-20(fp)
   22264:	e0bfff17 	ldw	r2,-4(fp)
   22268:	18bfed16 	blt	r3,r2,22220 <fifo_read_block+0x24>
        while (IORD_ALTERA_AVALON_FIFO_STATUS(fifo_csr) & ALTERA_AVALON_FIFO_STATUS_E_MSK) { }
        
        // Read 16-bit word from the FIFO data port
        buffer[i] = (INT16)IORD_ALTERA_AVALON_FIFO_DATA(fifo_base);
    }
}
   2226c:	e037883a 	mov	sp,fp
   22270:	df000017 	ldw	fp,0(sp)
   22274:	dec00104 	addi	sp,sp,4
   22278:	f800283a 	ret

0002227c <fifo_write_block>:

void fifo_write_block(unsigned int fifo_base, unsigned int fifo_csr, INT16 *buffer, int length) {
   2227c:	defffa04 	addi	sp,sp,-24
   22280:	df000515 	stw	fp,20(sp)
   22284:	df000504 	addi	fp,sp,20
   22288:	e13ffc15 	stw	r4,-16(fp)
   2228c:	e17ffd15 	stw	r5,-12(fp)
   22290:	e1bffe15 	stw	r6,-8(fp)
   22294:	e1ffff15 	stw	r7,-4(fp)
    int i;
    for(i = 0; i < length; i++) {
   22298:	e03ffb15 	stw	zero,-20(fp)
   2229c:	00001306 	br	222ec <fifo_write_block+0x70>
        // Spin-lock (block) while the FIFO is completely FULL
        while (IORD_ALTERA_AVALON_FIFO_STATUS(fifo_csr) & ALTERA_AVALON_FIFO_STATUS_F_MSK) { }
   222a0:	0001883a 	nop
   222a4:	e0bffd17 	ldw	r2,-12(fp)
   222a8:	10800104 	addi	r2,r2,4
   222ac:	10800037 	ldwio	r2,0(r2)
   222b0:	1080004c 	andi	r2,r2,1
   222b4:	103ffb1e 	bne	r2,zero,222a4 <fifo_write_block+0x28>
        
        // Write 16-bit word to the FIFO data port
        IOWR_ALTERA_AVALON_FIFO_DATA(fifo_base, buffer[i]);
   222b8:	e0fffc17 	ldw	r3,-16(fp)
   222bc:	e0bffb17 	ldw	r2,-20(fp)
   222c0:	1085883a 	add	r2,r2,r2
   222c4:	e13ffe17 	ldw	r4,-8(fp)
   222c8:	2085883a 	add	r2,r4,r2
   222cc:	1080000b 	ldhu	r2,0(r2)
   222d0:	10bfffcc 	andi	r2,r2,65535
   222d4:	10a0001c 	xori	r2,r2,32768
   222d8:	10a00004 	addi	r2,r2,-32768
   222dc:	18800035 	stwio	r2,0(r3)
    }
}

void fifo_write_block(unsigned int fifo_base, unsigned int fifo_csr, INT16 *buffer, int length) {
    int i;
    for(i = 0; i < length; i++) {
   222e0:	e0bffb17 	ldw	r2,-20(fp)
   222e4:	10800044 	addi	r2,r2,1
   222e8:	e0bffb15 	stw	r2,-20(fp)
   222ec:	e0fffb17 	ldw	r3,-20(fp)
   222f0:	e0bfff17 	ldw	r2,-4(fp)
   222f4:	18bfea16 	blt	r3,r2,222a0 <fifo_write_block+0x24>
        while (IORD_ALTERA_AVALON_FIFO_STATUS(fifo_csr) & ALTERA_AVALON_FIFO_STATUS_F_MSK) { }
        
        // Write 16-bit word to the FIFO data port
        IOWR_ALTERA_AVALON_FIFO_DATA(fifo_base, buffer[i]);
    }
}
   222f8:	e037883a 	mov	sp,fp
   222fc:	df000017 	ldw	fp,0(sp)
   22300:	dec00104 	addi	sp,sp,4
   22304:	f800283a 	ret

00022308 <clamp>:
#include "nios2_common/datatype.h"
#include "nios2_common/jdatatype.h"

static inline INT16 clamp(INT16 val) {
   22308:	defffe04 	addi	sp,sp,-8
   2230c:	df000115 	stw	fp,4(sp)
   22310:	df000104 	addi	fp,sp,4
   22314:	2005883a 	mov	r2,r4
   22318:	e0bfff0d 	sth	r2,-4(fp)
    if (val < 0) return 0;
   2231c:	e0bfff0f 	ldh	r2,-4(fp)
   22320:	1000020e 	bge	r2,zero,2232c <clamp+0x24>
   22324:	0005883a 	mov	r2,zero
   22328:	00000606 	br	22344 <clamp+0x3c>
    if (val > 255) return 255;
   2232c:	e0bfff0f 	ldh	r2,-4(fp)
   22330:	10804010 	cmplti	r2,r2,256
   22334:	1000021e 	bne	r2,zero,22340 <clamp+0x38>
   22338:	00803fc4 	movi	r2,255
   2233c:	00000106 	br	22344 <clamp+0x3c>
    return val;
   22340:	e0bfff0b 	ldhu	r2,-4(fp)
}
   22344:	e037883a 	mov	sp,fp
   22348:	df000017 	ldw	fp,0(sp)
   2234c:	dec00104 	addi	sp,sp,4
   22350:	f800283a 	ret

00022354 <read_444_format>:

void read_444_format(UINT8 *input_ptr, int width, int height, INT16 *Y1, INT16 *CB, INT16 *CR, int mcu_col, int mcu_row) {
   22354:	defff004 	addi	sp,sp,-64
   22358:	dfc00f15 	stw	ra,60(sp)
   2235c:	df000e15 	stw	fp,56(sp)
   22360:	dc000d15 	stw	r16,52(sp)
   22364:	df000d04 	addi	fp,sp,52
   22368:	e13ffc15 	stw	r4,-16(fp)
   2236c:	e17ffd15 	stw	r5,-12(fp)
   22370:	e1bffe15 	stw	r6,-8(fp)
   22374:	e1ffff15 	stw	r7,-4(fp)
    int i, j;
    
    for (i = 0; i < 8; i++) {
   22378:	e03ff315 	stw	zero,-52(fp)
   2237c:	00008c06 	br	225b0 <read_444_format+0x25c>
        for (j = 0; j < 8; j++) {
   22380:	e03ff415 	stw	zero,-48(fp)
   22384:	00008406 	br	22598 <read_444_format+0x244>
            int img_x = mcu_col * 8 + j;
   22388:	e0800517 	ldw	r2,20(fp)
   2238c:	100690fa 	slli	r3,r2,3
   22390:	e0bff417 	ldw	r2,-48(fp)
   22394:	1885883a 	add	r2,r3,r2
   22398:	e0bff515 	stw	r2,-44(fp)
            int img_y = mcu_row * 8 + i;
   2239c:	e0800617 	ldw	r2,24(fp)
   223a0:	100690fa 	slli	r3,r2,3
   223a4:	e0bff317 	ldw	r2,-52(fp)
   223a8:	1885883a 	add	r2,r3,r2
   223ac:	e0bff615 	stw	r2,-40(fp)
            if (img_x >= width) img_x = width - 1;
   223b0:	e0fff517 	ldw	r3,-44(fp)
   223b4:	e0bffd17 	ldw	r2,-12(fp)
   223b8:	18800316 	blt	r3,r2,223c8 <read_444_format+0x74>
   223bc:	e0bffd17 	ldw	r2,-12(fp)
   223c0:	10bfffc4 	addi	r2,r2,-1
   223c4:	e0bff515 	stw	r2,-44(fp)
            if (img_y >= height) img_y = height - 1;
   223c8:	e0fff617 	ldw	r3,-40(fp)
   223cc:	e0bffe17 	ldw	r2,-8(fp)
   223d0:	18800316 	blt	r3,r2,223e0 <read_444_format+0x8c>
   223d4:	e0bffe17 	ldw	r2,-8(fp)
   223d8:	10bfffc4 	addi	r2,r2,-1
   223dc:	e0bff615 	stw	r2,-40(fp)
            
            int pixel_idx = (img_y * width + img_x) * 3;
   223e0:	e13ff617 	ldw	r4,-40(fp)
   223e4:	e17ffd17 	ldw	r5,-12(fp)
   223e8:	0022f500 	call	22f50 <__mulsi3>
   223ec:	1007883a 	mov	r3,r2
   223f0:	e0bff517 	ldw	r2,-44(fp)
   223f4:	1887883a 	add	r3,r3,r2
   223f8:	1805883a 	mov	r2,r3
   223fc:	1085883a 	add	r2,r2,r2
   22400:	10c5883a 	add	r2,r2,r3
   22404:	e0bff715 	stw	r2,-36(fp)
            INT16 r = input_ptr[pixel_idx];
   22408:	e0bff717 	ldw	r2,-36(fp)
   2240c:	e0fffc17 	ldw	r3,-16(fp)
   22410:	1885883a 	add	r2,r3,r2
   22414:	10800003 	ldbu	r2,0(r2)
   22418:	10803fcc 	andi	r2,r2,255
   2241c:	e0bff80d 	sth	r2,-32(fp)
            INT16 g = input_ptr[pixel_idx + 1];
   22420:	e0bff717 	ldw	r2,-36(fp)
   22424:	10800044 	addi	r2,r2,1
   22428:	e0fffc17 	ldw	r3,-16(fp)
   2242c:	1885883a 	add	r2,r3,r2
   22430:	10800003 	ldbu	r2,0(r2)
   22434:	10803fcc 	andi	r2,r2,255
   22438:	e0bff88d 	sth	r2,-30(fp)
            INT16 b = input_ptr[pixel_idx + 2];
   2243c:	e0bff717 	ldw	r2,-36(fp)
   22440:	10800084 	addi	r2,r2,2
   22444:	e0fffc17 	ldw	r3,-16(fp)
   22448:	1885883a 	add	r2,r3,r2
   2244c:	10800003 	ldbu	r2,0(r2)
   22450:	10803fcc 	andi	r2,r2,255
   22454:	e0bff90d 	sth	r2,-28(fp)
            
            // RGB to YCbCr
            INT16 y  = (( 77 * r + 150 * g +  29 * b) >> 8);
   22458:	e0bff80f 	ldh	r2,-32(fp)
   2245c:	1009883a 	mov	r4,r2
   22460:	01401344 	movi	r5,77
   22464:	0022f500 	call	22f50 <__mulsi3>
   22468:	1021883a 	mov	r16,r2
   2246c:	e0bff88f 	ldh	r2,-30(fp)
   22470:	1009883a 	mov	r4,r2
   22474:	01402584 	movi	r5,150
   22478:	0022f500 	call	22f50 <__mulsi3>
   2247c:	80a1883a 	add	r16,r16,r2
   22480:	e0bff90f 	ldh	r2,-28(fp)
   22484:	1009883a 	mov	r4,r2
   22488:	01400744 	movi	r5,29
   2248c:	0022f500 	call	22f50 <__mulsi3>
   22490:	8085883a 	add	r2,r16,r2
   22494:	1005d23a 	srai	r2,r2,8
   22498:	e0bff98d 	sth	r2,-26(fp)
            INT16 cb = ((-43 * r -  85 * g + 128 * b) >> 8) + 128;
   2249c:	e0bff80f 	ldh	r2,-32(fp)
   224a0:	1009883a 	mov	r4,r2
   224a4:	017ff544 	movi	r5,-43
   224a8:	0022f500 	call	22f50 <__mulsi3>
   224ac:	1021883a 	mov	r16,r2
   224b0:	e0bff88f 	ldh	r2,-30(fp)
   224b4:	1009883a 	mov	r4,r2
   224b8:	017feac4 	movi	r5,-85
   224bc:	0022f500 	call	22f50 <__mulsi3>
   224c0:	8087883a 	add	r3,r16,r2
   224c4:	e0bff90f 	ldh	r2,-28(fp)
   224c8:	100491fa 	slli	r2,r2,7
   224cc:	1885883a 	add	r2,r3,r2
   224d0:	1005d23a 	srai	r2,r2,8
   224d4:	10802004 	addi	r2,r2,128
   224d8:	e0bffa0d 	sth	r2,-24(fp)
            INT16 cr = ((128 * r - 107 * g -  21 * b) >> 8) + 128;
   224dc:	e0bff80f 	ldh	r2,-32(fp)
   224e0:	102091fa 	slli	r16,r2,7
   224e4:	e0bff88f 	ldh	r2,-30(fp)
   224e8:	1009883a 	mov	r4,r2
   224ec:	017fe544 	movi	r5,-107
   224f0:	0022f500 	call	22f50 <__mulsi3>
   224f4:	80a1883a 	add	r16,r16,r2
   224f8:	e0bff90f 	ldh	r2,-28(fp)
   224fc:	1009883a 	mov	r4,r2
   22500:	017ffac4 	movi	r5,-21
   22504:	0022f500 	call	22f50 <__mulsi3>
   22508:	8085883a 	add	r2,r16,r2
   2250c:	1005d23a 	srai	r2,r2,8
   22510:	10802004 	addi	r2,r2,128
   22514:	e0bffa8d 	sth	r2,-22(fp)
            
            int block_idx = i * 8 + j;
   22518:	e0bff317 	ldw	r2,-52(fp)
   2251c:	100690fa 	slli	r3,r2,3
   22520:	e0bff417 	ldw	r2,-48(fp)
   22524:	1885883a 	add	r2,r3,r2
   22528:	e0bffb15 	stw	r2,-20(fp)
            Y1[block_idx] = clamp(y);
   2252c:	e0bffb17 	ldw	r2,-20(fp)
   22530:	1085883a 	add	r2,r2,r2
   22534:	e0ffff17 	ldw	r3,-4(fp)
   22538:	18a1883a 	add	r16,r3,r2
   2253c:	e0bff98f 	ldh	r2,-26(fp)
   22540:	1009883a 	mov	r4,r2
   22544:	00223080 	call	22308 <clamp>
   22548:	8080000d 	sth	r2,0(r16)
            CB[block_idx] = clamp(cb);
   2254c:	e0bffb17 	ldw	r2,-20(fp)
   22550:	1085883a 	add	r2,r2,r2
   22554:	e0c00317 	ldw	r3,12(fp)
   22558:	18a1883a 	add	r16,r3,r2
   2255c:	e0bffa0f 	ldh	r2,-24(fp)
   22560:	1009883a 	mov	r4,r2
   22564:	00223080 	call	22308 <clamp>
   22568:	8080000d 	sth	r2,0(r16)
            CR[block_idx] = clamp(cr);
   2256c:	e0bffb17 	ldw	r2,-20(fp)
   22570:	1085883a 	add	r2,r2,r2
   22574:	e0c00417 	ldw	r3,16(fp)
   22578:	18a1883a 	add	r16,r3,r2
   2257c:	e0bffa8f 	ldh	r2,-22(fp)
   22580:	1009883a 	mov	r4,r2
   22584:	00223080 	call	22308 <clamp>
   22588:	8080000d 	sth	r2,0(r16)

void read_444_format(UINT8 *input_ptr, int width, int height, INT16 *Y1, INT16 *CB, INT16 *CR, int mcu_col, int mcu_row) {
    int i, j;
    
    for (i = 0; i < 8; i++) {
        for (j = 0; j < 8; j++) {
   2258c:	e0bff417 	ldw	r2,-48(fp)
   22590:	10800044 	addi	r2,r2,1
   22594:	e0bff415 	stw	r2,-48(fp)
   22598:	e0bff417 	ldw	r2,-48(fp)
   2259c:	10800210 	cmplti	r2,r2,8
   225a0:	103f791e 	bne	r2,zero,22388 <read_444_format+0x34>
}

void read_444_format(UINT8 *input_ptr, int width, int height, INT16 *Y1, INT16 *CB, INT16 *CR, int mcu_col, int mcu_row) {
    int i, j;
    
    for (i = 0; i < 8; i++) {
   225a4:	e0bff317 	ldw	r2,-52(fp)
   225a8:	10800044 	addi	r2,r2,1
   225ac:	e0bff315 	stw	r2,-52(fp)
   225b0:	e0bff317 	ldw	r2,-52(fp)
   225b4:	10800210 	cmplti	r2,r2,8
   225b8:	103f711e 	bne	r2,zero,22380 <read_444_format+0x2c>
            Y1[block_idx] = clamp(y);
            CB[block_idx] = clamp(cb);
            CR[block_idx] = clamp(cr);
        }
    }
}
   225bc:	e037883a 	mov	sp,fp
   225c0:	dfc00217 	ldw	ra,8(sp)
   225c4:	df000117 	ldw	fp,4(sp)
   225c8:	dc000017 	ldw	r16,0(sp)
   225cc:	dec00304 	addi	sp,sp,12
   225d0:	f800283a 	ret

000225d4 <__fixunssfsi>:
   225d4:	defffd04 	addi	sp,sp,-12
   225d8:	dc000015 	stw	r16,0(sp)
   225dc:	0413c034 	movhi	r16,20224
   225e0:	800b883a 	mov	r5,r16
   225e4:	dc400115 	stw	r17,4(sp)
   225e8:	dfc00215 	stw	ra,8(sp)
   225ec:	2023883a 	mov	r17,r4
   225f0:	0022ba80 	call	22ba8 <__gesf2>
   225f4:	1000070e 	bge	r2,zero,22614 <__fixunssfsi+0x40>
   225f8:	8809883a 	mov	r4,r17
   225fc:	0022ca80 	call	22ca8 <__fixsfsi>
   22600:	dfc00217 	ldw	ra,8(sp)
   22604:	dc400117 	ldw	r17,4(sp)
   22608:	dc000017 	ldw	r16,0(sp)
   2260c:	dec00304 	addi	sp,sp,12
   22610:	f800283a 	ret
   22614:	800b883a 	mov	r5,r16
   22618:	8809883a 	mov	r4,r17
   2261c:	00228840 	call	22884 <__subsf3>
   22620:	1009883a 	mov	r4,r2
   22624:	0022ca80 	call	22ca8 <__fixsfsi>
   22628:	00e00034 	movhi	r3,32768
   2262c:	10c5883a 	add	r2,r2,r3
   22630:	dfc00217 	ldw	ra,8(sp)
   22634:	dc400117 	ldw	r17,4(sp)
   22638:	dc000017 	ldw	r16,0(sp)
   2263c:	dec00304 	addi	sp,sp,12
   22640:	f800283a 	ret

00022644 <_fpadd_parts>:
   22644:	2005883a 	mov	r2,r4
   22648:	21000017 	ldw	r4,0(r4)
   2264c:	01c00044 	movi	r7,1
   22650:	3900332e 	bgeu	r7,r4,22720 <_fpadd_parts+0xdc>
   22654:	28c00017 	ldw	r3,0(r5)
   22658:	38c0642e 	bgeu	r7,r3,227ec <_fpadd_parts+0x1a8>
   2265c:	01c00104 	movi	r7,4
   22660:	21c06e26 	beq	r4,r7,2281c <_fpadd_parts+0x1d8>
   22664:	19c06126 	beq	r3,r7,227ec <_fpadd_parts+0x1a8>
   22668:	01c00084 	movi	r7,2
   2266c:	19c04226 	beq	r3,r7,22778 <_fpadd_parts+0x134>
   22670:	21c05e26 	beq	r4,r7,227ec <_fpadd_parts+0x1a8>
   22674:	11000217 	ldw	r4,8(r2)
   22678:	2a400217 	ldw	r9,8(r5)
   2267c:	12800317 	ldw	r10,12(r2)
   22680:	29c00317 	ldw	r7,12(r5)
   22684:	2247c83a 	sub	r3,r4,r9
   22688:	1811883a 	mov	r8,r3
   2268c:	18005316 	blt	r3,zero,227dc <_fpadd_parts+0x198>
   22690:	02c007c4 	movi	r11,31
   22694:	5a002316 	blt	r11,r8,22724 <_fpadd_parts+0xe0>
   22698:	00c0560e 	bge	zero,r3,227f4 <_fpadd_parts+0x1b0>
   2269c:	00c00044 	movi	r3,1
   226a0:	1a06983a 	sll	r3,r3,r8
   226a4:	3a10d83a 	srl	r8,r7,r8
   226a8:	18ffffc4 	addi	r3,r3,-1
   226ac:	19ce703a 	and	r7,r3,r7
   226b0:	380ec03a 	cmpne	r7,r7,zero
   226b4:	3a0eb03a 	or	r7,r7,r8
   226b8:	10c00117 	ldw	r3,4(r2)
   226bc:	28800117 	ldw	r2,4(r5)
   226c0:	18801d26 	beq	r3,r2,22738 <_fpadd_parts+0xf4>
   226c4:	18003a26 	beq	r3,zero,227b0 <_fpadd_parts+0x16c>
   226c8:	3a85c83a 	sub	r2,r7,r10
   226cc:	10003a16 	blt	r2,zero,227b8 <_fpadd_parts+0x174>
   226d0:	30000115 	stw	zero,4(r6)
   226d4:	31000215 	stw	r4,8(r6)
   226d8:	30800315 	stw	r2,12(r6)
   226dc:	10ffffc4 	addi	r3,r2,-1
   226e0:	01d00034 	movhi	r7,16384
   226e4:	39ffff84 	addi	r7,r7,-2
   226e8:	38c00936 	bltu	r7,r3,22710 <_fpadd_parts+0xcc>
   226ec:	30c00217 	ldw	r3,8(r6)
   226f0:	18ffffc4 	addi	r3,r3,-1
   226f4:	1085883a 	add	r2,r2,r2
   226f8:	113fffc4 	addi	r4,r2,-1
   226fc:	180b883a 	mov	r5,r3
   22700:	18ffffc4 	addi	r3,r3,-1
   22704:	393ffb2e 	bgeu	r7,r4,226f4 <_fpadd_parts+0xb0>
   22708:	30800315 	stw	r2,12(r6)
   2270c:	31400215 	stw	r5,8(r6)
   22710:	00c000c4 	movi	r3,3
   22714:	30c00015 	stw	r3,0(r6)
   22718:	10000e16 	blt	r2,zero,22754 <_fpadd_parts+0x110>
   2271c:	3005883a 	mov	r2,r6
   22720:	f800283a 	ret
   22724:	49002a0e 	bge	r9,r4,227d0 <_fpadd_parts+0x18c>
   22728:	10c00117 	ldw	r3,4(r2)
   2272c:	28800117 	ldw	r2,4(r5)
   22730:	000f883a 	mov	r7,zero
   22734:	18bfe31e 	bne	r3,r2,226c4 <_fpadd_parts+0x80>
   22738:	3a85883a 	add	r2,r7,r10
   2273c:	30c00115 	stw	r3,4(r6)
   22740:	00c000c4 	movi	r3,3
   22744:	31000215 	stw	r4,8(r6)
   22748:	30800315 	stw	r2,12(r6)
   2274c:	30c00015 	stw	r3,0(r6)
   22750:	103ff20e 	bge	r2,zero,2271c <_fpadd_parts+0xd8>
   22754:	30c00217 	ldw	r3,8(r6)
   22758:	1008d07a 	srli	r4,r2,1
   2275c:	1080004c 	andi	r2,r2,1
   22760:	18c00044 	addi	r3,r3,1
   22764:	1104b03a 	or	r2,r2,r4
   22768:	30800315 	stw	r2,12(r6)
   2276c:	30c00215 	stw	r3,8(r6)
   22770:	3005883a 	mov	r2,r6
   22774:	f800283a 	ret
   22778:	20ffe91e 	bne	r4,r3,22720 <_fpadd_parts+0xdc>
   2277c:	31000015 	stw	r4,0(r6)
   22780:	10c00117 	ldw	r3,4(r2)
   22784:	30c00115 	stw	r3,4(r6)
   22788:	11c00217 	ldw	r7,8(r2)
   2278c:	10c00117 	ldw	r3,4(r2)
   22790:	29000117 	ldw	r4,4(r5)
   22794:	31c00215 	stw	r7,8(r6)
   22798:	10800317 	ldw	r2,12(r2)
   2279c:	20c6703a 	and	r3,r4,r3
   227a0:	30c00115 	stw	r3,4(r6)
   227a4:	30800315 	stw	r2,12(r6)
   227a8:	3005883a 	mov	r2,r6
   227ac:	f800283a 	ret
   227b0:	51c5c83a 	sub	r2,r10,r7
   227b4:	103fc60e 	bge	r2,zero,226d0 <_fpadd_parts+0x8c>
   227b8:	0085c83a 	sub	r2,zero,r2
   227bc:	00c00044 	movi	r3,1
   227c0:	30c00115 	stw	r3,4(r6)
   227c4:	31000215 	stw	r4,8(r6)
   227c8:	30800315 	stw	r2,12(r6)
   227cc:	003fc306 	br	226dc <_fpadd_parts+0x98>
   227d0:	4809883a 	mov	r4,r9
   227d4:	0015883a 	mov	r10,zero
   227d8:	003fb706 	br	226b8 <_fpadd_parts+0x74>
   227dc:	00d1c83a 	sub	r8,zero,r3
   227e0:	02c007c4 	movi	r11,31
   227e4:	5a3fcf16 	blt	r11,r8,22724 <_fpadd_parts+0xe0>
   227e8:	003fab06 	br	22698 <_fpadd_parts+0x54>
   227ec:	2805883a 	mov	r2,r5
   227f0:	f800283a 	ret
   227f4:	183fb026 	beq	r3,zero,226b8 <_fpadd_parts+0x74>
   227f8:	02400044 	movi	r9,1
   227fc:	4a12983a 	sll	r9,r9,r8
   22800:	5206d83a 	srl	r3,r10,r8
   22804:	2209883a 	add	r4,r4,r8
   22808:	4a3fffc4 	addi	r8,r9,-1
   2280c:	4294703a 	and	r10,r8,r10
   22810:	5014c03a 	cmpne	r10,r10,zero
   22814:	50d4b03a 	or	r10,r10,r3
   22818:	003fa706 	br	226b8 <_fpadd_parts+0x74>
   2281c:	193fc01e 	bne	r3,r4,22720 <_fpadd_parts+0xdc>
   22820:	11000117 	ldw	r4,4(r2)
   22824:	28c00117 	ldw	r3,4(r5)
   22828:	20ffbd26 	beq	r4,r3,22720 <_fpadd_parts+0xdc>
   2282c:	008000f4 	movhi	r2,3
   22830:	10937204 	addi	r2,r2,19912
   22834:	f800283a 	ret

00022838 <__addsf3>:
   22838:	defff104 	addi	sp,sp,-60
   2283c:	d9000d15 	stw	r4,52(sp)
   22840:	d9400c15 	stw	r5,48(sp)
   22844:	d9000d04 	addi	r4,sp,52
   22848:	d9400804 	addi	r5,sp,32
   2284c:	dfc00e15 	stw	ra,56(sp)
   22850:	00232600 	call	23260 <__unpack_f>
   22854:	d9000c04 	addi	r4,sp,48
   22858:	d9400404 	addi	r5,sp,16
   2285c:	00232600 	call	23260 <__unpack_f>
   22860:	d9000804 	addi	r4,sp,32
   22864:	d9400404 	addi	r5,sp,16
   22868:	d80d883a 	mov	r6,sp
   2286c:	00226440 	call	22644 <_fpadd_parts>
   22870:	1009883a 	mov	r4,r2
   22874:	00231340 	call	23134 <__pack_f>
   22878:	dfc00e17 	ldw	ra,56(sp)
   2287c:	dec00f04 	addi	sp,sp,60
   22880:	f800283a 	ret

00022884 <__subsf3>:
   22884:	defff104 	addi	sp,sp,-60
   22888:	d9000d15 	stw	r4,52(sp)
   2288c:	d9400c15 	stw	r5,48(sp)
   22890:	d9000d04 	addi	r4,sp,52
   22894:	d9400804 	addi	r5,sp,32
   22898:	dfc00e15 	stw	ra,56(sp)
   2289c:	00232600 	call	23260 <__unpack_f>
   228a0:	d9000c04 	addi	r4,sp,48
   228a4:	d9400404 	addi	r5,sp,16
   228a8:	00232600 	call	23260 <__unpack_f>
   228ac:	d8800517 	ldw	r2,20(sp)
   228b0:	d9000804 	addi	r4,sp,32
   228b4:	d9400404 	addi	r5,sp,16
   228b8:	d80d883a 	mov	r6,sp
   228bc:	1080005c 	xori	r2,r2,1
   228c0:	d8800515 	stw	r2,20(sp)
   228c4:	00226440 	call	22644 <_fpadd_parts>
   228c8:	1009883a 	mov	r4,r2
   228cc:	00231340 	call	23134 <__pack_f>
   228d0:	dfc00e17 	ldw	ra,56(sp)
   228d4:	dec00f04 	addi	sp,sp,60
   228d8:	f800283a 	ret

000228dc <__mulsf3>:
   228dc:	defff104 	addi	sp,sp,-60
   228e0:	d9000d15 	stw	r4,52(sp)
   228e4:	d9400c15 	stw	r5,48(sp)
   228e8:	d9000d04 	addi	r4,sp,52
   228ec:	d9400804 	addi	r5,sp,32
   228f0:	dfc00e15 	stw	ra,56(sp)
   228f4:	00232600 	call	23260 <__unpack_f>
   228f8:	d9000c04 	addi	r4,sp,48
   228fc:	d9400404 	addi	r5,sp,16
   22900:	00232600 	call	23260 <__unpack_f>
   22904:	d8c00817 	ldw	r3,32(sp)
   22908:	00800044 	movi	r2,1
   2290c:	10c00936 	bltu	r2,r3,22934 <__mulsf3+0x58>
   22910:	d8c00917 	ldw	r3,36(sp)
   22914:	d8800517 	ldw	r2,20(sp)
   22918:	d9000804 	addi	r4,sp,32
   2291c:	1884c03a 	cmpne	r2,r3,r2
   22920:	d8800915 	stw	r2,36(sp)
   22924:	00231340 	call	23134 <__pack_f>
   22928:	dfc00e17 	ldw	ra,56(sp)
   2292c:	dec00f04 	addi	sp,sp,60
   22930:	f800283a 	ret
   22934:	d9000417 	ldw	r4,16(sp)
   22938:	11000936 	bltu	r2,r4,22960 <__mulsf3+0x84>
   2293c:	d8800517 	ldw	r2,20(sp)
   22940:	d8c00917 	ldw	r3,36(sp)
   22944:	d9000404 	addi	r4,sp,16
   22948:	1884c03a 	cmpne	r2,r3,r2
   2294c:	d8800515 	stw	r2,20(sp)
   22950:	00231340 	call	23134 <__pack_f>
   22954:	dfc00e17 	ldw	ra,56(sp)
   22958:	dec00f04 	addi	sp,sp,60
   2295c:	f800283a 	ret
   22960:	00800104 	movi	r2,4
   22964:	1880051e 	bne	r3,r2,2297c <__mulsf3+0xa0>
   22968:	00800084 	movi	r2,2
   2296c:	20bfe81e 	bne	r4,r2,22910 <__mulsf3+0x34>
   22970:	010000f4 	movhi	r4,3
   22974:	21137204 	addi	r4,r4,19912
   22978:	003fea06 	br	22924 <__mulsf3+0x48>
   2297c:	2080031e 	bne	r4,r2,2298c <__mulsf3+0xb0>
   22980:	00800084 	movi	r2,2
   22984:	18bffa26 	beq	r3,r2,22970 <__mulsf3+0x94>
   22988:	003fec06 	br	2293c <__mulsf3+0x60>
   2298c:	00800084 	movi	r2,2
   22990:	18bfdf26 	beq	r3,r2,22910 <__mulsf3+0x34>
   22994:	20bfe926 	beq	r4,r2,2293c <__mulsf3+0x60>
   22998:	d9000717 	ldw	r4,28(sp)
   2299c:	d9800b17 	ldw	r6,44(sp)
   229a0:	000b883a 	mov	r5,zero
   229a4:	000f883a 	mov	r7,zero
   229a8:	0022f780 	call	22f78 <__muldi3>
   229ac:	d9000617 	ldw	r4,24(sp)
   229b0:	d9400a17 	ldw	r5,40(sp)
   229b4:	d9c00917 	ldw	r7,36(sp)
   229b8:	290b883a 	add	r5,r5,r4
   229bc:	d9000517 	ldw	r4,20(sp)
   229c0:	29800084 	addi	r6,r5,2
   229c4:	d9800215 	stw	r6,8(sp)
   229c8:	3908c03a 	cmpne	r4,r7,r4
   229cc:	d9000115 	stw	r4,4(sp)
   229d0:	1809883a 	mov	r4,r3
   229d4:	1800070e 	bge	r3,zero,229f4 <__mulsf3+0x118>
   229d8:	1900004c 	andi	r4,r3,1
   229dc:	294000c4 	addi	r5,r5,3
   229e0:	20000226 	beq	r4,zero,229ec <__mulsf3+0x110>
   229e4:	1004d07a 	srli	r2,r2,1
   229e8:	10a00034 	orhi	r2,r2,32768
   229ec:	1808d07a 	srli	r4,r3,1
   229f0:	d9400215 	stw	r5,8(sp)
   229f4:	01900034 	movhi	r6,16384
   229f8:	31bfffc4 	addi	r6,r6,-1
   229fc:	31000c36 	bltu	r6,r4,22a30 <__mulsf3+0x154>
   22a00:	d8c00217 	ldw	r3,8(sp)
   22a04:	18ffffc4 	addi	r3,r3,-1
   22a08:	00000306 	br	22a18 <__mulsf3+0x13c>
   22a0c:	1085883a 	add	r2,r2,r2
   22a10:	18ffffc4 	addi	r3,r3,-1
   22a14:	31000536 	bltu	r6,r4,22a2c <__mulsf3+0x150>
   22a18:	2109883a 	add	r4,r4,r4
   22a1c:	180b883a 	mov	r5,r3
   22a20:	103ffa0e 	bge	r2,zero,22a0c <__mulsf3+0x130>
   22a24:	21000054 	ori	r4,r4,1
   22a28:	003ff806 	br	22a0c <__mulsf3+0x130>
   22a2c:	d9400215 	stw	r5,8(sp)
   22a30:	21401fcc 	andi	r5,r4,127
   22a34:	00c01004 	movi	r3,64
   22a38:	28c00526 	beq	r5,r3,22a50 <__mulsf3+0x174>
   22a3c:	008000c4 	movi	r2,3
   22a40:	d9000315 	stw	r4,12(sp)
   22a44:	d8800015 	stw	r2,0(sp)
   22a48:	d809883a 	mov	r4,sp
   22a4c:	003fb506 	br	22924 <__mulsf3+0x48>
   22a50:	20c0200c 	andi	r3,r4,128
   22a54:	183ff91e 	bne	r3,zero,22a3c <__mulsf3+0x160>
   22a58:	103ff826 	beq	r2,zero,22a3c <__mulsf3+0x160>
   22a5c:	21001004 	addi	r4,r4,64
   22a60:	00bfe004 	movi	r2,-128
   22a64:	2088703a 	and	r4,r4,r2
   22a68:	003ff406 	br	22a3c <__mulsf3+0x160>

00022a6c <__divsf3>:
   22a6c:	defff504 	addi	sp,sp,-44
   22a70:	d9000915 	stw	r4,36(sp)
   22a74:	d9400815 	stw	r5,32(sp)
   22a78:	d9000904 	addi	r4,sp,36
   22a7c:	d9400404 	addi	r5,sp,16
   22a80:	dfc00a15 	stw	ra,40(sp)
   22a84:	00232600 	call	23260 <__unpack_f>
   22a88:	d9000804 	addi	r4,sp,32
   22a8c:	d80b883a 	mov	r5,sp
   22a90:	00232600 	call	23260 <__unpack_f>
   22a94:	d8c00417 	ldw	r3,16(sp)
   22a98:	00800044 	movi	r2,1
   22a9c:	10c00536 	bltu	r2,r3,22ab4 <__divsf3+0x48>
   22aa0:	d9000404 	addi	r4,sp,16
   22aa4:	00231340 	call	23134 <__pack_f>
   22aa8:	dfc00a17 	ldw	ra,40(sp)
   22aac:	dec00b04 	addi	sp,sp,44
   22ab0:	f800283a 	ret
   22ab4:	d9000017 	ldw	r4,0(sp)
   22ab8:	11000536 	bltu	r2,r4,22ad0 <__divsf3+0x64>
   22abc:	d809883a 	mov	r4,sp
   22ac0:	00231340 	call	23134 <__pack_f>
   22ac4:	dfc00a17 	ldw	ra,40(sp)
   22ac8:	dec00b04 	addi	sp,sp,44
   22acc:	f800283a 	ret
   22ad0:	d9800517 	ldw	r6,20(sp)
   22ad4:	d9400117 	ldw	r5,4(sp)
   22ad8:	00800104 	movi	r2,4
   22adc:	314af03a 	xor	r5,r6,r5
   22ae0:	d9400515 	stw	r5,20(sp)
   22ae4:	18800226 	beq	r3,r2,22af0 <__divsf3+0x84>
   22ae8:	01400084 	movi	r5,2
   22aec:	1940041e 	bne	r3,r5,22b00 <__divsf3+0x94>
   22af0:	193feb1e 	bne	r3,r4,22aa0 <__divsf3+0x34>
   22af4:	010000f4 	movhi	r4,3
   22af8:	21137204 	addi	r4,r4,19912
   22afc:	003fe906 	br	22aa4 <__divsf3+0x38>
   22b00:	20802226 	beq	r4,r2,22b8c <__divsf3+0x120>
   22b04:	21402526 	beq	r4,r5,22b9c <__divsf3+0x130>
   22b08:	d9000617 	ldw	r4,24(sp)
   22b0c:	d8c00217 	ldw	r3,8(sp)
   22b10:	d8800717 	ldw	r2,28(sp)
   22b14:	d9400317 	ldw	r5,12(sp)
   22b18:	20c7c83a 	sub	r3,r4,r3
   22b1c:	d8c00615 	stw	r3,24(sp)
   22b20:	1140032e 	bgeu	r2,r5,22b30 <__divsf3+0xc4>
   22b24:	18ffffc4 	addi	r3,r3,-1
   22b28:	1085883a 	add	r2,r2,r2
   22b2c:	d8c00615 	stw	r3,24(sp)
   22b30:	00c007c4 	movi	r3,31
   22b34:	01100034 	movhi	r4,16384
   22b38:	000d883a 	mov	r6,zero
   22b3c:	18ffffc4 	addi	r3,r3,-1
   22b40:	11400236 	bltu	r2,r5,22b4c <__divsf3+0xe0>
   22b44:	310cb03a 	or	r6,r6,r4
   22b48:	1145c83a 	sub	r2,r2,r5
   22b4c:	2008d07a 	srli	r4,r4,1
   22b50:	1085883a 	add	r2,r2,r2
   22b54:	183ff91e 	bne	r3,zero,22b3c <__divsf3+0xd0>
   22b58:	31001fcc 	andi	r4,r6,127
   22b5c:	00c01004 	movi	r3,64
   22b60:	20c00226 	beq	r4,r3,22b6c <__divsf3+0x100>
   22b64:	d9800715 	stw	r6,28(sp)
   22b68:	003fcd06 	br	22aa0 <__divsf3+0x34>
   22b6c:	30c0200c 	andi	r3,r6,128
   22b70:	183ffc1e 	bne	r3,zero,22b64 <__divsf3+0xf8>
   22b74:	103ffb26 	beq	r2,zero,22b64 <__divsf3+0xf8>
   22b78:	31801004 	addi	r6,r6,64
   22b7c:	00bfe004 	movi	r2,-128
   22b80:	308c703a 	and	r6,r6,r2
   22b84:	d9800715 	stw	r6,28(sp)
   22b88:	003fc506 	br	22aa0 <__divsf3+0x34>
   22b8c:	d8000715 	stw	zero,28(sp)
   22b90:	d8000615 	stw	zero,24(sp)
   22b94:	d9000404 	addi	r4,sp,16
   22b98:	003fc206 	br	22aa4 <__divsf3+0x38>
   22b9c:	d8800415 	stw	r2,16(sp)
   22ba0:	d9000404 	addi	r4,sp,16
   22ba4:	003fbf06 	br	22aa4 <__divsf3+0x38>

00022ba8 <__gesf2>:
   22ba8:	defff504 	addi	sp,sp,-44
   22bac:	d9000915 	stw	r4,36(sp)
   22bb0:	d9400815 	stw	r5,32(sp)
   22bb4:	d9000904 	addi	r4,sp,36
   22bb8:	d9400404 	addi	r5,sp,16
   22bbc:	dfc00a15 	stw	ra,40(sp)
   22bc0:	00232600 	call	23260 <__unpack_f>
   22bc4:	d9000804 	addi	r4,sp,32
   22bc8:	d80b883a 	mov	r5,sp
   22bcc:	00232600 	call	23260 <__unpack_f>
   22bd0:	d8c00417 	ldw	r3,16(sp)
   22bd4:	00800044 	movi	r2,1
   22bd8:	10c0082e 	bgeu	r2,r3,22bfc <__gesf2+0x54>
   22bdc:	d8c00017 	ldw	r3,0(sp)
   22be0:	10c0062e 	bgeu	r2,r3,22bfc <__gesf2+0x54>
   22be4:	d9000404 	addi	r4,sp,16
   22be8:	d80b883a 	mov	r5,sp
   22bec:	00233280 	call	23328 <__fpcmp_parts_f>
   22bf0:	dfc00a17 	ldw	ra,40(sp)
   22bf4:	dec00b04 	addi	sp,sp,44
   22bf8:	f800283a 	ret
   22bfc:	00bfffc4 	movi	r2,-1
   22c00:	003ffb06 	br	22bf0 <__gesf2+0x48>

00022c04 <__floatsisf>:
   22c04:	2004d7fa 	srli	r2,r4,31
   22c08:	defffa04 	addi	sp,sp,-24
   22c0c:	00c000c4 	movi	r3,3
   22c10:	dfc00515 	stw	ra,20(sp)
   22c14:	dc000415 	stw	r16,16(sp)
   22c18:	d8c00015 	stw	r3,0(sp)
   22c1c:	d8800115 	stw	r2,4(sp)
   22c20:	2000081e 	bne	r4,zero,22c44 <__floatsisf+0x40>
   22c24:	00800084 	movi	r2,2
   22c28:	d8800015 	stw	r2,0(sp)
   22c2c:	d809883a 	mov	r4,sp
   22c30:	00231340 	call	23134 <__pack_f>
   22c34:	dfc00517 	ldw	ra,20(sp)
   22c38:	dc000417 	ldw	r16,16(sp)
   22c3c:	dec00604 	addi	sp,sp,24
   22c40:	f800283a 	ret
   22c44:	00c00784 	movi	r3,30
   22c48:	d8c00215 	stw	r3,8(sp)
   22c4c:	10000b1e 	bne	r2,zero,22c7c <__floatsisf+0x78>
   22c50:	2021883a 	mov	r16,r4
   22c54:	8009883a 	mov	r4,r16
   22c58:	00230880 	call	23088 <__clzsi2>
   22c5c:	113fffc4 	addi	r4,r2,-1
   22c60:	01000d0e 	bge	zero,r4,22c98 <__floatsisf+0x94>
   22c64:	8108983a 	sll	r4,r16,r4
   22c68:	00c007c4 	movi	r3,31
   22c6c:	1885c83a 	sub	r2,r3,r2
   22c70:	d9000315 	stw	r4,12(sp)
   22c74:	d8800215 	stw	r2,8(sp)
   22c78:	003fec06 	br	22c2c <__floatsisf+0x28>
   22c7c:	00a00034 	movhi	r2,32768
   22c80:	20800726 	beq	r4,r2,22ca0 <__floatsisf+0x9c>
   22c84:	0121c83a 	sub	r16,zero,r4
   22c88:	8009883a 	mov	r4,r16
   22c8c:	00230880 	call	23088 <__clzsi2>
   22c90:	113fffc4 	addi	r4,r2,-1
   22c94:	013ff316 	blt	zero,r4,22c64 <__floatsisf+0x60>
   22c98:	dc000315 	stw	r16,12(sp)
   22c9c:	003fe306 	br	22c2c <__floatsisf+0x28>
   22ca0:	00b3c034 	movhi	r2,52992
   22ca4:	003fe306 	br	22c34 <__floatsisf+0x30>

00022ca8 <__fixsfsi>:
   22ca8:	defffa04 	addi	sp,sp,-24
   22cac:	d9000415 	stw	r4,16(sp)
   22cb0:	d80b883a 	mov	r5,sp
   22cb4:	d9000404 	addi	r4,sp,16
   22cb8:	dfc00515 	stw	ra,20(sp)
   22cbc:	00232600 	call	23260 <__unpack_f>
   22cc0:	d8800017 	ldw	r2,0(sp)
   22cc4:	00c00084 	movi	r3,2
   22cc8:	10c01826 	beq	r2,r3,22d2c <__fixsfsi+0x84>
   22ccc:	00c00044 	movi	r3,1
   22cd0:	1880162e 	bgeu	r3,r2,22d2c <__fixsfsi+0x84>
   22cd4:	00c00104 	movi	r3,4
   22cd8:	10c00426 	beq	r2,r3,22cec <__fixsfsi+0x44>
   22cdc:	d8800217 	ldw	r2,8(sp)
   22ce0:	10001216 	blt	r2,zero,22d2c <__fixsfsi+0x84>
   22ce4:	00c00784 	movi	r3,30
   22ce8:	1880070e 	bge	r3,r2,22d08 <__fixsfsi+0x60>
   22cec:	d8800117 	ldw	r2,4(sp)
   22cf0:	1000121e 	bne	r2,zero,22d3c <__fixsfsi+0x94>
   22cf4:	00a00034 	movhi	r2,32768
   22cf8:	10bfffc4 	addi	r2,r2,-1
   22cfc:	dfc00517 	ldw	ra,20(sp)
   22d00:	dec00604 	addi	sp,sp,24
   22d04:	f800283a 	ret
   22d08:	1885c83a 	sub	r2,r3,r2
   22d0c:	d8c00317 	ldw	r3,12(sp)
   22d10:	1884d83a 	srl	r2,r3,r2
   22d14:	d8c00117 	ldw	r3,4(sp)
   22d18:	183ff826 	beq	r3,zero,22cfc <__fixsfsi+0x54>
   22d1c:	0085c83a 	sub	r2,zero,r2
   22d20:	dfc00517 	ldw	ra,20(sp)
   22d24:	dec00604 	addi	sp,sp,24
   22d28:	f800283a 	ret
   22d2c:	0005883a 	mov	r2,zero
   22d30:	dfc00517 	ldw	ra,20(sp)
   22d34:	dec00604 	addi	sp,sp,24
   22d38:	f800283a 	ret
   22d3c:	00a00034 	movhi	r2,32768
   22d40:	dfc00517 	ldw	ra,20(sp)
   22d44:	dec00604 	addi	sp,sp,24
   22d48:	f800283a 	ret

00022d4c <__floatunsisf>:
   22d4c:	defffa04 	addi	sp,sp,-24
   22d50:	dc000415 	stw	r16,16(sp)
   22d54:	dfc00515 	stw	ra,20(sp)
   22d58:	d8000115 	stw	zero,4(sp)
   22d5c:	2021883a 	mov	r16,r4
   22d60:	20001326 	beq	r4,zero,22db0 <__floatunsisf+0x64>
   22d64:	008000c4 	movi	r2,3
   22d68:	d8800015 	stw	r2,0(sp)
   22d6c:	00800784 	movi	r2,30
   22d70:	d8800215 	stw	r2,8(sp)
   22d74:	00230880 	call	23088 <__clzsi2>
   22d78:	10ffffc4 	addi	r3,r2,-1
   22d7c:	18001416 	blt	r3,zero,22dd0 <__floatunsisf+0x84>
   22d80:	18002526 	beq	r3,zero,22e18 <__floatunsisf+0xcc>
   22d84:	80e0983a 	sll	r16,r16,r3
   22d88:	00c007c4 	movi	r3,31
   22d8c:	1885c83a 	sub	r2,r3,r2
   22d90:	dc000315 	stw	r16,12(sp)
   22d94:	d8800215 	stw	r2,8(sp)
   22d98:	d809883a 	mov	r4,sp
   22d9c:	00231340 	call	23134 <__pack_f>
   22da0:	dfc00517 	ldw	ra,20(sp)
   22da4:	dc000417 	ldw	r16,16(sp)
   22da8:	dec00604 	addi	sp,sp,24
   22dac:	f800283a 	ret
   22db0:	00800084 	movi	r2,2
   22db4:	d809883a 	mov	r4,sp
   22db8:	d8800015 	stw	r2,0(sp)
   22dbc:	00231340 	call	23134 <__pack_f>
   22dc0:	dfc00517 	ldw	ra,20(sp)
   22dc4:	dc000417 	ldw	r16,16(sp)
   22dc8:	dec00604 	addi	sp,sp,24
   22dcc:	f800283a 	ret
   22dd0:	00c7c83a 	sub	r3,zero,r3
   22dd4:	01000044 	movi	r4,1
   22dd8:	20c8983a 	sll	r4,r4,r3
   22ddc:	80c6d83a 	srl	r3,r16,r3
   22de0:	213fffc4 	addi	r4,r4,-1
   22de4:	2420703a 	and	r16,r4,r16
   22de8:	8020c03a 	cmpne	r16,r16,zero
   22dec:	010007c4 	movi	r4,31
   22df0:	80c6b03a 	or	r3,r16,r3
   22df4:	2085c83a 	sub	r2,r4,r2
   22df8:	d809883a 	mov	r4,sp
   22dfc:	d8c00315 	stw	r3,12(sp)
   22e00:	d8800215 	stw	r2,8(sp)
   22e04:	00231340 	call	23134 <__pack_f>
   22e08:	dfc00517 	ldw	ra,20(sp)
   22e0c:	dc000417 	ldw	r16,16(sp)
   22e10:	dec00604 	addi	sp,sp,24
   22e14:	f800283a 	ret
   22e18:	dc000315 	stw	r16,12(sp)
   22e1c:	003fde06 	br	22d98 <__floatunsisf+0x4c>

00022e20 <udivmodsi4>:
   22e20:	2005883a 	mov	r2,r4
   22e24:	2900182e 	bgeu	r5,r4,22e88 <udivmodsi4+0x68>
   22e28:	28001716 	blt	r5,zero,22e88 <udivmodsi4+0x68>
   22e2c:	01000804 	movi	r4,32
   22e30:	00c00044 	movi	r3,1
   22e34:	00000206 	br	22e40 <udivmodsi4+0x20>
   22e38:	20001126 	beq	r4,zero,22e80 <udivmodsi4+0x60>
   22e3c:	28000516 	blt	r5,zero,22e54 <udivmodsi4+0x34>
   22e40:	294b883a 	add	r5,r5,r5
   22e44:	213fffc4 	addi	r4,r4,-1
   22e48:	18c7883a 	add	r3,r3,r3
   22e4c:	28bffa36 	bltu	r5,r2,22e38 <udivmodsi4+0x18>
   22e50:	18000b26 	beq	r3,zero,22e80 <udivmodsi4+0x60>
   22e54:	0009883a 	mov	r4,zero
   22e58:	11400236 	bltu	r2,r5,22e64 <udivmodsi4+0x44>
   22e5c:	1145c83a 	sub	r2,r2,r5
   22e60:	20c8b03a 	or	r4,r4,r3
   22e64:	1806d07a 	srli	r3,r3,1
   22e68:	280ad07a 	srli	r5,r5,1
   22e6c:	183ffa1e 	bne	r3,zero,22e58 <udivmodsi4+0x38>
   22e70:	3000021e 	bne	r6,zero,22e7c <udivmodsi4+0x5c>
   22e74:	2005883a 	mov	r2,r4
   22e78:	f800283a 	ret
   22e7c:	f800283a 	ret
   22e80:	0009883a 	mov	r4,zero
   22e84:	003ffa06 	br	22e70 <udivmodsi4+0x50>
   22e88:	00c00044 	movi	r3,1
   22e8c:	0009883a 	mov	r4,zero
   22e90:	003ff106 	br	22e58 <udivmodsi4+0x38>

00022e94 <__divsi3>:
   22e94:	defffe04 	addi	sp,sp,-8
   22e98:	dfc00115 	stw	ra,4(sp)
   22e9c:	dc000015 	stw	r16,0(sp)
   22ea0:	20000a16 	blt	r4,zero,22ecc <__divsi3+0x38>
   22ea4:	0021883a 	mov	r16,zero
   22ea8:	28000b16 	blt	r5,zero,22ed8 <__divsi3+0x44>
   22eac:	000d883a 	mov	r6,zero
   22eb0:	0022e200 	call	22e20 <udivmodsi4>
   22eb4:	80000126 	beq	r16,zero,22ebc <__divsi3+0x28>
   22eb8:	0085c83a 	sub	r2,zero,r2
   22ebc:	dfc00117 	ldw	ra,4(sp)
   22ec0:	dc000017 	ldw	r16,0(sp)
   22ec4:	dec00204 	addi	sp,sp,8
   22ec8:	f800283a 	ret
   22ecc:	0109c83a 	sub	r4,zero,r4
   22ed0:	04000044 	movi	r16,1
   22ed4:	283ff50e 	bge	r5,zero,22eac <__divsi3+0x18>
   22ed8:	014bc83a 	sub	r5,zero,r5
   22edc:	8400005c 	xori	r16,r16,1
   22ee0:	003ff206 	br	22eac <__divsi3+0x18>

00022ee4 <__modsi3>:
   22ee4:	deffff04 	addi	sp,sp,-4
   22ee8:	dfc00015 	stw	ra,0(sp)
   22eec:	20000516 	blt	r4,zero,22f04 <__modsi3+0x20>
   22ef0:	28000c16 	blt	r5,zero,22f24 <__modsi3+0x40>
   22ef4:	01800044 	movi	r6,1
   22ef8:	dfc00017 	ldw	ra,0(sp)
   22efc:	dec00104 	addi	sp,sp,4
   22f00:	0022e201 	jmpi	22e20 <udivmodsi4>
   22f04:	0109c83a 	sub	r4,zero,r4
   22f08:	28000b16 	blt	r5,zero,22f38 <__modsi3+0x54>
   22f0c:	01800044 	movi	r6,1
   22f10:	0022e200 	call	22e20 <udivmodsi4>
   22f14:	0085c83a 	sub	r2,zero,r2
   22f18:	dfc00017 	ldw	ra,0(sp)
   22f1c:	dec00104 	addi	sp,sp,4
   22f20:	f800283a 	ret
   22f24:	014bc83a 	sub	r5,zero,r5
   22f28:	01800044 	movi	r6,1
   22f2c:	dfc00017 	ldw	ra,0(sp)
   22f30:	dec00104 	addi	sp,sp,4
   22f34:	0022e201 	jmpi	22e20 <udivmodsi4>
   22f38:	014bc83a 	sub	r5,zero,r5
   22f3c:	003ff306 	br	22f0c <__modsi3+0x28>

00022f40 <__udivsi3>:
   22f40:	000d883a 	mov	r6,zero
   22f44:	0022e201 	jmpi	22e20 <udivmodsi4>

00022f48 <__umodsi3>:
   22f48:	01800044 	movi	r6,1
   22f4c:	0022e201 	jmpi	22e20 <udivmodsi4>

00022f50 <__mulsi3>:
   22f50:	0005883a 	mov	r2,zero
   22f54:	20000726 	beq	r4,zero,22f74 <__mulsi3+0x24>
   22f58:	20c0004c 	andi	r3,r4,1
   22f5c:	2008d07a 	srli	r4,r4,1
   22f60:	18000126 	beq	r3,zero,22f68 <__mulsi3+0x18>
   22f64:	1145883a 	add	r2,r2,r5
   22f68:	294b883a 	add	r5,r5,r5
   22f6c:	203ffa1e 	bne	r4,zero,22f58 <__mulsi3+0x8>
   22f70:	f800283a 	ret
   22f74:	f800283a 	ret

00022f78 <__muldi3>:
   22f78:	defff604 	addi	sp,sp,-40
   22f7c:	dd400515 	stw	r21,20(sp)
   22f80:	dd000415 	stw	r20,16(sp)
   22f84:	257fffcc 	andi	r21,r4,65535
   22f88:	353fffcc 	andi	r20,r6,65535
   22f8c:	dcc00315 	stw	r19,12(sp)
   22f90:	3026d43a 	srli	r19,r6,16
   22f94:	dd800615 	stw	r22,24(sp)
   22f98:	dc800215 	stw	r18,8(sp)
   22f9c:	dc400115 	stw	r17,4(sp)
   22fa0:	2024d43a 	srli	r18,r4,16
   22fa4:	2023883a 	mov	r17,r4
   22fa8:	282d883a 	mov	r22,r5
   22fac:	a009883a 	mov	r4,r20
   22fb0:	a80b883a 	mov	r5,r21
   22fb4:	dfc00915 	stw	ra,36(sp)
   22fb8:	df000815 	stw	fp,32(sp)
   22fbc:	ddc00715 	stw	r23,28(sp)
   22fc0:	3839883a 	mov	fp,r7
   22fc4:	dc000015 	stw	r16,0(sp)
   22fc8:	3021883a 	mov	r16,r6
   22fcc:	0022f500 	call	22f50 <__mulsi3>
   22fd0:	a80b883a 	mov	r5,r21
   22fd4:	9809883a 	mov	r4,r19
   22fd8:	102f883a 	mov	r23,r2
   22fdc:	0022f500 	call	22f50 <__mulsi3>
   22fe0:	a009883a 	mov	r4,r20
   22fe4:	900b883a 	mov	r5,r18
   22fe8:	102b883a 	mov	r21,r2
   22fec:	0022f500 	call	22f50 <__mulsi3>
   22ff0:	9809883a 	mov	r4,r19
   22ff4:	900b883a 	mov	r5,r18
   22ff8:	1029883a 	mov	r20,r2
   22ffc:	0022f500 	call	22f50 <__mulsi3>
   23000:	1007883a 	mov	r3,r2
   23004:	b804d43a 	srli	r2,r23,16
   23008:	a549883a 	add	r4,r20,r21
   2300c:	2089883a 	add	r4,r4,r2
   23010:	2500022e 	bgeu	r4,r20,2301c <__muldi3+0xa4>
   23014:	00800074 	movhi	r2,1
   23018:	1887883a 	add	r3,r3,r2
   2301c:	200cd43a 	srli	r6,r4,16
   23020:	2004943a 	slli	r2,r4,16
   23024:	e00b883a 	mov	r5,fp
   23028:	8809883a 	mov	r4,r17
   2302c:	bdffffcc 	andi	r23,r23,65535
   23030:	19a3883a 	add	r17,r3,r6
   23034:	15ef883a 	add	r23,r2,r23
   23038:	0022f500 	call	22f50 <__mulsi3>
   2303c:	8009883a 	mov	r4,r16
   23040:	b00b883a 	mov	r5,r22
   23044:	1025883a 	mov	r18,r2
   23048:	0022f500 	call	22f50 <__mulsi3>
   2304c:	9085883a 	add	r2,r18,r2
   23050:	1447883a 	add	r3,r2,r17
   23054:	b805883a 	mov	r2,r23
   23058:	dfc00917 	ldw	ra,36(sp)
   2305c:	df000817 	ldw	fp,32(sp)
   23060:	ddc00717 	ldw	r23,28(sp)
   23064:	dd800617 	ldw	r22,24(sp)
   23068:	dd400517 	ldw	r21,20(sp)
   2306c:	dd000417 	ldw	r20,16(sp)
   23070:	dcc00317 	ldw	r19,12(sp)
   23074:	dc800217 	ldw	r18,8(sp)
   23078:	dc400117 	ldw	r17,4(sp)
   2307c:	dc000017 	ldw	r16,0(sp)
   23080:	dec00a04 	addi	sp,sp,40
   23084:	f800283a 	ret

00023088 <__clzsi2>:
   23088:	00bfffd4 	movui	r2,65535
   2308c:	11000b36 	bltu	r2,r4,230bc <__clzsi2+0x34>
   23090:	00803fc4 	movi	r2,255
   23094:	11001e2e 	bgeu	r2,r4,23110 <__clzsi2+0x88>
   23098:	00c00204 	movi	r3,8
   2309c:	20c8d83a 	srl	r4,r4,r3
   230a0:	00c000f4 	movhi	r3,3
   230a4:	18d37604 	addi	r3,r3,19928
   230a8:	00800604 	movi	r2,24
   230ac:	1909883a 	add	r4,r3,r4
   230b0:	20c00003 	ldbu	r3,0(r4)
   230b4:	10c5c83a 	sub	r2,r2,r3
   230b8:	f800283a 	ret
   230bc:	00804034 	movhi	r2,256
   230c0:	10bfffc4 	addi	r2,r2,-1
   230c4:	11000936 	bltu	r2,r4,230ec <__clzsi2+0x64>
   230c8:	00800404 	movi	r2,16
   230cc:	1007883a 	mov	r3,r2
   230d0:	20c8d83a 	srl	r4,r4,r3
   230d4:	00c000f4 	movhi	r3,3
   230d8:	18d37604 	addi	r3,r3,19928
   230dc:	1909883a 	add	r4,r3,r4
   230e0:	20c00003 	ldbu	r3,0(r4)
   230e4:	10c5c83a 	sub	r2,r2,r3
   230e8:	f800283a 	ret
   230ec:	00c00604 	movi	r3,24
   230f0:	20c8d83a 	srl	r4,r4,r3
   230f4:	00c000f4 	movhi	r3,3
   230f8:	18d37604 	addi	r3,r3,19928
   230fc:	00800204 	movi	r2,8
   23100:	1909883a 	add	r4,r3,r4
   23104:	20c00003 	ldbu	r3,0(r4)
   23108:	10c5c83a 	sub	r2,r2,r3
   2310c:	f800283a 	ret
   23110:	0007883a 	mov	r3,zero
   23114:	20c8d83a 	srl	r4,r4,r3
   23118:	00c000f4 	movhi	r3,3
   2311c:	18d37604 	addi	r3,r3,19928
   23120:	00800804 	movi	r2,32
   23124:	1909883a 	add	r4,r3,r4
   23128:	20c00003 	ldbu	r3,0(r4)
   2312c:	10c5c83a 	sub	r2,r2,r3
   23130:	f800283a 	ret

00023134 <__pack_f>:
   23134:	21400017 	ldw	r5,0(r4)
   23138:	01800044 	movi	r6,1
   2313c:	20c00317 	ldw	r3,12(r4)
   23140:	21c00117 	ldw	r7,4(r4)
   23144:	3140282e 	bgeu	r6,r5,231e8 <__pack_f+0xb4>
   23148:	00800104 	movi	r2,4
   2314c:	28802326 	beq	r5,r2,231dc <__pack_f+0xa8>
   23150:	00800084 	movi	r2,2
   23154:	28800f26 	beq	r5,r2,23194 <__pack_f+0x60>
   23158:	18000e26 	beq	r3,zero,23194 <__pack_f+0x60>
   2315c:	21000217 	ldw	r4,8(r4)
   23160:	00bfe084 	movi	r2,-126
   23164:	20802616 	blt	r4,r2,23200 <__pack_f+0xcc>
   23168:	00801fc4 	movi	r2,127
   2316c:	11001b16 	blt	r2,r4,231dc <__pack_f+0xa8>
   23170:	188a703a 	and	r5,r3,r2
   23174:	00801004 	movi	r2,64
   23178:	28801126 	beq	r5,r2,231c0 <__pack_f+0x8c>
   2317c:	18c00fc4 	addi	r3,r3,63
   23180:	18001316 	blt	r3,zero,231d0 <__pack_f+0x9c>
   23184:	21001fc4 	addi	r4,r4,127
   23188:	180690ba 	slli	r3,r3,2
   2318c:	1806d27a 	srli	r3,r3,9
   23190:	00000206 	br	2319c <__pack_f+0x68>
   23194:	0009883a 	mov	r4,zero
   23198:	0007883a 	mov	r3,zero
   2319c:	21003fcc 	andi	r4,r4,255
   231a0:	200895fa 	slli	r4,r4,23
   231a4:	380a97fa 	slli	r5,r7,31
   231a8:	00802034 	movhi	r2,128
   231ac:	10bfffc4 	addi	r2,r2,-1
   231b0:	1886703a 	and	r3,r3,r2
   231b4:	1904b03a 	or	r2,r3,r4
   231b8:	1144b03a 	or	r2,r2,r5
   231bc:	f800283a 	ret
   231c0:	1880200c 	andi	r2,r3,128
   231c4:	103fee26 	beq	r2,zero,23180 <__pack_f+0x4c>
   231c8:	18c01004 	addi	r3,r3,64
   231cc:	183fed0e 	bge	r3,zero,23184 <__pack_f+0x50>
   231d0:	1806d07a 	srli	r3,r3,1
   231d4:	21002004 	addi	r4,r4,128
   231d8:	003feb06 	br	23188 <__pack_f+0x54>
   231dc:	013fffc4 	movi	r4,-1
   231e0:	0007883a 	mov	r3,zero
   231e4:	003fed06 	br	2319c <__pack_f+0x68>
   231e8:	18c00434 	orhi	r3,r3,16
   231ec:	00802034 	movhi	r2,128
   231f0:	10bfffc4 	addi	r2,r2,-1
   231f4:	1886703a 	and	r3,r3,r2
   231f8:	013fffc4 	movi	r4,-1
   231fc:	003fe706 	br	2319c <__pack_f+0x68>
   23200:	1105c83a 	sub	r2,r2,r4
   23204:	01000644 	movi	r4,25
   23208:	20801216 	blt	r4,r2,23254 <__pack_f+0x120>
   2320c:	3088983a 	sll	r4,r6,r2
   23210:	1884d83a 	srl	r2,r3,r2
   23214:	213fffc4 	addi	r4,r4,-1
   23218:	20c6703a 	and	r3,r4,r3
   2321c:	1806c03a 	cmpne	r3,r3,zero
   23220:	1884b03a 	or	r2,r3,r2
   23224:	11001fcc 	andi	r4,r2,127
   23228:	00c01004 	movi	r3,64
   2322c:	20c00a1e 	bne	r4,r3,23258 <__pack_f+0x124>
   23230:	10c0200c 	andi	r3,r2,128
   23234:	18000126 	beq	r3,zero,2323c <__pack_f+0x108>
   23238:	10801004 	addi	r2,r2,64
   2323c:	100690ba 	slli	r3,r2,2
   23240:	01100034 	movhi	r4,16384
   23244:	1105403a 	cmpgeu	r2,r2,r4
   23248:	1806d27a 	srli	r3,r3,9
   2324c:	1009883a 	mov	r4,r2
   23250:	003fd206 	br	2319c <__pack_f+0x68>
   23254:	0005883a 	mov	r2,zero
   23258:	10800fc4 	addi	r2,r2,63
   2325c:	003ff706 	br	2323c <__pack_f+0x108>

00023260 <__unpack_f>:
   23260:	20c00017 	ldw	r3,0(r4)
   23264:	00802034 	movhi	r2,128
   23268:	10bfffc4 	addi	r2,r2,-1
   2326c:	1808d5fa 	srli	r4,r3,23
   23270:	180cd7fa 	srli	r6,r3,31
   23274:	1884703a 	and	r2,r3,r2
   23278:	21003fcc 	andi	r4,r4,255
   2327c:	29800115 	stw	r6,4(r5)
   23280:	2000111e 	bne	r4,zero,232c8 <__unpack_f+0x68>
   23284:	10001a26 	beq	r2,zero,232f0 <__unpack_f+0x90>
   23288:	00ffe084 	movi	r3,-126
   2328c:	100491fa 	slli	r2,r2,7
   23290:	28c00215 	stw	r3,8(r5)
   23294:	00c000c4 	movi	r3,3
   23298:	28c00015 	stw	r3,0(r5)
   2329c:	01900034 	movhi	r6,16384
   232a0:	31bfffc4 	addi	r6,r6,-1
   232a4:	30801036 	bltu	r6,r2,232e8 <__unpack_f+0x88>
   232a8:	00ffe044 	movi	r3,-127
   232ac:	1085883a 	add	r2,r2,r2
   232b0:	1809883a 	mov	r4,r3
   232b4:	18ffffc4 	addi	r3,r3,-1
   232b8:	30bffc2e 	bgeu	r6,r2,232ac <__unpack_f+0x4c>
   232bc:	29000215 	stw	r4,8(r5)
   232c0:	28800315 	stw	r2,12(r5)
   232c4:	f800283a 	ret
   232c8:	01803fc4 	movi	r6,255
   232cc:	21800b26 	beq	r4,r6,232fc <__unpack_f+0x9c>
   232d0:	100491fa 	slli	r2,r2,7
   232d4:	213fe044 	addi	r4,r4,-127
   232d8:	00c000c4 	movi	r3,3
   232dc:	10900034 	orhi	r2,r2,16384
   232e0:	29000215 	stw	r4,8(r5)
   232e4:	28c00015 	stw	r3,0(r5)
   232e8:	28800315 	stw	r2,12(r5)
   232ec:	f800283a 	ret
   232f0:	00800084 	movi	r2,2
   232f4:	28800015 	stw	r2,0(r5)
   232f8:	f800283a 	ret
   232fc:	10000526 	beq	r2,zero,23314 <__unpack_f+0xb4>
   23300:	18c0042c 	andhi	r3,r3,16
   23304:	18000626 	beq	r3,zero,23320 <__unpack_f+0xc0>
   23308:	00c00044 	movi	r3,1
   2330c:	28c00015 	stw	r3,0(r5)
   23310:	003ff506 	br	232e8 <__unpack_f+0x88>
   23314:	00800104 	movi	r2,4
   23318:	28800015 	stw	r2,0(r5)
   2331c:	f800283a 	ret
   23320:	28000015 	stw	zero,0(r5)
   23324:	003ff006 	br	232e8 <__unpack_f+0x88>

00023328 <__fpcmp_parts_f>:
   23328:	20c00017 	ldw	r3,0(r4)
   2332c:	00800044 	movi	r2,1
   23330:	10c0172e 	bgeu	r2,r3,23390 <__fpcmp_parts_f+0x68>
   23334:	29800017 	ldw	r6,0(r5)
   23338:	1180152e 	bgeu	r2,r6,23390 <__fpcmp_parts_f+0x68>
   2333c:	01c00104 	movi	r7,4
   23340:	19c02326 	beq	r3,r7,233d0 <__fpcmp_parts_f+0xa8>
   23344:	31c00926 	beq	r6,r7,2336c <__fpcmp_parts_f+0x44>
   23348:	01c00084 	movi	r7,2
   2334c:	19c00626 	beq	r3,r7,23368 <__fpcmp_parts_f+0x40>
   23350:	31c01126 	beq	r6,r7,23398 <__fpcmp_parts_f+0x70>
   23354:	20c00117 	ldw	r3,4(r4)
   23358:	29800117 	ldw	r6,4(r5)
   2335c:	19801226 	beq	r3,r6,233a8 <__fpcmp_parts_f+0x80>
   23360:	1800041e 	bne	r3,zero,23374 <__fpcmp_parts_f+0x4c>
   23364:	f800283a 	ret
   23368:	30c01526 	beq	r6,r3,233c0 <__fpcmp_parts_f+0x98>
   2336c:	28800117 	ldw	r2,4(r5)
   23370:	1000071e 	bne	r2,zero,23390 <__fpcmp_parts_f+0x68>
   23374:	00bfffc4 	movi	r2,-1
   23378:	f800283a 	ret
   2337c:	39801216 	blt	r7,r6,233c8 <__fpcmp_parts_f+0xa0>
   23380:	21000317 	ldw	r4,12(r4)
   23384:	28800317 	ldw	r2,12(r5)
   23388:	11000c2e 	bgeu	r2,r4,233bc <__fpcmp_parts_f+0x94>
   2338c:	183ff91e 	bne	r3,zero,23374 <__fpcmp_parts_f+0x4c>
   23390:	00800044 	movi	r2,1
   23394:	f800283a 	ret
   23398:	20800117 	ldw	r2,4(r4)
   2339c:	103ff51e 	bne	r2,zero,23374 <__fpcmp_parts_f+0x4c>
   233a0:	00800044 	movi	r2,1
   233a4:	f800283a 	ret
   233a8:	21c00217 	ldw	r7,8(r4)
   233ac:	29800217 	ldw	r6,8(r5)
   233b0:	31fff20e 	bge	r6,r7,2337c <__fpcmp_parts_f+0x54>
   233b4:	183fef1e 	bne	r3,zero,23374 <__fpcmp_parts_f+0x4c>
   233b8:	f800283a 	ret
   233bc:	20800236 	bltu	r4,r2,233c8 <__fpcmp_parts_f+0xa0>
   233c0:	0005883a 	mov	r2,zero
   233c4:	f800283a 	ret
   233c8:	183fea26 	beq	r3,zero,23374 <__fpcmp_parts_f+0x4c>
   233cc:	003ff006 	br	23390 <__fpcmp_parts_f+0x68>
   233d0:	30fff11e 	bne	r6,r3,23398 <__fpcmp_parts_f+0x70>
   233d4:	28c00117 	ldw	r3,4(r5)
   233d8:	20800117 	ldw	r2,4(r4)
   233dc:	1885c83a 	sub	r2,r3,r2
   233e0:	f800283a 	ret

000233e4 <_fclose_r>:
   233e4:	defffc04 	addi	sp,sp,-16
   233e8:	dc400115 	stw	r17,4(sp)
   233ec:	dc000015 	stw	r16,0(sp)
   233f0:	dfc00315 	stw	ra,12(sp)
   233f4:	dc800215 	stw	r18,8(sp)
   233f8:	2821883a 	mov	r16,r5
   233fc:	2023883a 	mov	r17,r4
   23400:	28003426 	beq	r5,zero,234d4 <_fclose_r+0xf0>
   23404:	00239f80 	call	239f8 <__sfp_lock_acquire>
   23408:	88000226 	beq	r17,zero,23414 <_fclose_r+0x30>
   2340c:	88800e17 	ldw	r2,56(r17)
   23410:	10003826 	beq	r2,zero,234f4 <_fclose_r+0x110>
   23414:	8080030f 	ldh	r2,12(r16)
   23418:	10002526 	beq	r2,zero,234b0 <_fclose_r+0xcc>
   2341c:	8809883a 	mov	r4,r17
   23420:	800b883a 	mov	r5,r16
   23424:	00235340 	call	23534 <_fflush_r>
   23428:	1025883a 	mov	r18,r2
   2342c:	80800b17 	ldw	r2,44(r16)
   23430:	10000426 	beq	r2,zero,23444 <_fclose_r+0x60>
   23434:	81400717 	ldw	r5,28(r16)
   23438:	8809883a 	mov	r4,r17
   2343c:	103ee83a 	callr	r2
   23440:	10003516 	blt	r2,zero,23518 <_fclose_r+0x134>
   23444:	8080030b 	ldhu	r2,12(r16)
   23448:	1080200c 	andi	r2,r2,128
   2344c:	10bfffcc 	andi	r2,r2,65535
   23450:	10a0001c 	xori	r2,r2,32768
   23454:	10a00004 	addi	r2,r2,-32768
   23458:	10002b1e 	bne	r2,zero,23508 <_fclose_r+0x124>
   2345c:	81400c17 	ldw	r5,48(r16)
   23460:	28000526 	beq	r5,zero,23478 <_fclose_r+0x94>
   23464:	80801004 	addi	r2,r16,64
   23468:	28800226 	beq	r5,r2,23474 <_fclose_r+0x90>
   2346c:	8809883a 	mov	r4,r17
   23470:	0023f3c0 	call	23f3c <_free_r>
   23474:	80000c15 	stw	zero,48(r16)
   23478:	81401117 	ldw	r5,68(r16)
   2347c:	28000326 	beq	r5,zero,2348c <_fclose_r+0xa8>
   23480:	8809883a 	mov	r4,r17
   23484:	0023f3c0 	call	23f3c <_free_r>
   23488:	80001115 	stw	zero,68(r16)
   2348c:	8000030d 	sth	zero,12(r16)
   23490:	00239fc0 	call	239fc <__sfp_lock_release>
   23494:	9005883a 	mov	r2,r18
   23498:	dfc00317 	ldw	ra,12(sp)
   2349c:	dc800217 	ldw	r18,8(sp)
   234a0:	dc400117 	ldw	r17,4(sp)
   234a4:	dc000017 	ldw	r16,0(sp)
   234a8:	dec00404 	addi	sp,sp,16
   234ac:	f800283a 	ret
   234b0:	00239fc0 	call	239fc <__sfp_lock_release>
   234b4:	0025883a 	mov	r18,zero
   234b8:	9005883a 	mov	r2,r18
   234bc:	dfc00317 	ldw	ra,12(sp)
   234c0:	dc800217 	ldw	r18,8(sp)
   234c4:	dc400117 	ldw	r17,4(sp)
   234c8:	dc000017 	ldw	r16,0(sp)
   234cc:	dec00404 	addi	sp,sp,16
   234d0:	f800283a 	ret
   234d4:	0025883a 	mov	r18,zero
   234d8:	9005883a 	mov	r2,r18
   234dc:	dfc00317 	ldw	ra,12(sp)
   234e0:	dc800217 	ldw	r18,8(sp)
   234e4:	dc400117 	ldw	r17,4(sp)
   234e8:	dc000017 	ldw	r16,0(sp)
   234ec:	dec00404 	addi	sp,sp,16
   234f0:	f800283a 	ret
   234f4:	8809883a 	mov	r4,r17
   234f8:	00237f00 	call	237f0 <__sinit>
   234fc:	8080030f 	ldh	r2,12(r16)
   23500:	103fc61e 	bne	r2,zero,2341c <_fclose_r+0x38>
   23504:	003fea06 	br	234b0 <_fclose_r+0xcc>
   23508:	81400417 	ldw	r5,16(r16)
   2350c:	8809883a 	mov	r4,r17
   23510:	0023f3c0 	call	23f3c <_free_r>
   23514:	003fd106 	br	2345c <_fclose_r+0x78>
   23518:	04bfffc4 	movi	r18,-1
   2351c:	003fc906 	br	23444 <_fclose_r+0x60>

00023520 <fclose>:
   23520:	008000f4 	movhi	r2,3
   23524:	1097aa04 	addi	r2,r2,24232
   23528:	200b883a 	mov	r5,r4
   2352c:	11000017 	ldw	r4,0(r2)
   23530:	00233e41 	jmpi	233e4 <_fclose_r>

00023534 <_fflush_r>:
   23534:	defffb04 	addi	sp,sp,-20
   23538:	dcc00315 	stw	r19,12(sp)
   2353c:	dc400115 	stw	r17,4(sp)
   23540:	dfc00415 	stw	ra,16(sp)
   23544:	dc800215 	stw	r18,8(sp)
   23548:	dc000015 	stw	r16,0(sp)
   2354c:	2027883a 	mov	r19,r4
   23550:	2823883a 	mov	r17,r5
   23554:	20000226 	beq	r4,zero,23560 <_fflush_r+0x2c>
   23558:	20800e17 	ldw	r2,56(r4)
   2355c:	10005726 	beq	r2,zero,236bc <_fflush_r+0x188>
   23560:	8880030b 	ldhu	r2,12(r17)
   23564:	10c0020c 	andi	r3,r2,8
   23568:	18ffffcc 	andi	r3,r3,65535
   2356c:	18e0001c 	xori	r3,r3,32768
   23570:	18e00004 	addi	r3,r3,-32768
   23574:	1800311e 	bne	r3,zero,2363c <_fflush_r+0x108>
   23578:	89000117 	ldw	r4,4(r17)
   2357c:	10c20014 	ori	r3,r2,2048
   23580:	88c0030d 	sth	r3,12(r17)
   23584:	180b883a 	mov	r5,r3
   23588:	0100520e 	bge	zero,r4,236d4 <_fflush_r+0x1a0>
   2358c:	88c00a17 	ldw	r3,40(r17)
   23590:	18002226 	beq	r3,zero,2361c <_fflush_r+0xe8>
   23594:	1084000c 	andi	r2,r2,4096
   23598:	10bfffcc 	andi	r2,r2,65535
   2359c:	10a0001c 	xori	r2,r2,32768
   235a0:	10a00004 	addi	r2,r2,-32768
   235a4:	10004e26 	beq	r2,zero,236e0 <_fflush_r+0x1ac>
   235a8:	8c001417 	ldw	r16,80(r17)
   235ac:	2940010c 	andi	r5,r5,4
   235b0:	297fffcc 	andi	r5,r5,65535
   235b4:	2960001c 	xori	r5,r5,32768
   235b8:	29600004 	addi	r5,r5,-32768
   235bc:	28000626 	beq	r5,zero,235d8 <_fflush_r+0xa4>
   235c0:	89000117 	ldw	r4,4(r17)
   235c4:	88800c17 	ldw	r2,48(r17)
   235c8:	8121c83a 	sub	r16,r16,r4
   235cc:	10000226 	beq	r2,zero,235d8 <_fflush_r+0xa4>
   235d0:	88800f17 	ldw	r2,60(r17)
   235d4:	80a1c83a 	sub	r16,r16,r2
   235d8:	89400717 	ldw	r5,28(r17)
   235dc:	9809883a 	mov	r4,r19
   235e0:	800d883a 	mov	r6,r16
   235e4:	000f883a 	mov	r7,zero
   235e8:	183ee83a 	callr	r3
   235ec:	8080281e 	bne	r16,r2,23690 <_fflush_r+0x15c>
   235f0:	8880030b 	ldhu	r2,12(r17)
   235f4:	88c00417 	ldw	r3,16(r17)
   235f8:	88000115 	stw	zero,4(r17)
   235fc:	113dffcc 	andi	r4,r2,63487
   23600:	1084000c 	andi	r2,r2,4096
   23604:	10bfffcc 	andi	r2,r2,65535
   23608:	10a0001c 	xori	r2,r2,32768
   2360c:	8900030d 	sth	r4,12(r17)
   23610:	88c00015 	stw	r3,0(r17)
   23614:	10a00004 	addi	r2,r2,-32768
   23618:	10002c1e 	bne	r2,zero,236cc <_fflush_r+0x198>
   2361c:	0005883a 	mov	r2,zero
   23620:	dfc00417 	ldw	ra,16(sp)
   23624:	dcc00317 	ldw	r19,12(sp)
   23628:	dc800217 	ldw	r18,8(sp)
   2362c:	dc400117 	ldw	r17,4(sp)
   23630:	dc000017 	ldw	r16,0(sp)
   23634:	dec00504 	addi	sp,sp,20
   23638:	f800283a 	ret
   2363c:	8c800417 	ldw	r18,16(r17)
   23640:	903ff626 	beq	r18,zero,2361c <_fflush_r+0xe8>
   23644:	8c000017 	ldw	r16,0(r17)
   23648:	108000cc 	andi	r2,r2,3
   2364c:	8c800015 	stw	r18,0(r17)
   23650:	84a1c83a 	sub	r16,r16,r18
   23654:	10001b1e 	bne	r2,zero,236c4 <_fflush_r+0x190>
   23658:	88800517 	ldw	r2,20(r17)
   2365c:	88800215 	stw	r2,8(r17)
   23660:	04000316 	blt	zero,r16,23670 <_fflush_r+0x13c>
   23664:	003fed06 	br	2361c <_fflush_r+0xe8>
   23668:	90a5883a 	add	r18,r18,r2
   2366c:	043feb0e 	bge	zero,r16,2361c <_fflush_r+0xe8>
   23670:	88800917 	ldw	r2,36(r17)
   23674:	89400717 	ldw	r5,28(r17)
   23678:	800f883a 	mov	r7,r16
   2367c:	900d883a 	mov	r6,r18
   23680:	9809883a 	mov	r4,r19
   23684:	103ee83a 	callr	r2
   23688:	80a1c83a 	sub	r16,r16,r2
   2368c:	00bff616 	blt	zero,r2,23668 <_fflush_r+0x134>
   23690:	88c0030b 	ldhu	r3,12(r17)
   23694:	00bfffc4 	movi	r2,-1
   23698:	18c01014 	ori	r3,r3,64
   2369c:	88c0030d 	sth	r3,12(r17)
   236a0:	dfc00417 	ldw	ra,16(sp)
   236a4:	dcc00317 	ldw	r19,12(sp)
   236a8:	dc800217 	ldw	r18,8(sp)
   236ac:	dc400117 	ldw	r17,4(sp)
   236b0:	dc000017 	ldw	r16,0(sp)
   236b4:	dec00504 	addi	sp,sp,20
   236b8:	f800283a 	ret
   236bc:	00237f00 	call	237f0 <__sinit>
   236c0:	003fa706 	br	23560 <_fflush_r+0x2c>
   236c4:	0005883a 	mov	r2,zero
   236c8:	003fe406 	br	2365c <_fflush_r+0x128>
   236cc:	8c001415 	stw	r16,80(r17)
   236d0:	003fd206 	br	2361c <_fflush_r+0xe8>
   236d4:	88c00f17 	ldw	r3,60(r17)
   236d8:	00ffac16 	blt	zero,r3,2358c <_fflush_r+0x58>
   236dc:	003fcf06 	br	2361c <_fflush_r+0xe8>
   236e0:	89400717 	ldw	r5,28(r17)
   236e4:	9809883a 	mov	r4,r19
   236e8:	000d883a 	mov	r6,zero
   236ec:	01c00044 	movi	r7,1
   236f0:	183ee83a 	callr	r3
   236f4:	1021883a 	mov	r16,r2
   236f8:	00bfffc4 	movi	r2,-1
   236fc:	80800326 	beq	r16,r2,2370c <_fflush_r+0x1d8>
   23700:	8940030b 	ldhu	r5,12(r17)
   23704:	88c00a17 	ldw	r3,40(r17)
   23708:	003fa806 	br	235ac <_fflush_r+0x78>
   2370c:	98c00017 	ldw	r3,0(r19)
   23710:	00800744 	movi	r2,29
   23714:	18bfde1e 	bne	r3,r2,23690 <_fflush_r+0x15c>
   23718:	003fc006 	br	2361c <_fflush_r+0xe8>

0002371c <fflush>:
   2371c:	200b883a 	mov	r5,r4
   23720:	20000426 	beq	r4,zero,23734 <fflush+0x18>
   23724:	008000f4 	movhi	r2,3
   23728:	1097aa04 	addi	r2,r2,24232
   2372c:	11000017 	ldw	r4,0(r2)
   23730:	00235341 	jmpi	23534 <_fflush_r>
   23734:	008000f4 	movhi	r2,3
   23738:	1097a904 	addi	r2,r2,24228
   2373c:	11000017 	ldw	r4,0(r2)
   23740:	014000b4 	movhi	r5,2
   23744:	294d4d04 	addi	r5,r5,13620
   23748:	00248101 	jmpi	24810 <_fwalk_reent>

0002374c <__fp_lock>:
   2374c:	0005883a 	mov	r2,zero
   23750:	f800283a 	ret

00023754 <__fp_unlock>:
   23754:	0005883a 	mov	r2,zero
   23758:	f800283a 	ret

0002375c <_cleanup_r>:
   2375c:	014000b4 	movhi	r5,2
   23760:	294d4804 	addi	r5,r5,13600
   23764:	00247681 	jmpi	24768 <_fwalk>

00023768 <__sfmoreglue>:
   23768:	defffc04 	addi	sp,sp,-16
   2376c:	dc800215 	stw	r18,8(sp)
   23770:	2825883a 	mov	r18,r5
   23774:	dc000015 	stw	r16,0(sp)
   23778:	01401704 	movi	r5,92
   2377c:	2021883a 	mov	r16,r4
   23780:	9009883a 	mov	r4,r18
   23784:	dfc00315 	stw	ra,12(sp)
   23788:	dc400115 	stw	r17,4(sp)
   2378c:	0022f500 	call	22f50 <__mulsi3>
   23790:	8009883a 	mov	r4,r16
   23794:	11400304 	addi	r5,r2,12
   23798:	1023883a 	mov	r17,r2
   2379c:	0024b600 	call	24b60 <_malloc_r>
   237a0:	1021883a 	mov	r16,r2
   237a4:	10000726 	beq	r2,zero,237c4 <__sfmoreglue+0x5c>
   237a8:	11000304 	addi	r4,r2,12
   237ac:	10000015 	stw	zero,0(r2)
   237b0:	14800115 	stw	r18,4(r2)
   237b4:	11000215 	stw	r4,8(r2)
   237b8:	000b883a 	mov	r5,zero
   237bc:	880d883a 	mov	r6,r17
   237c0:	00254240 	call	25424 <memset>
   237c4:	8005883a 	mov	r2,r16
   237c8:	dfc00317 	ldw	ra,12(sp)
   237cc:	dc800217 	ldw	r18,8(sp)
   237d0:	dc400117 	ldw	r17,4(sp)
   237d4:	dc000017 	ldw	r16,0(sp)
   237d8:	dec00404 	addi	sp,sp,16
   237dc:	f800283a 	ret

000237e0 <_cleanup>:
   237e0:	008000f4 	movhi	r2,3
   237e4:	1097a904 	addi	r2,r2,24228
   237e8:	11000017 	ldw	r4,0(r2)
   237ec:	002375c1 	jmpi	2375c <_cleanup_r>

000237f0 <__sinit>:
   237f0:	20800e17 	ldw	r2,56(r4)
   237f4:	1000401e 	bne	r2,zero,238f8 <__sinit+0x108>
   237f8:	21400117 	ldw	r5,4(r4)
   237fc:	018000b4 	movhi	r6,2
   23800:	318dd704 	addi	r6,r6,14172
   23804:	20c00217 	ldw	r3,8(r4)
   23808:	21800f15 	stw	r6,60(r4)
   2380c:	2080bb04 	addi	r2,r4,748
   23810:	02400044 	movi	r9,1
   23814:	018000c4 	movi	r6,3
   23818:	2180b915 	stw	r6,740(r4)
   2381c:	2080ba15 	stw	r2,744(r4)
   23820:	22400e15 	stw	r9,56(r4)
   23824:	20800317 	ldw	r2,12(r4)
   23828:	2000b815 	stw	zero,736(r4)
   2382c:	020000b4 	movhi	r8,2
   23830:	42164904 	addi	r8,r8,22820
   23834:	01c000b4 	movhi	r7,2
   23838:	39d65e04 	addi	r7,r7,22904
   2383c:	018000b4 	movhi	r6,2
   23840:	31968004 	addi	r6,r6,23040
   23844:	010000b4 	movhi	r4,2
   23848:	21169704 	addi	r4,r4,23132
   2384c:	02800104 	movi	r10,4
   23850:	28000015 	stw	zero,0(r5)
   23854:	28000115 	stw	zero,4(r5)
   23858:	28000215 	stw	zero,8(r5)
   2385c:	2a80030d 	sth	r10,12(r5)
   23860:	2800038d 	sth	zero,14(r5)
   23864:	28000415 	stw	zero,16(r5)
   23868:	28000515 	stw	zero,20(r5)
   2386c:	28000615 	stw	zero,24(r5)
   23870:	29400715 	stw	r5,28(r5)
   23874:	2a000815 	stw	r8,32(r5)
   23878:	29c00915 	stw	r7,36(r5)
   2387c:	29800a15 	stw	r6,40(r5)
   23880:	29000b15 	stw	r4,44(r5)
   23884:	01400284 	movi	r5,10
   23888:	18000015 	stw	zero,0(r3)
   2388c:	18000115 	stw	zero,4(r3)
   23890:	18000215 	stw	zero,8(r3)
   23894:	1940030d 	sth	r5,12(r3)
   23898:	1a40038d 	sth	r9,14(r3)
   2389c:	18000415 	stw	zero,16(r3)
   238a0:	18000515 	stw	zero,20(r3)
   238a4:	18000615 	stw	zero,24(r3)
   238a8:	18c00715 	stw	r3,28(r3)
   238ac:	1a000815 	stw	r8,32(r3)
   238b0:	19c00915 	stw	r7,36(r3)
   238b4:	19800a15 	stw	r6,40(r3)
   238b8:	19000b15 	stw	r4,44(r3)
   238bc:	00c00484 	movi	r3,18
   238c0:	10c0030d 	sth	r3,12(r2)
   238c4:	00c00084 	movi	r3,2
   238c8:	10000015 	stw	zero,0(r2)
   238cc:	10000115 	stw	zero,4(r2)
   238d0:	10000215 	stw	zero,8(r2)
   238d4:	10c0038d 	sth	r3,14(r2)
   238d8:	10000415 	stw	zero,16(r2)
   238dc:	10000515 	stw	zero,20(r2)
   238e0:	10000615 	stw	zero,24(r2)
   238e4:	10800715 	stw	r2,28(r2)
   238e8:	12000815 	stw	r8,32(r2)
   238ec:	11c00915 	stw	r7,36(r2)
   238f0:	11800a15 	stw	r6,40(r2)
   238f4:	11000b15 	stw	r4,44(r2)
   238f8:	f800283a 	ret

000238fc <__sfp>:
   238fc:	defffc04 	addi	sp,sp,-16
   23900:	008000f4 	movhi	r2,3
   23904:	1097a904 	addi	r2,r2,24228
   23908:	dc400115 	stw	r17,4(sp)
   2390c:	14400017 	ldw	r17,0(r2)
   23910:	dc800215 	stw	r18,8(sp)
   23914:	dfc00315 	stw	ra,12(sp)
   23918:	88800e17 	ldw	r2,56(r17)
   2391c:	dc000015 	stw	r16,0(sp)
   23920:	2025883a 	mov	r18,r4
   23924:	10002826 	beq	r2,zero,239c8 <__sfp+0xcc>
   23928:	8c40b804 	addi	r17,r17,736
   2392c:	043fffc4 	movi	r16,-1
   23930:	89400117 	ldw	r5,4(r17)
   23934:	88800217 	ldw	r2,8(r17)
   23938:	297fffc4 	addi	r5,r5,-1
   2393c:	28000a16 	blt	r5,zero,23968 <__sfp+0x6c>
   23940:	10c0030f 	ldh	r3,12(r2)
   23944:	18000c26 	beq	r3,zero,23978 <__sfp+0x7c>
   23948:	10c01a04 	addi	r3,r2,104
   2394c:	00000206 	br	23958 <__sfp+0x5c>
   23950:	19bfe90f 	ldh	r6,-92(r3)
   23954:	30000826 	beq	r6,zero,23978 <__sfp+0x7c>
   23958:	297fffc4 	addi	r5,r5,-1
   2395c:	18bffd04 	addi	r2,r3,-12
   23960:	18c01704 	addi	r3,r3,92
   23964:	2c3ffa1e 	bne	r5,r16,23950 <__sfp+0x54>
   23968:	88800017 	ldw	r2,0(r17)
   2396c:	10001926 	beq	r2,zero,239d4 <__sfp+0xd8>
   23970:	1023883a 	mov	r17,r2
   23974:	003fee06 	br	23930 <__sfp+0x34>
   23978:	00ffffc4 	movi	r3,-1
   2397c:	10c0038d 	sth	r3,14(r2)
   23980:	00c00044 	movi	r3,1
   23984:	10c0030d 	sth	r3,12(r2)
   23988:	10000015 	stw	zero,0(r2)
   2398c:	10000215 	stw	zero,8(r2)
   23990:	10000115 	stw	zero,4(r2)
   23994:	10000415 	stw	zero,16(r2)
   23998:	10000515 	stw	zero,20(r2)
   2399c:	10000615 	stw	zero,24(r2)
   239a0:	10000c15 	stw	zero,48(r2)
   239a4:	10000d15 	stw	zero,52(r2)
   239a8:	10001115 	stw	zero,68(r2)
   239ac:	10001215 	stw	zero,72(r2)
   239b0:	dfc00317 	ldw	ra,12(sp)
   239b4:	dc800217 	ldw	r18,8(sp)
   239b8:	dc400117 	ldw	r17,4(sp)
   239bc:	dc000017 	ldw	r16,0(sp)
   239c0:	dec00404 	addi	sp,sp,16
   239c4:	f800283a 	ret
   239c8:	8809883a 	mov	r4,r17
   239cc:	00237f00 	call	237f0 <__sinit>
   239d0:	003fd506 	br	23928 <__sfp+0x2c>
   239d4:	9009883a 	mov	r4,r18
   239d8:	01400104 	movi	r5,4
   239dc:	00237680 	call	23768 <__sfmoreglue>
   239e0:	88800015 	stw	r2,0(r17)
   239e4:	103fe21e 	bne	r2,zero,23970 <__sfp+0x74>
   239e8:	00800304 	movi	r2,12
   239ec:	90800015 	stw	r2,0(r18)
   239f0:	0005883a 	mov	r2,zero
   239f4:	003fee06 	br	239b0 <__sfp+0xb4>

000239f8 <__sfp_lock_acquire>:
   239f8:	f800283a 	ret

000239fc <__sfp_lock_release>:
   239fc:	f800283a 	ret

00023a00 <__sinit_lock_acquire>:
   23a00:	f800283a 	ret

00023a04 <__sinit_lock_release>:
   23a04:	f800283a 	ret

00023a08 <__fp_lock_all>:
   23a08:	008000f4 	movhi	r2,3
   23a0c:	1097aa04 	addi	r2,r2,24232
   23a10:	11000017 	ldw	r4,0(r2)
   23a14:	014000b4 	movhi	r5,2
   23a18:	294dd304 	addi	r5,r5,14156
   23a1c:	00247681 	jmpi	24768 <_fwalk>

00023a20 <__fp_unlock_all>:
   23a20:	008000f4 	movhi	r2,3
   23a24:	1097aa04 	addi	r2,r2,24232
   23a28:	11000017 	ldw	r4,0(r2)
   23a2c:	014000b4 	movhi	r5,2
   23a30:	294dd504 	addi	r5,r5,14164
   23a34:	00247681 	jmpi	24768 <_fwalk>

00023a38 <_fopen_r>:
   23a38:	defffa04 	addi	sp,sp,-24
   23a3c:	dcc00415 	stw	r19,16(sp)
   23a40:	2827883a 	mov	r19,r5
   23a44:	300b883a 	mov	r5,r6
   23a48:	d80d883a 	mov	r6,sp
   23a4c:	dc800315 	stw	r18,12(sp)
   23a50:	dc400215 	stw	r17,8(sp)
   23a54:	dfc00515 	stw	ra,20(sp)
   23a58:	dc000115 	stw	r16,4(sp)
   23a5c:	2025883a 	mov	r18,r4
   23a60:	002abe80 	call	2abe8 <__sflags>
   23a64:	1023883a 	mov	r17,r2
   23a68:	10002926 	beq	r2,zero,23b10 <_fopen_r+0xd8>
   23a6c:	9009883a 	mov	r4,r18
   23a70:	00238fc0 	call	238fc <__sfp>
   23a74:	1021883a 	mov	r16,r2
   23a78:	10002526 	beq	r2,zero,23b10 <_fopen_r+0xd8>
   23a7c:	d9800017 	ldw	r6,0(sp)
   23a80:	9009883a 	mov	r4,r18
   23a84:	980b883a 	mov	r5,r19
   23a88:	01c06d84 	movi	r7,438
   23a8c:	00255000 	call	25500 <_open_r>
   23a90:	10001c16 	blt	r2,zero,23b04 <_fopen_r+0xcc>
   23a94:	8080038d 	sth	r2,14(r16)
   23a98:	008000b4 	movhi	r2,2
   23a9c:	10964904 	addi	r2,r2,22820
   23aa0:	80800815 	stw	r2,32(r16)
   23aa4:	008000b4 	movhi	r2,2
   23aa8:	10965e04 	addi	r2,r2,22904
   23aac:	80800915 	stw	r2,36(r16)
   23ab0:	008000b4 	movhi	r2,2
   23ab4:	10968004 	addi	r2,r2,23040
   23ab8:	88c0400c 	andi	r3,r17,256
   23abc:	80800a15 	stw	r2,40(r16)
   23ac0:	008000b4 	movhi	r2,2
   23ac4:	10969704 	addi	r2,r2,23132
   23ac8:	80800b15 	stw	r2,44(r16)
   23acc:	18bfffcc 	andi	r2,r3,65535
   23ad0:	10a0001c 	xori	r2,r2,32768
   23ad4:	8440030d 	sth	r17,12(r16)
   23ad8:	84000715 	stw	r16,28(r16)
   23adc:	10a00004 	addi	r2,r2,-32768
   23ae0:	1000141e 	bne	r2,zero,23b34 <_fopen_r+0xfc>
   23ae4:	8005883a 	mov	r2,r16
   23ae8:	dfc00517 	ldw	ra,20(sp)
   23aec:	dcc00417 	ldw	r19,16(sp)
   23af0:	dc800317 	ldw	r18,12(sp)
   23af4:	dc400217 	ldw	r17,8(sp)
   23af8:	dc000117 	ldw	r16,4(sp)
   23afc:	dec00604 	addi	sp,sp,24
   23b00:	f800283a 	ret
   23b04:	00239f80 	call	239f8 <__sfp_lock_acquire>
   23b08:	8000030d 	sth	zero,12(r16)
   23b0c:	00239fc0 	call	239fc <__sfp_lock_release>
   23b10:	0021883a 	mov	r16,zero
   23b14:	8005883a 	mov	r2,r16
   23b18:	dfc00517 	ldw	ra,20(sp)
   23b1c:	dcc00417 	ldw	r19,16(sp)
   23b20:	dc800317 	ldw	r18,12(sp)
   23b24:	dc400217 	ldw	r17,8(sp)
   23b28:	dc000117 	ldw	r16,4(sp)
   23b2c:	dec00604 	addi	sp,sp,24
   23b30:	f800283a 	ret
   23b34:	9009883a 	mov	r4,r18
   23b38:	800b883a 	mov	r5,r16
   23b3c:	000d883a 	mov	r6,zero
   23b40:	01c00084 	movi	r7,2
   23b44:	00242680 	call	24268 <_fseek_r>
   23b48:	8005883a 	mov	r2,r16
   23b4c:	dfc00517 	ldw	ra,20(sp)
   23b50:	dcc00417 	ldw	r19,16(sp)
   23b54:	dc800317 	ldw	r18,12(sp)
   23b58:	dc400217 	ldw	r17,8(sp)
   23b5c:	dc000117 	ldw	r16,4(sp)
   23b60:	dec00604 	addi	sp,sp,24
   23b64:	f800283a 	ret

00023b68 <fopen>:
   23b68:	00c000f4 	movhi	r3,3
   23b6c:	18d7aa04 	addi	r3,r3,24232
   23b70:	2005883a 	mov	r2,r4
   23b74:	19000017 	ldw	r4,0(r3)
   23b78:	280d883a 	mov	r6,r5
   23b7c:	100b883a 	mov	r5,r2
   23b80:	0023a381 	jmpi	23a38 <_fopen_r>

00023b84 <_fread_r>:
   23b84:	defff504 	addi	sp,sp,-44
   23b88:	dd000515 	stw	r20,20(sp)
   23b8c:	dcc00415 	stw	r19,16(sp)
   23b90:	2029883a 	mov	r20,r4
   23b94:	2827883a 	mov	r19,r5
   23b98:	3809883a 	mov	r4,r7
   23b9c:	300b883a 	mov	r5,r6
   23ba0:	ddc00815 	stw	r23,32(sp)
   23ba4:	dd800715 	stw	r22,28(sp)
   23ba8:	dd400615 	stw	r21,24(sp)
   23bac:	dc000115 	stw	r16,4(sp)
   23bb0:	dfc00a15 	stw	ra,40(sp)
   23bb4:	df000915 	stw	fp,36(sp)
   23bb8:	dc800315 	stw	r18,12(sp)
   23bbc:	dc400215 	stw	r17,8(sp)
   23bc0:	302f883a 	mov	r23,r6
   23bc4:	382b883a 	mov	r21,r7
   23bc8:	0022f500 	call	22f50 <__mulsi3>
   23bcc:	102d883a 	mov	r22,r2
   23bd0:	dc000b17 	ldw	r16,44(sp)
   23bd4:	10002e26 	beq	r2,zero,23c90 <_fread_r+0x10c>
   23bd8:	a0000226 	beq	r20,zero,23be4 <_fread_r+0x60>
   23bdc:	a0800e17 	ldw	r2,56(r20)
   23be0:	10006726 	beq	r2,zero,23d80 <_fread_r+0x1fc>
   23be4:	84400117 	ldw	r17,4(r16)
   23be8:	88002b16 	blt	r17,zero,23c98 <_fread_r+0x114>
   23bec:	8080030b 	ldhu	r2,12(r16)
   23bf0:	8807883a 	mov	r3,r17
   23bf4:	1080008c 	andi	r2,r2,2
   23bf8:	10bfffcc 	andi	r2,r2,65535
   23bfc:	10a0001c 	xori	r2,r2,32768
   23c00:	10a00004 	addi	r2,r2,-32768
   23c04:	10002d1e 	bne	r2,zero,23cbc <_fread_r+0x138>
   23c08:	b025883a 	mov	r18,r22
   23c0c:	00000106 	br	23c14 <_fread_r+0x90>
   23c10:	84400117 	ldw	r17,4(r16)
   23c14:	9809883a 	mov	r4,r19
   23c18:	880d883a 	mov	r6,r17
   23c1c:	81400017 	ldw	r5,0(r16)
   23c20:	8c805c2e 	bgeu	r17,r18,23d94 <_fread_r+0x210>
   23c24:	00252e40 	call	252e4 <memcpy>
   23c28:	80800017 	ldw	r2,0(r16)
   23c2c:	9c67883a 	add	r19,r19,r17
   23c30:	9465c83a 	sub	r18,r18,r17
   23c34:	1463883a 	add	r17,r2,r17
   23c38:	a009883a 	mov	r4,r20
   23c3c:	800b883a 	mov	r5,r16
   23c40:	84400015 	stw	r17,0(r16)
   23c44:	00256880 	call	25688 <__srefill_r>
   23c48:	103ff126 	beq	r2,zero,23c10 <_fread_r+0x8c>
   23c4c:	b489c83a 	sub	r4,r22,r18
   23c50:	b80b883a 	mov	r5,r23
   23c54:	0022f400 	call	22f40 <__udivsi3>
   23c58:	102b883a 	mov	r21,r2
   23c5c:	a805883a 	mov	r2,r21
   23c60:	dfc00a17 	ldw	ra,40(sp)
   23c64:	df000917 	ldw	fp,36(sp)
   23c68:	ddc00817 	ldw	r23,32(sp)
   23c6c:	dd800717 	ldw	r22,28(sp)
   23c70:	dd400617 	ldw	r21,24(sp)
   23c74:	dd000517 	ldw	r20,20(sp)
   23c78:	dcc00417 	ldw	r19,16(sp)
   23c7c:	dc800317 	ldw	r18,12(sp)
   23c80:	dc400217 	ldw	r17,8(sp)
   23c84:	dc000117 	ldw	r16,4(sp)
   23c88:	dec00b04 	addi	sp,sp,44
   23c8c:	f800283a 	ret
   23c90:	002b883a 	mov	r21,zero
   23c94:	003ff106 	br	23c5c <_fread_r+0xd8>
   23c98:	8080030b 	ldhu	r2,12(r16)
   23c9c:	80000115 	stw	zero,4(r16)
   23ca0:	0007883a 	mov	r3,zero
   23ca4:	1080008c 	andi	r2,r2,2
   23ca8:	10bfffcc 	andi	r2,r2,65535
   23cac:	10a0001c 	xori	r2,r2,32768
   23cb0:	10a00004 	addi	r2,r2,-32768
   23cb4:	0023883a 	mov	r17,zero
   23cb8:	103fd326 	beq	r2,zero,23c08 <_fread_r+0x84>
   23cbc:	1823883a 	mov	r17,r3
   23cc0:	b0c0012e 	bgeu	r22,r3,23cc8 <_fread_r+0x144>
   23cc4:	b023883a 	mov	r17,r22
   23cc8:	81400017 	ldw	r5,0(r16)
   23ccc:	9809883a 	mov	r4,r19
   23cd0:	880d883a 	mov	r6,r17
   23cd4:	00252e40 	call	252e4 <memcpy>
   23cd8:	80800117 	ldw	r2,4(r16)
   23cdc:	84800017 	ldw	r18,0(r16)
   23ce0:	81400c17 	ldw	r5,48(r16)
   23ce4:	1445c83a 	sub	r2,r2,r17
   23ce8:	9465883a 	add	r18,r18,r17
   23cec:	84800015 	stw	r18,0(r16)
   23cf0:	80800115 	stw	r2,4(r16)
   23cf4:	9c67883a 	add	r19,r19,r17
   23cf8:	b463c83a 	sub	r17,r22,r17
   23cfc:	28002e26 	beq	r5,zero,23db8 <_fread_r+0x234>
   23d00:	883fd626 	beq	r17,zero,23c5c <_fread_r+0xd8>
   23d04:	80801004 	addi	r2,r16,64
   23d08:	28800326 	beq	r5,r2,23d18 <_fread_r+0x194>
   23d0c:	a009883a 	mov	r4,r20
   23d10:	0023f3c0 	call	23f3c <_free_r>
   23d14:	84800017 	ldw	r18,0(r16)
   23d18:	80000c15 	stw	zero,48(r16)
   23d1c:	80c00517 	ldw	r3,20(r16)
   23d20:	87000417 	ldw	fp,16(r16)
   23d24:	d8c00015 	stw	r3,0(sp)
   23d28:	00000106 	br	23d30 <_fread_r+0x1ac>
   23d2c:	883fcb26 	beq	r17,zero,23c5c <_fread_r+0xd8>
   23d30:	84c00415 	stw	r19,16(r16)
   23d34:	84400515 	stw	r17,20(r16)
   23d38:	84c00015 	stw	r19,0(r16)
   23d3c:	a009883a 	mov	r4,r20
   23d40:	800b883a 	mov	r5,r16
   23d44:	00256880 	call	25688 <__srefill_r>
   23d48:	d8c00017 	ldw	r3,0(sp)
   23d4c:	81000117 	ldw	r4,4(r16)
   23d50:	87000415 	stw	fp,16(r16)
   23d54:	80c00515 	stw	r3,20(r16)
   23d58:	84800015 	stw	r18,0(r16)
   23d5c:	80000115 	stw	zero,4(r16)
   23d60:	8923c83a 	sub	r17,r17,r4
   23d64:	9927883a 	add	r19,r19,r4
   23d68:	103ff026 	beq	r2,zero,23d2c <_fread_r+0x1a8>
   23d6c:	b449c83a 	sub	r4,r22,r17
   23d70:	b80b883a 	mov	r5,r23
   23d74:	0022f400 	call	22f40 <__udivsi3>
   23d78:	102b883a 	mov	r21,r2
   23d7c:	003fb706 	br	23c5c <_fread_r+0xd8>
   23d80:	a009883a 	mov	r4,r20
   23d84:	00237f00 	call	237f0 <__sinit>
   23d88:	84400117 	ldw	r17,4(r16)
   23d8c:	883f970e 	bge	r17,zero,23bec <_fread_r+0x68>
   23d90:	003fc106 	br	23c98 <_fread_r+0x114>
   23d94:	900d883a 	mov	r6,r18
   23d98:	00252e40 	call	252e4 <memcpy>
   23d9c:	80800117 	ldw	r2,4(r16)
   23da0:	80c00017 	ldw	r3,0(r16)
   23da4:	1485c83a 	sub	r2,r2,r18
   23da8:	1ca5883a 	add	r18,r3,r18
   23dac:	80800115 	stw	r2,4(r16)
   23db0:	84800015 	stw	r18,0(r16)
   23db4:	003fa906 	br	23c5c <_fread_r+0xd8>
   23db8:	883fd81e 	bne	r17,zero,23d1c <_fread_r+0x198>
   23dbc:	003fa706 	br	23c5c <_fread_r+0xd8>

00023dc0 <fread>:
   23dc0:	008000f4 	movhi	r2,3
   23dc4:	1097aa04 	addi	r2,r2,24232
   23dc8:	2011883a 	mov	r8,r4
   23dcc:	11000017 	ldw	r4,0(r2)
   23dd0:	defffe04 	addi	sp,sp,-8
   23dd4:	2807883a 	mov	r3,r5
   23dd8:	3005883a 	mov	r2,r6
   23ddc:	d9c00015 	stw	r7,0(sp)
   23de0:	400b883a 	mov	r5,r8
   23de4:	180d883a 	mov	r6,r3
   23de8:	100f883a 	mov	r7,r2
   23dec:	dfc00115 	stw	ra,4(sp)
   23df0:	0023b840 	call	23b84 <_fread_r>
   23df4:	dfc00117 	ldw	ra,4(sp)
   23df8:	dec00204 	addi	sp,sp,8
   23dfc:	f800283a 	ret

00023e00 <_malloc_trim_r>:
   23e00:	defffb04 	addi	sp,sp,-20
   23e04:	dcc00315 	stw	r19,12(sp)
   23e08:	dc800215 	stw	r18,8(sp)
   23e0c:	dc400115 	stw	r17,4(sp)
   23e10:	dc000015 	stw	r16,0(sp)
   23e14:	2827883a 	mov	r19,r5
   23e18:	dfc00415 	stw	ra,16(sp)
   23e1c:	044000f4 	movhi	r17,3
   23e20:	8c561b04 	addi	r17,r17,22636
   23e24:	2021883a 	mov	r16,r4
   23e28:	00328340 	call	32834 <__malloc_lock>
   23e2c:	88800217 	ldw	r2,8(r17)
   23e30:	14800117 	ldw	r18,4(r2)
   23e34:	00bfff04 	movi	r2,-4
   23e38:	90a4703a 	and	r18,r18,r2
   23e3c:	9083fbc4 	addi	r2,r18,4079
   23e40:	14e7c83a 	sub	r19,r2,r19
   23e44:	9826d33a 	srli	r19,r19,12
   23e48:	0083ffc4 	movi	r2,4095
   23e4c:	9cffffc4 	addi	r19,r19,-1
   23e50:	9826933a 	slli	r19,r19,12
   23e54:	14c0060e 	bge	r2,r19,23e70 <_malloc_trim_r+0x70>
   23e58:	8009883a 	mov	r4,r16
   23e5c:	000b883a 	mov	r5,zero
   23e60:	00258c00 	call	258c0 <_sbrk_r>
   23e64:	88c00217 	ldw	r3,8(r17)
   23e68:	1c87883a 	add	r3,r3,r18
   23e6c:	10c00a26 	beq	r2,r3,23e98 <_malloc_trim_r+0x98>
   23e70:	8009883a 	mov	r4,r16
   23e74:	00328540 	call	32854 <__malloc_unlock>
   23e78:	0005883a 	mov	r2,zero
   23e7c:	dfc00417 	ldw	ra,16(sp)
   23e80:	dcc00317 	ldw	r19,12(sp)
   23e84:	dc800217 	ldw	r18,8(sp)
   23e88:	dc400117 	ldw	r17,4(sp)
   23e8c:	dc000017 	ldw	r16,0(sp)
   23e90:	dec00504 	addi	sp,sp,20
   23e94:	f800283a 	ret
   23e98:	8009883a 	mov	r4,r16
   23e9c:	04cbc83a 	sub	r5,zero,r19
   23ea0:	00258c00 	call	258c0 <_sbrk_r>
   23ea4:	00ffffc4 	movi	r3,-1
   23ea8:	10c01326 	beq	r2,r3,23ef8 <_malloc_trim_r+0xf8>
   23eac:	008000f4 	movhi	r2,3
   23eb0:	109a9d04 	addi	r2,r2,27252
   23eb4:	11000017 	ldw	r4,0(r2)
   23eb8:	88c00217 	ldw	r3,8(r17)
   23ebc:	94e5c83a 	sub	r18,r18,r19
   23ec0:	94800054 	ori	r18,r18,1
   23ec4:	24e7c83a 	sub	r19,r4,r19
   23ec8:	1c800115 	stw	r18,4(r3)
   23ecc:	8009883a 	mov	r4,r16
   23ed0:	14c00015 	stw	r19,0(r2)
   23ed4:	00328540 	call	32854 <__malloc_unlock>
   23ed8:	00800044 	movi	r2,1
   23edc:	dfc00417 	ldw	ra,16(sp)
   23ee0:	dcc00317 	ldw	r19,12(sp)
   23ee4:	dc800217 	ldw	r18,8(sp)
   23ee8:	dc400117 	ldw	r17,4(sp)
   23eec:	dc000017 	ldw	r16,0(sp)
   23ef0:	dec00504 	addi	sp,sp,20
   23ef4:	f800283a 	ret
   23ef8:	8009883a 	mov	r4,r16
   23efc:	000b883a 	mov	r5,zero
   23f00:	00258c00 	call	258c0 <_sbrk_r>
   23f04:	88c00217 	ldw	r3,8(r17)
   23f08:	014003c4 	movi	r5,15
   23f0c:	10c9c83a 	sub	r4,r2,r3
   23f10:	293fd70e 	bge	r5,r4,23e70 <_malloc_trim_r+0x70>
   23f14:	014000f4 	movhi	r5,3
   23f18:	2957ab04 	addi	r5,r5,24236
   23f1c:	29400017 	ldw	r5,0(r5)
   23f20:	21000054 	ori	r4,r4,1
   23f24:	19000115 	stw	r4,4(r3)
   23f28:	1145c83a 	sub	r2,r2,r5
   23f2c:	014000f4 	movhi	r5,3
   23f30:	295a9d04 	addi	r5,r5,27252
   23f34:	28800015 	stw	r2,0(r5)
   23f38:	003fcd06 	br	23e70 <_malloc_trim_r+0x70>

00023f3c <_free_r>:
   23f3c:	defffd04 	addi	sp,sp,-12
   23f40:	dc400115 	stw	r17,4(sp)
   23f44:	dc000015 	stw	r16,0(sp)
   23f48:	dfc00215 	stw	ra,8(sp)
   23f4c:	2821883a 	mov	r16,r5
   23f50:	2023883a 	mov	r17,r4
   23f54:	28004b26 	beq	r5,zero,24084 <_free_r+0x148>
   23f58:	00328340 	call	32834 <__malloc_lock>
   23f5c:	823fff17 	ldw	r8,-4(r16)
   23f60:	00bfff84 	movi	r2,-2
   23f64:	81bffe04 	addi	r6,r16,-8
   23f68:	4084703a 	and	r2,r8,r2
   23f6c:	3087883a 	add	r3,r6,r2
   23f70:	014000f4 	movhi	r5,3
   23f74:	29561b04 	addi	r5,r5,22636
   23f78:	1a400117 	ldw	r9,4(r3)
   23f7c:	29000217 	ldw	r4,8(r5)
   23f80:	01ffff04 	movi	r7,-4
   23f84:	49ce703a 	and	r7,r9,r7
   23f88:	20c06526 	beq	r4,r3,24120 <_free_r+0x1e4>
   23f8c:	19c00115 	stw	r7,4(r3)
   23f90:	4200004c 	andi	r8,r8,1
   23f94:	40003026 	beq	r8,zero,24058 <_free_r+0x11c>
   23f98:	0009883a 	mov	r4,zero
   23f9c:	19d1883a 	add	r8,r3,r7
   23fa0:	42000117 	ldw	r8,4(r8)
   23fa4:	4200004c 	andi	r8,r8,1
   23fa8:	4000061e 	bne	r8,zero,23fc4 <_free_r+0x88>
   23fac:	11c5883a 	add	r2,r2,r7
   23fb0:	19c00217 	ldw	r7,8(r3)
   23fb4:	20004e26 	beq	r4,zero,240f0 <_free_r+0x1b4>
   23fb8:	18c00317 	ldw	r3,12(r3)
   23fbc:	38c00315 	stw	r3,12(r7)
   23fc0:	19c00215 	stw	r7,8(r3)
   23fc4:	11c00054 	ori	r7,r2,1
   23fc8:	3087883a 	add	r3,r6,r2
   23fcc:	31c00115 	stw	r7,4(r6)
   23fd0:	18800015 	stw	r2,0(r3)
   23fd4:	20001a1e 	bne	r4,zero,24040 <_free_r+0x104>
   23fd8:	00c07fc4 	movi	r3,511
   23fdc:	18802e2e 	bgeu	r3,r2,24098 <_free_r+0x15c>
   23fe0:	1006d27a 	srli	r3,r2,9
   23fe4:	01000104 	movi	r4,4
   23fe8:	20c06636 	bltu	r4,r3,24184 <_free_r+0x248>
   23fec:	1008d1ba 	srli	r4,r2,6
   23ff0:	21000e04 	addi	r4,r4,56
   23ff4:	210f883a 	add	r7,r4,r4
   23ff8:	39cf883a 	add	r7,r7,r7
   23ffc:	39cf883a 	add	r7,r7,r7
   24000:	29cf883a 	add	r7,r5,r7
   24004:	38c00217 	ldw	r3,8(r7)
   24008:	014000f4 	movhi	r5,3
   2400c:	29561b04 	addi	r5,r5,22636
   24010:	19c06126 	beq	r3,r7,24198 <_free_r+0x25c>
   24014:	013fff04 	movi	r4,-4
   24018:	19400117 	ldw	r5,4(r3)
   2401c:	290a703a 	and	r5,r5,r4
   24020:	1140022e 	bgeu	r2,r5,2402c <_free_r+0xf0>
   24024:	18c00217 	ldw	r3,8(r3)
   24028:	38fffb1e 	bne	r7,r3,24018 <_free_r+0xdc>
   2402c:	18800317 	ldw	r2,12(r3)
   24030:	30800315 	stw	r2,12(r6)
   24034:	30c00215 	stw	r3,8(r6)
   24038:	11800215 	stw	r6,8(r2)
   2403c:	19800315 	stw	r6,12(r3)
   24040:	8809883a 	mov	r4,r17
   24044:	dfc00217 	ldw	ra,8(sp)
   24048:	dc400117 	ldw	r17,4(sp)
   2404c:	dc000017 	ldw	r16,0(sp)
   24050:	dec00304 	addi	sp,sp,12
   24054:	00328541 	jmpi	32854 <__malloc_unlock>
   24058:	813ffe17 	ldw	r4,-8(r16)
   2405c:	2a400204 	addi	r9,r5,8
   24060:	310dc83a 	sub	r6,r6,r4
   24064:	32000217 	ldw	r8,8(r6)
   24068:	1105883a 	add	r2,r2,r4
   2406c:	42404326 	beq	r8,r9,2417c <_free_r+0x240>
   24070:	32400317 	ldw	r9,12(r6)
   24074:	0009883a 	mov	r4,zero
   24078:	42400315 	stw	r9,12(r8)
   2407c:	4a000215 	stw	r8,8(r9)
   24080:	003fc606 	br	23f9c <_free_r+0x60>
   24084:	dfc00217 	ldw	ra,8(sp)
   24088:	dc400117 	ldw	r17,4(sp)
   2408c:	dc000017 	ldw	r16,0(sp)
   24090:	dec00304 	addi	sp,sp,12
   24094:	f800283a 	ret
   24098:	1004d0fa 	srli	r2,r2,3
   2409c:	02000044 	movi	r8,1
   240a0:	29c00117 	ldw	r7,4(r5)
   240a4:	1087883a 	add	r3,r2,r2
   240a8:	18c7883a 	add	r3,r3,r3
   240ac:	1005d0ba 	srai	r2,r2,2
   240b0:	18c7883a 	add	r3,r3,r3
   240b4:	28c7883a 	add	r3,r5,r3
   240b8:	19000217 	ldw	r4,8(r3)
   240bc:	4084983a 	sll	r2,r8,r2
   240c0:	30c00315 	stw	r3,12(r6)
   240c4:	31000215 	stw	r4,8(r6)
   240c8:	11c4b03a 	or	r2,r2,r7
   240cc:	21800315 	stw	r6,12(r4)
   240d0:	8809883a 	mov	r4,r17
   240d4:	28800115 	stw	r2,4(r5)
   240d8:	19800215 	stw	r6,8(r3)
   240dc:	dfc00217 	ldw	ra,8(sp)
   240e0:	dc400117 	ldw	r17,4(sp)
   240e4:	dc000017 	ldw	r16,0(sp)
   240e8:	dec00304 	addi	sp,sp,12
   240ec:	00328541 	jmpi	32854 <__malloc_unlock>
   240f0:	020000f4 	movhi	r8,3
   240f4:	42161d04 	addi	r8,r8,22644
   240f8:	3a3faf1e 	bne	r7,r8,23fb8 <_free_r+0x7c>
   240fc:	29800515 	stw	r6,20(r5)
   24100:	29800415 	stw	r6,16(r5)
   24104:	11000054 	ori	r4,r2,1
   24108:	3087883a 	add	r3,r6,r2
   2410c:	31c00315 	stw	r7,12(r6)
   24110:	31c00215 	stw	r7,8(r6)
   24114:	31000115 	stw	r4,4(r6)
   24118:	18800015 	stw	r2,0(r3)
   2411c:	003fc806 	br	24040 <_free_r+0x104>
   24120:	4200004c 	andi	r8,r8,1
   24124:	3885883a 	add	r2,r7,r2
   24128:	4000071e 	bne	r8,zero,24148 <_free_r+0x20c>
   2412c:	81fffe17 	ldw	r7,-8(r16)
   24130:	31cdc83a 	sub	r6,r6,r7
   24134:	30c00317 	ldw	r3,12(r6)
   24138:	31000217 	ldw	r4,8(r6)
   2413c:	11c5883a 	add	r2,r2,r7
   24140:	20c00315 	stw	r3,12(r4)
   24144:	19000215 	stw	r4,8(r3)
   24148:	00c000f4 	movhi	r3,3
   2414c:	18d7ac04 	addi	r3,r3,24240
   24150:	18c00017 	ldw	r3,0(r3)
   24154:	11000054 	ori	r4,r2,1
   24158:	31000115 	stw	r4,4(r6)
   2415c:	29800215 	stw	r6,8(r5)
   24160:	10ffb736 	bltu	r2,r3,24040 <_free_r+0x104>
   24164:	008000f4 	movhi	r2,3
   24168:	109a9404 	addi	r2,r2,27216
   2416c:	11400017 	ldw	r5,0(r2)
   24170:	8809883a 	mov	r4,r17
   24174:	0023e000 	call	23e00 <_malloc_trim_r>
   24178:	003fb106 	br	24040 <_free_r+0x104>
   2417c:	01000044 	movi	r4,1
   24180:	003f8606 	br	23f9c <_free_r+0x60>
   24184:	01000504 	movi	r4,20
   24188:	20c00b36 	bltu	r4,r3,241b8 <_free_r+0x27c>
   2418c:	190016c4 	addi	r4,r3,91
   24190:	210f883a 	add	r7,r4,r4
   24194:	003f9806 	br	23ff8 <_free_r+0xbc>
   24198:	2009d0ba 	srai	r4,r4,2
   2419c:	00800044 	movi	r2,1
   241a0:	29c00117 	ldw	r7,4(r5)
   241a4:	1108983a 	sll	r4,r2,r4
   241a8:	1805883a 	mov	r2,r3
   241ac:	21c8b03a 	or	r4,r4,r7
   241b0:	29000115 	stw	r4,4(r5)
   241b4:	003f9e06 	br	24030 <_free_r+0xf4>
   241b8:	01001504 	movi	r4,84
   241bc:	20c00436 	bltu	r4,r3,241d0 <_free_r+0x294>
   241c0:	1008d33a 	srli	r4,r2,12
   241c4:	21001b84 	addi	r4,r4,110
   241c8:	210f883a 	add	r7,r4,r4
   241cc:	003f8a06 	br	23ff8 <_free_r+0xbc>
   241d0:	01005504 	movi	r4,340
   241d4:	20c00436 	bltu	r4,r3,241e8 <_free_r+0x2ac>
   241d8:	1008d3fa 	srli	r4,r2,15
   241dc:	21001dc4 	addi	r4,r4,119
   241e0:	210f883a 	add	r7,r4,r4
   241e4:	003f8406 	br	23ff8 <_free_r+0xbc>
   241e8:	01015504 	movi	r4,1364
   241ec:	20c00436 	bltu	r4,r3,24200 <_free_r+0x2c4>
   241f0:	1008d4ba 	srli	r4,r2,18
   241f4:	21001f04 	addi	r4,r4,124
   241f8:	210f883a 	add	r7,r4,r4
   241fc:	003f7e06 	br	23ff8 <_free_r+0xbc>
   24200:	01c03f04 	movi	r7,252
   24204:	01001f84 	movi	r4,126
   24208:	003f7b06 	br	23ff8 <_free_r+0xbc>

0002420c <fscanf>:
   2420c:	defffd04 	addi	sp,sp,-12
   24210:	2005883a 	mov	r2,r4
   24214:	dfc00015 	stw	ra,0(sp)
   24218:	d9800115 	stw	r6,4(sp)
   2421c:	d9c00215 	stw	r7,8(sp)
   24220:	00c000f4 	movhi	r3,3
   24224:	18d7aa04 	addi	r3,r3,24232
   24228:	19000017 	ldw	r4,0(r3)
   2422c:	280d883a 	mov	r6,r5
   24230:	d9c00104 	addi	r7,sp,4
   24234:	100b883a 	mov	r5,r2
   24238:	00279c40 	call	279c4 <__svfscanf_r>
   2423c:	dfc00017 	ldw	ra,0(sp)
   24240:	dec00304 	addi	sp,sp,12
   24244:	f800283a 	ret

00024248 <_fscanf_r>:
   24248:	defffe04 	addi	sp,sp,-8
   2424c:	dfc00015 	stw	ra,0(sp)
   24250:	d9c00115 	stw	r7,4(sp)
   24254:	d9c00104 	addi	r7,sp,4
   24258:	00279c40 	call	279c4 <__svfscanf_r>
   2425c:	dfc00017 	ldw	ra,0(sp)
   24260:	dec00204 	addi	sp,sp,8
   24264:	f800283a 	ret

00024268 <_fseek_r>:
   24268:	deffe804 	addi	sp,sp,-96
   2426c:	dd001315 	stw	r20,76(sp)
   24270:	dc801115 	stw	r18,68(sp)
   24274:	dc401015 	stw	r17,64(sp)
   24278:	dc000f15 	stw	r16,60(sp)
   2427c:	dfc01715 	stw	ra,92(sp)
   24280:	ddc01615 	stw	r23,88(sp)
   24284:	dd801515 	stw	r22,84(sp)
   24288:	dd401415 	stw	r21,80(sp)
   2428c:	dcc01215 	stw	r19,72(sp)
   24290:	2023883a 	mov	r17,r4
   24294:	2821883a 	mov	r16,r5
   24298:	3029883a 	mov	r20,r6
   2429c:	3825883a 	mov	r18,r7
   242a0:	20000226 	beq	r4,zero,242ac <_fseek_r+0x44>
   242a4:	20800e17 	ldw	r2,56(r4)
   242a8:	10006226 	beq	r2,zero,24434 <_fseek_r+0x1cc>
   242ac:	80c0030b 	ldhu	r3,12(r16)
   242b0:	00804204 	movi	r2,264
   242b4:	18c0420c 	andi	r3,r3,264
   242b8:	18806326 	beq	r3,r2,24448 <_fseek_r+0x1e0>
   242bc:	84c00a17 	ldw	r19,40(r16)
   242c0:	98010226 	beq	r19,zero,246cc <_fseek_r+0x464>
   242c4:	00800044 	movi	r2,1
   242c8:	90803d26 	beq	r18,r2,243c0 <_fseek_r+0x158>
   242cc:	00800084 	movi	r2,2
   242d0:	90800126 	beq	r18,r2,242d8 <_fseek_r+0x70>
   242d4:	90002c1e 	bne	r18,zero,24388 <_fseek_r+0x120>
   242d8:	80800417 	ldw	r2,16(r16)
   242dc:	002d883a 	mov	r22,zero
   242e0:	002b883a 	mov	r21,zero
   242e4:	1000e526 	beq	r2,zero,2467c <_fseek_r+0x414>
   242e8:	80c0030b 	ldhu	r3,12(r16)
   242ec:	1882068c 	andi	r2,r3,2074
   242f0:	1809883a 	mov	r4,r3
   242f4:	10000a1e 	bne	r2,zero,24320 <_fseek_r+0xb8>
   242f8:	1881000c 	andi	r2,r3,1024
   242fc:	10bfffcc 	andi	r2,r2,65535
   24300:	10a0001c 	xori	r2,r2,32768
   24304:	10a00004 	addi	r2,r2,-32768
   24308:	1000631e 	bne	r2,zero,24498 <_fseek_r+0x230>
   2430c:	008000b4 	movhi	r2,2
   24310:	10968004 	addi	r2,r2,23040
   24314:	98805026 	beq	r19,r2,24458 <_fseek_r+0x1f0>
   24318:	18c20014 	ori	r3,r3,2048
   2431c:	80c0030d 	sth	r3,12(r16)
   24320:	8809883a 	mov	r4,r17
   24324:	800b883a 	mov	r5,r16
   24328:	00235340 	call	23534 <_fflush_r>
   2432c:	1000181e 	bne	r2,zero,24390 <_fseek_r+0x128>
   24330:	81400717 	ldw	r5,28(r16)
   24334:	8809883a 	mov	r4,r17
   24338:	a00d883a 	mov	r6,r20
   2433c:	900f883a 	mov	r7,r18
   24340:	983ee83a 	callr	r19
   24344:	00ffffc4 	movi	r3,-1
   24348:	10c01126 	beq	r2,r3,24390 <_fseek_r+0x128>
   2434c:	81400c17 	ldw	r5,48(r16)
   24350:	28000526 	beq	r5,zero,24368 <_fseek_r+0x100>
   24354:	80801004 	addi	r2,r16,64
   24358:	28800226 	beq	r5,r2,24364 <_fseek_r+0xfc>
   2435c:	8809883a 	mov	r4,r17
   24360:	0023f3c0 	call	23f3c <_free_r>
   24364:	80000c15 	stw	zero,48(r16)
   24368:	8080030b 	ldhu	r2,12(r16)
   2436c:	80c00417 	ldw	r3,16(r16)
   24370:	80000115 	stw	zero,4(r16)
   24374:	10bdf7cc 	andi	r2,r2,63455
   24378:	8080030d 	sth	r2,12(r16)
   2437c:	80c00015 	stw	r3,0(r16)
   24380:	0005883a 	mov	r2,zero
   24384:	00000306 	br	24394 <_fseek_r+0x12c>
   24388:	00800584 	movi	r2,22
   2438c:	88800015 	stw	r2,0(r17)
   24390:	00bfffc4 	movi	r2,-1
   24394:	dfc01717 	ldw	ra,92(sp)
   24398:	ddc01617 	ldw	r23,88(sp)
   2439c:	dd801517 	ldw	r22,84(sp)
   243a0:	dd401417 	ldw	r21,80(sp)
   243a4:	dd001317 	ldw	r20,76(sp)
   243a8:	dcc01217 	ldw	r19,72(sp)
   243ac:	dc801117 	ldw	r18,68(sp)
   243b0:	dc401017 	ldw	r17,64(sp)
   243b4:	dc000f17 	ldw	r16,60(sp)
   243b8:	dec01804 	addi	sp,sp,96
   243bc:	f800283a 	ret
   243c0:	8809883a 	mov	r4,r17
   243c4:	800b883a 	mov	r5,r16
   243c8:	00235340 	call	23534 <_fflush_r>
   243cc:	8080030b 	ldhu	r2,12(r16)
   243d0:	10c4000c 	andi	r3,r2,4096
   243d4:	18ffffcc 	andi	r3,r3,65535
   243d8:	18e0001c 	xori	r3,r3,32768
   243dc:	18e00004 	addi	r3,r3,-32768
   243e0:	18007d26 	beq	r3,zero,245d8 <_fseek_r+0x370>
   243e4:	85401417 	ldw	r21,80(r16)
   243e8:	10c0010c 	andi	r3,r2,4
   243ec:	18ffffcc 	andi	r3,r3,65535
   243f0:	18e0001c 	xori	r3,r3,32768
   243f4:	18e00004 	addi	r3,r3,-32768
   243f8:	18005f1e 	bne	r3,zero,24578 <_fseek_r+0x310>
   243fc:	1080020c 	andi	r2,r2,8
   24400:	10bfffcc 	andi	r2,r2,65535
   24404:	10a0001c 	xori	r2,r2,32768
   24408:	10a00004 	addi	r2,r2,-32768
   2440c:	10007026 	beq	r2,zero,245d0 <_fseek_r+0x368>
   24410:	80c00017 	ldw	r3,0(r16)
   24414:	80800417 	ldw	r2,16(r16)
   24418:	18000226 	beq	r3,zero,24424 <_fseek_r+0x1bc>
   2441c:	1887c83a 	sub	r3,r3,r2
   24420:	a8eb883a 	add	r21,r21,r3
   24424:	a569883a 	add	r20,r20,r21
   24428:	05800044 	movi	r22,1
   2442c:	0025883a 	mov	r18,zero
   24430:	003fac06 	br	242e4 <_fseek_r+0x7c>
   24434:	00237f00 	call	237f0 <__sinit>
   24438:	80c0030b 	ldhu	r3,12(r16)
   2443c:	00804204 	movi	r2,264
   24440:	18c0420c 	andi	r3,r3,264
   24444:	18bf9d1e 	bne	r3,r2,242bc <_fseek_r+0x54>
   24448:	8809883a 	mov	r4,r17
   2444c:	800b883a 	mov	r5,r16
   24450:	00235340 	call	23534 <_fflush_r>
   24454:	003f9906 	br	242bc <_fseek_r+0x54>
   24458:	8140038f 	ldh	r5,14(r16)
   2445c:	283fae16 	blt	r5,zero,24318 <_fseek_r+0xb0>
   24460:	8809883a 	mov	r4,r17
   24464:	d80d883a 	mov	r6,sp
   24468:	00247000 	call	24700 <_fstat_r>
   2446c:	1000741e 	bne	r2,zero,24640 <_fseek_r+0x3d8>
   24470:	d8c00117 	ldw	r3,4(sp)
   24474:	00a00014 	movui	r2,32768
   24478:	18fc000c 	andi	r3,r3,61440
   2447c:	1880701e 	bne	r3,r2,24640 <_fseek_r+0x3d8>
   24480:	8100030b 	ldhu	r4,12(r16)
   24484:	00810004 	movi	r2,1024
   24488:	80801315 	stw	r2,76(r16)
   2448c:	2084b03a 	or	r2,r4,r2
   24490:	1009883a 	mov	r4,r2
   24494:	8080030d 	sth	r2,12(r16)
   24498:	90003f1e 	bne	r18,zero,24598 <_fseek_r+0x330>
   2449c:	a02f883a 	mov	r23,r20
   244a0:	b000461e 	bne	r22,zero,245bc <_fseek_r+0x354>
   244a4:	2084000c 	andi	r2,r4,4096
   244a8:	10bfffcc 	andi	r2,r2,65535
   244ac:	10a0001c 	xori	r2,r2,32768
   244b0:	10a00004 	addi	r2,r2,-32768
   244b4:	10007526 	beq	r2,zero,2468c <_fseek_r+0x424>
   244b8:	80801417 	ldw	r2,80(r16)
   244bc:	80c00117 	ldw	r3,4(r16)
   244c0:	81400c17 	ldw	r5,48(r16)
   244c4:	10ebc83a 	sub	r21,r2,r3
   244c8:	28007926 	beq	r5,zero,246b0 <_fseek_r+0x448>
   244cc:	81c00f17 	ldw	r7,60(r16)
   244d0:	a9ebc83a 	sub	r21,r21,r7
   244d4:	80800e17 	ldw	r2,56(r16)
   244d8:	81800417 	ldw	r6,16(r16)
   244dc:	a8eb883a 	add	r21,r21,r3
   244e0:	1185c83a 	sub	r2,r2,r6
   244e4:	a8abc83a 	sub	r21,r21,r2
   244e8:	3885883a 	add	r2,r7,r2
   244ec:	2208000c 	andi	r8,r4,8192
   244f0:	423fffcc 	andi	r8,r8,65535
   244f4:	4220001c 	xori	r8,r8,32768
   244f8:	42200004 	addi	r8,r8,-32768
   244fc:	4000031e 	bne	r8,zero,2450c <_fseek_r+0x2a4>
   24500:	bd400216 	blt	r23,r21,2450c <_fseek_r+0x2a4>
   24504:	a887883a 	add	r3,r21,r2
   24508:	b8c03d36 	bltu	r23,r3,24600 <_fseek_r+0x398>
   2450c:	85401317 	ldw	r21,76(r16)
   24510:	81400717 	ldw	r5,28(r16)
   24514:	8809883a 	mov	r4,r17
   24518:	056bc83a 	sub	r21,zero,r21
   2451c:	bd6a703a 	and	r21,r23,r21
   24520:	a80d883a 	mov	r6,r21
   24524:	000f883a 	mov	r7,zero
   24528:	983ee83a 	callr	r19
   2452c:	00ffffc4 	movi	r3,-1
   24530:	10ff7b26 	beq	r2,r3,24320 <_fseek_r+0xb8>
   24534:	80800417 	ldw	r2,16(r16)
   24538:	81400c17 	ldw	r5,48(r16)
   2453c:	80000115 	stw	zero,4(r16)
   24540:	80800015 	stw	r2,0(r16)
   24544:	28000526 	beq	r5,zero,2455c <_fseek_r+0x2f4>
   24548:	80801004 	addi	r2,r16,64
   2454c:	28800226 	beq	r5,r2,24558 <_fseek_r+0x2f0>
   24550:	8809883a 	mov	r4,r17
   24554:	0023f3c0 	call	23f3c <_free_r>
   24558:	80000c15 	stw	zero,48(r16)
   2455c:	8080030b 	ldhu	r2,12(r16)
   24560:	bd6fc83a 	sub	r23,r23,r21
   24564:	10bff7cc 	andi	r2,r2,65503
   24568:	8080030d 	sth	r2,12(r16)
   2456c:	b800361e 	bne	r23,zero,24648 <_fseek_r+0x3e0>
   24570:	0005883a 	mov	r2,zero
   24574:	003f8706 	br	24394 <_fseek_r+0x12c>
   24578:	80c00117 	ldw	r3,4(r16)
   2457c:	80800c17 	ldw	r2,48(r16)
   24580:	a8ebc83a 	sub	r21,r21,r3
   24584:	10001226 	beq	r2,zero,245d0 <_fseek_r+0x368>
   24588:	80c00f17 	ldw	r3,60(r16)
   2458c:	80800417 	ldw	r2,16(r16)
   24590:	a8ebc83a 	sub	r21,r21,r3
   24594:	003fa306 	br	24424 <_fseek_r+0x1bc>
   24598:	8140038f 	ldh	r5,14(r16)
   2459c:	8809883a 	mov	r4,r17
   245a0:	d80d883a 	mov	r6,sp
   245a4:	00247000 	call	24700 <_fstat_r>
   245a8:	103f5d1e 	bne	r2,zero,24320 <_fseek_r+0xb8>
   245ac:	ddc00417 	ldw	r23,16(sp)
   245b0:	8100030b 	ldhu	r4,12(r16)
   245b4:	a5ef883a 	add	r23,r20,r23
   245b8:	b03fba26 	beq	r22,zero,244a4 <_fseek_r+0x23c>
   245bc:	81400c17 	ldw	r5,48(r16)
   245c0:	80c00117 	ldw	r3,4(r16)
   245c4:	28003a26 	beq	r5,zero,246b0 <_fseek_r+0x448>
   245c8:	81c00f17 	ldw	r7,60(r16)
   245cc:	003fc106 	br	244d4 <_fseek_r+0x26c>
   245d0:	80800417 	ldw	r2,16(r16)
   245d4:	003f9306 	br	24424 <_fseek_r+0x1bc>
   245d8:	81400717 	ldw	r5,28(r16)
   245dc:	8809883a 	mov	r4,r17
   245e0:	000d883a 	mov	r6,zero
   245e4:	900f883a 	mov	r7,r18
   245e8:	983ee83a 	callr	r19
   245ec:	102b883a 	mov	r21,r2
   245f0:	00bfffc4 	movi	r2,-1
   245f4:	a8bf6626 	beq	r21,r2,24390 <_fseek_r+0x128>
   245f8:	8080030b 	ldhu	r2,12(r16)
   245fc:	003f7a06 	br	243e8 <_fseek_r+0x180>
   24600:	bd6bc83a 	sub	r21,r23,r21
   24604:	354d883a 	add	r6,r6,r21
   24608:	1545c83a 	sub	r2,r2,r21
   2460c:	81800015 	stw	r6,0(r16)
   24610:	80800115 	stw	r2,4(r16)
   24614:	28000626 	beq	r5,zero,24630 <_fseek_r+0x3c8>
   24618:	80801004 	addi	r2,r16,64
   2461c:	28800326 	beq	r5,r2,2462c <_fseek_r+0x3c4>
   24620:	8809883a 	mov	r4,r17
   24624:	0023f3c0 	call	23f3c <_free_r>
   24628:	8100030b 	ldhu	r4,12(r16)
   2462c:	80000c15 	stw	zero,48(r16)
   24630:	213ff7cc 	andi	r4,r4,65503
   24634:	8100030d 	sth	r4,12(r16)
   24638:	0005883a 	mov	r2,zero
   2463c:	003f5506 	br	24394 <_fseek_r+0x12c>
   24640:	80c0030b 	ldhu	r3,12(r16)
   24644:	003f3406 	br	24318 <_fseek_r+0xb0>
   24648:	8809883a 	mov	r4,r17
   2464c:	800b883a 	mov	r5,r16
   24650:	00256880 	call	25688 <__srefill_r>
   24654:	103f321e 	bne	r2,zero,24320 <_fseek_r+0xb8>
   24658:	80800117 	ldw	r2,4(r16)
   2465c:	15ff3036 	bltu	r2,r23,24320 <_fseek_r+0xb8>
   24660:	80c00017 	ldw	r3,0(r16)
   24664:	15c5c83a 	sub	r2,r2,r23
   24668:	80800115 	stw	r2,4(r16)
   2466c:	1def883a 	add	r23,r3,r23
   24670:	85c00015 	stw	r23,0(r16)
   24674:	0005883a 	mov	r2,zero
   24678:	003f4606 	br	24394 <_fseek_r+0x12c>
   2467c:	8809883a 	mov	r4,r17
   24680:	800b883a 	mov	r5,r16
   24684:	00249b80 	call	249b8 <__smakebuf_r>
   24688:	003f1706 	br	242e8 <_fseek_r+0x80>
   2468c:	81400717 	ldw	r5,28(r16)
   24690:	8809883a 	mov	r4,r17
   24694:	000d883a 	mov	r6,zero
   24698:	01c00044 	movi	r7,1
   2469c:	983ee83a 	callr	r19
   246a0:	00ffffc4 	movi	r3,-1
   246a4:	10ff1e26 	beq	r2,r3,24320 <_fseek_r+0xb8>
   246a8:	8100030b 	ldhu	r4,12(r16)
   246ac:	003f8306 	br	244bc <_fseek_r+0x254>
   246b0:	80800017 	ldw	r2,0(r16)
   246b4:	81800417 	ldw	r6,16(r16)
   246b8:	000b883a 	mov	r5,zero
   246bc:	1185c83a 	sub	r2,r2,r6
   246c0:	a8abc83a 	sub	r21,r21,r2
   246c4:	1885883a 	add	r2,r3,r2
   246c8:	003f8806 	br	244ec <_fseek_r+0x284>
   246cc:	00800744 	movi	r2,29
   246d0:	88800015 	stw	r2,0(r17)
   246d4:	00bfffc4 	movi	r2,-1
   246d8:	003f2e06 	br	24394 <_fseek_r+0x12c>

000246dc <fseek>:
   246dc:	008000f4 	movhi	r2,3
   246e0:	1097aa04 	addi	r2,r2,24232
   246e4:	2007883a 	mov	r3,r4
   246e8:	11000017 	ldw	r4,0(r2)
   246ec:	2805883a 	mov	r2,r5
   246f0:	300f883a 	mov	r7,r6
   246f4:	180b883a 	mov	r5,r3
   246f8:	100d883a 	mov	r6,r2
   246fc:	00242681 	jmpi	24268 <_fseek_r>

00024700 <_fstat_r>:
   24700:	defffd04 	addi	sp,sp,-12
   24704:	dc400115 	stw	r17,4(sp)
   24708:	dc000015 	stw	r16,0(sp)
   2470c:	2023883a 	mov	r17,r4
   24710:	040000f4 	movhi	r16,3
   24714:	841a9104 	addi	r16,r16,27204
   24718:	2809883a 	mov	r4,r5
   2471c:	300b883a 	mov	r5,r6
   24720:	dfc00215 	stw	ra,8(sp)
   24724:	80000015 	stw	zero,0(r16)
   24728:	00324080 	call	32408 <fstat>
   2472c:	00ffffc4 	movi	r3,-1
   24730:	10c00526 	beq	r2,r3,24748 <_fstat_r+0x48>
   24734:	dfc00217 	ldw	ra,8(sp)
   24738:	dc400117 	ldw	r17,4(sp)
   2473c:	dc000017 	ldw	r16,0(sp)
   24740:	dec00304 	addi	sp,sp,12
   24744:	f800283a 	ret
   24748:	80c00017 	ldw	r3,0(r16)
   2474c:	183ff926 	beq	r3,zero,24734 <_fstat_r+0x34>
   24750:	88c00015 	stw	r3,0(r17)
   24754:	dfc00217 	ldw	ra,8(sp)
   24758:	dc400117 	ldw	r17,4(sp)
   2475c:	dc000017 	ldw	r16,0(sp)
   24760:	dec00304 	addi	sp,sp,12
   24764:	f800283a 	ret

00024768 <_fwalk>:
   24768:	defff904 	addi	sp,sp,-28
   2476c:	dcc00315 	stw	r19,12(sp)
   24770:	24c0b804 	addi	r19,r4,736
   24774:	dd400515 	stw	r21,20(sp)
   24778:	dd000415 	stw	r20,16(sp)
   2477c:	dfc00615 	stw	ra,24(sp)
   24780:	dc800215 	stw	r18,8(sp)
   24784:	dc400115 	stw	r17,4(sp)
   24788:	dc000015 	stw	r16,0(sp)
   2478c:	282b883a 	mov	r21,r5
   24790:	0029883a 	mov	r20,zero
   24794:	00239f80 	call	239f8 <__sfp_lock_acquire>
   24798:	98001226 	beq	r19,zero,247e4 <_fwalk+0x7c>
   2479c:	04bfffc4 	movi	r18,-1
   247a0:	9c400117 	ldw	r17,4(r19)
   247a4:	9c000217 	ldw	r16,8(r19)
   247a8:	8c7fffc4 	addi	r17,r17,-1
   247ac:	88000b16 	blt	r17,zero,247dc <_fwalk+0x74>
   247b0:	84000304 	addi	r16,r16,12
   247b4:	80c0000f 	ldh	r3,0(r16)
   247b8:	8c7fffc4 	addi	r17,r17,-1
   247bc:	813ffd04 	addi	r4,r16,-12
   247c0:	18000426 	beq	r3,zero,247d4 <_fwalk+0x6c>
   247c4:	80c0008f 	ldh	r3,2(r16)
   247c8:	1c800226 	beq	r3,r18,247d4 <_fwalk+0x6c>
   247cc:	a83ee83a 	callr	r21
   247d0:	a0a8b03a 	or	r20,r20,r2
   247d4:	84001704 	addi	r16,r16,92
   247d8:	8cbff61e 	bne	r17,r18,247b4 <_fwalk+0x4c>
   247dc:	9cc00017 	ldw	r19,0(r19)
   247e0:	983fef1e 	bne	r19,zero,247a0 <_fwalk+0x38>
   247e4:	00239fc0 	call	239fc <__sfp_lock_release>
   247e8:	a005883a 	mov	r2,r20
   247ec:	dfc00617 	ldw	ra,24(sp)
   247f0:	dd400517 	ldw	r21,20(sp)
   247f4:	dd000417 	ldw	r20,16(sp)
   247f8:	dcc00317 	ldw	r19,12(sp)
   247fc:	dc800217 	ldw	r18,8(sp)
   24800:	dc400117 	ldw	r17,4(sp)
   24804:	dc000017 	ldw	r16,0(sp)
   24808:	dec00704 	addi	sp,sp,28
   2480c:	f800283a 	ret

00024810 <_fwalk_reent>:
   24810:	defff804 	addi	sp,sp,-32
   24814:	dcc00315 	stw	r19,12(sp)
   24818:	24c0b804 	addi	r19,r4,736
   2481c:	dd800615 	stw	r22,24(sp)
   24820:	dd400515 	stw	r21,20(sp)
   24824:	dd000415 	stw	r20,16(sp)
   24828:	dfc00715 	stw	ra,28(sp)
   2482c:	dc800215 	stw	r18,8(sp)
   24830:	dc400115 	stw	r17,4(sp)
   24834:	dc000015 	stw	r16,0(sp)
   24838:	2029883a 	mov	r20,r4
   2483c:	282b883a 	mov	r21,r5
   24840:	002d883a 	mov	r22,zero
   24844:	00239f80 	call	239f8 <__sfp_lock_acquire>
   24848:	98001326 	beq	r19,zero,24898 <_fwalk_reent+0x88>
   2484c:	04bfffc4 	movi	r18,-1
   24850:	9c400117 	ldw	r17,4(r19)
   24854:	9c000217 	ldw	r16,8(r19)
   24858:	8c7fffc4 	addi	r17,r17,-1
   2485c:	88000c16 	blt	r17,zero,24890 <_fwalk_reent+0x80>
   24860:	84000304 	addi	r16,r16,12
   24864:	80c0000f 	ldh	r3,0(r16)
   24868:	8c7fffc4 	addi	r17,r17,-1
   2486c:	817ffd04 	addi	r5,r16,-12
   24870:	18000526 	beq	r3,zero,24888 <_fwalk_reent+0x78>
   24874:	80c0008f 	ldh	r3,2(r16)
   24878:	a009883a 	mov	r4,r20
   2487c:	1c800226 	beq	r3,r18,24888 <_fwalk_reent+0x78>
   24880:	a83ee83a 	callr	r21
   24884:	b0acb03a 	or	r22,r22,r2
   24888:	84001704 	addi	r16,r16,92
   2488c:	8cbff51e 	bne	r17,r18,24864 <_fwalk_reent+0x54>
   24890:	9cc00017 	ldw	r19,0(r19)
   24894:	983fee1e 	bne	r19,zero,24850 <_fwalk_reent+0x40>
   24898:	00239fc0 	call	239fc <__sfp_lock_release>
   2489c:	b005883a 	mov	r2,r22
   248a0:	dfc00717 	ldw	ra,28(sp)
   248a4:	dd800617 	ldw	r22,24(sp)
   248a8:	dd400517 	ldw	r21,20(sp)
   248ac:	dd000417 	ldw	r20,16(sp)
   248b0:	dcc00317 	ldw	r19,12(sp)
   248b4:	dc800217 	ldw	r18,8(sp)
   248b8:	dc400117 	ldw	r17,4(sp)
   248bc:	dc000017 	ldw	r16,0(sp)
   248c0:	dec00804 	addi	sp,sp,32
   248c4:	f800283a 	ret

000248c8 <_fwrite_r>:
   248c8:	defff604 	addi	sp,sp,-40
   248cc:	dc000515 	stw	r16,20(sp)
   248d0:	d9400315 	stw	r5,12(sp)
   248d4:	2021883a 	mov	r16,r4
   248d8:	300b883a 	mov	r5,r6
   248dc:	3809883a 	mov	r4,r7
   248e0:	dcc00815 	stw	r19,32(sp)
   248e4:	dc800715 	stw	r18,28(sp)
   248e8:	dc400615 	stw	r17,24(sp)
   248ec:	dfc00915 	stw	ra,36(sp)
   248f0:	3027883a 	mov	r19,r6
   248f4:	3823883a 	mov	r17,r7
   248f8:	0022f500 	call	22f50 <__mulsi3>
   248fc:	1025883a 	mov	r18,r2
   24900:	d8800415 	stw	r2,16(sp)
   24904:	d8800215 	stw	r2,8(sp)
   24908:	d8800304 	addi	r2,sp,12
   2490c:	d8800015 	stw	r2,0(sp)
   24910:	00800044 	movi	r2,1
   24914:	d8800115 	stw	r2,4(sp)
   24918:	80000226 	beq	r16,zero,24924 <_fwrite_r+0x5c>
   2491c:	80800e17 	ldw	r2,56(r16)
   24920:	10001226 	beq	r2,zero,2496c <_fwrite_r+0xa4>
   24924:	d9400a17 	ldw	r5,40(sp)
   24928:	8009883a 	mov	r4,r16
   2492c:	d80d883a 	mov	r6,sp
   24930:	002ac800 	call	2ac80 <__sfvwrite_r>
   24934:	10000526 	beq	r2,zero,2494c <_fwrite_r+0x84>
   24938:	d9000217 	ldw	r4,8(sp)
   2493c:	980b883a 	mov	r5,r19
   24940:	9109c83a 	sub	r4,r18,r4
   24944:	0022f400 	call	22f40 <__udivsi3>
   24948:	1023883a 	mov	r17,r2
   2494c:	8805883a 	mov	r2,r17
   24950:	dfc00917 	ldw	ra,36(sp)
   24954:	dcc00817 	ldw	r19,32(sp)
   24958:	dc800717 	ldw	r18,28(sp)
   2495c:	dc400617 	ldw	r17,24(sp)
   24960:	dc000517 	ldw	r16,20(sp)
   24964:	dec00a04 	addi	sp,sp,40
   24968:	f800283a 	ret
   2496c:	8009883a 	mov	r4,r16
   24970:	00237f00 	call	237f0 <__sinit>
   24974:	003feb06 	br	24924 <_fwrite_r+0x5c>

00024978 <fwrite>:
   24978:	008000f4 	movhi	r2,3
   2497c:	1097aa04 	addi	r2,r2,24232
   24980:	2011883a 	mov	r8,r4
   24984:	11000017 	ldw	r4,0(r2)
   24988:	defffe04 	addi	sp,sp,-8
   2498c:	2807883a 	mov	r3,r5
   24990:	3005883a 	mov	r2,r6
   24994:	d9c00015 	stw	r7,0(sp)
   24998:	400b883a 	mov	r5,r8
   2499c:	180d883a 	mov	r6,r3
   249a0:	100f883a 	mov	r7,r2
   249a4:	dfc00115 	stw	ra,4(sp)
   249a8:	00248c80 	call	248c8 <_fwrite_r>
   249ac:	dfc00117 	ldw	ra,4(sp)
   249b0:	dec00204 	addi	sp,sp,8
   249b4:	f800283a 	ret

000249b8 <__smakebuf_r>:
   249b8:	2880030b 	ldhu	r2,12(r5)
   249bc:	deffed04 	addi	sp,sp,-76
   249c0:	dc401015 	stw	r17,64(sp)
   249c4:	10c0008c 	andi	r3,r2,2
   249c8:	18ffffcc 	andi	r3,r3,65535
   249cc:	18e0001c 	xori	r3,r3,32768
   249d0:	dc000f15 	stw	r16,60(sp)
   249d4:	dfc01215 	stw	ra,72(sp)
   249d8:	dc801115 	stw	r18,68(sp)
   249dc:	18e00004 	addi	r3,r3,-32768
   249e0:	2821883a 	mov	r16,r5
   249e4:	2023883a 	mov	r17,r4
   249e8:	1800381e 	bne	r3,zero,24acc <__smakebuf_r+0x114>
   249ec:	2940038f 	ldh	r5,14(r5)
   249f0:	28002d16 	blt	r5,zero,24aa8 <__smakebuf_r+0xf0>
   249f4:	d80d883a 	mov	r6,sp
   249f8:	00247000 	call	24700 <_fstat_r>
   249fc:	10002916 	blt	r2,zero,24aa4 <__smakebuf_r+0xec>
   24a00:	d8800117 	ldw	r2,4(sp)
   24a04:	00e00014 	movui	r3,32768
   24a08:	10bc000c 	andi	r2,r2,61440
   24a0c:	10c03c26 	beq	r2,r3,24b00 <__smakebuf_r+0x148>
   24a10:	80c0030b 	ldhu	r3,12(r16)
   24a14:	18c20014 	ori	r3,r3,2048
   24a18:	80c0030d 	sth	r3,12(r16)
   24a1c:	00c80004 	movi	r3,8192
   24a20:	10c00c1e 	bne	r2,r3,24a54 <__smakebuf_r+0x9c>
   24a24:	8140038f 	ldh	r5,14(r16)
   24a28:	8809883a 	mov	r4,r17
   24a2c:	002b1640 	call	2b164 <_isatty_r>
   24a30:	10000826 	beq	r2,zero,24a54 <__smakebuf_r+0x9c>
   24a34:	80c0030b 	ldhu	r3,12(r16)
   24a38:	808010c4 	addi	r2,r16,67
   24a3c:	80800015 	stw	r2,0(r16)
   24a40:	18c00054 	ori	r3,r3,1
   24a44:	80800415 	stw	r2,16(r16)
   24a48:	00800044 	movi	r2,1
   24a4c:	80c0030d 	sth	r3,12(r16)
   24a50:	80800515 	stw	r2,20(r16)
   24a54:	04810004 	movi	r18,1024
   24a58:	8809883a 	mov	r4,r17
   24a5c:	900b883a 	mov	r5,r18
   24a60:	0024b600 	call	24b60 <_malloc_r>
   24a64:	10003026 	beq	r2,zero,24b28 <__smakebuf_r+0x170>
   24a68:	80c0030b 	ldhu	r3,12(r16)
   24a6c:	010000b4 	movhi	r4,2
   24a70:	210dd704 	addi	r4,r4,14172
   24a74:	89000f15 	stw	r4,60(r17)
   24a78:	18c02014 	ori	r3,r3,128
   24a7c:	80c0030d 	sth	r3,12(r16)
   24a80:	80800015 	stw	r2,0(r16)
   24a84:	80800415 	stw	r2,16(r16)
   24a88:	84800515 	stw	r18,20(r16)
   24a8c:	dfc01217 	ldw	ra,72(sp)
   24a90:	dc801117 	ldw	r18,68(sp)
   24a94:	dc401017 	ldw	r17,64(sp)
   24a98:	dc000f17 	ldw	r16,60(sp)
   24a9c:	dec01304 	addi	sp,sp,76
   24aa0:	f800283a 	ret
   24aa4:	8080030b 	ldhu	r2,12(r16)
   24aa8:	10c0200c 	andi	r3,r2,128
   24aac:	18ffffcc 	andi	r3,r3,65535
   24ab0:	18e0001c 	xori	r3,r3,32768
   24ab4:	18e00004 	addi	r3,r3,-32768
   24ab8:	18000f1e 	bne	r3,zero,24af8 <__smakebuf_r+0x140>
   24abc:	04810004 	movi	r18,1024
   24ac0:	10820014 	ori	r2,r2,2048
   24ac4:	8080030d 	sth	r2,12(r16)
   24ac8:	003fe306 	br	24a58 <__smakebuf_r+0xa0>
   24acc:	288010c4 	addi	r2,r5,67
   24ad0:	28800015 	stw	r2,0(r5)
   24ad4:	28800415 	stw	r2,16(r5)
   24ad8:	00800044 	movi	r2,1
   24adc:	28800515 	stw	r2,20(r5)
   24ae0:	dfc01217 	ldw	ra,72(sp)
   24ae4:	dc801117 	ldw	r18,68(sp)
   24ae8:	dc401017 	ldw	r17,64(sp)
   24aec:	dc000f17 	ldw	r16,60(sp)
   24af0:	dec01304 	addi	sp,sp,76
   24af4:	f800283a 	ret
   24af8:	04801004 	movi	r18,64
   24afc:	003ff006 	br	24ac0 <__smakebuf_r+0x108>
   24b00:	81000a17 	ldw	r4,40(r16)
   24b04:	00c000b4 	movhi	r3,2
   24b08:	18d68004 	addi	r3,r3,23040
   24b0c:	20ffc01e 	bne	r4,r3,24a10 <__smakebuf_r+0x58>
   24b10:	8080030b 	ldhu	r2,12(r16)
   24b14:	00c10004 	movi	r3,1024
   24b18:	80c01315 	stw	r3,76(r16)
   24b1c:	10c4b03a 	or	r2,r2,r3
   24b20:	8080030d 	sth	r2,12(r16)
   24b24:	003fcb06 	br	24a54 <__smakebuf_r+0x9c>
   24b28:	8080030b 	ldhu	r2,12(r16)
   24b2c:	10c0800c 	andi	r3,r2,512
   24b30:	18ffffcc 	andi	r3,r3,65535
   24b34:	18e0001c 	xori	r3,r3,32768
   24b38:	18e00004 	addi	r3,r3,-32768
   24b3c:	183fd31e 	bne	r3,zero,24a8c <__smakebuf_r+0xd4>
   24b40:	10800094 	ori	r2,r2,2
   24b44:	80c010c4 	addi	r3,r16,67
   24b48:	8080030d 	sth	r2,12(r16)
   24b4c:	00800044 	movi	r2,1
   24b50:	80c00015 	stw	r3,0(r16)
   24b54:	80c00415 	stw	r3,16(r16)
   24b58:	80800515 	stw	r2,20(r16)
   24b5c:	003fcb06 	br	24a8c <__smakebuf_r+0xd4>

00024b60 <_malloc_r>:
   24b60:	defff604 	addi	sp,sp,-40
   24b64:	dc800215 	stw	r18,8(sp)
   24b68:	dfc00915 	stw	ra,36(sp)
   24b6c:	df000815 	stw	fp,32(sp)
   24b70:	ddc00715 	stw	r23,28(sp)
   24b74:	dd800615 	stw	r22,24(sp)
   24b78:	dd400515 	stw	r21,20(sp)
   24b7c:	dd000415 	stw	r20,16(sp)
   24b80:	dcc00315 	stw	r19,12(sp)
   24b84:	dc400115 	stw	r17,4(sp)
   24b88:	dc000015 	stw	r16,0(sp)
   24b8c:	288002c4 	addi	r2,r5,11
   24b90:	00c00584 	movi	r3,22
   24b94:	2025883a 	mov	r18,r4
   24b98:	18802b2e 	bgeu	r3,r2,24c48 <_malloc_r+0xe8>
   24b9c:	047ffe04 	movi	r17,-8
   24ba0:	1462703a 	and	r17,r2,r17
   24ba4:	88002a16 	blt	r17,zero,24c50 <_malloc_r+0xf0>
   24ba8:	89402936 	bltu	r17,r5,24c50 <_malloc_r+0xf0>
   24bac:	9009883a 	mov	r4,r18
   24bb0:	00328340 	call	32834 <__malloc_lock>
   24bb4:	00807dc4 	movi	r2,503
   24bb8:	14402936 	bltu	r2,r17,24c60 <_malloc_r+0x100>
   24bbc:	8808d0fa 	srli	r4,r17,3
   24bc0:	04c000f4 	movhi	r19,3
   24bc4:	9cd61b04 	addi	r19,r19,22636
   24bc8:	2105883a 	add	r2,r4,r4
   24bcc:	1085883a 	add	r2,r2,r2
   24bd0:	1085883a 	add	r2,r2,r2
   24bd4:	9885883a 	add	r2,r19,r2
   24bd8:	14000317 	ldw	r16,12(r2)
   24bdc:	80815526 	beq	r16,r2,25134 <_malloc_r+0x5d4>
   24be0:	81000117 	ldw	r4,4(r16)
   24be4:	00bfff04 	movi	r2,-4
   24be8:	80c00317 	ldw	r3,12(r16)
   24bec:	2084703a 	and	r2,r4,r2
   24bf0:	8085883a 	add	r2,r16,r2
   24bf4:	11800117 	ldw	r6,4(r2)
   24bf8:	81400217 	ldw	r5,8(r16)
   24bfc:	9009883a 	mov	r4,r18
   24c00:	31800054 	ori	r6,r6,1
   24c04:	11800115 	stw	r6,4(r2)
   24c08:	28c00315 	stw	r3,12(r5)
   24c0c:	19400215 	stw	r5,8(r3)
   24c10:	00328540 	call	32854 <__malloc_unlock>
   24c14:	80800204 	addi	r2,r16,8
   24c18:	dfc00917 	ldw	ra,36(sp)
   24c1c:	df000817 	ldw	fp,32(sp)
   24c20:	ddc00717 	ldw	r23,28(sp)
   24c24:	dd800617 	ldw	r22,24(sp)
   24c28:	dd400517 	ldw	r21,20(sp)
   24c2c:	dd000417 	ldw	r20,16(sp)
   24c30:	dcc00317 	ldw	r19,12(sp)
   24c34:	dc800217 	ldw	r18,8(sp)
   24c38:	dc400117 	ldw	r17,4(sp)
   24c3c:	dc000017 	ldw	r16,0(sp)
   24c40:	dec00a04 	addi	sp,sp,40
   24c44:	f800283a 	ret
   24c48:	04400404 	movi	r17,16
   24c4c:	897fd72e 	bgeu	r17,r5,24bac <_malloc_r+0x4c>
   24c50:	00800304 	movi	r2,12
   24c54:	90800015 	stw	r2,0(r18)
   24c58:	0005883a 	mov	r2,zero
   24c5c:	003fee06 	br	24c18 <_malloc_r+0xb8>
   24c60:	8808d27a 	srli	r4,r17,9
   24c64:	20007126 	beq	r4,zero,24e2c <_malloc_r+0x2cc>
   24c68:	00800104 	movi	r2,4
   24c6c:	1100eb36 	bltu	r2,r4,2501c <_malloc_r+0x4bc>
   24c70:	8808d1ba 	srli	r4,r17,6
   24c74:	21000e04 	addi	r4,r4,56
   24c78:	210b883a 	add	r5,r4,r4
   24c7c:	294b883a 	add	r5,r5,r5
   24c80:	294b883a 	add	r5,r5,r5
   24c84:	04c000f4 	movhi	r19,3
   24c88:	9cd61b04 	addi	r19,r19,22636
   24c8c:	994b883a 	add	r5,r19,r5
   24c90:	2c000317 	ldw	r16,12(r5)
   24c94:	2c000e26 	beq	r5,r16,24cd0 <_malloc_r+0x170>
   24c98:	80c00117 	ldw	r3,4(r16)
   24c9c:	01ffff04 	movi	r7,-4
   24ca0:	018003c4 	movi	r6,15
   24ca4:	19c6703a 	and	r3,r3,r7
   24ca8:	1c45c83a 	sub	r2,r3,r17
   24cac:	30800716 	blt	r6,r2,24ccc <_malloc_r+0x16c>
   24cb0:	1000610e 	bge	r2,zero,24e38 <_malloc_r+0x2d8>
   24cb4:	84000317 	ldw	r16,12(r16)
   24cb8:	2c000526 	beq	r5,r16,24cd0 <_malloc_r+0x170>
   24cbc:	80c00117 	ldw	r3,4(r16)
   24cc0:	19c6703a 	and	r3,r3,r7
   24cc4:	1c45c83a 	sub	r2,r3,r17
   24cc8:	30bff90e 	bge	r6,r2,24cb0 <_malloc_r+0x150>
   24ccc:	213fffc4 	addi	r4,r4,-1
   24cd0:	21000044 	addi	r4,r4,1
   24cd4:	9c000417 	ldw	r16,16(r19)
   24cd8:	00c000f4 	movhi	r3,3
   24cdc:	18d61b04 	addi	r3,r3,22636
   24ce0:	1a400204 	addi	r9,r3,8
   24ce4:	8240ff26 	beq	r16,r9,250e4 <_malloc_r+0x584>
   24ce8:	81400117 	ldw	r5,4(r16)
   24cec:	00bfff04 	movi	r2,-4
   24cf0:	018003c4 	movi	r6,15
   24cf4:	2884703a 	and	r2,r5,r2
   24cf8:	144bc83a 	sub	r5,r2,r17
   24cfc:	3140ea16 	blt	r6,r5,250a8 <_malloc_r+0x548>
   24d00:	1a400515 	stw	r9,20(r3)
   24d04:	1a400415 	stw	r9,16(r3)
   24d08:	2800570e 	bge	r5,zero,24e68 <_malloc_r+0x308>
   24d0c:	01407fc4 	movi	r5,511
   24d10:	2880ca36 	bltu	r5,r2,2503c <_malloc_r+0x4dc>
   24d14:	1004d0fa 	srli	r2,r2,3
   24d18:	02000044 	movi	r8,1
   24d1c:	19c00117 	ldw	r7,4(r3)
   24d20:	108b883a 	add	r5,r2,r2
   24d24:	294b883a 	add	r5,r5,r5
   24d28:	1005d0ba 	srai	r2,r2,2
   24d2c:	294b883a 	add	r5,r5,r5
   24d30:	28cb883a 	add	r5,r5,r3
   24d34:	29800217 	ldw	r6,8(r5)
   24d38:	4084983a 	sll	r2,r8,r2
   24d3c:	81400315 	stw	r5,12(r16)
   24d40:	81800215 	stw	r6,8(r16)
   24d44:	11c4b03a 	or	r2,r2,r7
   24d48:	18800115 	stw	r2,4(r3)
   24d4c:	2c000215 	stw	r16,8(r5)
   24d50:	34000315 	stw	r16,12(r6)
   24d54:	200bd0ba 	srai	r5,r4,2
   24d58:	00c00044 	movi	r3,1
   24d5c:	194a983a 	sll	r5,r3,r5
   24d60:	11404936 	bltu	r2,r5,24e88 <_malloc_r+0x328>
   24d64:	1146703a 	and	r3,r2,r5
   24d68:	18000a1e 	bne	r3,zero,24d94 <_malloc_r+0x234>
   24d6c:	00ffff04 	movi	r3,-4
   24d70:	294b883a 	add	r5,r5,r5
   24d74:	20c8703a 	and	r4,r4,r3
   24d78:	1146703a 	and	r3,r2,r5
   24d7c:	21000104 	addi	r4,r4,4
   24d80:	1800041e 	bne	r3,zero,24d94 <_malloc_r+0x234>
   24d84:	294b883a 	add	r5,r5,r5
   24d88:	1146703a 	and	r3,r2,r5
   24d8c:	21000104 	addi	r4,r4,4
   24d90:	183ffc26 	beq	r3,zero,24d84 <_malloc_r+0x224>
   24d94:	023fff04 	movi	r8,-4
   24d98:	01c003c4 	movi	r7,15
   24d9c:	2105883a 	add	r2,r4,r4
   24da0:	1085883a 	add	r2,r2,r2
   24da4:	1085883a 	add	r2,r2,r2
   24da8:	9899883a 	add	r12,r19,r2
   24dac:	62800304 	addi	r10,r12,12
   24db0:	2017883a 	mov	r11,r4
   24db4:	54000017 	ldw	r16,0(r10)
   24db8:	51bffd04 	addi	r6,r10,-12
   24dbc:	8180041e 	bne	r16,r6,24dd0 <_malloc_r+0x270>
   24dc0:	0000ca06 	br	250ec <_malloc_r+0x58c>
   24dc4:	10001c0e 	bge	r2,zero,24e38 <_malloc_r+0x2d8>
   24dc8:	84000317 	ldw	r16,12(r16)
   24dcc:	8180c726 	beq	r16,r6,250ec <_malloc_r+0x58c>
   24dd0:	80c00117 	ldw	r3,4(r16)
   24dd4:	1a06703a 	and	r3,r3,r8
   24dd8:	1c45c83a 	sub	r2,r3,r17
   24ddc:	38bff90e 	bge	r7,r2,24dc4 <_malloc_r+0x264>
   24de0:	81000317 	ldw	r4,12(r16)
   24de4:	81400217 	ldw	r5,8(r16)
   24de8:	8447883a 	add	r3,r16,r17
   24dec:	8c400054 	ori	r17,r17,1
   24df0:	29000315 	stw	r4,12(r5)
   24df4:	21400215 	stw	r5,8(r4)
   24df8:	84400115 	stw	r17,4(r16)
   24dfc:	1889883a 	add	r4,r3,r2
   24e00:	11400054 	ori	r5,r2,1
   24e04:	98c00515 	stw	r3,20(r19)
   24e08:	98c00415 	stw	r3,16(r19)
   24e0c:	20800015 	stw	r2,0(r4)
   24e10:	1a400315 	stw	r9,12(r3)
   24e14:	1a400215 	stw	r9,8(r3)
   24e18:	19400115 	stw	r5,4(r3)
   24e1c:	9009883a 	mov	r4,r18
   24e20:	00328540 	call	32854 <__malloc_unlock>
   24e24:	80800204 	addi	r2,r16,8
   24e28:	003f7b06 	br	24c18 <_malloc_r+0xb8>
   24e2c:	8808d0fa 	srli	r4,r17,3
   24e30:	210b883a 	add	r5,r4,r4
   24e34:	003f9106 	br	24c7c <_malloc_r+0x11c>
   24e38:	80c7883a 	add	r3,r16,r3
   24e3c:	19400117 	ldw	r5,4(r3)
   24e40:	80800317 	ldw	r2,12(r16)
   24e44:	81000217 	ldw	r4,8(r16)
   24e48:	29400054 	ori	r5,r5,1
   24e4c:	19400115 	stw	r5,4(r3)
   24e50:	20800315 	stw	r2,12(r4)
   24e54:	11000215 	stw	r4,8(r2)
   24e58:	9009883a 	mov	r4,r18
   24e5c:	00328540 	call	32854 <__malloc_unlock>
   24e60:	80800204 	addi	r2,r16,8
   24e64:	003f6c06 	br	24c18 <_malloc_r+0xb8>
   24e68:	8085883a 	add	r2,r16,r2
   24e6c:	10c00117 	ldw	r3,4(r2)
   24e70:	9009883a 	mov	r4,r18
   24e74:	18c00054 	ori	r3,r3,1
   24e78:	10c00115 	stw	r3,4(r2)
   24e7c:	00328540 	call	32854 <__malloc_unlock>
   24e80:	80800204 	addi	r2,r16,8
   24e84:	003f6406 	br	24c18 <_malloc_r+0xb8>
   24e88:	9c000217 	ldw	r16,8(r19)
   24e8c:	00bfff04 	movi	r2,-4
   24e90:	85400117 	ldw	r21,4(r16)
   24e94:	a8aa703a 	and	r21,r21,r2
   24e98:	ac400336 	bltu	r21,r17,24ea8 <_malloc_r+0x348>
   24e9c:	ac45c83a 	sub	r2,r21,r17
   24ea0:	00c003c4 	movi	r3,15
   24ea4:	18805316 	blt	r3,r2,24ff4 <_malloc_r+0x494>
   24ea8:	d5e2eb17 	ldw	r23,-29780(gp)
   24eac:	d0e00217 	ldw	r3,-32760(gp)
   24eb0:	00bfffc4 	movi	r2,-1
   24eb4:	8579883a 	add	fp,r16,r21
   24eb8:	8def883a 	add	r23,r17,r23
   24ebc:	1880d226 	beq	r3,r2,25208 <_malloc_r+0x6a8>
   24ec0:	bdc403c4 	addi	r23,r23,4111
   24ec4:	00bc0004 	movi	r2,-4096
   24ec8:	b8ae703a 	and	r23,r23,r2
   24ecc:	9009883a 	mov	r4,r18
   24ed0:	b80b883a 	mov	r5,r23
   24ed4:	00258c00 	call	258c0 <_sbrk_r>
   24ed8:	1029883a 	mov	r20,r2
   24edc:	00bfffc4 	movi	r2,-1
   24ee0:	a080d126 	beq	r20,r2,25228 <_malloc_r+0x6c8>
   24ee4:	a7009f36 	bltu	r20,fp,25164 <_malloc_r+0x604>
   24ee8:	058000f4 	movhi	r22,3
   24eec:	b59a9d04 	addi	r22,r22,27252
   24ef0:	b0800017 	ldw	r2,0(r22)
   24ef4:	b885883a 	add	r2,r23,r2
   24ef8:	b0800015 	stw	r2,0(r22)
   24efc:	e500cf26 	beq	fp,r20,2523c <_malloc_r+0x6dc>
   24f00:	d1200217 	ldw	r4,-32760(gp)
   24f04:	00ffffc4 	movi	r3,-1
   24f08:	20c0e026 	beq	r4,r3,2528c <_malloc_r+0x72c>
   24f0c:	a739c83a 	sub	fp,r20,fp
   24f10:	1705883a 	add	r2,r2,fp
   24f14:	b0800015 	stw	r2,0(r22)
   24f18:	a08001cc 	andi	r2,r20,7
   24f1c:	1000a526 	beq	r2,zero,251b4 <_malloc_r+0x654>
   24f20:	a0a9c83a 	sub	r20,r20,r2
   24f24:	00c40204 	movi	r3,4104
   24f28:	a5000204 	addi	r20,r20,8
   24f2c:	1885c83a 	sub	r2,r3,r2
   24f30:	a5c7883a 	add	r3,r20,r23
   24f34:	18c3ffcc 	andi	r3,r3,4095
   24f38:	10efc83a 	sub	r23,r2,r3
   24f3c:	9009883a 	mov	r4,r18
   24f40:	b80b883a 	mov	r5,r23
   24f44:	00258c00 	call	258c0 <_sbrk_r>
   24f48:	00ffffc4 	movi	r3,-1
   24f4c:	10c0cc26 	beq	r2,r3,25280 <_malloc_r+0x720>
   24f50:	1505c83a 	sub	r2,r2,r20
   24f54:	b887883a 	add	r3,r23,r2
   24f58:	18c00054 	ori	r3,r3,1
   24f5c:	b0800017 	ldw	r2,0(r22)
   24f60:	9d000215 	stw	r20,8(r19)
   24f64:	a0c00115 	stw	r3,4(r20)
   24f68:	b885883a 	add	r2,r23,r2
   24f6c:	b0800015 	stw	r2,0(r22)
   24f70:	84c00e26 	beq	r16,r19,24fac <_malloc_r+0x44c>
   24f74:	00c003c4 	movi	r3,15
   24f78:	1d40902e 	bgeu	r3,r21,251bc <_malloc_r+0x65c>
   24f7c:	ad7ffd04 	addi	r21,r21,-12
   24f80:	013ffe04 	movi	r4,-8
   24f84:	a908703a 	and	r4,r21,r4
   24f88:	810b883a 	add	r5,r16,r4
   24f8c:	01800144 	movi	r6,5
   24f90:	29800115 	stw	r6,4(r5)
   24f94:	29800215 	stw	r6,8(r5)
   24f98:	81400117 	ldw	r5,4(r16)
   24f9c:	2940004c 	andi	r5,r5,1
   24fa0:	214ab03a 	or	r5,r4,r5
   24fa4:	81400115 	stw	r5,4(r16)
   24fa8:	1900ae36 	bltu	r3,r4,25264 <_malloc_r+0x704>
   24fac:	d0e2ea17 	ldw	r3,-29784(gp)
   24fb0:	1880012e 	bgeu	r3,r2,24fb8 <_malloc_r+0x458>
   24fb4:	d0a2ea15 	stw	r2,-29784(gp)
   24fb8:	d0e2e917 	ldw	r3,-29788(gp)
   24fbc:	9c000217 	ldw	r16,8(r19)
   24fc0:	1880012e 	bgeu	r3,r2,24fc8 <_malloc_r+0x468>
   24fc4:	d0a2e915 	stw	r2,-29788(gp)
   24fc8:	80c00117 	ldw	r3,4(r16)
   24fcc:	00bfff04 	movi	r2,-4
   24fd0:	1886703a 	and	r3,r3,r2
   24fd4:	1c45c83a 	sub	r2,r3,r17
   24fd8:	1c400236 	bltu	r3,r17,24fe4 <_malloc_r+0x484>
   24fdc:	00c003c4 	movi	r3,15
   24fe0:	18800416 	blt	r3,r2,24ff4 <_malloc_r+0x494>
   24fe4:	9009883a 	mov	r4,r18
   24fe8:	00328540 	call	32854 <__malloc_unlock>
   24fec:	0005883a 	mov	r2,zero
   24ff0:	003f0906 	br	24c18 <_malloc_r+0xb8>
   24ff4:	88c00054 	ori	r3,r17,1
   24ff8:	10800054 	ori	r2,r2,1
   24ffc:	80c00115 	stw	r3,4(r16)
   25000:	8463883a 	add	r17,r16,r17
   25004:	88800115 	stw	r2,4(r17)
   25008:	9009883a 	mov	r4,r18
   2500c:	9c400215 	stw	r17,8(r19)
   25010:	00328540 	call	32854 <__malloc_unlock>
   25014:	80800204 	addi	r2,r16,8
   25018:	003eff06 	br	24c18 <_malloc_r+0xb8>
   2501c:	00800504 	movi	r2,20
   25020:	1100492e 	bgeu	r2,r4,25148 <_malloc_r+0x5e8>
   25024:	00801504 	movi	r2,84
   25028:	11005c36 	bltu	r2,r4,2519c <_malloc_r+0x63c>
   2502c:	8808d33a 	srli	r4,r17,12
   25030:	21001b84 	addi	r4,r4,110
